	.file	"Template.cpp"
	.section	.text._ZnwmPv,"axG",@progbits,_ZnwmPv,comdat
	.align 2
	.weak	_ZnwmPv
	.type	_ZnwmPv, @function
_ZnwmPv:
.LFB214:
	pushq	%rbp
.LCFI0:
	movq	%rsp, %rbp
.LCFI1:
	movq	%rdi, -8(%rbp)
	movq	%rsi, -16(%rbp)
	movq	-16(%rbp), %rax
	leave
	ret
.LFE214:
	.size	_ZnwmPv, .-_ZnwmPv
.globl __gxx_personality_v0
	.section	.text._ZdlPvS_,"axG",@progbits,_ZdlPvS_,comdat
	.align 2
	.weak	_ZdlPvS_
	.type	_ZdlPvS_, @function
_ZdlPvS_:
.LFB216:
	pushq	%rbp
.LCFI2:
	movq	%rsp, %rbp
.LCFI3:
	movq	%rdi, -8(%rbp)
	movq	%rsi, -16(%rbp)
	leave
	ret
.LFE216:
	.size	_ZdlPvS_, .-_ZdlPvS_
	.section	.text._ZN3Upp12SwapEndian16Et,"axG",@progbits,_ZN3Upp12SwapEndian16Et,comdat
	.align 2
	.weak	_ZN3Upp12SwapEndian16Et
	.type	_ZN3Upp12SwapEndian16Et, @function
_ZN3Upp12SwapEndian16Et:
.LFB918:
	pushq	%rbp
.LCFI4:
	movq	%rsp, %rbp
.LCFI5:
	movw	%di, -4(%rbp)
	movzwl	-4(%rbp), %eax
#APP
	xchgb %al,%ah
#NO_APP
	movw	%ax, -4(%rbp)
	movzwl	-4(%rbp), %eax
	leave
	ret
.LFE918:
	.size	_ZN3Upp12SwapEndian16Et, .-_ZN3Upp12SwapEndian16Et
	.section	.text._ZN3Upp12SwapEndian32Ej,"axG",@progbits,_ZN3Upp12SwapEndian32Ej,comdat
	.align 2
	.weak	_ZN3Upp12SwapEndian32Ej
	.type	_ZN3Upp12SwapEndian32Ej, @function
_ZN3Upp12SwapEndian32Ej:
.LFB920:
	pushq	%rbp
.LCFI6:
	movq	%rsp, %rbp
.LCFI7:
	movl	%edi, -4(%rbp)
	movl	-4(%rbp), %eax
#APP
	bswap %eax
#NO_APP
	movl	%eax, -4(%rbp)
	movl	-4(%rbp), %eax
	leave
	ret
.LFE920:
	.size	_ZN3Upp12SwapEndian32Ej, .-_ZN3Upp12SwapEndian32Ej
	.section	.text._ZN3Upp12SwapEndian64Ey,"axG",@progbits,_ZN3Upp12SwapEndian64Ey,comdat
	.align 2
	.weak	_ZN3Upp12SwapEndian64Ey
	.type	_ZN3Upp12SwapEndian64Ey, @function
_ZN3Upp12SwapEndian64Ey:
.LFB926:
	pushq	%rbp
.LCFI8:
	movq	%rsp, %rbp
.LCFI9:
	movq	%rdi, -8(%rbp)
	movq	-8(%rbp), %rax
#APP
	bswap %rax
#NO_APP
	movq	%rax, -8(%rbp)
	movq	-8(%rbp), %rax
	leave
	ret
.LFE926:
	.size	_ZN3Upp12SwapEndian64Ey, .-_ZN3Upp12SwapEndian64Ey
	.section	.text._ZN3Upp8cmpval__Ec,"axG",@progbits,_ZN3Upp8cmpval__Ec,comdat
	.align 2
	.weak	_ZN3Upp8cmpval__Ec
	.type	_ZN3Upp8cmpval__Ec, @function
_ZN3Upp8cmpval__Ec:
.LFB1161:
	pushq	%rbp
.LCFI10:
	movq	%rsp, %rbp
.LCFI11:
	movb	%dil, -4(%rbp)
	movzbl	-4(%rbp), %eax
	movzbl	%al, %eax
	leave
	ret
.LFE1161:
	.size	_ZN3Upp8cmpval__Ec, .-_ZN3Upp8cmpval__Ec
	.section	.text._ZN3Upp7String04DsynEv,"axG",@progbits,_ZN3Upp7String04DsynEv,comdat
	.align 2
	.weak	_ZN3Upp7String04DsynEv
	.type	_ZN3Upp7String04DsynEv, @function
_ZN3Upp7String04DsynEv:
.LFB1225:
	pushq	%rbp
.LCFI12:
	movq	%rsp, %rbp
.LCFI13:
	movq	%rdi, -8(%rbp)
	leave
	ret
.LFE1225:
	.size	_ZN3Upp7String04DsynEv, .-_ZN3Upp7String04DsynEv
	.section	.text._ZN3Upp7String04SLenEv,"axG",@progbits,_ZN3Upp7String04SLenEv,comdat
	.align 2
	.weak	_ZN3Upp7String04SLenEv
	.type	_ZN3Upp7String04SLenEv, @function
_ZN3Upp7String04SLenEv:
.LFB1226:
	pushq	%rbp
.LCFI14:
	movq	%rsp, %rbp
.LCFI15:
	movq	%rdi, -8(%rbp)
	movq	-8(%rbp), %rax
	addq	$15, %rax
	leave
	ret
.LFE1226:
	.size	_ZN3Upp7String04SLenEv, .-_ZN3Upp7String04SLenEv
	.section	.text._ZNK3Upp7String07IsSmallEv,"axG",@progbits,_ZNK3Upp7String07IsSmallEv,comdat
	.align 2
	.weak	_ZNK3Upp7String07IsSmallEv
	.type	_ZNK3Upp7String07IsSmallEv, @function
_ZNK3Upp7String07IsSmallEv:
.LFB1230:
	pushq	%rbp
.LCFI16:
	movq	%rsp, %rbp
.LCFI17:
	movq	%rdi, -8(%rbp)
	movq	-8(%rbp), %rax
	movzbl	14(%rax), %eax
	testb	%al, %al
	sete	%al
	movzbl	%al, %eax
	leave
	ret
.LFE1230:
	.size	_ZNK3Upp7String07IsSmallEv, .-_ZNK3Upp7String07IsSmallEv
	.section	.text._ZNK3Upp7String07IsLargeEv,"axG",@progbits,_ZNK3Upp7String07IsLargeEv,comdat
	.align 2
	.weak	_ZNK3Upp7String07IsLargeEv
	.type	_ZNK3Upp7String07IsLargeEv, @function
_ZNK3Upp7String07IsLargeEv:
.LFB1231:
	pushq	%rbp
.LCFI18:
	movq	%rsp, %rbp
.LCFI19:
	movq	%rdi, -8(%rbp)
	movq	-8(%rbp), %rax
	movzbl	14(%rax), %eax
	testb	%al, %al
	setne	%al
	movzbl	%al, %eax
	leave
	ret
.LFE1231:
	.size	_ZNK3Upp7String07IsLargeEv, .-_ZNK3Upp7String07IsLargeEv
	.section	.text._ZN3Upp7String04ZeroEv,"axG",@progbits,_ZN3Upp7String04ZeroEv,comdat
	.align 2
	.weak	_ZN3Upp7String04ZeroEv
	.type	_ZN3Upp7String04ZeroEv, @function
_ZN3Upp7String04ZeroEv:
.LFB1240:
	pushq	%rbp
.LCFI20:
	movq	%rsp, %rbp
.LCFI21:
	subq	$16, %rsp
.LCFI22:
	movq	%rdi, -8(%rbp)
	movq	-8(%rbp), %rax
	movq	$0, 8(%rax)
	movq	-8(%rbp), %rax
	movq	8(%rax), %rdx
	movq	-8(%rbp), %rax
	movq	%rdx, (%rax)
	movq	-8(%rbp), %rdi
	call	_ZN3Upp7String04DsynEv
	leave
	ret
.LFE1240:
	.size	_ZN3Upp7String04ZeroEv, .-_ZN3Upp7String04ZeroEv
	.section	.text._ZNK3Upp7String05BeginEv,"axG",@progbits,_ZNK3Upp7String05BeginEv,comdat
	.align 2
	.weak	_ZNK3Upp7String05BeginEv
	.type	_ZNK3Upp7String05BeginEv, @function
_ZNK3Upp7String05BeginEv:
.LFB1247:
	pushq	%rbp
.LCFI23:
	movq	%rsp, %rbp
.LCFI24:
	subq	$16, %rsp
.LCFI25:
	movq	%rdi, -8(%rbp)
	movq	-8(%rbp), %rdi
	call	_ZNK3Upp7String07IsSmallEv
	testb	%al, %al
	je	.L24
	movq	-8(%rbp), %rax
	movq	%rax, -16(%rbp)
	jmp	.L26
.L24:
	movq	-8(%rbp), %rax
	movq	(%rax), %rax
	movq	%rax, -16(%rbp)
.L26:
	movq	-16(%rbp), %rax
	leave
	ret
.LFE1247:
	.size	_ZNK3Upp7String05BeginEv, .-_ZNK3Upp7String05BeginEv
	.section	.text._ZNK3Upp7String08GetCountEv,"axG",@progbits,_ZNK3Upp7String08GetCountEv,comdat
	.align 2
	.weak	_ZNK3Upp7String08GetCountEv
	.type	_ZNK3Upp7String08GetCountEv, @function
_ZNK3Upp7String08GetCountEv:
.LFB1253:
	pushq	%rbp
.LCFI26:
	movq	%rsp, %rbp
.LCFI27:
	subq	$16, %rsp
.LCFI28:
	movq	%rdi, -8(%rbp)
	movq	-8(%rbp), %rdi
	call	_ZNK3Upp7String07IsSmallEv
	testb	%al, %al
	je	.L29
	movq	-8(%rbp), %rax
	movzbl	15(%rax), %eax
	movsbl	%al,%eax
	movl	%eax, -12(%rbp)
	jmp	.L31
.L29:
	movq	-8(%rbp), %rax
	movl	8(%rax), %eax
	movl	%eax, -12(%rbp)
.L31:
	movl	-12(%rbp), %eax
	leave
	ret
.LFE1253:
	.size	_ZNK3Upp7String08GetCountEv, .-_ZNK3Upp7String08GetCountEv
	.section	.text._ZN3Upp8MoveableINS_7String0ENS_10EmptyClassEEC2Ev,"axG",@progbits,_ZN3Upp8MoveableINS_7String0ENS_10EmptyClassEEC2Ev,comdat
	.align 2
	.weak	_ZN3Upp8MoveableINS_7String0ENS_10EmptyClassEEC2Ev
	.type	_ZN3Upp8MoveableINS_7String0ENS_10EmptyClassEEC2Ev, @function
_ZN3Upp8MoveableINS_7String0ENS_10EmptyClassEEC2Ev:
.LFB1259:
	pushq	%rbp
.LCFI29:
	movq	%rsp, %rbp
.LCFI30:
	movq	%rdi, -8(%rbp)
	leave
	ret
.LFE1259:
	.size	_ZN3Upp8MoveableINS_7String0ENS_10EmptyClassEEC2Ev, .-_ZN3Upp8MoveableINS_7String0ENS_10EmptyClassEEC2Ev
	.section	.text._ZN3Upp7String0C2Ev,"axG",@progbits,_ZN3Upp7String0C2Ev,comdat
	.align 2
	.weak	_ZN3Upp7String0C2Ev
	.type	_ZN3Upp7String0C2Ev, @function
_ZN3Upp7String0C2Ev:
.LFB1261:
	pushq	%rbp
.LCFI31:
	movq	%rsp, %rbp
.LCFI32:
	subq	$16, %rsp
.LCFI33:
	movq	%rdi, -8(%rbp)
	movq	-8(%rbp), %rdi
	call	_ZN3Upp8MoveableINS_7String0ENS_10EmptyClassEEC2Ev
	movq	-8(%rbp), %rdi
	call	_ZN3Upp7String04ZeroEv
	leave
	ret
.LFE1261:
	.size	_ZN3Upp7String0C2Ev, .-_ZN3Upp7String0C2Ev
	.section	.text._ZN3Upp7AStringINS_7String0EEC2Ev,"axG",@progbits,_ZN3Upp7AStringINS_7String0EEC2Ev,comdat
	.align 2
	.weak	_ZN3Upp7AStringINS_7String0EEC2Ev
	.type	_ZN3Upp7AStringINS_7String0EEC2Ev, @function
_ZN3Upp7AStringINS_7String0EEC2Ev:
.LFB1286:
	pushq	%rbp
.LCFI34:
	movq	%rsp, %rbp
.LCFI35:
	subq	$16, %rsp
.LCFI36:
	movq	%rdi, -8(%rbp)
	movq	-8(%rbp), %rdi
	call	_ZN3Upp7String0C2Ev
	leave
	ret
.LFE1286:
	.size	_ZN3Upp7AStringINS_7String0EEC2Ev, .-_ZN3Upp7AStringINS_7String0EEC2Ev
	.section	.text._ZN3Upp8MoveableINS_6StringENS_7AStringINS_7String0EEEEC2Ev,"axG",@progbits,_ZN3Upp8MoveableINS_6StringENS_7AStringINS_7String0EEEEC2Ev,comdat
	.align 2
	.weak	_ZN3Upp8MoveableINS_6StringENS_7AStringINS_7String0EEEEC2Ev
	.type	_ZN3Upp8MoveableINS_6StringENS_7AStringINS_7String0EEEEC2Ev, @function
_ZN3Upp8MoveableINS_6StringENS_7AStringINS_7String0EEEEC2Ev:
.LFB1288:
	pushq	%rbp
.LCFI37:
	movq	%rsp, %rbp
.LCFI38:
	subq	$16, %rsp
.LCFI39:
	movq	%rdi, -8(%rbp)
	movq	-8(%rbp), %rdi
	call	_ZN3Upp7AStringINS_7String0EEC2Ev
	leave
	ret
.LFE1288:
	.size	_ZN3Upp8MoveableINS_6StringENS_7AStringINS_7String0EEEEC2Ev, .-_ZN3Upp8MoveableINS_6StringENS_7AStringINS_7String0EEEEC2Ev
	.section	.text._ZN3Upp6StringC1Ev,"axG",@progbits,_ZN3Upp6StringC1Ev,comdat
	.align 2
	.weak	_ZN3Upp6StringC1Ev
	.type	_ZN3Upp6StringC1Ev, @function
_ZN3Upp6StringC1Ev:
.LFB1291:
	pushq	%rbp
.LCFI40:
	movq	%rsp, %rbp
.LCFI41:
	subq	$16, %rsp
.LCFI42:
	movq	%rdi, -8(%rbp)
	movq	-8(%rbp), %rdi
	call	_ZN3Upp8MoveableINS_6StringENS_7AStringINS_7String0EEEEC2Ev
	leave
	ret
.LFE1291:
	.size	_ZN3Upp6StringC1Ev, .-_ZN3Upp6StringC1Ev
	.section	.text._ZNK3Upp8WString05BeginEv,"axG",@progbits,_ZNK3Upp8WString05BeginEv,comdat
	.align 2
	.weak	_ZNK3Upp8WString05BeginEv
	.type	_ZNK3Upp8WString05BeginEv, @function
_ZNK3Upp8WString05BeginEv:
.LFB1386:
	pushq	%rbp
.LCFI43:
	movq	%rsp, %rbp
.LCFI44:
	movq	%rdi, -8(%rbp)
	movq	-8(%rbp), %rax
	movq	(%rax), %rax
	leave
	ret
.LFE1386:
	.size	_ZNK3Upp8WString05BeginEv, .-_ZNK3Upp8WString05BeginEv
	.section	.text._ZNK3Upp8WString08GetCountEv,"axG",@progbits,_ZNK3Upp8WString08GetCountEv,comdat
	.align 2
	.weak	_ZNK3Upp8WString08GetCountEv
	.type	_ZNK3Upp8WString08GetCountEv, @function
_ZNK3Upp8WString08GetCountEv:
.LFB1392:
	pushq	%rbp
.LCFI45:
	movq	%rsp, %rbp
.LCFI46:
	movq	%rdi, -8(%rbp)
	movq	-8(%rbp), %rax
	movl	8(%rax), %eax
	leave
	ret
.LFE1392:
	.size	_ZNK3Upp8WString08GetCountEv, .-_ZNK3Upp8WString08GetCountEv
	.section	.text._ZN3Upp7IsUpperEi,"axG",@progbits,_ZN3Upp7IsUpperEi,comdat
	.align 2
	.weak	_ZN3Upp7IsUpperEi
	.type	_ZN3Upp7IsUpperEi, @function
_ZN3Upp7IsUpperEi:
.LFB1512:
	pushq	%rbp
.LCFI47:
	movq	%rsp, %rbp
.LCFI48:
	movl	%edi, -4(%rbp)
	movl	-4(%rbp), %eax
	cmpl	$2047, %eax
	ja	.L48
	movl	-4(%rbp), %eax
	cltq
	movl	_ZN3Upp9uni__infoE(,%rax,4), %eax
	andl	$1073741824, %eax
	testl	%eax, %eax
	je	.L48
	movb	$1, -5(%rbp)
	jmp	.L51
.L48:
	movb	$0, -5(%rbp)
.L51:
	movzbl	-5(%rbp), %eax
	leave
	ret
.LFE1512:
	.size	_ZN3Upp7IsUpperEi, .-_ZN3Upp7IsUpperEi
	.section	.text._ZN3Upp7IsLowerEi,"axG",@progbits,_ZN3Upp7IsLowerEi,comdat
	.align 2
	.weak	_ZN3Upp7IsLowerEi
	.type	_ZN3Upp7IsLowerEi, @function
_ZN3Upp7IsLowerEi:
.LFB1513:
	pushq	%rbp
.LCFI49:
	movq	%rsp, %rbp
.LCFI50:
	movl	%edi, -4(%rbp)
	movl	-4(%rbp), %eax
	cmpl	$2047, %eax
	ja	.L54
	movl	-4(%rbp), %eax
	cltq
	movl	_ZN3Upp9uni__infoE(,%rax,4), %eax
	testl	%eax, %eax
	jns	.L54
	movb	$1, -5(%rbp)
	jmp	.L57
.L54:
	movb	$0, -5(%rbp)
.L57:
	movzbl	-5(%rbp), %eax
	leave
	ret
.LFE1513:
	.size	_ZN3Upp7IsLowerEi, .-_ZN3Upp7IsLowerEi
	.section	.text._ZN3Upp7ToUpperEi,"axG",@progbits,_ZN3Upp7ToUpperEi,comdat
	.align 2
	.weak	_ZN3Upp7ToUpperEi
	.type	_ZN3Upp7ToUpperEi, @function
_ZN3Upp7ToUpperEi:
.LFB1514:
	pushq	%rbp
.LCFI51:
	movq	%rsp, %rbp
.LCFI52:
	movl	%edi, -4(%rbp)
	movl	-4(%rbp), %eax
	cmpl	$2047, %eax
	ja	.L60
	movl	-4(%rbp), %eax
	cltq
	movl	_ZN3Upp9uni__infoE(,%rax,4), %eax
	shrl	$11, %eax
	movl	%eax, %edx
	andl	$2047, %edx
	movl	%edx, -8(%rbp)
	jmp	.L62
.L60:
	movl	-4(%rbp), %eax
	movl	%eax, -8(%rbp)
.L62:
	movl	-8(%rbp), %eax
	leave
	ret
.LFE1514:
	.size	_ZN3Upp7ToUpperEi, .-_ZN3Upp7ToUpperEi
	.section	.text._ZN3Upp7IsDigitEi,"axG",@progbits,_ZN3Upp7IsDigitEi,comdat
	.align 2
	.weak	_ZN3Upp7IsDigitEi
	.type	_ZN3Upp7IsDigitEi, @function
_ZN3Upp7IsDigitEi:
.LFB1535:
	pushq	%rbp
.LCFI53:
	movq	%rsp, %rbp
.LCFI54:
	movl	%edi, -4(%rbp)
	cmpl	$47, -4(%rbp)
	jle	.L65
	cmpl	$57, -4(%rbp)
	jg	.L65
	movb	$1, -5(%rbp)
	jmp	.L68
.L65:
	movb	$0, -5(%rbp)
.L68:
	movzbl	-5(%rbp), %eax
	leave
	ret
.LFE1535:
	.size	_ZN3Upp7IsDigitEi, .-_ZN3Upp7IsDigitEi
	.section	.text._ZN3Upp7IsAlphaEi,"axG",@progbits,_ZN3Upp7IsAlphaEi,comdat
	.align 2
	.weak	_ZN3Upp7IsAlphaEi
	.type	_ZN3Upp7IsAlphaEi, @function
_ZN3Upp7IsAlphaEi:
.LFB1536:
	pushq	%rbp
.LCFI55:
	movq	%rsp, %rbp
.LCFI56:
	movl	%edi, -4(%rbp)
	cmpl	$64, -4(%rbp)
	jle	.L71
	cmpl	$90, -4(%rbp)
	jle	.L73
.L71:
	cmpl	$96, -4(%rbp)
	jle	.L74
	cmpl	$122, -4(%rbp)
	jg	.L74
.L73:
	movb	$1, -5(%rbp)
	jmp	.L76
.L74:
	movb	$0, -5(%rbp)
.L76:
	movzbl	-5(%rbp), %eax
	leave
	ret
.LFE1536:
	.size	_ZN3Upp7IsAlphaEi, .-_ZN3Upp7IsAlphaEi
	.section	.text._ZN3Upp7IsAlNumEi,"axG",@progbits,_ZN3Upp7IsAlNumEi,comdat
	.align 2
	.weak	_ZN3Upp7IsAlNumEi
	.type	_ZN3Upp7IsAlNumEi, @function
_ZN3Upp7IsAlNumEi:
.LFB1537:
	pushq	%rbp
.LCFI57:
	movq	%rsp, %rbp
.LCFI58:
	subq	$16, %rsp
.LCFI59:
	movl	%edi, -4(%rbp)
	movl	-4(%rbp), %edi
	call	_ZN3Upp7IsDigitEi
	testb	%al, %al
	jne	.L79
	movl	-4(%rbp), %edi
	call	_ZN3Upp7IsAlphaEi
	testb	%al, %al
	je	.L81
.L79:
	movb	$1, -5(%rbp)
	jmp	.L82
.L81:
	movb	$0, -5(%rbp)
.L82:
	movzbl	-5(%rbp), %eax
	leave
	ret
.LFE1537:
	.size	_ZN3Upp7IsAlNumEi, .-_ZN3Upp7IsAlNumEi
	.section	.text._ZNK3Upp8FindFilecvbEv,"axG",@progbits,_ZNK3Upp8FindFilecvbEv,comdat
	.align 2
	.weak	_ZNK3Upp8FindFilecvbEv
	.type	_ZNK3Upp8FindFilecvbEv, @function
_ZNK3Upp8FindFilecvbEv:
.LFB1608:
	pushq	%rbp
.LCFI60:
	movq	%rsp, %rbp
.LCFI61:
	movq	%rdi, -8(%rbp)
	movq	-8(%rbp), %rax
	movzbl	(%rax), %eax
	movzbl	%al, %eax
	leave
	ret
.LFE1608:
	.size	_ZNK3Upp8FindFilecvbEv, .-_ZNK3Upp8FindFilecvbEv
	.section	.text._ZNK3Upp5Value6IsNullEv,"axG",@progbits,_ZNK3Upp5Value6IsNullEv,comdat
	.align 2
	.weak	_ZNK3Upp5Value6IsNullEv
	.type	_ZNK3Upp5Value6IsNullEv, @function
_ZNK3Upp5Value6IsNullEv:
.LFB2775:
	pushq	%rbp
.LCFI62:
	movq	%rsp, %rbp
.LCFI63:
	subq	$16, %rsp
.LCFI64:
	movq	%rdi, -8(%rbp)
	movq	-8(%rbp), %rax
	movq	(%rax), %rax
	movq	(%rax), %rax
	addq	$8, %rax
	movq	(%rax), %rdx
	movq	-8(%rbp), %rax
	movq	(%rax), %rdi
	call	*%rdx
	movzbl	%al, %eax
	leave
	ret
.LFE2775:
	.size	_ZNK3Upp5Value6IsNullEv, .-_ZNK3Upp5Value6IsNullEv
	.section	.text._ZN3Upp3RGBEhhh,"axG",@progbits,_ZN3Upp3RGBEhhh,comdat
	.align 2
	.weak	_ZN3Upp3RGBEhhh
	.type	_ZN3Upp3RGBEhhh, @function
_ZN3Upp3RGBEhhh:
.LFB3269:
	pushq	%rbp
.LCFI65:
	movq	%rsp, %rbp
.LCFI66:
	movb	%dil, -4(%rbp)
	movb	%sil, -8(%rbp)
	movb	%dl, -12(%rbp)
	movzbl	-4(%rbp), %edx
	movzbl	-8(%rbp), %eax
	sall	$8, %eax
	orl	%eax, %edx
	movzbl	-12(%rbp), %eax
	sall	$16, %eax
	orl	%edx, %eax
	leave
	ret
.LFE3269:
	.size	_ZN3Upp3RGBEhhh, .-_ZN3Upp3RGBEhhh
	.section	.text._ZN3Upp17AssignValueTypeNoINS_5ColorELj39ENS_8MoveableIS1_NS_10EmptyClassEEEEC2Ev,"axG",@progbits,_ZN3Upp17AssignValueTypeNoINS_5ColorELj39ENS_8MoveableIS1_NS_10EmptyClassEEEEC2Ev,comdat
	.align 2
	.weak	_ZN3Upp17AssignValueTypeNoINS_5ColorELj39ENS_8MoveableIS1_NS_10EmptyClassEEEEC2Ev
	.type	_ZN3Upp17AssignValueTypeNoINS_5ColorELj39ENS_8MoveableIS1_NS_10EmptyClassEEEEC2Ev, @function
_ZN3Upp17AssignValueTypeNoINS_5ColorELj39ENS_8MoveableIS1_NS_10EmptyClassEEEEC2Ev:
.LFB3281:
	pushq	%rbp
.LCFI67:
	movq	%rsp, %rbp
.LCFI68:
	movq	%rdi, -8(%rbp)
	leave
	ret
.LFE3281:
	.size	_ZN3Upp17AssignValueTypeNoINS_5ColorELj39ENS_8MoveableIS1_NS_10EmptyClassEEEEC2Ev, .-_ZN3Upp17AssignValueTypeNoINS_5ColorELj39ENS_8MoveableIS1_NS_10EmptyClassEEEEC2Ev
	.section	.text._ZN3Upp5ColorC1Eiii,"axG",@progbits,_ZN3Upp5ColorC1Eiii,comdat
	.align 2
	.weak	_ZN3Upp5ColorC1Eiii
	.type	_ZN3Upp5ColorC1Eiii, @function
_ZN3Upp5ColorC1Eiii:
.LFB3287:
	pushq	%rbp
.LCFI69:
	movq	%rsp, %rbp
.LCFI70:
	subq	$32, %rsp
.LCFI71:
	movq	%rdi, -8(%rbp)
	movl	%esi, -12(%rbp)
	movl	%edx, -16(%rbp)
	movl	%ecx, -20(%rbp)
	movq	-8(%rbp), %rdi
	call	_ZN3Upp17AssignValueTypeNoINS_5ColorELj39ENS_8MoveableIS1_NS_10EmptyClassEEEEC2Ev
	movl	-20(%rbp), %eax
	movzbl	%al, %edx
	movl	-16(%rbp), %eax
	movzbl	%al, %esi
	movl	-12(%rbp), %eax
	movzbl	%al, %edi
	call	_ZN3Upp3RGBEhhh
	movl	%eax, %edx
	movq	-8(%rbp), %rax
	movl	%edx, (%rax)
	leave
	ret
.LFE3287:
	.size	_ZN3Upp5ColorC1Eiii, .-_ZN3Upp5ColorC1Eiii
	.section	.text._ZN3Upp5ColorC1EPFS0_vE,"axG",@progbits,_ZN3Upp5ColorC1EPFS0_vE,comdat
	.align 2
	.weak	_ZN3Upp5ColorC1EPFS0_vE
	.type	_ZN3Upp5ColorC1EPFS0_vE, @function
_ZN3Upp5ColorC1EPFS0_vE:
.LFB3306:
	pushq	%rbp
.LCFI72:
	movq	%rsp, %rbp
.LCFI73:
	subq	$16, %rsp
.LCFI74:
	movq	%rdi, -8(%rbp)
	movq	%rsi, -16(%rbp)
	movq	-8(%rbp), %rdi
	call	_ZN3Upp17AssignValueTypeNoINS_5ColorELj39ENS_8MoveableIS1_NS_10EmptyClassEEEEC2Ev
	movq	-16(%rbp), %rax
	call	*%rax
	movl	%eax, %edx
	movq	-8(%rbp), %rax
	movl	%edx, (%rax)
	leave
	ret
.LFE3306:
	.size	_ZN3Upp5ColorC1EPFS0_vE, .-_ZN3Upp5ColorC1EPFS0_vE
	.section	.text._ZN3Upp6LtCyanEv,"axG",@progbits,_ZN3Upp6LtCyanEv,comdat
	.align 2
	.weak	_ZN3Upp6LtCyanEv
	.type	_ZN3Upp6LtCyanEv, @function
_ZN3Upp6LtCyanEv:
.LFB3330:
	pushq	%rbp
.LCFI75:
	movq	%rsp, %rbp
.LCFI76:
	subq	$16, %rsp
.LCFI77:
	leaq	-16(%rbp), %rdi
	movl	$255, %ecx
	movl	$255, %edx
	movl	$0, %esi
	call	_ZN3Upp5ColorC1Eiii
	movl	-16(%rbp), %eax
	leave
	ret
.LFE3330:
	.size	_ZN3Upp6LtCyanEv, .-_ZN3Upp6LtCyanEv
	.section	.text._ZNK3Upp14CallbackAction7IsValidEv,"axG",@progbits,_ZNK3Upp14CallbackAction7IsValidEv,comdat
	.align 2
	.weak	_ZNK3Upp14CallbackAction7IsValidEv
	.type	_ZNK3Upp14CallbackAction7IsValidEv, @function
_ZNK3Upp14CallbackAction7IsValidEv:
.LFB3392:
	pushq	%rbp
.LCFI78:
	movq	%rsp, %rbp
.LCFI79:
	movq	%rdi, -8(%rbp)
	movl	$1, %eax
	leave
	ret
.LFE3392:
	.size	_ZNK3Upp14CallbackAction7IsValidEv, .-_ZNK3Upp14CallbackAction7IsValidEv
	.section	.text._ZN3Upp14CallbackActionC2Ev,"axG",@progbits,_ZN3Upp14CallbackActionC2Ev,comdat
	.align 2
	.weak	_ZN3Upp14CallbackActionC2Ev
	.type	_ZN3Upp14CallbackActionC2Ev, @function
_ZN3Upp14CallbackActionC2Ev:
.LFB3394:
	pushq	%rbp
.LCFI80:
	movq	%rsp, %rbp
.LCFI81:
	movq	%rdi, -8(%rbp)
	movl	$_ZTVN3Upp14CallbackActionE+16, %eax
	movq	-8(%rbp), %rdx
	movq	%rax, (%rdx)
	movq	-8(%rbp), %rax
	movl	$1, 8(%rax)
	leave
	ret
.LFE3394:
	.size	_ZN3Upp14CallbackActionC2Ev, .-_ZN3Upp14CallbackActionC2Ev
	.section	.text._ZN3Upp8MoveableINS_8CallbackENS_10EmptyClassEEC2Ev,"axG",@progbits,_ZN3Upp8MoveableINS_8CallbackENS_10EmptyClassEEC2Ev,comdat
	.align 2
	.weak	_ZN3Upp8MoveableINS_8CallbackENS_10EmptyClassEEC2Ev
	.type	_ZN3Upp8MoveableINS_8CallbackENS_10EmptyClassEEC2Ev, @function
_ZN3Upp8MoveableINS_8CallbackENS_10EmptyClassEEC2Ev:
.LFB3416:
	pushq	%rbp
.LCFI82:
	movq	%rsp, %rbp
.LCFI83:
	movq	%rdi, -8(%rbp)
	leave
	ret
.LFE3416:
	.size	_ZN3Upp8MoveableINS_8CallbackENS_10EmptyClassEEC2Ev, .-_ZN3Upp8MoveableINS_8CallbackENS_10EmptyClassEEC2Ev
	.section	.text._ZN3Upp8CallbackC1EPNS_14CallbackActionE,"axG",@progbits,_ZN3Upp8CallbackC1EPNS_14CallbackActionE,comdat
	.align 2
	.weak	_ZN3Upp8CallbackC1EPNS_14CallbackActionE
	.type	_ZN3Upp8CallbackC1EPNS_14CallbackActionE, @function
_ZN3Upp8CallbackC1EPNS_14CallbackActionE:
.LFB3419:
	pushq	%rbp
.LCFI84:
	movq	%rsp, %rbp
.LCFI85:
	subq	$16, %rsp
.LCFI86:
	movq	%rdi, -8(%rbp)
	movq	%rsi, -16(%rbp)
	movq	-8(%rbp), %rdi
	call	_ZN3Upp8MoveableINS_8CallbackENS_10EmptyClassEEC2Ev
	movq	-8(%rbp), %rdx
	movq	-16(%rbp), %rax
	movq	%rax, (%rdx)
	leave
	ret
.LFE3419:
	.size	_ZN3Upp8CallbackC1EPNS_14CallbackActionE, .-_ZN3Upp8CallbackC1EPNS_14CallbackActionE
	.section	.text._ZN3Upp8CallbackC1Ev,"axG",@progbits,_ZN3Upp8CallbackC1Ev,comdat
	.align 2
	.weak	_ZN3Upp8CallbackC1Ev
	.type	_ZN3Upp8CallbackC1Ev, @function
_ZN3Upp8CallbackC1Ev:
.LFB3422:
	pushq	%rbp
.LCFI87:
	movq	%rsp, %rbp
.LCFI88:
	subq	$16, %rsp
.LCFI89:
	movq	%rdi, -8(%rbp)
	movq	-8(%rbp), %rdi
	call	_ZN3Upp8MoveableINS_8CallbackENS_10EmptyClassEEC2Ev
	movq	-8(%rbp), %rax
	movq	$0, (%rax)
	leave
	ret
.LFE3422:
	.size	_ZN3Upp8CallbackC1Ev, .-_ZN3Upp8CallbackC1Ev
	.section	.text._ZN3Upp7ConvertC2Ev,"axG",@progbits,_ZN3Upp7ConvertC2Ev,comdat
	.align 2
	.weak	_ZN3Upp7ConvertC2Ev
	.type	_ZN3Upp7ConvertC2Ev, @function
_ZN3Upp7ConvertC2Ev:
.LFB3890:
	pushq	%rbp
.LCFI90:
	movq	%rsp, %rbp
.LCFI91:
	movq	%rdi, -8(%rbp)
	movl	$_ZTVN3Upp7ConvertE+16, %edx
	movq	-8(%rbp), %rax
	movq	%rdx, (%rax)
	leave
	ret
.LFE3890:
	.size	_ZN3Upp7ConvertC2Ev, .-_ZN3Upp7ConvertC2Ev
	.section	.text._ZN3Upp13ConvertStringC2Eib,"axG",@progbits,_ZN3Upp13ConvertStringC2Eib,comdat
	.align 2
	.weak	_ZN3Upp13ConvertStringC2Eib
	.type	_ZN3Upp13ConvertStringC2Eib, @function
_ZN3Upp13ConvertStringC2Eib:
.LFB3937:
	pushq	%rbp
.LCFI92:
	movq	%rsp, %rbp
.LCFI93:
	subq	$16, %rsp
.LCFI94:
	movq	%rdi, -8(%rbp)
	movl	%esi, -12(%rbp)
	movb	%dl, -16(%rbp)
	movq	-8(%rbp), %rdi
	call	_ZN3Upp7ConvertC2Ev
	movl	$_ZTVN3Upp13ConvertStringE+16, %edx
	movq	-8(%rbp), %rax
	movq	%rdx, (%rax)
	movq	-8(%rbp), %rdx
	movl	-12(%rbp), %eax
	movl	%eax, 8(%rdx)
	movq	-8(%rbp), %rdx
	movzbl	-16(%rbp), %eax
	movb	%al, 12(%rdx)
	leave
	ret
.LFE3937:
	.size	_ZN3Upp13ConvertStringC2Eib, .-_ZN3Upp13ConvertStringC2Eib
	.section	.text._ZN3Upp7CParser6IsCharEc,"axG",@progbits,_ZN3Upp7CParser6IsCharEc,comdat
	.align 2
	.weak	_ZN3Upp7CParser6IsCharEc
	.type	_ZN3Upp7CParser6IsCharEc, @function
_ZN3Upp7CParser6IsCharEc:
.LFB3977:
	pushq	%rbp
.LCFI95:
	movq	%rsp, %rbp
.LCFI96:
	movq	%rdi, -8(%rbp)
	movb	%sil, -12(%rbp)
	movq	-8(%rbp), %rax
	movq	(%rax), %rax
	movzbl	(%rax), %eax
	movsbl	%al,%edx
	movsbl	-12(%rbp),%eax
	cmpl	%eax, %edx
	sete	%al
	movzbl	%al, %eax
	leave
	ret
.LFE3977:
	.size	_ZN3Upp7CParser6IsCharEc, .-_ZN3Upp7CParser6IsCharEc
	.section	.text._ZN3Upp7CParser6GetPtrEv,"axG",@progbits,_ZN3Upp7CParser6GetPtrEv,comdat
	.align 2
	.weak	_ZN3Upp7CParser6GetPtrEv
	.type	_ZN3Upp7CParser6GetPtrEv, @function
_ZN3Upp7CParser6GetPtrEv:
.LFB3988:
	pushq	%rbp
.LCFI97:
	movq	%rsp, %rbp
.LCFI98:
	movq	%rdi, -8(%rbp)
	movq	-8(%rbp), %rax
	movq	(%rax), %rax
	leave
	ret
.LFE3988:
	.size	_ZN3Upp7CParser6GetPtrEv, .-_ZN3Upp7CParser6GetPtrEv
	.section	.text._ZNK3Upp7CParser5IsEofEv,"axG",@progbits,_ZNK3Upp7CParser5IsEofEv,comdat
	.align 2
	.weak	_ZNK3Upp7CParser5IsEofEv
	.type	_ZNK3Upp7CParser5IsEofEv, @function
_ZNK3Upp7CParser5IsEofEv:
.LFB3989:
	pushq	%rbp
.LCFI99:
	movq	%rsp, %rbp
.LCFI100:
	movq	%rdi, -8(%rbp)
	movq	-8(%rbp), %rax
	movq	(%rax), %rax
	movzbl	(%rax), %eax
	testb	%al, %al
	sete	%al
	movzbl	%al, %eax
	leave
	ret
.LFE3989:
	.size	_ZNK3Upp7CParser5IsEofEv, .-_ZNK3Upp7CParser5IsEofEv
	.section	.text._ZN3Upp4Font4BoldEv,"axG",@progbits,_ZN3Upp4Font4BoldEv,comdat
	.align 2
	.weak	_ZN3Upp4Font4BoldEv
	.type	_ZN3Upp4Font4BoldEv, @function
_ZN3Upp4Font4BoldEv:
.LFB4309:
	pushq	%rbp
.LCFI101:
	movq	%rsp, %rbp
.LCFI102:
	movq	%rdi, -8(%rbp)
	movq	-8(%rbp), %rax
	movzwl	2(%rax), %eax
	movl	%eax, %edx
	orw	$-32768, %dx
	movq	-8(%rbp), %rax
	movw	%dx, 2(%rax)
	movq	-8(%rbp), %rax
	leave
	ret
.LFE4309:
	.size	_ZN3Upp4Font4BoldEv, .-_ZN3Upp4Font4BoldEv
	.section	.text._ZN3Upp4Font6ItalicEv,"axG",@progbits,_ZN3Upp4Font6ItalicEv,comdat
	.align 2
	.weak	_ZN3Upp4Font6ItalicEv
	.type	_ZN3Upp4Font6ItalicEv, @function
_ZN3Upp4Font6ItalicEv:
.LFB4312:
	pushq	%rbp
.LCFI103:
	movq	%rsp, %rbp
.LCFI104:
	movq	%rdi, -8(%rbp)
	movq	-8(%rbp), %rax
	movzwl	2(%rax), %eax
	movl	%eax, %edx
	orb	$64, %dh
	movq	-8(%rbp), %rax
	movw	%dx, 2(%rax)
	movq	-8(%rbp), %rax
	leave
	ret
.LFE4312:
	.size	_ZN3Upp4Font6ItalicEv, .-_ZN3Upp4Font6ItalicEv
	.section	.text._ZN3Upp17AssignValueTypeNoINS_4FontELj40ENS_8MoveableIS1_NS_10EmptyClassEEEEC2Ev,"axG",@progbits,_ZN3Upp17AssignValueTypeNoINS_4FontELj40ENS_8MoveableIS1_NS_10EmptyClassEEEEC2Ev,comdat
	.align 2
	.weak	_ZN3Upp17AssignValueTypeNoINS_4FontELj40ENS_8MoveableIS1_NS_10EmptyClassEEEEC2Ev
	.type	_ZN3Upp17AssignValueTypeNoINS_4FontELj40ENS_8MoveableIS1_NS_10EmptyClassEEEEC2Ev, @function
_ZN3Upp17AssignValueTypeNoINS_4FontELj40ENS_8MoveableIS1_NS_10EmptyClassEEEEC2Ev:
.LFB4335:
	pushq	%rbp
.LCFI105:
	movq	%rsp, %rbp
.LCFI106:
	movq	%rdi, -8(%rbp)
	leave
	ret
.LFE4335:
	.size	_ZN3Upp17AssignValueTypeNoINS_4FontELj40ENS_8MoveableIS1_NS_10EmptyClassEEEEC2Ev, .-_ZN3Upp17AssignValueTypeNoINS_4FontELj40ENS_8MoveableIS1_NS_10EmptyClassEEEEC2Ev
	.section	.text._ZN3Upp4FontC2Eii,"axG",@progbits,_ZN3Upp4FontC2Eii,comdat
	.align 2
	.weak	_ZN3Upp4FontC2Eii
	.type	_ZN3Upp4FontC2Eii, @function
_ZN3Upp4FontC2Eii:
.LFB4340:
	pushq	%rbp
.LCFI107:
	movq	%rsp, %rbp
.LCFI108:
	subq	$16, %rsp
.LCFI109:
	movq	%rdi, -8(%rbp)
	movl	%esi, -12(%rbp)
	movl	%edx, -16(%rbp)
	movq	-8(%rbp), %rdi
	call	_ZN3Upp17AssignValueTypeNoINS_4FontELj40ENS_8MoveableIS1_NS_10EmptyClassEEEEC2Ev
	movl	-12(%rbp), %eax
	movl	%eax, %edx
	movq	-8(%rbp), %rax
	movw	%dx, (%rax)
	movl	-16(%rbp), %eax
	movl	%eax, %edx
	movq	-8(%rbp), %rax
	movw	%dx, 4(%rax)
	movq	-8(%rbp), %rax
	movw	$0, 2(%rax)
	movq	-8(%rbp), %rax
	movw	$0, 6(%rax)
	leave
	ret
.LFE4340:
	.size	_ZN3Upp4FontC2Eii, .-_ZN3Upp4FontC2Eii
	.section	.text._ZNK3Upp8FontInfo9GetHeightEv,"axG",@progbits,_ZNK3Upp8FontInfo9GetHeightEv,comdat
	.align 2
	.weak	_ZNK3Upp8FontInfo9GetHeightEv
	.type	_ZNK3Upp8FontInfo9GetHeightEv, @function
_ZNK3Upp8FontInfo9GetHeightEv:
.LFB4378:
	pushq	%rbp
.LCFI110:
	movq	%rsp, %rbp
.LCFI111:
	movq	%rdi, -8(%rbp)
	movq	-8(%rbp), %rax
	movq	(%rax), %rax
	movl	88(%rax), %eax
	leave
	ret
.LFE4378:
	.size	_ZNK3Upp8FontInfo9GetHeightEv, .-_ZNK3Upp8FontInfo9GetHeightEv
	.section	.text._ZN3Upp5ArialC1Ei,"axG",@progbits,_ZN3Upp5ArialC1Ei,comdat
	.align 2
	.weak	_ZN3Upp5ArialC1Ei
	.type	_ZN3Upp5ArialC1Ei, @function
_ZN3Upp5ArialC1Ei:
.LFB4413:
	pushq	%rbp
.LCFI112:
	movq	%rsp, %rbp
.LCFI113:
	subq	$16, %rsp
.LCFI114:
	movq	%rdi, -8(%rbp)
	movl	%esi, -12(%rbp)
	movq	-8(%rbp), %rdi
	movl	-12(%rbp), %edx
	movl	$5, %esi
	call	_ZN3Upp4FontC2Eii
	leave
	ret
.LFE4413:
	.size	_ZN3Upp5ArialC1Ei, .-_ZN3Upp5ArialC1Ei
	.section	.text._ZN3Upp7CourierC1Ei,"axG",@progbits,_ZN3Upp7CourierC1Ei,comdat
	.align 2
	.weak	_ZN3Upp7CourierC1Ei
	.type	_ZN3Upp7CourierC1Ei, @function
_ZN3Upp7CourierC1Ei:
.LFB4416:
	pushq	%rbp
.LCFI115:
	movq	%rsp, %rbp
.LCFI116:
	subq	$16, %rsp
.LCFI117:
	movq	%rdi, -8(%rbp)
	movl	%esi, -12(%rbp)
	movq	-8(%rbp), %rdi
	movl	-12(%rbp), %edx
	movl	$6, %esi
	call	_ZN3Upp4FontC2Eii
	leave
	ret
.LFE4416:
	.size	_ZN3Upp7CourierC1Ei, .-_ZN3Upp7CourierC1Ei
	.section	.text._ZN3Upp4Draw8DrawRectEiiiiNS_5ColorE,"axG",@progbits,_ZN3Upp4Draw8DrawRectEiiiiNS_5ColorE,comdat
	.align 2
	.weak	_ZN3Upp4Draw8DrawRectEiiiiNS_5ColorE
	.type	_ZN3Upp4Draw8DrawRectEiiiiNS_5ColorE, @function
_ZN3Upp4Draw8DrawRectEiiiiNS_5ColorE:
.LFB4446:
	pushq	%rbp
.LCFI118:
	movq	%rsp, %rbp
.LCFI119:
	subq	$32, %rsp
.LCFI120:
	movq	%rdi, -8(%rbp)
	movl	%esi, -12(%rbp)
	movl	%edx, -16(%rbp)
	movl	%ecx, -20(%rbp)
	movl	%r8d, -24(%rbp)
	movl	%r9d, -28(%rbp)
	movq	-8(%rbp), %rax
	movq	(%rax), %rax
	addq	$88, %rax
	movq	(%rax), %r11
	movl	-28(%rbp), %eax
	movl	-24(%rbp), %edx
	movl	-20(%rbp), %ecx
	movl	-16(%rbp), %esi
	movl	-12(%rbp), %edi
	movq	-8(%rbp), %r10
	movl	%eax, %r9d
	movl	%edx, %r8d
	movl	%esi, %edx
	movl	%edi, %esi
	movq	%r10, %rdi
	call	*%r11
	leave
	ret
.LFE4446:
	.size	_ZN3Upp4Draw8DrawRectEiiiiNS_5ColorE, .-_ZN3Upp4Draw8DrawRectEiiiiNS_5ColorE
	.section	.text._ZN3Upp4Ctrl9WantFocusEb,"axG",@progbits,_ZN3Upp4Ctrl9WantFocusEb,comdat
	.align 2
	.weak	_ZN3Upp4Ctrl9WantFocusEb
	.type	_ZN3Upp4Ctrl9WantFocusEb, @function
_ZN3Upp4Ctrl9WantFocusEb:
.LFB4672:
	pushq	%rbp
.LCFI121:
	movq	%rsp, %rbp
.LCFI122:
	movq	%rdi, -8(%rbp)
	movb	%sil, -12(%rbp)
	movq	-8(%rbp), %rcx
	movzbl	-12(%rbp), %eax
	andl	$1, %eax
	movl	%eax, %edx
	sall	$5, %edx
	movzbl	137(%rcx), %eax
	andl	$-33, %eax
	orl	%edx, %eax
	movb	%al, 137(%rcx)
	movq	-8(%rbp), %rax
	leave
	ret
.LFE4672:
	.size	_ZN3Upp4Ctrl9WantFocusEb, .-_ZN3Upp4Ctrl9WantFocusEb
	.section	.text._ZN3Upp4Ctrl11NoWantFocusEv,"axG",@progbits,_ZN3Upp4Ctrl11NoWantFocusEv,comdat
	.align 2
	.weak	_ZN3Upp4Ctrl11NoWantFocusEv
	.type	_ZN3Upp4Ctrl11NoWantFocusEv, @function
_ZN3Upp4Ctrl11NoWantFocusEv:
.LFB4673:
	pushq	%rbp
.LCFI123:
	movq	%rsp, %rbp
.LCFI124:
	subq	$16, %rsp
.LCFI125:
	movq	%rdi, -8(%rbp)
	movq	-8(%rbp), %rdi
	movl	$0, %esi
	call	_ZN3Upp4Ctrl9WantFocusEb
	leave
	ret
.LFE4673:
	.size	_ZN3Upp4Ctrl11NoWantFocusEv, .-_ZN3Upp4Ctrl11NoWantFocusEv
	.section	.text._ZNK3Upp4CtrlcoEv,"axG",@progbits,_ZNK3Upp4CtrlcoEv,comdat
	.align 2
	.weak	_ZNK3Upp4CtrlcoEv
	.type	_ZNK3Upp4CtrlcoEv, @function
_ZNK3Upp4CtrlcoEv:
.LFB4702:
	pushq	%rbp
.LCFI126:
	movq	%rsp, %rbp
.LCFI127:
	pushq	%rbx
.LCFI128:
	subq	$8, %rsp
.LCFI129:
	movq	%rdi, %rbx
	movq	%rsi, -16(%rbp)
	movq	%rbx, %rdi
	movq	-16(%rbp), %rax
	movq	(%rax), %rax
	addq	$40, %rax
	movq	(%rax), %rax
	movq	-16(%rbp), %rsi
	call	*%rax
	movq	%rbx, %rax
	addq	$8, %rsp
	popq	%rbx
	leave
	ret
.LFE4702:
	.size	_ZNK3Upp4CtrlcoEv, .-_ZNK3Upp4CtrlcoEv
	.section	.text._ZN3Upp4CtrllSERKNS_5ValueE,"axG",@progbits,_ZN3Upp4CtrllSERKNS_5ValueE,comdat
	.align 2
	.weak	_ZN3Upp4CtrllSERKNS_5ValueE
	.type	_ZN3Upp4CtrllSERKNS_5ValueE, @function
_ZN3Upp4CtrllSERKNS_5ValueE:
.LFB4703:
	pushq	%rbp
.LCFI130:
	movq	%rsp, %rbp
.LCFI131:
	subq	$16, %rsp
.LCFI132:
	movq	%rdi, -8(%rbp)
	movq	%rsi, -16(%rbp)
	movq	-8(%rbp), %rax
	movq	(%rax), %rax
	addq	$32, %rax
	movq	(%rax), %rax
	movq	-16(%rbp), %rsi
	movq	-8(%rbp), %rdi
	call	*%rax
	movq	-16(%rbp), %rax
	leave
	ret
.LFE4703:
	.size	_ZN3Upp4CtrllSERKNS_5ValueE, .-_ZN3Upp4CtrllSERKNS_5ValueE
	.section	.text._ZN3Upp9TopWindow10SetMinSizeENS_5Size_IiEE,"axG",@progbits,_ZN3Upp9TopWindow10SetMinSizeENS_5Size_IiEE,comdat
	.align 2
	.weak	_ZN3Upp9TopWindow10SetMinSizeENS_5Size_IiEE
	.type	_ZN3Upp9TopWindow10SetMinSizeENS_5Size_IiEE, @function
_ZN3Upp9TopWindow10SetMinSizeENS_5Size_IiEE:
.LFB4779:
	pushq	%rbp
.LCFI133:
	movq	%rsp, %rbp
.LCFI134:
	movq	%rdi, -8(%rbp)
	movq	%rsi, -16(%rbp)
	movq	-8(%rbp), %rax
	movq	-16(%rbp), %rdx
	movq	(%rdx), %rdx
	movq	%rdx, 272(%rax)
	leave
	ret
.LFE4779:
	.size	_ZN3Upp9TopWindow10SetMinSizeENS_5Size_IiEE, .-_ZN3Upp9TopWindow10SetMinSizeENS_5Size_IiEE
	.section	.text._ZNK3Upp9ScrollBarcviEv,"axG",@progbits,_ZNK3Upp9ScrollBarcviEv,comdat
	.align 2
	.weak	_ZNK3Upp9ScrollBarcviEv
	.type	_ZNK3Upp9ScrollBarcviEv, @function
_ZNK3Upp9ScrollBarcviEv:
.LFB5514:
	pushq	%rbp
.LCFI135:
	movq	%rsp, %rbp
.LCFI136:
	movq	%rdi, -8(%rbp)
	movq	-8(%rbp), %rax
	movl	1080(%rax), %eax
	leave
	ret
.LFE5514:
	.size	_ZNK3Upp9ScrollBarcviEv, .-_ZNK3Upp9ScrollBarcviEv
	.section	.text._ZN3Upp9EditField9SetFilterEPFiiE,"axG",@progbits,_ZN3Upp9EditField9SetFilterEPFiiE,comdat
	.align 2
	.weak	_ZN3Upp9EditField9SetFilterEPFiiE
	.type	_ZN3Upp9EditField9SetFilterEPFiiE, @function
_ZN3Upp9EditField9SetFilterEPFiiE:
.LFB5634:
	pushq	%rbp
.LCFI137:
	movq	%rsp, %rbp
.LCFI138:
	movq	%rdi, -8(%rbp)
	movq	%rsi, -16(%rbp)
	movq	-8(%rbp), %rdx
	movq	-16(%rbp), %rax
	movq	%rax, 256(%rdx)
	movq	-8(%rbp), %rax
	leave
	ret
.LFE5634:
	.size	_ZN3Upp9EditField9SetFilterEPFiiE, .-_ZN3Upp9EditField9SetFilterEPFiiE
	.section	.text._ZN3Upp9EditField10SetConvertERKNS_7ConvertE,"axG",@progbits,_ZN3Upp9EditField10SetConvertERKNS_7ConvertE,comdat
	.align 2
	.weak	_ZN3Upp9EditField10SetConvertERKNS_7ConvertE
	.type	_ZN3Upp9EditField10SetConvertERKNS_7ConvertE, @function
_ZN3Upp9EditField10SetConvertERKNS_7ConvertE:
.LFB5635:
	pushq	%rbp
.LCFI139:
	movq	%rsp, %rbp
.LCFI140:
	movq	%rdi, -8(%rbp)
	movq	%rsi, -16(%rbp)
	movq	-8(%rbp), %rdx
	movq	-16(%rbp), %rax
	movq	%rax, 264(%rdx)
	movq	-8(%rbp), %rax
	leave
	ret
.LFE5635:
	.size	_ZN3Upp9EditField10SetConvertERKNS_7ConvertE, .-_ZN3Upp9EditField10SetConvertERKNS_7ConvertE
	.section	.text._ZNK3Upp9ArrayCtrl9GetCursorEv,"axG",@progbits,_ZNK3Upp9ArrayCtrl9GetCursorEv,comdat
	.align 2
	.weak	_ZNK3Upp9ArrayCtrl9GetCursorEv
	.type	_ZNK3Upp9ArrayCtrl9GetCursorEv, @function
_ZNK3Upp9ArrayCtrl9GetCursorEv:
.LFB5966:
	pushq	%rbp
.LCFI141:
	movq	%rsp, %rbp
.LCFI142:
	movq	%rdi, -8(%rbp)
	movq	-8(%rbp), %rax
	movl	3380(%rax), %eax
	leave
	ret
.LFE5966:
	.size	_ZNK3Upp9ArrayCtrl9GetCursorEv, .-_ZNK3Upp9ArrayCtrl9GetCursorEv
	.section	.text._ZN3Upp13DelayCallback8SetDelayEi,"axG",@progbits,_ZN3Upp13DelayCallback8SetDelayEi,comdat
	.align 2
	.weak	_ZN3Upp13DelayCallback8SetDelayEi
	.type	_ZN3Upp13DelayCallback8SetDelayEi, @function
_ZN3Upp13DelayCallback8SetDelayEi:
.LFB6474:
	pushq	%rbp
.LCFI143:
	movq	%rsp, %rbp
.LCFI144:
	movq	%rdi, -8(%rbp)
	movl	%esi, -12(%rbp)
	movq	-8(%rbp), %rdx
	movl	-12(%rbp), %eax
	movl	%eax, 16(%rdx)
	leave
	ret
.LFE6474:
	.size	_ZN3Upp13DelayCallback8SetDelayEi, .-_ZN3Upp13DelayCallback8SetDelayEi
	.section	.text._ZN3Upp8MoveableINS_8EscValueENS_10EmptyClassEEC2Ev,"axG",@progbits,_ZN3Upp8MoveableINS_8EscValueENS_10EmptyClassEEC2Ev,comdat
	.align 2
	.weak	_ZN3Upp8MoveableINS_8EscValueENS_10EmptyClassEEC2Ev
	.type	_ZN3Upp8MoveableINS_8EscValueENS_10EmptyClassEEC2Ev, @function
_ZN3Upp8MoveableINS_8EscValueENS_10EmptyClassEEC2Ev:
.LFB6530:
	pushq	%rbp
.LCFI145:
	movq	%rsp, %rbp
.LCFI146:
	movq	%rdi, -8(%rbp)
	leave
	ret
.LFE6530:
	.size	_ZN3Upp8MoveableINS_8EscValueENS_10EmptyClassEEC2Ev, .-_ZN3Upp8MoveableINS_8EscValueENS_10EmptyClassEEC2Ev
	.text
	.align 2
.globl _Z4NoCri
	.type	_Z4NoCri, @function
_Z4NoCri:
.LFB7920:
	pushq	%rbp
.LCFI147:
	movq	%rsp, %rbp
.LCFI148:
	movl	%edi, -4(%rbp)
	cmpl	$13, -4(%rbp)
	je	.L157
	movl	-4(%rbp), %eax
	movl	%eax, -8(%rbp)
	jmp	.L159
.L157:
	movl	$0, -8(%rbp)
.L159:
	movl	-8(%rbp), %eax
	leave
	ret
.LFE7920:
	.size	_Z4NoCri, .-_Z4NoCri
	.align 2
.globl _Z17FilterPackageNamei
	.type	_Z17FilterPackageNamei, @function
_Z17FilterPackageNamei:
.LFB7932:
	pushq	%rbp
.LCFI149:
	movq	%rsp, %rbp
.LCFI150:
	subq	$16, %rsp
.LCFI151:
	movl	%edi, -4(%rbp)
	cmpl	$95, -4(%rbp)
	je	.L162
	movl	-4(%rbp), %edi
	call	_ZN3Upp7IsAlNumEi
	xorl	$1, %eax
	xorl	$1, %eax
	testb	%al, %al
	jne	.L162
	cmpl	$47, -4(%rbp)
	je	.L162
	cmpl	$92, -4(%rbp)
	jne	.L166
	movl	$47, -8(%rbp)
	jmp	.L168
.L166:
	movl	$0, -8(%rbp)
.L168:
	movl	-8(%rbp), %eax
	movl	%eax, -12(%rbp)
	jmp	.L169
.L162:
	movl	-4(%rbp), %eax
	movl	%eax, -12(%rbp)
.L169:
	movl	-12(%rbp), %eax
	leave
	ret
.LFE7932:
	.size	_Z17FilterPackageNamei, .-_Z17FilterPackageNamei
	.section	.text._ZN23NewPackageLayout__layidC2Ev,"axG",@progbits,_ZN23NewPackageLayout__layidC2Ev,comdat
	.align 2
	.weak	_ZN23NewPackageLayout__layidC2Ev
	.type	_ZN23NewPackageLayout__layidC2Ev, @function
_ZN23NewPackageLayout__layidC2Ev:
.LFB7936:
	pushq	%rbp
.LCFI152:
	movq	%rsp, %rbp
.LCFI153:
	movq	%rdi, -8(%rbp)
	leave
	ret
.LFE7936:
	.size	_ZN23NewPackageLayout__layidC2Ev, .-_ZN23NewPackageLayout__layidC2Ev
	.text
	.align 2
.globl _Z8IdFilteri
	.type	_Z8IdFilteri, @function
_Z8IdFilteri:
.LFB7952:
	pushq	%rbp
.LCFI154:
	movq	%rsp, %rbp
.LCFI155:
	subq	$16, %rsp
.LCFI156:
	movl	%edi, -4(%rbp)
	cmpl	$95, -4(%rbp)
	je	.L174
	movl	-4(%rbp), %edi
	call	_ZN3Upp7IsAlNumEi
	testb	%al, %al
	je	.L176
.L174:
	movl	-4(%rbp), %eax
	movl	%eax, -8(%rbp)
	jmp	.L177
.L176:
	movl	$0, -8(%rbp)
.L177:
	movl	-8(%rbp), %eax
	leave
	ret
.LFE7952:
	.size	_Z8IdFilteri, .-_Z8IdFilteri
	.align 2
.globl _Z14FilenameFilteri
	.type	_Z14FilenameFilteri, @function
_Z14FilenameFilteri:
.LFB7953:
	pushq	%rbp
.LCFI157:
	movq	%rsp, %rbp
.LCFI158:
	subq	$16, %rsp
.LCFI159:
	movl	%edi, -4(%rbp)
	cmpl	$95, -4(%rbp)
	je	.L180
	movl	-4(%rbp), %edi
	call	_ZN3Upp7IsAlNumEi
	testb	%al, %al
	jne	.L180
	cmpl	$46, -4(%rbp)
	jne	.L183
.L180:
	movl	-4(%rbp), %eax
	movl	%eax, -8(%rbp)
	jmp	.L184
.L183:
	movl	$0, -8(%rbp)
.L184:
	movl	-8(%rbp), %eax
	leave
	ret
.LFE7953:
	.size	_Z14FilenameFilteri, .-_Z14FilenameFilteri
	.section	.text._ZNK3Upp7AStringINS_7String0EEcvPKcEv,"axG",@progbits,_ZNK3Upp7AStringINS_7String0EEcvPKcEv,comdat
	.align 2
	.weak	_ZNK3Upp7AStringINS_7String0EEcvPKcEv
	.type	_ZNK3Upp7AStringINS_7String0EEcvPKcEv, @function
_ZNK3Upp7AStringINS_7String0EEcvPKcEv:
.LFB8008:
	pushq	%rbp
.LCFI160:
	movq	%rsp, %rbp
.LCFI161:
	subq	$16, %rsp
.LCFI162:
	movq	%rdi, -8(%rbp)
	movq	-8(%rbp), %rdi
	call	_ZNK3Upp7String05BeginEv
	leave
	ret
.LFE8008:
	.size	_ZNK3Upp7AStringINS_7String0EEcvPKcEv, .-_ZNK3Upp7AStringINS_7String0EEcvPKcEv
	.section	.text._ZNK3Upp7AStringINS_7String0EE9GetLengthEv,"axG",@progbits,_ZNK3Upp7AStringINS_7String0EE9GetLengthEv,comdat
	.align 2
	.weak	_ZNK3Upp7AStringINS_7String0EE9GetLengthEv
	.type	_ZNK3Upp7AStringINS_7String0EE9GetLengthEv, @function
_ZNK3Upp7AStringINS_7String0EE9GetLengthEv:
.LFB8009:
	pushq	%rbp
.LCFI163:
	movq	%rsp, %rbp
.LCFI164:
	subq	$16, %rsp
.LCFI165:
	movq	%rdi, -8(%rbp)
	movq	-8(%rbp), %rdi
	call	_ZNK3Upp7String08GetCountEv
	leave
	ret
.LFE8009:
	.size	_ZNK3Upp7AStringINS_7String0EE9GetLengthEv, .-_ZNK3Upp7AStringINS_7String0EE9GetLengthEv
	.section	.text._ZNK3Upp7AStringINS_7String0EEcoEv,"axG",@progbits,_ZNK3Upp7AStringINS_7String0EEcoEv,comdat
	.align 2
	.weak	_ZNK3Upp7AStringINS_7String0EEcoEv
	.type	_ZNK3Upp7AStringINS_7String0EEcoEv, @function
_ZNK3Upp7AStringINS_7String0EEcoEv:
.LFB8010:
	pushq	%rbp
.LCFI166:
	movq	%rsp, %rbp
.LCFI167:
	subq	$16, %rsp
.LCFI168:
	movq	%rdi, -8(%rbp)
	movq	-8(%rbp), %rdi
	call	_ZNK3Upp7String05BeginEv
	leave
	ret
.LFE8010:
	.size	_ZNK3Upp7AStringINS_7String0EEcoEv, .-_ZNK3Upp7AStringINS_7String0EEcoEv
	.section	.text._ZNK3Upp7AStringINS_7String0EE3EndEv,"axG",@progbits,_ZNK3Upp7AStringINS_7String0EE3EndEv,comdat
	.align 2
	.weak	_ZNK3Upp7AStringINS_7String0EE3EndEv
	.type	_ZNK3Upp7AStringINS_7String0EE3EndEv, @function
_ZNK3Upp7AStringINS_7String0EE3EndEv:
.LFB8014:
	pushq	%rbp
.LCFI169:
	movq	%rsp, %rbp
.LCFI170:
	pushq	%rbx
.LCFI171:
	subq	$8, %rsp
.LCFI172:
	movq	%rdi, -16(%rbp)
	movq	-16(%rbp), %rdi
	call	_ZNK3Upp7String05BeginEv
	movq	%rax, %rbx
	movq	-16(%rbp), %rdi
	call	_ZNK3Upp7AStringINS_7String0EE9GetLengthEv
	cltq
	leaq	(%rbx,%rax), %rax
	addq	$8, %rsp
	popq	%rbx
	leave
	ret
.LFE8014:
	.size	_ZNK3Upp7AStringINS_7String0EE3EndEv, .-_ZNK3Upp7AStringINS_7String0EE3EndEv
	.section	.text._ZNK3Upp7AStringINS_7String0EE7IsEmptyEv,"axG",@progbits,_ZNK3Upp7AStringINS_7String0EE7IsEmptyEv,comdat
	.align 2
	.weak	_ZNK3Upp7AStringINS_7String0EE7IsEmptyEv
	.type	_ZNK3Upp7AStringINS_7String0EE7IsEmptyEv, @function
_ZNK3Upp7AStringINS_7String0EE7IsEmptyEv:
.LFB8033:
	pushq	%rbp
.LCFI173:
	movq	%rsp, %rbp
.LCFI174:
	subq	$16, %rsp
.LCFI175:
	movq	%rdi, -8(%rbp)
	movq	-8(%rbp), %rdi
	call	_ZNK3Upp7String08GetCountEv
	testl	%eax, %eax
	sete	%al
	movzbl	%al, %eax
	leave
	ret
.LFE8033:
	.size	_ZNK3Upp7AStringINS_7String0EE7IsEmptyEv, .-_ZNK3Upp7AStringINS_7String0EE7IsEmptyEv
	.section	.text._ZN3Upp6IsNullINS_6StringEEEbRKT_,"axG",@progbits,_ZN3Upp6IsNullINS_6StringEEEbRKT_,comdat
	.align 2
	.weak	_ZN3Upp6IsNullINS_6StringEEEbRKT_
	.type	_ZN3Upp6IsNullINS_6StringEEEbRKT_, @function
_ZN3Upp6IsNullINS_6StringEEEbRKT_:
.LFB1364:
	pushq	%rbp
.LCFI176:
	movq	%rsp, %rbp
.LCFI177:
	subq	$16, %rsp
.LCFI178:
	movq	%rdi, -8(%rbp)
	movq	-8(%rbp), %rdi
	call	_ZNK3Upp7AStringINS_7String0EE7IsEmptyEv
	movzbl	%al, %eax
	leave
	ret
.LFE1364:
	.size	_ZN3Upp6IsNullINS_6StringEEEbRKT_, .-_ZN3Upp6IsNullINS_6StringEEEbRKT_
	.section	.text._ZNK3Upp7AStringINS_8WString0EE9GetLengthEv,"axG",@progbits,_ZNK3Upp7AStringINS_8WString0EE9GetLengthEv,comdat
	.align 2
	.weak	_ZNK3Upp7AStringINS_8WString0EE9GetLengthEv
	.type	_ZNK3Upp7AStringINS_8WString0EE9GetLengthEv, @function
_ZNK3Upp7AStringINS_8WString0EE9GetLengthEv:
.LFB8040:
	pushq	%rbp
.LCFI179:
	movq	%rsp, %rbp
.LCFI180:
	subq	$16, %rsp
.LCFI181:
	movq	%rdi, -8(%rbp)
	movq	-8(%rbp), %rdi
	call	_ZNK3Upp8WString08GetCountEv
	leave
	ret
.LFE8040:
	.size	_ZNK3Upp7AStringINS_8WString0EE9GetLengthEv, .-_ZNK3Upp7AStringINS_8WString0EE9GetLengthEv
	.section	.text._ZNK3Upp9EditField9GetLengthEv,"axG",@progbits,_ZNK3Upp9EditField9GetLengthEv,comdat
	.align 2
	.weak	_ZThn152_NK3Upp9EditField9GetLengthEv
	.type	_ZThn152_NK3Upp9EditField9GetLengthEv, @function
_ZThn152_NK3Upp9EditField9GetLengthEv:
	addq	$-152, %rdi
	jmp	.LTHUNK0
	.size	_ZThn152_NK3Upp9EditField9GetLengthEv, .-_ZThn152_NK3Upp9EditField9GetLengthEv
	.align 2
	.weak	_ZNK3Upp9EditField9GetLengthEv
	.type	_ZNK3Upp9EditField9GetLengthEv, @function
_ZNK3Upp9EditField9GetLengthEv:
.LFB5631:
	pushq	%rbp
.LCFI182:
	movq	%rsp, %rbp
.LCFI183:
	subq	$16, %rsp
.LCFI184:
	movq	%rdi, -8(%rbp)
	movq	-8(%rbp), %rdi
	addq	$200, %rdi
	call	_ZNK3Upp7AStringINS_8WString0EE9GetLengthEv
	leave
	ret
.LFE5631:
	.size	_ZNK3Upp9EditField9GetLengthEv, .-_ZNK3Upp9EditField9GetLengthEv
	.section	.text._ZN3Upp8MoveableINS_5Rect_IiEENS_10EmptyClassEEC2Ev,"axG",@progbits,_ZN3Upp8MoveableINS_5Rect_IiEENS_10EmptyClassEEC2Ev,comdat
	.align 2
	.weak	_ZN3Upp8MoveableINS_5Rect_IiEENS_10EmptyClassEEC2Ev
	.type	_ZN3Upp8MoveableINS_5Rect_IiEENS_10EmptyClassEEC2Ev, @function
_ZN3Upp8MoveableINS_5Rect_IiEENS_10EmptyClassEEC2Ev:
.LFB8110:
	pushq	%rbp
.LCFI185:
	movq	%rsp, %rbp
.LCFI186:
	movq	%rdi, -8(%rbp)
	leave
	ret
.LFE8110:
	.size	_ZN3Upp8MoveableINS_5Rect_IiEENS_10EmptyClassEEC2Ev, .-_ZN3Upp8MoveableINS_5Rect_IiEENS_10EmptyClassEEC2Ev
	.section	.text._ZN3Upp8MoveableINS_6Point_IiEENS_10EmptyClassEEC2Ev,"axG",@progbits,_ZN3Upp8MoveableINS_6Point_IiEENS_10EmptyClassEEC2Ev,comdat
	.align 2
	.weak	_ZN3Upp8MoveableINS_6Point_IiEENS_10EmptyClassEEC2Ev
	.type	_ZN3Upp8MoveableINS_6Point_IiEENS_10EmptyClassEEC2Ev, @function
_ZN3Upp8MoveableINS_6Point_IiEENS_10EmptyClassEEC2Ev:
.LFB8134:
	pushq	%rbp
.LCFI187:
	movq	%rsp, %rbp
.LCFI188:
	movq	%rdi, -8(%rbp)
	leave
	ret
.LFE8134:
	.size	_ZN3Upp8MoveableINS_6Point_IiEENS_10EmptyClassEEC2Ev, .-_ZN3Upp8MoveableINS_6Point_IiEENS_10EmptyClassEEC2Ev
	.section	.text._ZN3Upp8MoveableINS_5Size_IiEENS_10EmptyClassEEC2Ev,"axG",@progbits,_ZN3Upp8MoveableINS_5Size_IiEENS_10EmptyClassEEC2Ev,comdat
	.align 2
	.weak	_ZN3Upp8MoveableINS_5Size_IiEENS_10EmptyClassEEC2Ev
	.type	_ZN3Upp8MoveableINS_5Size_IiEENS_10EmptyClassEEC2Ev, @function
_ZN3Upp8MoveableINS_5Size_IiEENS_10EmptyClassEEC2Ev:
.LFB8151:
	pushq	%rbp
.LCFI189:
	movq	%rsp, %rbp
.LCFI190:
	movq	%rdi, -8(%rbp)
	leave
	ret
.LFE8151:
	.size	_ZN3Upp8MoveableINS_5Size_IiEENS_10EmptyClassEEC2Ev, .-_ZN3Upp8MoveableINS_5Size_IiEENS_10EmptyClassEEC2Ev
	.section	.text._ZN3Upp5Size_IiEC1ERKS1_,"axG",@progbits,_ZN3Upp5Size_IiEC1ERKS1_,comdat
	.align 2
	.weak	_ZN3Upp5Size_IiEC1ERKS1_
	.type	_ZN3Upp5Size_IiEC1ERKS1_, @function
_ZN3Upp5Size_IiEC1ERKS1_:
.LFB8154:
	pushq	%rbp
.LCFI191:
	movq	%rsp, %rbp
.LCFI192:
	subq	$16, %rsp
.LCFI193:
	movq	%rdi, -8(%rbp)
	movq	%rsi, -16(%rbp)
	movq	-8(%rbp), %rdi
	call	_ZN3Upp8MoveableINS_5Size_IiEENS_10EmptyClassEEC2Ev
	movq	-16(%rbp), %rax
	movl	(%rax), %edx
	movq	-8(%rbp), %rax
	movl	%edx, (%rax)
	movq	-16(%rbp), %rax
	movl	4(%rax), %edx
	movq	-8(%rbp), %rax
	movl	%edx, 4(%rax)
	leave
	ret
.LFE8154:
	.size	_ZN3Upp5Size_IiEC1ERKS1_, .-_ZN3Upp5Size_IiEC1ERKS1_
	.section	.text._ZN3Upp6Point_IiEC1Eii,"axG",@progbits,_ZN3Upp6Point_IiEC1Eii,comdat
	.align 2
	.weak	_ZN3Upp6Point_IiEC1Eii
	.type	_ZN3Upp6Point_IiEC1Eii, @function
_ZN3Upp6Point_IiEC1Eii:
.LFB8276:
	pushq	%rbp
.LCFI194:
	movq	%rsp, %rbp
.LCFI195:
	subq	$16, %rsp
.LCFI196:
	movq	%rdi, -8(%rbp)
	movl	%esi, -12(%rbp)
	movl	%edx, -16(%rbp)
	movq	-8(%rbp), %rdi
	call	_ZN3Upp8MoveableINS_6Point_IiEENS_10EmptyClassEEC2Ev
	movq	-8(%rbp), %rdx
	movl	-12(%rbp), %eax
	movl	%eax, (%rdx)
	movq	-8(%rbp), %rdx
	movl	-16(%rbp), %eax
	movl	%eax, 4(%rdx)
	leave
	ret
.LFE8276:
	.size	_ZN3Upp6Point_IiEC1Eii, .-_ZN3Upp6Point_IiEC1Eii
	.section	.text._ZN3Upp25MoveableAndDeepCopyOptionINS_5IndexINS_6StringENS_7StdHashIS2_EEEENS_10EmptyClassEEC2Ev,"axG",@progbits,_ZN3Upp25MoveableAndDeepCopyOptionINS_5IndexINS_6StringENS_7StdHashIS2_EEEENS_10EmptyClassEEC2Ev,comdat
	.align 2
	.weak	_ZN3Upp25MoveableAndDeepCopyOptionINS_5IndexINS_6StringENS_7StdHashIS2_EEEENS_10EmptyClassEEC2Ev
	.type	_ZN3Upp25MoveableAndDeepCopyOptionINS_5IndexINS_6StringENS_7StdHashIS2_EEEENS_10EmptyClassEEC2Ev, @function
_ZN3Upp25MoveableAndDeepCopyOptionINS_5IndexINS_6StringENS_7StdHashIS2_EEEENS_10EmptyClassEEC2Ev:
.LFB8442:
	pushq	%rbp
.LCFI197:
	movq	%rsp, %rbp
.LCFI198:
	movq	%rdi, -8(%rbp)
	leave
	ret
.LFE8442:
	.size	_ZN3Upp25MoveableAndDeepCopyOptionINS_5IndexINS_6StringENS_7StdHashIS2_EEEENS_10EmptyClassEEC2Ev, .-_ZN3Upp25MoveableAndDeepCopyOptionINS_5IndexINS_6StringENS_7StdHashIS2_EEEENS_10EmptyClassEEC2Ev
	.section	.text._ZN3Upp25MoveableAndDeepCopyOptionINS_6VectorINS_6StringEEENS_10EmptyClassEEC2Ev,"axG",@progbits,_ZN3Upp25MoveableAndDeepCopyOptionINS_6VectorINS_6StringEEENS_10EmptyClassEEC2Ev,comdat
	.align 2
	.weak	_ZN3Upp25MoveableAndDeepCopyOptionINS_6VectorINS_6StringEEENS_10EmptyClassEEC2Ev
	.type	_ZN3Upp25MoveableAndDeepCopyOptionINS_6VectorINS_6StringEEENS_10EmptyClassEEC2Ev, @function
_ZN3Upp25MoveableAndDeepCopyOptionINS_6VectorINS_6StringEEENS_10EmptyClassEEC2Ev:
.LFB8451:
	pushq	%rbp
.LCFI199:
	movq	%rsp, %rbp
.LCFI200:
	movq	%rdi, -8(%rbp)
	leave
	ret
.LFE8451:
	.size	_ZN3Upp25MoveableAndDeepCopyOptionINS_6VectorINS_6StringEEENS_10EmptyClassEEC2Ev, .-_ZN3Upp25MoveableAndDeepCopyOptionINS_6VectorINS_6StringEEENS_10EmptyClassEEC2Ev
	.section	.text._ZNK3Upp7AStringINS_8WString0EEixEi,"axG",@progbits,_ZNK3Upp7AStringINS_8WString0EEixEi,comdat
	.align 2
	.weak	_ZNK3Upp7AStringINS_8WString0EEixEi
	.type	_ZNK3Upp7AStringINS_8WString0EEixEi, @function
_ZNK3Upp7AStringINS_8WString0EEixEi:
.LFB8467:
	pushq	%rbp
.LCFI201:
	movq	%rsp, %rbp
.LCFI202:
	subq	$16, %rsp
.LCFI203:
	movq	%rdi, -8(%rbp)
	movl	%esi, -12(%rbp)
	movq	-8(%rbp), %rdi
	call	_ZNK3Upp8WString05BeginEv
	movq	%rax, %rdx
	movl	-12(%rbp), %eax
	cltq
	addq	%rax, %rax
	leaq	(%rdx,%rax), %rax
	movzwl	(%rax), %eax
	movzwl	%ax, %eax
	leave
	ret
.LFE8467:
	.size	_ZNK3Upp7AStringINS_8WString0EEixEi, .-_ZNK3Upp7AStringINS_8WString0EEixEi
	.section	.text._ZNK3Upp9EditField7GetCharEi,"axG",@progbits,_ZNK3Upp9EditField7GetCharEi,comdat
	.align 2
	.weak	_ZThn152_NK3Upp9EditField7GetCharEi
	.type	_ZThn152_NK3Upp9EditField7GetCharEi, @function
_ZThn152_NK3Upp9EditField7GetCharEi:
	addq	$-152, %rdi
	jmp	.LTHUNK1
	.size	_ZThn152_NK3Upp9EditField7GetCharEi, .-_ZThn152_NK3Upp9EditField7GetCharEi
	.align 2
	.weak	_ZNK3Upp9EditField7GetCharEi
	.type	_ZNK3Upp9EditField7GetCharEi, @function
_ZNK3Upp9EditField7GetCharEi:
.LFB5632:
	pushq	%rbp
.LCFI204:
	movq	%rsp, %rbp
.LCFI205:
	subq	$16, %rsp
.LCFI206:
	movq	%rdi, -8(%rbp)
	movl	%esi, -12(%rbp)
	movq	-8(%rbp), %rdi
	addq	$200, %rdi
	movl	-12(%rbp), %esi
	call	_ZNK3Upp7AStringINS_8WString0EEixEi
	leave
	ret
.LFE5632:
	.size	_ZNK3Upp9EditField7GetCharEi, .-_ZNK3Upp9EditField7GetCharEi
	.section	.text._ZN3Upp6VectorINS_6StringEEC1Ev,"axG",@progbits,_ZN3Upp6VectorINS_6StringEEC1Ev,comdat
	.align 2
	.weak	_ZN3Upp6VectorINS_6StringEEC1Ev
	.type	_ZN3Upp6VectorINS_6StringEEC1Ev, @function
_ZN3Upp6VectorINS_6StringEEC1Ev:
.LFB8486:
	pushq	%rbp
.LCFI207:
	movq	%rsp, %rbp
.LCFI208:
	subq	$16, %rsp
.LCFI209:
	movq	%rdi, -8(%rbp)
	movq	-8(%rbp), %rdi
	call	_ZN3Upp25MoveableAndDeepCopyOptionINS_6VectorINS_6StringEEENS_10EmptyClassEEC2Ev
	movq	-8(%rbp), %rax
	movq	$0, (%rax)
	movq	-8(%rbp), %rax
	movl	$0, 12(%rax)
	movq	-8(%rbp), %rax
	movl	12(%rax), %edx
	movq	-8(%rbp), %rax
	movl	%edx, 8(%rax)
	leave
	ret
.LFE8486:
	.size	_ZN3Upp6VectorINS_6StringEEC1Ev, .-_ZN3Upp6VectorINS_6StringEEC1Ev
	.section	.text._ZN3Upp25MoveableAndDeepCopyOptionINS_8ArrayMapINS_6StringENS_8EscValueENS_7StdHashIS2_EEEENS_10EmptyClassEEC2Ev,"axG",@progbits,_ZN3Upp25MoveableAndDeepCopyOptionINS_8ArrayMapINS_6StringENS_8EscValueENS_7StdHashIS2_EEEENS_10EmptyClassEEC2Ev,comdat
	.align 2
	.weak	_ZN3Upp25MoveableAndDeepCopyOptionINS_8ArrayMapINS_6StringENS_8EscValueENS_7StdHashIS2_EEEENS_10EmptyClassEEC2Ev
	.type	_ZN3Upp25MoveableAndDeepCopyOptionINS_8ArrayMapINS_6StringENS_8EscValueENS_7StdHashIS2_EEEENS_10EmptyClassEEC2Ev, @function
_ZN3Upp25MoveableAndDeepCopyOptionINS_8ArrayMapINS_6StringENS_8EscValueENS_7StdHashIS2_EEEENS_10EmptyClassEEC2Ev:
.LFB8604:
	pushq	%rbp
.LCFI210:
	movq	%rsp, %rbp
.LCFI211:
	movq	%rdi, -8(%rbp)
	leave
	ret
.LFE8604:
	.size	_ZN3Upp25MoveableAndDeepCopyOptionINS_8ArrayMapINS_6StringENS_8EscValueENS_7StdHashIS2_EEEENS_10EmptyClassEEC2Ev, .-_ZN3Upp25MoveableAndDeepCopyOptionINS_8ArrayMapINS_6StringENS_8EscValueENS_7StdHashIS2_EEEENS_10EmptyClassEEC2Ev
	.section	.text._ZN3Upp25MoveableAndDeepCopyOptionINS_5ArrayI12TemplateItemEENS_10EmptyClassEEC2Ev,"axG",@progbits,_ZN3Upp25MoveableAndDeepCopyOptionINS_5ArrayI12TemplateItemEENS_10EmptyClassEEC2Ev,comdat
	.align 2
	.weak	_ZN3Upp25MoveableAndDeepCopyOptionINS_5ArrayI12TemplateItemEENS_10EmptyClassEEC2Ev
	.type	_ZN3Upp25MoveableAndDeepCopyOptionINS_5ArrayI12TemplateItemEENS_10EmptyClassEEC2Ev, @function
_ZN3Upp25MoveableAndDeepCopyOptionINS_5ArrayI12TemplateItemEENS_10EmptyClassEEC2Ev:
.LFB8980:
	pushq	%rbp
.LCFI212:
	movq	%rsp, %rbp
.LCFI213:
	movq	%rdi, -8(%rbp)
	leave
	ret
.LFE8980:
	.size	_ZN3Upp25MoveableAndDeepCopyOptionINS_5ArrayI12TemplateItemEENS_10EmptyClassEEC2Ev, .-_ZN3Upp25MoveableAndDeepCopyOptionINS_5ArrayI12TemplateItemEENS_10EmptyClassEEC2Ev
	.section	.text._ZN3Upp25MoveableAndDeepCopyOptionINS_5ArrayI12FileTemplateEENS_10EmptyClassEEC2Ev,"axG",@progbits,_ZN3Upp25MoveableAndDeepCopyOptionINS_5ArrayI12FileTemplateEENS_10EmptyClassEEC2Ev,comdat
	.align 2
	.weak	_ZN3Upp25MoveableAndDeepCopyOptionINS_5ArrayI12FileTemplateEENS_10EmptyClassEEC2Ev
	.type	_ZN3Upp25MoveableAndDeepCopyOptionINS_5ArrayI12FileTemplateEENS_10EmptyClassEEC2Ev, @function
_ZN3Upp25MoveableAndDeepCopyOptionINS_5ArrayI12FileTemplateEENS_10EmptyClassEEC2Ev:
.LFB8989:
	pushq	%rbp
.LCFI214:
	movq	%rsp, %rbp
.LCFI215:
	movq	%rdi, -8(%rbp)
	leave
	ret
.LFE8989:
	.size	_ZN3Upp25MoveableAndDeepCopyOptionINS_5ArrayI12FileTemplateEENS_10EmptyClassEEC2Ev, .-_ZN3Upp25MoveableAndDeepCopyOptionINS_5ArrayI12FileTemplateEENS_10EmptyClassEEC2Ev
	.section	.text._ZNK3Upp7AStringINS_7String0EEixEi,"axG",@progbits,_ZNK3Upp7AStringINS_7String0EEixEi,comdat
	.align 2
	.weak	_ZNK3Upp7AStringINS_7String0EEixEi
	.type	_ZNK3Upp7AStringINS_7String0EEixEi, @function
_ZNK3Upp7AStringINS_7String0EEixEi:
.LFB8996:
	pushq	%rbp
.LCFI216:
	movq	%rsp, %rbp
.LCFI217:
	subq	$16, %rsp
.LCFI218:
	movq	%rdi, -8(%rbp)
	movl	%esi, -12(%rbp)
	movq	-8(%rbp), %rdi
	call	_ZNK3Upp7String05BeginEv
	movq	%rax, %rdx
	movl	-12(%rbp), %eax
	cltq
	leaq	(%rdx,%rax), %rax
	movzbl	(%rax), %eax
	movsbl	%al,%eax
	leave
	ret
.LFE8996:
	.size	_ZNK3Upp7AStringINS_7String0EEixEi, .-_ZNK3Upp7AStringINS_7String0EEixEi
	.section	.text._ZN3Upp25MoveableAndDeepCopyOptionINS_6VectorIN10AppPreview4LineEEENS_10EmptyClassEEC2Ev,"axG",@progbits,_ZN3Upp25MoveableAndDeepCopyOptionINS_6VectorIN10AppPreview4LineEEENS_10EmptyClassEEC2Ev,comdat
	.align 2
	.weak	_ZN3Upp25MoveableAndDeepCopyOptionINS_6VectorIN10AppPreview4LineEEENS_10EmptyClassEEC2Ev
	.type	_ZN3Upp25MoveableAndDeepCopyOptionINS_6VectorIN10AppPreview4LineEEENS_10EmptyClassEEC2Ev, @function
_ZN3Upp25MoveableAndDeepCopyOptionINS_6VectorIN10AppPreview4LineEEENS_10EmptyClassEEC2Ev:
.LFB9015:
	pushq	%rbp
.LCFI219:
	movq	%rsp, %rbp
.LCFI220:
	movq	%rdi, -8(%rbp)
	leave
	ret
.LFE9015:
	.size	_ZN3Upp25MoveableAndDeepCopyOptionINS_6VectorIN10AppPreview4LineEEENS_10EmptyClassEEC2Ev, .-_ZN3Upp25MoveableAndDeepCopyOptionINS_6VectorIN10AppPreview4LineEEENS_10EmptyClassEEC2Ev
	.section	.text._ZN3Upp6VectorIN10AppPreview4LineEEC1Ev,"axG",@progbits,_ZN3Upp6VectorIN10AppPreview4LineEEC1Ev,comdat
	.align 2
	.weak	_ZN3Upp6VectorIN10AppPreview4LineEEC1Ev
	.type	_ZN3Upp6VectorIN10AppPreview4LineEEC1Ev, @function
_ZN3Upp6VectorIN10AppPreview4LineEEC1Ev:
.LFB9018:
	pushq	%rbp
.LCFI221:
	movq	%rsp, %rbp
.LCFI222:
	subq	$16, %rsp
.LCFI223:
	movq	%rdi, -8(%rbp)
	movq	-8(%rbp), %rdi
	call	_ZN3Upp25MoveableAndDeepCopyOptionINS_6VectorIN10AppPreview4LineEEENS_10EmptyClassEEC2Ev
	movq	-8(%rbp), %rax
	movq	$0, (%rax)
	movq	-8(%rbp), %rax
	movl	$0, 12(%rax)
	movq	-8(%rbp), %rax
	movl	12(%rax), %edx
	movq	-8(%rbp), %rax
	movl	%edx, 8(%rax)
	leave
	ret
.LFE9018:
	.size	_ZN3Upp6VectorIN10AppPreview4LineEEC1Ev, .-_ZN3Upp6VectorIN10AppPreview4LineEEC1Ev
	.section	.text._ZN3Upp8MoveableIN10AppPreview4LineENS_10EmptyClassEEC2Ev,"axG",@progbits,_ZN3Upp8MoveableIN10AppPreview4LineENS_10EmptyClassEEC2Ev,comdat
	.align 2
	.weak	_ZN3Upp8MoveableIN10AppPreview4LineENS_10EmptyClassEEC2Ev
	.type	_ZN3Upp8MoveableIN10AppPreview4LineENS_10EmptyClassEEC2Ev, @function
_ZN3Upp8MoveableIN10AppPreview4LineENS_10EmptyClassEEC2Ev:
.LFB9034:
	pushq	%rbp
.LCFI224:
	movq	%rsp, %rbp
.LCFI225:
	movq	%rdi, -8(%rbp)
	leave
	ret
.LFE9034:
	.size	_ZN3Upp8MoveableIN10AppPreview4LineENS_10EmptyClassEEC2Ev, .-_ZN3Upp8MoveableIN10AppPreview4LineENS_10EmptyClassEEC2Ev
	.section	.text._ZN10AppPreview4LineC1Ev,"axG",@progbits,_ZN10AppPreview4LineC1Ev,comdat
	.align 2
	.weak	_ZN10AppPreview4LineC1Ev
	.type	_ZN10AppPreview4LineC1Ev, @function
_ZN10AppPreview4LineC1Ev:
.LFB9037:
	pushq	%rbp
.LCFI226:
	movq	%rsp, %rbp
.LCFI227:
	subq	$16, %rsp
.LCFI228:
	movq	%rdi, -8(%rbp)
	movq	-8(%rbp), %rdi
	call	_ZN3Upp8MoveableIN10AppPreview4LineENS_10EmptyClassEEC2Ev
	movq	-8(%rbp), %rdi
	addq	$8, %rdi
	call	_ZN3Upp6StringC1Ev
	leave
	ret
.LFE9037:
	.size	_ZN10AppPreview4LineC1Ev, .-_ZN10AppPreview4LineC1Ev
	.section	.text._ZN3Upp25MoveableAndDeepCopyOptionINS_5ArrayI15PackageTemplateEENS_10EmptyClassEEC2Ev,"axG",@progbits,_ZN3Upp25MoveableAndDeepCopyOptionINS_5ArrayI15PackageTemplateEENS_10EmptyClassEEC2Ev,comdat
	.align 2
	.weak	_ZN3Upp25MoveableAndDeepCopyOptionINS_5ArrayI15PackageTemplateEENS_10EmptyClassEEC2Ev
	.type	_ZN3Upp25MoveableAndDeepCopyOptionINS_5ArrayI15PackageTemplateEENS_10EmptyClassEEC2Ev, @function
_ZN3Upp25MoveableAndDeepCopyOptionINS_5ArrayI15PackageTemplateEENS_10EmptyClassEEC2Ev:
.LFB9041:
	pushq	%rbp
.LCFI229:
	movq	%rsp, %rbp
.LCFI230:
	movq	%rdi, -8(%rbp)
	leave
	ret
.LFE9041:
	.size	_ZN3Upp25MoveableAndDeepCopyOptionINS_5ArrayI15PackageTemplateEENS_10EmptyClassEEC2Ev, .-_ZN3Upp25MoveableAndDeepCopyOptionINS_5ArrayI15PackageTemplateEENS_10EmptyClassEEC2Ev
	.section	.text._ZN3Upp25MoveableAndDeepCopyOptionINS_5ArrayINS_5LabelEEENS_10EmptyClassEEC2Ev,"axG",@progbits,_ZN3Upp25MoveableAndDeepCopyOptionINS_5ArrayINS_5LabelEEENS_10EmptyClassEEC2Ev,comdat
	.align 2
	.weak	_ZN3Upp25MoveableAndDeepCopyOptionINS_5ArrayINS_5LabelEEENS_10EmptyClassEEC2Ev
	.type	_ZN3Upp25MoveableAndDeepCopyOptionINS_5ArrayINS_5LabelEEENS_10EmptyClassEEC2Ev, @function
_ZN3Upp25MoveableAndDeepCopyOptionINS_5ArrayINS_5LabelEEENS_10EmptyClassEEC2Ev:
.LFB9050:
	pushq	%rbp
.LCFI231:
	movq	%rsp, %rbp
.LCFI232:
	movq	%rdi, -8(%rbp)
	leave
	ret
.LFE9050:
	.size	_ZN3Upp25MoveableAndDeepCopyOptionINS_5ArrayINS_5LabelEEENS_10EmptyClassEEC2Ev, .-_ZN3Upp25MoveableAndDeepCopyOptionINS_5ArrayINS_5LabelEEENS_10EmptyClassEEC2Ev
	.section	.text._ZN3Upp25MoveableAndDeepCopyOptionINS_5ArrayINS_4CtrlEEENS_10EmptyClassEEC2Ev,"axG",@progbits,_ZN3Upp25MoveableAndDeepCopyOptionINS_5ArrayINS_4CtrlEEENS_10EmptyClassEEC2Ev,comdat
	.align 2
	.weak	_ZN3Upp25MoveableAndDeepCopyOptionINS_5ArrayINS_4CtrlEEENS_10EmptyClassEEC2Ev
	.type	_ZN3Upp25MoveableAndDeepCopyOptionINS_5ArrayINS_4CtrlEEENS_10EmptyClassEEC2Ev, @function
_ZN3Upp25MoveableAndDeepCopyOptionINS_5ArrayINS_4CtrlEEENS_10EmptyClassEEC2Ev:
.LFB9059:
	pushq	%rbp
.LCFI233:
	movq	%rsp, %rbp
.LCFI234:
	movq	%rdi, -8(%rbp)
	leave
	ret
.LFE9059:
	.size	_ZN3Upp25MoveableAndDeepCopyOptionINS_5ArrayINS_4CtrlEEENS_10EmptyClassEEC2Ev, .-_ZN3Upp25MoveableAndDeepCopyOptionINS_5ArrayINS_4CtrlEEENS_10EmptyClassEEC2Ev
	.section	.text._ZN3Upp25MoveableAndDeepCopyOptionINS_5ArrayINS_8EscValueEEENS_10EmptyClassEEC2Ev,"axG",@progbits,_ZN3Upp25MoveableAndDeepCopyOptionINS_5ArrayINS_8EscValueEEENS_10EmptyClassEEC2Ev,comdat
	.align 2
	.weak	_ZN3Upp25MoveableAndDeepCopyOptionINS_5ArrayINS_8EscValueEEENS_10EmptyClassEEC2Ev
	.type	_ZN3Upp25MoveableAndDeepCopyOptionINS_5ArrayINS_8EscValueEEENS_10EmptyClassEEC2Ev, @function
_ZN3Upp25MoveableAndDeepCopyOptionINS_5ArrayINS_8EscValueEEENS_10EmptyClassEEC2Ev:
.LFB9073:
	pushq	%rbp
.LCFI235:
	movq	%rsp, %rbp
.LCFI236:
	movq	%rdi, -8(%rbp)
	leave
	ret
.LFE9073:
	.size	_ZN3Upp25MoveableAndDeepCopyOptionINS_5ArrayINS_8EscValueEEENS_10EmptyClassEEC2Ev, .-_ZN3Upp25MoveableAndDeepCopyOptionINS_5ArrayINS_8EscValueEEENS_10EmptyClassEEC2Ev
	.section	.text._ZNK3Upp5Rect_IiE10BottomLeftEv,"axG",@progbits,_ZNK3Upp5Rect_IiE10BottomLeftEv,comdat
	.align 2
	.weak	_ZNK3Upp5Rect_IiE10BottomLeftEv
	.type	_ZNK3Upp5Rect_IiE10BottomLeftEv, @function
_ZNK3Upp5Rect_IiE10BottomLeftEv:
.LFB9084:
	pushq	%rbp
.LCFI237:
	movq	%rsp, %rbp
.LCFI238:
	pushq	%rbx
.LCFI239:
	subq	$8, %rsp
.LCFI240:
	movq	%rdi, %rbx
	movq	%rsi, -16(%rbp)
	movq	%rbx, %rdi
	movq	-16(%rbp), %rax
	movl	12(%rax), %edx
	movq	-16(%rbp), %rax
	movl	(%rax), %esi
	call	_ZN3Upp6Point_IiEC1Eii
	movq	%rbx, %rax
	addq	$8, %rsp
	popq	%rbx
	leave
	ret
.LFE9084:
	.size	_ZNK3Upp5Rect_IiE10BottomLeftEv, .-_ZNK3Upp5Rect_IiE10BottomLeftEv
	.section	.text._ZNK3Upp7AStringINS_7String0EE7CompareEPKc,"axG",@progbits,_ZNK3Upp7AStringINS_7String0EE7CompareEPKc,comdat
	.align 2
	.weak	_ZNK3Upp7AStringINS_7String0EE7CompareEPKc
	.type	_ZNK3Upp7AStringINS_7String0EE7CompareEPKc, @function
_ZNK3Upp7AStringINS_7String0EE7CompareEPKc:
.LFB9141:
	pushq	%rbp
.LCFI241:
	movq	%rsp, %rbp
.LCFI242:
	pushq	%rbx
.LCFI243:
	subq	$56, %rsp
.LCFI244:
	movq	%rdi, -48(%rbp)
	movq	%rsi, -56(%rbp)
	movq	-48(%rbp), %rdi
	call	_ZNK3Upp7String05BeginEv
	movq	%rax, -32(%rbp)
	movq	-48(%rbp), %rdi
	call	_ZNK3Upp7AStringINS_7String0EE3EndEv
	movq	%rax, -24(%rbp)
.L249:
	movq	-32(%rbp), %rax
	cmpq	-24(%rbp), %rax
	jb	.L250
	movq	-56(%rbp), %rax
	movzbl	(%rax), %eax
	testb	%al, %al
	jne	.L252
	movl	$0, -60(%rbp)
	jmp	.L254
.L252:
	movl	$-1, -60(%rbp)
.L254:
	movl	-60(%rbp), %eax
	movl	%eax, -64(%rbp)
	jmp	.L255
.L250:
	movq	-56(%rbp), %rax
	movzbl	(%rax), %eax
	testb	%al, %al
	jne	.L256
	movl	$1, -64(%rbp)
	jmp	.L255
.L256:
	movq	-32(%rbp), %rax
	movzbl	(%rax), %eax
	movsbl	%al,%edi
	addq	$1, -32(%rbp)
	call	_ZN3Upp8cmpval__Ec
	movl	%eax, %ebx
	movq	-56(%rbp), %rax
	movzbl	(%rax), %eax
	movsbl	%al,%edi
	addq	$1, -56(%rbp)
	call	_ZN3Upp8cmpval__Ec
	movl	%ebx, %edx
	subl	%eax, %edx
	movl	%edx, %eax
	movl	%eax, -12(%rbp)
	cmpl	$0, -12(%rbp)
	je	.L249
	movl	-12(%rbp), %eax
	movl	%eax, -64(%rbp)
.L255:
	movl	-64(%rbp), %eax
	addq	$56, %rsp
	popq	%rbx
	leave
	ret
.LFE9141:
	.size	_ZNK3Upp7AStringINS_7String0EE7CompareEPKc, .-_ZNK3Upp7AStringINS_7String0EE7CompareEPKc
	.section	.text._ZN3UppeqERKNS_6StringEPKc,"axG",@progbits,_ZN3UppeqERKNS_6StringEPKc,comdat
	.align 2
	.weak	_ZN3UppeqERKNS_6StringEPKc
	.type	_ZN3UppeqERKNS_6StringEPKc, @function
_ZN3UppeqERKNS_6StringEPKc:
.LFB8079:
	pushq	%rbp
.LCFI245:
	movq	%rsp, %rbp
.LCFI246:
	subq	$16, %rsp
.LCFI247:
	movq	%rdi, -8(%rbp)
	movq	%rsi, -16(%rbp)
	movq	-8(%rbp), %rdi
	movq	-16(%rbp), %rsi
	call	_ZNK3Upp7AStringINS_7String0EE7CompareEPKc
	testl	%eax, %eax
	sete	%al
	movzbl	%al, %eax
	leave
	ret
.LFE8079:
	.size	_ZN3UppeqERKNS_6StringEPKc, .-_ZN3UppeqERKNS_6StringEPKc
	.section	.text._ZNK3Upp6VectorINS_5ValueEE3ChkEv,"axG",@progbits,_ZNK3Upp6VectorINS_5ValueEE3ChkEv,comdat
	.align 2
	.weak	_ZNK3Upp6VectorINS_5ValueEE3ChkEv
	.type	_ZNK3Upp6VectorINS_5ValueEE3ChkEv, @function
_ZNK3Upp6VectorINS_5ValueEE3ChkEv:
.LFB9143:
	pushq	%rbp
.LCFI248:
	movq	%rsp, %rbp
.LCFI249:
	movq	%rdi, -8(%rbp)
	leave
	ret
.LFE9143:
	.size	_ZNK3Upp6VectorINS_5ValueEE3ChkEv, .-_ZNK3Upp6VectorINS_5ValueEE3ChkEv
	.section	.text._ZNK3Upp6VectorINS_5ValueEE8GetCountEv,"axG",@progbits,_ZNK3Upp6VectorINS_5ValueEE8GetCountEv,comdat
	.align 2
	.weak	_ZNK3Upp6VectorINS_5ValueEE8GetCountEv
	.type	_ZNK3Upp6VectorINS_5ValueEE8GetCountEv, @function
_ZNK3Upp6VectorINS_5ValueEE8GetCountEv:
.LFB8090:
	pushq	%rbp
.LCFI250:
	movq	%rsp, %rbp
.LCFI251:
	subq	$16, %rsp
.LCFI252:
	movq	%rdi, -8(%rbp)
	movq	-8(%rbp), %rdi
	call	_ZNK3Upp6VectorINS_5ValueEE3ChkEv
	movq	-8(%rbp), %rax
	movl	8(%rax), %eax
	leave
	ret
.LFE8090:
	.size	_ZNK3Upp6VectorINS_5ValueEE8GetCountEv, .-_ZNK3Upp6VectorINS_5ValueEE8GetCountEv
	.section	.text._ZNK3Upp6AIndexINS_5ValueENS_6VectorIS1_EENS_7StdHashIS1_EEE8GetCountEv,"axG",@progbits,_ZNK3Upp6AIndexINS_5ValueENS_6VectorIS1_EENS_7StdHashIS1_EEE8GetCountEv,comdat
	.align 2
	.weak	_ZNK3Upp6AIndexINS_5ValueENS_6VectorIS1_EENS_7StdHashIS1_EEE8GetCountEv
	.type	_ZNK3Upp6AIndexINS_5ValueENS_6VectorIS1_EENS_7StdHashIS1_EEE8GetCountEv, @function
_ZNK3Upp6AIndexINS_5ValueENS_6VectorIS1_EENS_7StdHashIS1_EEE8GetCountEv:
.LFB8540:
	pushq	%rbp
.LCFI253:
	movq	%rsp, %rbp
.LCFI254:
	subq	$16, %rsp
.LCFI255:
	movq	%rdi, -8(%rbp)
	movq	-8(%rbp), %rdi
	call	_ZNK3Upp6VectorINS_5ValueEE8GetCountEv
	leave
	ret
.LFE8540:
	.size	_ZNK3Upp6AIndexINS_5ValueENS_6VectorIS1_EENS_7StdHashIS1_EEE8GetCountEv, .-_ZNK3Upp6AIndexINS_5ValueENS_6VectorIS1_EENS_7StdHashIS1_EEE8GetCountEv
	.section	.text._ZNK3Upp8DropList8GetCountEv,"axG",@progbits,_ZNK3Upp8DropList8GetCountEv,comdat
	.align 2
	.weak	_ZNK3Upp8DropList8GetCountEv
	.type	_ZNK3Upp8DropList8GetCountEv, @function
_ZNK3Upp8DropList8GetCountEv:
.LFB6064:
	pushq	%rbp
.LCFI256:
	movq	%rsp, %rbp
.LCFI257:
	subq	$16, %rsp
.LCFI258:
	movq	%rdi, -8(%rbp)
	movq	-8(%rbp), %rdi
	addq	$3944, %rdi
	call	_ZNK3Upp6AIndexINS_5ValueENS_6VectorIS1_EENS_7StdHashIS1_EEE8GetCountEv
	leave
	ret
.LFE6064:
	.size	_ZNK3Upp8DropList8GetCountEv, .-_ZNK3Upp8DropList8GetCountEv
	.section	.text._ZN3Upp5Rect_IiE3SetEiiii,"axG",@progbits,_ZN3Upp5Rect_IiE3SetEiiii,comdat
	.align 2
	.weak	_ZN3Upp5Rect_IiE3SetEiiii
	.type	_ZN3Upp5Rect_IiE3SetEiiii, @function
_ZN3Upp5Rect_IiE3SetEiiii:
.LFB9145:
	pushq	%rbp
.LCFI259:
	movq	%rsp, %rbp
.LCFI260:
	movq	%rdi, -8(%rbp)
	movl	%esi, -12(%rbp)
	movl	%edx, -16(%rbp)
	movl	%ecx, -20(%rbp)
	movl	%r8d, -24(%rbp)
	movq	-8(%rbp), %rdx
	movl	-12(%rbp), %eax
	movl	%eax, (%rdx)
	movq	-8(%rbp), %rdx
	movl	-16(%rbp), %eax
	movl	%eax, 4(%rdx)
	movq	-8(%rbp), %rdx
	movl	-20(%rbp), %eax
	movl	%eax, 8(%rdx)
	movq	-8(%rbp), %rdx
	movl	-24(%rbp), %eax
	movl	%eax, 12(%rdx)
	leave
	ret
.LFE9145:
	.size	_ZN3Upp5Rect_IiE3SetEiiii, .-_ZN3Upp5Rect_IiE3SetEiiii
	.section	.text._ZN3Upp25MoveableAndDeepCopyOptionINS_6VectorIPvEENS_10EmptyClassEEC2Ev,"axG",@progbits,_ZN3Upp25MoveableAndDeepCopyOptionINS_6VectorIPvEENS_10EmptyClassEEC2Ev,comdat
	.align 2
	.weak	_ZN3Upp25MoveableAndDeepCopyOptionINS_6VectorIPvEENS_10EmptyClassEEC2Ev
	.type	_ZN3Upp25MoveableAndDeepCopyOptionINS_6VectorIPvEENS_10EmptyClassEEC2Ev, @function
_ZN3Upp25MoveableAndDeepCopyOptionINS_6VectorIPvEENS_10EmptyClassEEC2Ev:
.LFB9210:
	pushq	%rbp
.LCFI261:
	movq	%rsp, %rbp
.LCFI262:
	movq	%rdi, -8(%rbp)
	leave
	ret
.LFE9210:
	.size	_ZN3Upp25MoveableAndDeepCopyOptionINS_6VectorIPvEENS_10EmptyClassEEC2Ev, .-_ZN3Upp25MoveableAndDeepCopyOptionINS_6VectorIPvEENS_10EmptyClassEEC2Ev
	.section	.text._ZN3Upp6VectorIPvEC1Ev,"axG",@progbits,_ZN3Upp6VectorIPvEC1Ev,comdat
	.align 2
	.weak	_ZN3Upp6VectorIPvEC1Ev
	.type	_ZN3Upp6VectorIPvEC1Ev, @function
_ZN3Upp6VectorIPvEC1Ev:
.LFB9213:
	pushq	%rbp
.LCFI263:
	movq	%rsp, %rbp
.LCFI264:
	subq	$16, %rsp
.LCFI265:
	movq	%rdi, -8(%rbp)
	movq	-8(%rbp), %rdi
	call	_ZN3Upp25MoveableAndDeepCopyOptionINS_6VectorIPvEENS_10EmptyClassEEC2Ev
	movq	-8(%rbp), %rax
	movq	$0, (%rax)
	movq	-8(%rbp), %rax
	movl	$0, 12(%rax)
	movq	-8(%rbp), %rax
	movl	12(%rax), %edx
	movq	-8(%rbp), %rax
	movl	%edx, 8(%rax)
	leave
	ret
.LFE9213:
	.size	_ZN3Upp6VectorIPvEC1Ev, .-_ZN3Upp6VectorIPvEC1Ev
	.section	.text._ZN3Upp5ArrayI12TemplateItemEC1Ev,"axG",@progbits,_ZN3Upp5ArrayI12TemplateItemEC1Ev,comdat
	.align 2
	.weak	_ZN3Upp5ArrayI12TemplateItemEC1Ev
	.type	_ZN3Upp5ArrayI12TemplateItemEC1Ev, @function
_ZN3Upp5ArrayI12TemplateItemEC1Ev:
.LFB8983:
	pushq	%rbp
.LCFI266:
	movq	%rsp, %rbp
.LCFI267:
	subq	$16, %rsp
.LCFI268:
	movq	%rdi, -8(%rbp)
	movq	-8(%rbp), %rdi
	call	_ZN3Upp25MoveableAndDeepCopyOptionINS_5ArrayI12TemplateItemEENS_10EmptyClassEEC2Ev
	movq	-8(%rbp), %rdi
	addq	$8, %rdi
	call	_ZN3Upp6VectorIPvEC1Ev
	leave
	ret
.LFE8983:
	.size	_ZN3Upp5ArrayI12TemplateItemEC1Ev, .-_ZN3Upp5ArrayI12TemplateItemEC1Ev
	.section	.text._ZN3Upp5ArrayI12FileTemplateEC1Ev,"axG",@progbits,_ZN3Upp5ArrayI12FileTemplateEC1Ev,comdat
	.align 2
	.weak	_ZN3Upp5ArrayI12FileTemplateEC1Ev
	.type	_ZN3Upp5ArrayI12FileTemplateEC1Ev, @function
_ZN3Upp5ArrayI12FileTemplateEC1Ev:
.LFB8992:
	pushq	%rbp
.LCFI269:
	movq	%rsp, %rbp
.LCFI270:
	subq	$16, %rsp
.LCFI271:
	movq	%rdi, -8(%rbp)
	movq	-8(%rbp), %rdi
	call	_ZN3Upp25MoveableAndDeepCopyOptionINS_5ArrayI12FileTemplateEENS_10EmptyClassEEC2Ev
	movq	-8(%rbp), %rdi
	addq	$8, %rdi
	call	_ZN3Upp6VectorIPvEC1Ev
	leave
	ret
.LFE8992:
	.size	_ZN3Upp5ArrayI12FileTemplateEC1Ev, .-_ZN3Upp5ArrayI12FileTemplateEC1Ev
	.section	.text._ZN3Upp5ArrayI15PackageTemplateEC1Ev,"axG",@progbits,_ZN3Upp5ArrayI15PackageTemplateEC1Ev,comdat
	.align 2
	.weak	_ZN3Upp5ArrayI15PackageTemplateEC1Ev
	.type	_ZN3Upp5ArrayI15PackageTemplateEC1Ev, @function
_ZN3Upp5ArrayI15PackageTemplateEC1Ev:
.LFB9044:
	pushq	%rbp
.LCFI272:
	movq	%rsp, %rbp
.LCFI273:
	subq	$16, %rsp
.LCFI274:
	movq	%rdi, -8(%rbp)
	movq	-8(%rbp), %rdi
	call	_ZN3Upp25MoveableAndDeepCopyOptionINS_5ArrayI15PackageTemplateEENS_10EmptyClassEEC2Ev
	movq	-8(%rbp), %rdi
	addq	$8, %rdi
	call	_ZN3Upp6VectorIPvEC1Ev
	leave
	ret
.LFE9044:
	.size	_ZN3Upp5ArrayI15PackageTemplateEC1Ev, .-_ZN3Upp5ArrayI15PackageTemplateEC1Ev
	.section	.text._ZN3Upp5ArrayINS_5LabelEEC1Ev,"axG",@progbits,_ZN3Upp5ArrayINS_5LabelEEC1Ev,comdat
	.align 2
	.weak	_ZN3Upp5ArrayINS_5LabelEEC1Ev
	.type	_ZN3Upp5ArrayINS_5LabelEEC1Ev, @function
_ZN3Upp5ArrayINS_5LabelEEC1Ev:
.LFB9053:
	pushq	%rbp
.LCFI275:
	movq	%rsp, %rbp
.LCFI276:
	subq	$16, %rsp
.LCFI277:
	movq	%rdi, -8(%rbp)
	movq	-8(%rbp), %rdi
	call	_ZN3Upp25MoveableAndDeepCopyOptionINS_5ArrayINS_5LabelEEENS_10EmptyClassEEC2Ev
	movq	-8(%rbp), %rdi
	addq	$8, %rdi
	call	_ZN3Upp6VectorIPvEC1Ev
	leave
	ret
.LFE9053:
	.size	_ZN3Upp5ArrayINS_5LabelEEC1Ev, .-_ZN3Upp5ArrayINS_5LabelEEC1Ev
	.section	.text._ZN3Upp5ArrayINS_4CtrlEEC1Ev,"axG",@progbits,_ZN3Upp5ArrayINS_4CtrlEEC1Ev,comdat
	.align 2
	.weak	_ZN3Upp5ArrayINS_4CtrlEEC1Ev
	.type	_ZN3Upp5ArrayINS_4CtrlEEC1Ev, @function
_ZN3Upp5ArrayINS_4CtrlEEC1Ev:
.LFB9062:
	pushq	%rbp
.LCFI278:
	movq	%rsp, %rbp
.LCFI279:
	subq	$16, %rsp
.LCFI280:
	movq	%rdi, -8(%rbp)
	movq	-8(%rbp), %rdi
	call	_ZN3Upp25MoveableAndDeepCopyOptionINS_5ArrayINS_4CtrlEEENS_10EmptyClassEEC2Ev
	movq	-8(%rbp), %rdi
	addq	$8, %rdi
	call	_ZN3Upp6VectorIPvEC1Ev
	leave
	ret
.LFE9062:
	.size	_ZN3Upp5ArrayINS_4CtrlEEC1Ev, .-_ZN3Upp5ArrayINS_4CtrlEEC1Ev
	.section	.text._ZNK3Upp6VectorINS_6StringEE3ChkEv,"axG",@progbits,_ZNK3Upp6VectorINS_6StringEE3ChkEv,comdat
	.align 2
	.weak	_ZNK3Upp6VectorINS_6StringEE3ChkEv
	.type	_ZNK3Upp6VectorINS_6StringEE3ChkEv, @function
_ZNK3Upp6VectorINS_6StringEE3ChkEv:
.LFB9324:
	pushq	%rbp
.LCFI281:
	movq	%rsp, %rbp
.LCFI282:
	movq	%rdi, -8(%rbp)
	leave
	ret
.LFE9324:
	.size	_ZNK3Upp6VectorINS_6StringEE3ChkEv, .-_ZNK3Upp6VectorINS_6StringEE3ChkEv
	.section	.text._ZNK3Upp6VectorINS_6StringEE8GetCountEv,"axG",@progbits,_ZNK3Upp6VectorINS_6StringEE8GetCountEv,comdat
	.align 2
	.weak	_ZNK3Upp6VectorINS_6StringEE8GetCountEv
	.type	_ZNK3Upp6VectorINS_6StringEE8GetCountEv, @function
_ZNK3Upp6VectorINS_6StringEE8GetCountEv:
.LFB8483:
	pushq	%rbp
.LCFI283:
	movq	%rsp, %rbp
.LCFI284:
	subq	$16, %rsp
.LCFI285:
	movq	%rdi, -8(%rbp)
	movq	-8(%rbp), %rdi
	call	_ZNK3Upp6VectorINS_6StringEE3ChkEv
	movq	-8(%rbp), %rax
	movl	8(%rax), %eax
	leave
	ret
.LFE8483:
	.size	_ZNK3Upp6VectorINS_6StringEE8GetCountEv, .-_ZNK3Upp6VectorINS_6StringEE8GetCountEv
	.section	.text._ZN3Upp20CallbackMethodActionINS_13DelayCallbackEMS1_FvvEEC1EPS1_S3_,"axG",@progbits,_ZN3Upp20CallbackMethodActionINS_13DelayCallbackEMS1_FvvEEC1EPS1_S3_,comdat
	.align 2
	.weak	_ZN3Upp20CallbackMethodActionINS_13DelayCallbackEMS1_FvvEEC1EPS1_S3_
	.type	_ZN3Upp20CallbackMethodActionINS_13DelayCallbackEMS1_FvvEEC1EPS1_S3_, @function
_ZN3Upp20CallbackMethodActionINS_13DelayCallbackEMS1_FvvEEC1EPS1_S3_:
.LFB9387:
	pushq	%rbp
.LCFI286:
	movq	%rsp, %rbp
.LCFI287:
	subq	$32, %rsp
.LCFI288:
	movq	%rdi, -8(%rbp)
	movq	%rsi, -16(%rbp)
	movq	%rdx, %rax
	movq	%rcx, %rdx
	movq	%rax, -32(%rbp)
	movq	%rdx, -24(%rbp)
	movq	-8(%rbp), %rdi
	call	_ZN3Upp14CallbackActionC2Ev
	movl	$_ZTVN3Upp20CallbackMethodActionINS_13DelayCallbackEMS1_FvvEEE+16, %edx
	movq	-8(%rbp), %rax
	movq	%rdx, (%rax)
	movq	-8(%rbp), %rdx
	movq	-16(%rbp), %rax
	movq	%rax, 16(%rdx)
	movq	-8(%rbp), %rdx
	movq	-32(%rbp), %rax
	movq	%rax, 24(%rdx)
	movq	-24(%rbp), %rax
	movq	%rax, 32(%rdx)
	leave
	ret
.LFE9387:
	.size	_ZN3Upp20CallbackMethodActionINS_13DelayCallbackEMS1_FvvEEC1EPS1_S3_, .-_ZN3Upp20CallbackMethodActionINS_13DelayCallbackEMS1_FvvEEC1EPS1_S3_
	.section	.text._ZN3Upp6VectorINS_6StringEE3RddEv,"axG",@progbits,_ZN3Upp6VectorINS_6StringEE3RddEv,comdat
	.align 2
	.weak	_ZN3Upp6VectorINS_6StringEE3RddEv
	.type	_ZN3Upp6VectorINS_6StringEE3RddEv, @function
_ZN3Upp6VectorINS_6StringEE3RddEv:
.LFB9422:
	pushq	%rbp
.LCFI289:
	movq	%rsp, %rbp
.LCFI290:
	movq	%rdi, -8(%rbp)
	movq	-8(%rbp), %rax
	movq	(%rax), %rcx
	movq	-8(%rbp), %rax
	movl	8(%rax), %edx
	movslq	%edx,%rax
	salq	$4, %rax
	addq	%rax, %rcx
	addl	$1, %edx
	movq	-8(%rbp), %rax
	movl	%edx, 8(%rax)
	movq	%rcx, %rax
	leave
	ret
.LFE9422:
	.size	_ZN3Upp6VectorINS_6StringEE3RddEv, .-_ZN3Upp6VectorINS_6StringEE3RddEv
	.section	.text._ZN3Upp20CallbackMethodActionI10AppPreviewMS1_FvvEEC1EPS1_S3_,"axG",@progbits,_ZN3Upp20CallbackMethodActionI10AppPreviewMS1_FvvEEC1EPS1_S3_,comdat
	.align 2
	.weak	_ZN3Upp20CallbackMethodActionI10AppPreviewMS1_FvvEEC1EPS1_S3_
	.type	_ZN3Upp20CallbackMethodActionI10AppPreviewMS1_FvvEEC1EPS1_S3_, @function
_ZN3Upp20CallbackMethodActionI10AppPreviewMS1_FvvEEC1EPS1_S3_:
.LFB9603:
	pushq	%rbp
.LCFI291:
	movq	%rsp, %rbp
.LCFI292:
	subq	$32, %rsp
.LCFI293:
	movq	%rdi, -8(%rbp)
	movq	%rsi, -16(%rbp)
	movq	%rdx, %rax
	movq	%rcx, %rdx
	movq	%rax, -32(%rbp)
	movq	%rdx, -24(%rbp)
	movq	-8(%rbp), %rdi
	call	_ZN3Upp14CallbackActionC2Ev
	movl	$_ZTVN3Upp20CallbackMethodActionI10AppPreviewMS1_FvvEEE+16, %edx
	movq	-8(%rbp), %rax
	movq	%rdx, (%rax)
	movq	-8(%rbp), %rdx
	movq	-16(%rbp), %rax
	movq	%rax, 16(%rdx)
	movq	-8(%rbp), %rdx
	movq	-32(%rbp), %rax
	movq	%rax, 24(%rdx)
	movq	-24(%rbp), %rax
	movq	%rax, 32(%rdx)
	leave
	ret
.LFE9603:
	.size	_ZN3Upp20CallbackMethodActionI10AppPreviewMS1_FvvEEC1EPS1_S3_, .-_ZN3Upp20CallbackMethodActionI10AppPreviewMS1_FvvEEC1EPS1_S3_
	.section	.text._ZNK3Upp6VectorIN10AppPreview4LineEE3ChkEv,"axG",@progbits,_ZNK3Upp6VectorIN10AppPreview4LineEE3ChkEv,comdat
	.align 2
	.weak	_ZNK3Upp6VectorIN10AppPreview4LineEE3ChkEv
	.type	_ZNK3Upp6VectorIN10AppPreview4LineEE3ChkEv, @function
_ZNK3Upp6VectorIN10AppPreview4LineEE3ChkEv:
.LFB9604:
	pushq	%rbp
.LCFI294:
	movq	%rsp, %rbp
.LCFI295:
	movq	%rdi, -8(%rbp)
	leave
	ret
.LFE9604:
	.size	_ZNK3Upp6VectorIN10AppPreview4LineEE3ChkEv, .-_ZNK3Upp6VectorIN10AppPreview4LineEE3ChkEv
	.section	.text._ZNK3Upp6VectorIN10AppPreview4LineEE8GetCountEv,"axG",@progbits,_ZNK3Upp6VectorIN10AppPreview4LineEE8GetCountEv,comdat
	.align 2
	.weak	_ZNK3Upp6VectorIN10AppPreview4LineEE8GetCountEv
	.type	_ZNK3Upp6VectorIN10AppPreview4LineEE8GetCountEv, @function
_ZNK3Upp6VectorIN10AppPreview4LineEE8GetCountEv:
.LFB9029:
	pushq	%rbp
.LCFI296:
	movq	%rsp, %rbp
.LCFI297:
	subq	$16, %rsp
.LCFI298:
	movq	%rdi, -8(%rbp)
	movq	-8(%rbp), %rdi
	call	_ZNK3Upp6VectorIN10AppPreview4LineEE3ChkEv
	movq	-8(%rbp), %rax
	movl	8(%rax), %eax
	leave
	ret
.LFE9029:
	.size	_ZNK3Upp6VectorIN10AppPreview4LineEE8GetCountEv, .-_ZNK3Upp6VectorIN10AppPreview4LineEE8GetCountEv
	.section	.text._ZNK3Upp6VectorIN10AppPreview4LineEE3GetEi,"axG",@progbits,_ZNK3Upp6VectorIN10AppPreview4LineEE3GetEi,comdat
	.align 2
	.weak	_ZNK3Upp6VectorIN10AppPreview4LineEE3GetEi
	.type	_ZNK3Upp6VectorIN10AppPreview4LineEE3GetEi, @function
_ZNK3Upp6VectorIN10AppPreview4LineEE3GetEi:
.LFB9605:
	pushq	%rbp
.LCFI299:
	movq	%rsp, %rbp
.LCFI300:
	movq	%rdi, -8(%rbp)
	movl	%esi, -12(%rbp)
	movq	-8(%rbp), %rax
	movq	(%rax), %rdx
	movl	-12(%rbp), %eax
	cltq
	salq	$5, %rax
	leaq	(%rdx,%rax), %rax
	leave
	ret
.LFE9605:
	.size	_ZNK3Upp6VectorIN10AppPreview4LineEE3GetEi, .-_ZNK3Upp6VectorIN10AppPreview4LineEE3GetEi
	.section	.text._ZN3Upp6VectorIN10AppPreview4LineEEixEi,"axG",@progbits,_ZN3Upp6VectorIN10AppPreview4LineEEixEi,comdat
	.align 2
	.weak	_ZN3Upp6VectorIN10AppPreview4LineEEixEi
	.type	_ZN3Upp6VectorIN10AppPreview4LineEEixEi, @function
_ZN3Upp6VectorIN10AppPreview4LineEEixEi:
.LFB9030:
	pushq	%rbp
.LCFI301:
	movq	%rsp, %rbp
.LCFI302:
	subq	$16, %rsp
.LCFI303:
	movq	%rdi, -8(%rbp)
	movl	%esi, -12(%rbp)
	movl	-12(%rbp), %esi
	movq	-8(%rbp), %rdi
	call	_ZNK3Upp6VectorIN10AppPreview4LineEE3GetEi
	leave
	ret
.LFE9030:
	.size	_ZN3Upp6VectorIN10AppPreview4LineEEixEi, .-_ZN3Upp6VectorIN10AppPreview4LineEEixEi
	.section	.text._ZNK3Upp6VectorINS_6StringEE3GetEi,"axG",@progbits,_ZNK3Upp6VectorINS_6StringEE3GetEi,comdat
	.align 2
	.weak	_ZNK3Upp6VectorINS_6StringEE3GetEi
	.type	_ZNK3Upp6VectorINS_6StringEE3GetEi, @function
_ZNK3Upp6VectorINS_6StringEE3GetEi:
.LFB9607:
	pushq	%rbp
.LCFI304:
	movq	%rsp, %rbp
.LCFI305:
	movq	%rdi, -8(%rbp)
	movl	%esi, -12(%rbp)
	movq	-8(%rbp), %rax
	movq	(%rax), %rdx
	movl	-12(%rbp), %eax
	cltq
	salq	$4, %rax
	leaq	(%rdx,%rax), %rax
	leave
	ret
.LFE9607:
	.size	_ZNK3Upp6VectorINS_6StringEE3GetEi, .-_ZNK3Upp6VectorINS_6StringEE3GetEi
	.section	.text._ZNK3Upp6VectorINS_6StringEEixEi,"axG",@progbits,_ZNK3Upp6VectorINS_6StringEEixEi,comdat
	.align 2
	.weak	_ZNK3Upp6VectorINS_6StringEEixEi
	.type	_ZNK3Upp6VectorINS_6StringEEixEi, @function
_ZNK3Upp6VectorINS_6StringEEixEi:
.LFB9089:
	pushq	%rbp
.LCFI306:
	movq	%rsp, %rbp
.LCFI307:
	subq	$16, %rsp
.LCFI308:
	movq	%rdi, -8(%rbp)
	movl	%esi, -12(%rbp)
	movl	-12(%rbp), %esi
	movq	-8(%rbp), %rdi
	call	_ZNK3Upp6VectorINS_6StringEE3GetEi
	leave
	ret
.LFE9089:
	.size	_ZNK3Upp6VectorINS_6StringEEixEi, .-_ZNK3Upp6VectorINS_6StringEEixEi
	.section	.text._ZN3Upp6VectorINS_6StringEEixEi,"axG",@progbits,_ZN3Upp6VectorINS_6StringEEixEi,comdat
	.align 2
	.weak	_ZN3Upp6VectorINS_6StringEEixEi
	.type	_ZN3Upp6VectorINS_6StringEEixEi, @function
_ZN3Upp6VectorINS_6StringEEixEi:
.LFB9038:
	pushq	%rbp
.LCFI309:
	movq	%rsp, %rbp
.LCFI310:
	subq	$16, %rsp
.LCFI311:
	movq	%rdi, -8(%rbp)
	movl	%esi, -12(%rbp)
	movl	-12(%rbp), %esi
	movq	-8(%rbp), %rdi
	call	_ZNK3Upp6VectorINS_6StringEE3GetEi
	leave
	ret
.LFE9038:
	.size	_ZN3Upp6VectorINS_6StringEEixEi, .-_ZN3Upp6VectorINS_6StringEEixEi
	.section	.text._ZN3Upp20CallbackMethodActionI11TemplateDlgMS1_FvvEEC1EPS1_S3_,"axG",@progbits,_ZN3Upp20CallbackMethodActionI11TemplateDlgMS1_FvvEEC1EPS1_S3_,comdat
	.align 2
	.weak	_ZN3Upp20CallbackMethodActionI11TemplateDlgMS1_FvvEEC1EPS1_S3_
	.type	_ZN3Upp20CallbackMethodActionI11TemplateDlgMS1_FvvEEC1EPS1_S3_, @function
_ZN3Upp20CallbackMethodActionI11TemplateDlgMS1_FvvEEC1EPS1_S3_:
.LFB9614:
	pushq	%rbp
.LCFI312:
	movq	%rsp, %rbp
.LCFI313:
	subq	$32, %rsp
.LCFI314:
	movq	%rdi, -8(%rbp)
	movq	%rsi, -16(%rbp)
	movq	%rdx, %rax
	movq	%rcx, %rdx
	movq	%rax, -32(%rbp)
	movq	%rdx, -24(%rbp)
	movq	-8(%rbp), %rdi
	call	_ZN3Upp14CallbackActionC2Ev
	movl	$_ZTVN3Upp20CallbackMethodActionI11TemplateDlgMS1_FvvEEE+16, %edx
	movq	-8(%rbp), %rax
	movq	%rdx, (%rax)
	movq	-8(%rbp), %rdx
	movq	-16(%rbp), %rax
	movq	%rax, 16(%rdx)
	movq	-8(%rbp), %rdx
	movq	-32(%rbp), %rax
	movq	%rax, 24(%rdx)
	movq	-24(%rbp), %rax
	movq	%rax, 32(%rdx)
	leave
	ret
.LFE9614:
	.size	_ZN3Upp20CallbackMethodActionI11TemplateDlgMS1_FvvEEC1EPS1_S3_, .-_ZN3Upp20CallbackMethodActionI11TemplateDlgMS1_FvvEEC1EPS1_S3_
	.section	.text._ZNK3Upp7AStringINS_7String0EE11ReverseFindEii,"axG",@progbits,_ZNK3Upp7AStringINS_7String0EE11ReverseFindEii,comdat
	.align 2
	.weak	_ZNK3Upp7AStringINS_7String0EE11ReverseFindEii
	.type	_ZNK3Upp7AStringINS_7String0EE11ReverseFindEii, @function
_ZNK3Upp7AStringINS_7String0EE11ReverseFindEii:
.LFB9616:
	pushq	%rbp
.LCFI315:
	movq	%rsp, %rbp
.LCFI316:
	subq	$48, %rsp
.LCFI317:
	movq	%rdi, -24(%rbp)
	movl	%esi, -28(%rbp)
	movl	%edx, -32(%rbp)
	movq	-24(%rbp), %rdi
	call	_ZNK3Upp7AStringINS_7String0EE9GetLengthEv
	cmpl	-32(%rbp), %eax
	setg	%al
	testb	%al, %al
	je	.L314
	movq	-24(%rbp), %rdi
	call	_ZNK3Upp7String05BeginEv
	movq	%rax, -16(%rbp)
	movl	-32(%rbp), %eax
	cltq
	addq	-16(%rbp), %rax
	movq	%rax, -8(%rbp)
	jmp	.L316
.L317:
	movq	-8(%rbp), %rax
	movzbl	(%rax), %eax
	movsbl	%al,%eax
	cmpl	-28(%rbp), %eax
	jne	.L318
	movq	-8(%rbp), %rax
	movl	%eax, %edx
	movq	-16(%rbp), %rax
	movl	%edx, %ecx
	subl	%eax, %ecx
	movl	%ecx, %eax
	movl	%eax, -36(%rbp)
	jmp	.L320
.L318:
	subq	$1, -8(%rbp)
.L316:
	movq	-8(%rbp), %rax
	cmpq	-16(%rbp), %rax
	jae	.L317
.L314:
	movl	$-1, -36(%rbp)
.L320:
	movl	-36(%rbp), %eax
	leave
	ret
.LFE9616:
	.size	_ZNK3Upp7AStringINS_7String0EE11ReverseFindEii, .-_ZNK3Upp7AStringINS_7String0EE11ReverseFindEii
	.section	.text._ZNK3Upp7AStringINS_7String0EE11ReverseFindEi,"axG",@progbits,_ZNK3Upp7AStringINS_7String0EE11ReverseFindEi,comdat
	.align 2
	.weak	_ZNK3Upp7AStringINS_7String0EE11ReverseFindEi
	.type	_ZNK3Upp7AStringINS_7String0EE11ReverseFindEi, @function
_ZNK3Upp7AStringINS_7String0EE11ReverseFindEi:
.LFB9069:
	pushq	%rbp
.LCFI318:
	movq	%rsp, %rbp
.LCFI319:
	subq	$16, %rsp
.LCFI320:
	movq	%rdi, -8(%rbp)
	movl	%esi, -12(%rbp)
	movq	-8(%rbp), %rdi
	call	_ZNK3Upp7String08GetCountEv
	testl	%eax, %eax
	je	.L323
	movq	-8(%rbp), %rdi
	call	_ZNK3Upp7String08GetCountEv
	leal	-1(%rax), %edx
	movl	-12(%rbp), %esi
	movq	-8(%rbp), %rdi
	call	_ZNK3Upp7AStringINS_7String0EE11ReverseFindEii
	movl	%eax, -16(%rbp)
	jmp	.L325
.L323:
	movl	$-1, -16(%rbp)
.L325:
	movl	-16(%rbp), %eax
	leave
	ret
.LFE9069:
	.size	_ZNK3Upp7AStringINS_7String0EE11ReverseFindEi, .-_ZNK3Upp7AStringINS_7String0EE11ReverseFindEi
	.section	.text._ZN3Upp16FieldRelationClsINS_6StringE15PackageTemplateNS_7StdLessIS1_EEEC1EMS2_S1_RKS4_,"axG",@progbits,_ZN3Upp16FieldRelationClsINS_6StringE15PackageTemplateNS_7StdLessIS1_EEEC1EMS2_S1_RKS4_,comdat
	.align 2
	.weak	_ZN3Upp16FieldRelationClsINS_6StringE15PackageTemplateNS_7StdLessIS1_EEEC1EMS2_S1_RKS4_
	.type	_ZN3Upp16FieldRelationClsINS_6StringE15PackageTemplateNS_7StdLessIS1_EEEC1EMS2_S1_RKS4_, @function
_ZN3Upp16FieldRelationClsINS_6StringE15PackageTemplateNS_7StdLessIS1_EEEC1EMS2_S1_RKS4_:
.LFB9626:
	pushq	%rbp
.LCFI321:
	movq	%rsp, %rbp
.LCFI322:
	movq	%rdi, -8(%rbp)
	movq	%rsi, -16(%rbp)
	movq	%rdx, -24(%rbp)
	movq	-8(%rbp), %rdx
	movq	-16(%rbp), %rax
	movq	%rax, (%rdx)
	movq	-8(%rbp), %rdx
	movq	-24(%rbp), %rax
	movq	%rax, 8(%rdx)
	leave
	ret
.LFE9626:
	.size	_ZN3Upp16FieldRelationClsINS_6StringE15PackageTemplateNS_7StdLessIS1_EEEC1EMS2_S1_RKS4_, .-_ZN3Upp16FieldRelationClsINS_6StringE15PackageTemplateNS_7StdLessIS1_EEEC1EMS2_S1_RKS4_
	.section	.text._ZN3Upp13FieldRelationINS_6StringE15PackageTemplateNS_7StdLessIS1_EEEENS_16FieldRelationClsIT_T0_T1_EEMS7_S6_RKS8_,"axG",@progbits,_ZN3Upp13FieldRelationINS_6StringE15PackageTemplateNS_7StdLessIS1_EEEENS_16FieldRelationClsIT_T0_T1_EEMS7_S6_RKS8_,comdat
	.align 2
	.weak	_ZN3Upp13FieldRelationINS_6StringE15PackageTemplateNS_7StdLessIS1_EEEENS_16FieldRelationClsIT_T0_T1_EEMS7_S6_RKS8_
	.type	_ZN3Upp13FieldRelationINS_6StringE15PackageTemplateNS_7StdLessIS1_EEEENS_16FieldRelationClsIT_T0_T1_EEMS7_S6_RKS8_, @function
_ZN3Upp13FieldRelationINS_6StringE15PackageTemplateNS_7StdLessIS1_EEEENS_16FieldRelationClsIT_T0_T1_EEMS7_S6_RKS8_:
.LFB9096:
	pushq	%rbp
.LCFI323:
	movq	%rsp, %rbp
.LCFI324:
	subq	$64, %rsp
.LCFI325:
	movq	%rdi, -40(%rbp)
	movq	%rsi, -48(%rbp)
	movq	-48(%rbp), %rdx
	movq	-40(%rbp), %rsi
	leaq	-16(%rbp), %rdi
	call	_ZN3Upp16FieldRelationClsINS_6StringE15PackageTemplateNS_7StdLessIS1_EEEC1EMS2_S1_RKS4_
	movq	-16(%rbp), %rax
	movq	%rax, -32(%rbp)
	movq	-8(%rbp), %rax
	movq	%rax, -24(%rbp)
	movq	-32(%rbp), %rax
	movq	-24(%rbp), %rdx
	leave
	ret
.LFE9096:
	.size	_ZN3Upp13FieldRelationINS_6StringE15PackageTemplateNS_7StdLessIS1_EEEENS_16FieldRelationClsIT_T0_T1_EEMS7_S6_RKS8_, .-_ZN3Upp13FieldRelationINS_6StringE15PackageTemplateNS_7StdLessIS1_EEEENS_16FieldRelationClsIT_T0_T1_EEMS7_S6_RKS8_
	.section	.text._ZNK3Upp6VectorINS_5ValueEE3GetEi,"axG",@progbits,_ZNK3Upp6VectorINS_5ValueEE3GetEi,comdat
	.align 2
	.weak	_ZNK3Upp6VectorINS_5ValueEE3GetEi
	.type	_ZNK3Upp6VectorINS_5ValueEE3GetEi, @function
_ZNK3Upp6VectorINS_5ValueEE3GetEi:
.LFB9650:
	pushq	%rbp
.LCFI326:
	movq	%rsp, %rbp
.LCFI327:
	movq	%rdi, -8(%rbp)
	movl	%esi, -12(%rbp)
	movq	-8(%rbp), %rax
	movq	(%rax), %rdx
	movl	-12(%rbp), %eax
	cltq
	salq	$3, %rax
	leaq	(%rdx,%rax), %rax
	leave
	ret
.LFE9650:
	.size	_ZNK3Upp6VectorINS_5ValueEE3GetEi, .-_ZNK3Upp6VectorINS_5ValueEE3GetEi
	.section	.text._ZNK3Upp6VectorINS_5ValueEEixEi,"axG",@progbits,_ZNK3Upp6VectorINS_5ValueEEixEi,comdat
	.align 2
	.weak	_ZNK3Upp6VectorINS_5ValueEEixEi
	.type	_ZNK3Upp6VectorINS_5ValueEEixEi, @function
_ZNK3Upp6VectorINS_5ValueEEixEi:
.LFB9189:
	pushq	%rbp
.LCFI328:
	movq	%rsp, %rbp
.LCFI329:
	subq	$16, %rsp
.LCFI330:
	movq	%rdi, -8(%rbp)
	movl	%esi, -12(%rbp)
	movl	-12(%rbp), %esi
	movq	-8(%rbp), %rdi
	call	_ZNK3Upp6VectorINS_5ValueEE3GetEi
	leave
	ret
.LFE9189:
	.size	_ZNK3Upp6VectorINS_5ValueEEixEi, .-_ZNK3Upp6VectorINS_5ValueEEixEi
	.section	.text._ZNK3Upp6AIndexINS_5ValueENS_6VectorIS1_EENS_7StdHashIS1_EEEixEi,"axG",@progbits,_ZNK3Upp6AIndexINS_5ValueENS_6VectorIS1_EENS_7StdHashIS1_EEEixEi,comdat
	.align 2
	.weak	_ZNK3Upp6AIndexINS_5ValueENS_6VectorIS1_EENS_7StdHashIS1_EEEixEi
	.type	_ZNK3Upp6AIndexINS_5ValueENS_6VectorIS1_EENS_7StdHashIS1_EEEixEi, @function
_ZNK3Upp6AIndexINS_5ValueENS_6VectorIS1_EENS_7StdHashIS1_EEEixEi:
.LFB8541:
	pushq	%rbp
.LCFI331:
	movq	%rsp, %rbp
.LCFI332:
	subq	$16, %rsp
.LCFI333:
	movq	%rdi, -8(%rbp)
	movl	%esi, -12(%rbp)
	movq	-8(%rbp), %rdi
	movl	-12(%rbp), %esi
	call	_ZNK3Upp6VectorINS_5ValueEEixEi
	leave
	ret
.LFE8541:
	.size	_ZNK3Upp6AIndexINS_5ValueENS_6VectorIS1_EENS_7StdHashIS1_EEEixEi, .-_ZNK3Upp6AIndexINS_5ValueENS_6VectorIS1_EENS_7StdHashIS1_EEEixEi
	.section	.text._ZNK3Upp8DropList6GetKeyEi,"axG",@progbits,_ZNK3Upp8DropList6GetKeyEi,comdat
	.align 2
	.weak	_ZNK3Upp8DropList6GetKeyEi
	.type	_ZNK3Upp8DropList6GetKeyEi, @function
_ZNK3Upp8DropList6GetKeyEi:
.LFB6065:
	pushq	%rbp
.LCFI334:
	movq	%rsp, %rbp
.LCFI335:
	subq	$16, %rsp
.LCFI336:
	movq	%rdi, -8(%rbp)
	movl	%esi, -12(%rbp)
	movq	-8(%rbp), %rdi
	addq	$3944, %rdi
	movl	-12(%rbp), %esi
	call	_ZNK3Upp6AIndexINS_5ValueENS_6VectorIS1_EENS_7StdHashIS1_EEEixEi
	leave
	ret
.LFE6065:
	.size	_ZNK3Upp8DropList6GetKeyEi, .-_ZNK3Upp8DropList6GetKeyEi
	.section	.text._ZN3Upp8DropList8SetIndexEi,"axG",@progbits,_ZN3Upp8DropList8SetIndexEi,comdat
	.align 2
	.weak	_ZN3Upp8DropList8SetIndexEi
	.type	_ZN3Upp8DropList8SetIndexEi, @function
_ZN3Upp8DropList8SetIndexEi:
.LFB6056:
	pushq	%rbp
.LCFI337:
	movq	%rsp, %rbp
.LCFI338:
	pushq	%rbx
.LCFI339:
	subq	$24, %rsp
.LCFI340:
	movq	%rdi, -16(%rbp)
	movl	%esi, -20(%rbp)
	movq	-16(%rbp), %rax
	movq	(%rax), %rax
	addq	$32, %rax
	movq	(%rax), %rbx
	movl	-20(%rbp), %esi
	movq	-16(%rbp), %rdi
	call	_ZNK3Upp8DropList6GetKeyEi
	movq	%rax, %rsi
	movq	-16(%rbp), %rdi
	call	*%rbx
	addq	$24, %rsp
	popq	%rbx
	leave
	ret
.LFE6056:
	.size	_ZN3Upp8DropList8SetIndexEi, .-_ZN3Upp8DropList8SetIndexEi
	.section	.text._ZNK3Upp6VectorIPvE3ChkEv,"axG",@progbits,_ZNK3Upp6VectorIPvE3ChkEv,comdat
	.align 2
	.weak	_ZNK3Upp6VectorIPvE3ChkEv
	.type	_ZNK3Upp6VectorIPvE3ChkEv, @function
_ZNK3Upp6VectorIPvE3ChkEv:
.LFB9657:
	pushq	%rbp
.LCFI341:
	movq	%rsp, %rbp
.LCFI342:
	movq	%rdi, -8(%rbp)
	leave
	ret
.LFE9657:
	.size	_ZNK3Upp6VectorIPvE3ChkEv, .-_ZNK3Upp6VectorIPvE3ChkEv
	.section	.text._ZNK3Upp6VectorIPvE8GetCountEv,"axG",@progbits,_ZNK3Upp6VectorIPvE8GetCountEv,comdat
	.align 2
	.weak	_ZNK3Upp6VectorIPvE8GetCountEv
	.type	_ZNK3Upp6VectorIPvE8GetCountEv, @function
_ZNK3Upp6VectorIPvE8GetCountEv:
.LFB9198:
	pushq	%rbp
.LCFI343:
	movq	%rsp, %rbp
.LCFI344:
	subq	$16, %rsp
.LCFI345:
	movq	%rdi, -8(%rbp)
	movq	-8(%rbp), %rdi
	call	_ZNK3Upp6VectorIPvE3ChkEv
	movq	-8(%rbp), %rax
	movl	8(%rax), %eax
	leave
	ret
.LFE9198:
	.size	_ZNK3Upp6VectorIPvE8GetCountEv, .-_ZNK3Upp6VectorIPvE8GetCountEv
	.section	.text._ZNK3Upp5ArrayI15PackageTemplateE8GetCountEv,"axG",@progbits,_ZNK3Upp5ArrayI15PackageTemplateE8GetCountEv,comdat
	.align 2
	.weak	_ZNK3Upp5ArrayI15PackageTemplateE8GetCountEv
	.type	_ZNK3Upp5ArrayI15PackageTemplateE8GetCountEv, @function
_ZNK3Upp5ArrayI15PackageTemplateE8GetCountEv:
.LFB9098:
	pushq	%rbp
.LCFI346:
	movq	%rsp, %rbp
.LCFI347:
	subq	$16, %rsp
.LCFI348:
	movq	%rdi, -8(%rbp)
	movq	-8(%rbp), %rdi
	addq	$8, %rdi
	call	_ZNK3Upp6VectorIPvE8GetCountEv
	leave
	ret
.LFE9098:
	.size	_ZNK3Upp5ArrayI15PackageTemplateE8GetCountEv, .-_ZNK3Upp5ArrayI15PackageTemplateE8GetCountEv
	.section	.text._ZNK3Upp5ArrayINS_5LabelEE8GetCountEv,"axG",@progbits,_ZNK3Upp5ArrayINS_5LabelEE8GetCountEv,comdat
	.align 2
	.weak	_ZNK3Upp5ArrayINS_5LabelEE8GetCountEv
	.type	_ZNK3Upp5ArrayINS_5LabelEE8GetCountEv, @function
_ZNK3Upp5ArrayINS_5LabelEE8GetCountEv:
.LFB9621:
	pushq	%rbp
.LCFI349:
	movq	%rsp, %rbp
.LCFI350:
	subq	$16, %rsp
.LCFI351:
	movq	%rdi, -8(%rbp)
	movq	-8(%rbp), %rdi
	addq	$8, %rdi
	call	_ZNK3Upp6VectorIPvE8GetCountEv
	leave
	ret
.LFE9621:
	.size	_ZNK3Upp5ArrayINS_5LabelEE8GetCountEv, .-_ZNK3Upp5ArrayINS_5LabelEE8GetCountEv
	.section	.text._ZNK3Upp5ArrayINS_4CtrlEE8GetCountEv,"axG",@progbits,_ZNK3Upp5ArrayINS_4CtrlEE8GetCountEv,comdat
	.align 2
	.weak	_ZNK3Upp5ArrayINS_4CtrlEE8GetCountEv
	.type	_ZNK3Upp5ArrayINS_4CtrlEE8GetCountEv, @function
_ZNK3Upp5ArrayINS_4CtrlEE8GetCountEv:
.LFB9622:
	pushq	%rbp
.LCFI352:
	movq	%rsp, %rbp
.LCFI353:
	subq	$16, %rsp
.LCFI354:
	movq	%rdi, -8(%rbp)
	movq	-8(%rbp), %rdi
	addq	$8, %rdi
	call	_ZNK3Upp6VectorIPvE8GetCountEv
	leave
	ret
.LFE9622:
	.size	_ZNK3Upp5ArrayINS_4CtrlEE8GetCountEv, .-_ZNK3Upp5ArrayINS_4CtrlEE8GetCountEv
	.section	.text._ZNK3Upp5ArrayI12TemplateItemE8GetCountEv,"axG",@progbits,_ZNK3Upp5ArrayI12TemplateItemE8GetCountEv,comdat
	.align 2
	.weak	_ZNK3Upp5ArrayI12TemplateItemE8GetCountEv
	.type	_ZNK3Upp5ArrayI12TemplateItemE8GetCountEv, @function
_ZNK3Upp5ArrayI12TemplateItemE8GetCountEv:
.LFB9077:
	pushq	%rbp
.LCFI355:
	movq	%rsp, %rbp
.LCFI356:
	subq	$16, %rsp
.LCFI357:
	movq	%rdi, -8(%rbp)
	movq	-8(%rbp), %rdi
	addq	$8, %rdi
	call	_ZNK3Upp6VectorIPvE8GetCountEv
	leave
	ret
.LFE9077:
	.size	_ZNK3Upp5ArrayI12TemplateItemE8GetCountEv, .-_ZNK3Upp5ArrayI12TemplateItemE8GetCountEv
	.section	.text._ZNK3Upp5ArrayI12FileTemplateE8GetCountEv,"axG",@progbits,_ZNK3Upp5ArrayI12FileTemplateE8GetCountEv,comdat
	.align 2
	.weak	_ZNK3Upp5ArrayI12FileTemplateE8GetCountEv
	.type	_ZNK3Upp5ArrayI12FileTemplateE8GetCountEv, @function
_ZNK3Upp5ArrayI12FileTemplateE8GetCountEv:
.LFB9080:
	pushq	%rbp
.LCFI358:
	movq	%rsp, %rbp
.LCFI359:
	subq	$16, %rsp
.LCFI360:
	movq	%rdi, -8(%rbp)
	movq	-8(%rbp), %rdi
	addq	$8, %rdi
	call	_ZNK3Upp6VectorIPvE8GetCountEv
	leave
	ret
.LFE9080:
	.size	_ZNK3Upp5ArrayI12FileTemplateE8GetCountEv, .-_ZNK3Upp5ArrayI12FileTemplateE8GetCountEv
	.section	.text._ZN3Upp6VectorIPvE5BeginEv,"axG",@progbits,_ZN3Upp6VectorIPvE5BeginEv,comdat
	.align 2
	.weak	_ZN3Upp6VectorIPvE5BeginEv
	.type	_ZN3Upp6VectorIPvE5BeginEv, @function
_ZN3Upp6VectorIPvE5BeginEv:
.LFB9659:
	pushq	%rbp
.LCFI361:
	movq	%rsp, %rbp
.LCFI362:
	movq	%rdi, -8(%rbp)
	movq	-8(%rbp), %rax
	movq	(%rax), %rax
	leave
	ret
.LFE9659:
	.size	_ZN3Upp6VectorIPvE5BeginEv, .-_ZN3Upp6VectorIPvE5BeginEv
	.section	.text._ZN3Upp6VectorIPvE3EndEv,"axG",@progbits,_ZN3Upp6VectorIPvE3EndEv,comdat
	.align 2
	.weak	_ZN3Upp6VectorIPvE3EndEv
	.type	_ZN3Upp6VectorIPvE3EndEv, @function
_ZN3Upp6VectorIPvE3EndEv:
.LFB9660:
	pushq	%rbp
.LCFI363:
	movq	%rsp, %rbp
.LCFI364:
	movq	%rdi, -8(%rbp)
	movq	-8(%rbp), %rax
	movq	(%rax), %rdx
	movq	-8(%rbp), %rax
	movl	8(%rax), %eax
	cltq
	salq	$3, %rax
	leaq	(%rdx,%rax), %rax
	leave
	ret
.LFE9660:
	.size	_ZN3Upp6VectorIPvE3EndEv, .-_ZN3Upp6VectorIPvE3EndEv
	.section	.text._ZN3Upp6VectorIPvE3RddEv,"axG",@progbits,_ZN3Upp6VectorIPvE3RddEv,comdat
	.align 2
	.weak	_ZN3Upp6VectorIPvE3RddEv
	.type	_ZN3Upp6VectorIPvE3RddEv, @function
_ZN3Upp6VectorIPvE3RddEv:
.LFB9664:
	pushq	%rbp
.LCFI365:
	movq	%rsp, %rbp
.LCFI366:
	movq	%rdi, -8(%rbp)
	movq	-8(%rbp), %rax
	movq	(%rax), %rcx
	movq	-8(%rbp), %rax
	movl	8(%rax), %edx
	movslq	%edx,%rax
	salq	$3, %rax
	addq	%rax, %rcx
	addl	$1, %edx
	movq	-8(%rbp), %rax
	movl	%edx, 8(%rax)
	movq	%rcx, %rax
	leave
	ret
.LFE9664:
	.size	_ZN3Upp6VectorIPvE3RddEv, .-_ZN3Upp6VectorIPvE3RddEv
	.section	.text._ZN3Upp17DeepCopyConstructIPvEEvS1_RKT_,"axG",@progbits,_ZN3Upp17DeepCopyConstructIPvEEvS1_RKT_,comdat
	.align 2
	.weak	_ZN3Upp17DeepCopyConstructIPvEEvS1_RKT_
	.type	_ZN3Upp17DeepCopyConstructIPvEEvS1_RKT_, @function
_ZN3Upp17DeepCopyConstructIPvEEvS1_RKT_:
.LFB9665:
	pushq	%rbp
.LCFI367:
	movq	%rsp, %rbp
.LCFI368:
	subq	$32, %rsp
.LCFI369:
	movq	%rdi, -8(%rbp)
	movq	%rsi, -16(%rbp)
	movq	-8(%rbp), %rsi
	movl	$8, %edi
	call	_ZnwmPv
	movq	%rax, -24(%rbp)
	cmpq	$0, -24(%rbp)
	je	.L365
	movq	-16(%rbp), %rax
	movq	(%rax), %rax
	movq	-24(%rbp), %rdx
	movq	%rax, (%rdx)
.L365:
	leave
	ret
.LFE9665:
	.size	_ZN3Upp17DeepCopyConstructIPvEEvS1_RKT_, .-_ZN3Upp17DeepCopyConstructIPvEEvS1_RKT_
	.section	.text._ZN3Upp5ArrayINS_8EscValueEEC1Ev,"axG",@progbits,_ZN3Upp5ArrayINS_8EscValueEEC1Ev,comdat
	.align 2
	.weak	_ZN3Upp5ArrayINS_8EscValueEEC1Ev
	.type	_ZN3Upp5ArrayINS_8EscValueEEC1Ev, @function
_ZN3Upp5ArrayINS_8EscValueEEC1Ev:
.LFB9822:
	pushq	%rbp
.LCFI370:
	movq	%rsp, %rbp
.LCFI371:
	subq	$16, %rsp
.LCFI372:
	movq	%rdi, -8(%rbp)
	movq	-8(%rbp), %rdi
	call	_ZN3Upp25MoveableAndDeepCopyOptionINS_5ArrayINS_8EscValueEEENS_10EmptyClassEEC2Ev
	movq	-8(%rbp), %rdi
	addq	$8, %rdi
	call	_ZN3Upp6VectorIPvEC1Ev
	leave
	ret
.LFE9822:
	.size	_ZN3Upp5ArrayINS_8EscValueEEC1Ev, .-_ZN3Upp5ArrayINS_8EscValueEEC1Ev
	.section	.text._ZN3Upp14ConstructArrayIN10AppPreview4LineEEEvPT_PKS3_,"axG",@progbits,_ZN3Upp14ConstructArrayIN10AppPreview4LineEEEvPT_PKS3_,comdat
	.align 2
	.weak	_ZN3Upp14ConstructArrayIN10AppPreview4LineEEEvPT_PKS3_
	.type	_ZN3Upp14ConstructArrayIN10AppPreview4LineEEEvPT_PKS3_, @function
_ZN3Upp14ConstructArrayIN10AppPreview4LineEEEvPT_PKS3_:
.LFB9956:
	pushq	%rbp
.LCFI373:
	movq	%rsp, %rbp
.LCFI374:
	subq	$32, %rsp
.LCFI375:
	movq	%rdi, -8(%rbp)
	movq	%rsi, -16(%rbp)
	jmp	.L375
.L370:
	movq	-8(%rbp), %rsi
	addq	$32, -8(%rbp)
	movl	$32, %edi
	call	_ZnwmPv
	movq	%rax, -24(%rbp)
	cmpq	$0, -24(%rbp)
	je	.L369
	movq	-24(%rbp), %rdi
	call	_ZN10AppPreview4LineC1Ev
.L369:
.L375:
	movq	-8(%rbp), %rax
	cmpq	-16(%rbp), %rax
	jb	.L370
	leave
	ret
.LFE9956:
	.size	_ZN3Upp14ConstructArrayIN10AppPreview4LineEEEvPT_PKS3_, .-_ZN3Upp14ConstructArrayIN10AppPreview4LineEEEvPT_PKS3_
	.section	.text._ZN3Upp5ArrayI15PackageTemplateE8IteratorppEv,"axG",@progbits,_ZN3Upp5ArrayI15PackageTemplateE8IteratorppEv,comdat
	.align 2
	.weak	_ZN3Upp5ArrayI15PackageTemplateE8IteratorppEv
	.type	_ZN3Upp5ArrayI15PackageTemplateE8IteratorppEv, @function
_ZN3Upp5ArrayI15PackageTemplateE8IteratorppEv:
.LFB9995:
	pushq	%rbp
.LCFI376:
	movq	%rsp, %rbp
.LCFI377:
	movq	%rdi, -8(%rbp)
	movq	-8(%rbp), %rax
	movq	(%rax), %rax
	leaq	8(%rax), %rdx
	movq	-8(%rbp), %rax
	movq	%rdx, (%rax)
	movq	-8(%rbp), %rax
	leave
	ret
.LFE9995:
	.size	_ZN3Upp5ArrayI15PackageTemplateE8IteratorppEv, .-_ZN3Upp5ArrayI15PackageTemplateE8IteratorppEv
	.section	.text._ZN3Upp5ArrayI15PackageTemplateE8IteratordeEv,"axG",@progbits,_ZN3Upp5ArrayI15PackageTemplateE8IteratordeEv,comdat
	.align 2
	.weak	_ZN3Upp5ArrayI15PackageTemplateE8IteratordeEv
	.type	_ZN3Upp5ArrayI15PackageTemplateE8IteratordeEv, @function
_ZN3Upp5ArrayI15PackageTemplateE8IteratordeEv:
.LFB9996:
	pushq	%rbp
.LCFI378:
	movq	%rsp, %rbp
.LCFI379:
	movq	%rdi, -8(%rbp)
	movq	-8(%rbp), %rax
	movq	(%rax), %rax
	movq	(%rax), %rax
	leave
	ret
.LFE9996:
	.size	_ZN3Upp5ArrayI15PackageTemplateE8IteratordeEv, .-_ZN3Upp5ArrayI15PackageTemplateE8IteratordeEv
	.section	.text._ZN3Upp5ArrayI15PackageTemplateE8IteratormmEv,"axG",@progbits,_ZN3Upp5ArrayI15PackageTemplateE8IteratormmEv,comdat
	.align 2
	.weak	_ZN3Upp5ArrayI15PackageTemplateE8IteratormmEv
	.type	_ZN3Upp5ArrayI15PackageTemplateE8IteratormmEv, @function
_ZN3Upp5ArrayI15PackageTemplateE8IteratormmEv:
.LFB9997:
	pushq	%rbp
.LCFI380:
	movq	%rsp, %rbp
.LCFI381:
	movq	%rdi, -8(%rbp)
	movq	-8(%rbp), %rax
	movq	(%rax), %rax
	leaq	-8(%rax), %rdx
	movq	-8(%rbp), %rax
	movq	%rdx, (%rax)
	movq	-8(%rbp), %rax
	leave
	ret
.LFE9997:
	.size	_ZN3Upp5ArrayI15PackageTemplateE8IteratormmEv, .-_ZN3Upp5ArrayI15PackageTemplateE8IteratormmEv
	.section	.text._ZNK3Upp5ArrayI15PackageTemplateE13ConstIteratorltES3_,"axG",@progbits,_ZNK3Upp5ArrayI15PackageTemplateE13ConstIteratorltES3_,comdat
	.align 2
	.weak	_ZNK3Upp5ArrayI15PackageTemplateE13ConstIteratorltES3_
	.type	_ZNK3Upp5ArrayI15PackageTemplateE13ConstIteratorltES3_, @function
_ZNK3Upp5ArrayI15PackageTemplateE13ConstIteratorltES3_:
.LFB9999:
	pushq	%rbp
.LCFI382:
	movq	%rsp, %rbp
.LCFI383:
	movq	%rdi, -8(%rbp)
	movq	%rsi, -16(%rbp)
	movq	-8(%rbp), %rax
	movq	(%rax), %rdx
	movq	-16(%rbp), %rax
	cmpq	%rax, %rdx
	setb	%al
	movzbl	%al, %eax
	leave
	ret
.LFE9999:
	.size	_ZNK3Upp5ArrayI15PackageTemplateE13ConstIteratorltES3_, .-_ZNK3Upp5ArrayI15PackageTemplateE13ConstIteratorltES3_
	.section	.text._ZNK3Upp5ArrayI15PackageTemplateE13ConstIteratoreqES3_,"axG",@progbits,_ZNK3Upp5ArrayI15PackageTemplateE13ConstIteratoreqES3_,comdat
	.align 2
	.weak	_ZNK3Upp5ArrayI15PackageTemplateE13ConstIteratoreqES3_
	.type	_ZNK3Upp5ArrayI15PackageTemplateE13ConstIteratoreqES3_, @function
_ZNK3Upp5ArrayI15PackageTemplateE13ConstIteratoreqES3_:
.LFB10000:
	pushq	%rbp
.LCFI384:
	movq	%rsp, %rbp
.LCFI385:
	movq	%rdi, -8(%rbp)
	movq	%rsi, -16(%rbp)
	movq	-8(%rbp), %rax
	movq	(%rax), %rdx
	movq	-16(%rbp), %rax
	cmpq	%rax, %rdx
	sete	%al
	movzbl	%al, %eax
	leave
	ret
.LFE10000:
	.size	_ZNK3Upp5ArrayI15PackageTemplateE13ConstIteratoreqES3_, .-_ZNK3Upp5ArrayI15PackageTemplateE13ConstIteratoreqES3_
	.section	.text._ZNK3Upp6VectorIPvE8IsPickedEv,"axG",@progbits,_ZNK3Upp6VectorIPvE8IsPickedEv,comdat
	.align 2
	.weak	_ZNK3Upp6VectorIPvE8IsPickedEv
	.type	_ZNK3Upp6VectorIPvE8IsPickedEv, @function
_ZNK3Upp6VectorIPvE8IsPickedEv:
.LFB10014:
	pushq	%rbp
.LCFI386:
	movq	%rsp, %rbp
.LCFI387:
	movq	%rdi, -8(%rbp)
	movq	-8(%rbp), %rax
	movl	8(%rax), %eax
	shrl	$31, %eax
	leave
	ret
.LFE10014:
	.size	_ZNK3Upp6VectorIPvE8IsPickedEv, .-_ZNK3Upp6VectorIPvE8IsPickedEv
	.section	.text._ZNK3Upp5ArrayI15PackageTemplateE8IsPickedEv,"axG",@progbits,_ZNK3Upp5ArrayI15PackageTemplateE8IsPickedEv,comdat
	.align 2
	.weak	_ZNK3Upp5ArrayI15PackageTemplateE8IsPickedEv
	.type	_ZNK3Upp5ArrayI15PackageTemplateE8IsPickedEv, @function
_ZNK3Upp5ArrayI15PackageTemplateE8IsPickedEv:
.LFB9984:
	pushq	%rbp
.LCFI388:
	movq	%rsp, %rbp
.LCFI389:
	subq	$16, %rsp
.LCFI390:
	movq	%rdi, -8(%rbp)
	movq	-8(%rbp), %rdi
	addq	$8, %rdi
	call	_ZNK3Upp6VectorIPvE8IsPickedEv
	movzbl	%al, %eax
	leave
	ret
.LFE9984:
	.size	_ZNK3Upp5ArrayI15PackageTemplateE8IsPickedEv, .-_ZNK3Upp5ArrayI15PackageTemplateE8IsPickedEv
	.section	.text._ZNK3Upp5ArrayI12FileTemplateE8IsPickedEv,"axG",@progbits,_ZNK3Upp5ArrayI12FileTemplateE8IsPickedEv,comdat
	.align 2
	.weak	_ZNK3Upp5ArrayI12FileTemplateE8IsPickedEv
	.type	_ZNK3Upp5ArrayI12FileTemplateE8IsPickedEv, @function
_ZNK3Upp5ArrayI12FileTemplateE8IsPickedEv:
.LFB9980:
	pushq	%rbp
.LCFI391:
	movq	%rsp, %rbp
.LCFI392:
	subq	$16, %rsp
.LCFI393:
	movq	%rdi, -8(%rbp)
	movq	-8(%rbp), %rdi
	addq	$8, %rdi
	call	_ZNK3Upp6VectorIPvE8IsPickedEv
	movzbl	%al, %eax
	leave
	ret
.LFE9980:
	.size	_ZNK3Upp5ArrayI12FileTemplateE8IsPickedEv, .-_ZNK3Upp5ArrayI12FileTemplateE8IsPickedEv
	.section	.text._ZNK3Upp5ArrayI12TemplateItemE8IsPickedEv,"axG",@progbits,_ZNK3Upp5ArrayI12TemplateItemE8IsPickedEv,comdat
	.align 2
	.weak	_ZNK3Upp5ArrayI12TemplateItemE8IsPickedEv
	.type	_ZNK3Upp5ArrayI12TemplateItemE8IsPickedEv, @function
_ZNK3Upp5ArrayI12TemplateItemE8IsPickedEv:
.LFB9979:
	pushq	%rbp
.LCFI394:
	movq	%rsp, %rbp
.LCFI395:
	subq	$16, %rsp
.LCFI396:
	movq	%rdi, -8(%rbp)
	movq	-8(%rbp), %rdi
	addq	$8, %rdi
	call	_ZNK3Upp6VectorIPvE8IsPickedEv
	movzbl	%al, %eax
	leave
	ret
.LFE9979:
	.size	_ZNK3Upp5ArrayI12TemplateItemE8IsPickedEv, .-_ZNK3Upp5ArrayI12TemplateItemE8IsPickedEv
	.section	.text._ZNK3Upp5ArrayINS_5LabelEE8IsPickedEv,"axG",@progbits,_ZNK3Upp5ArrayINS_5LabelEE8IsPickedEv,comdat
	.align 2
	.weak	_ZNK3Upp5ArrayINS_5LabelEE8IsPickedEv
	.type	_ZNK3Upp5ArrayINS_5LabelEE8IsPickedEv, @function
_ZNK3Upp5ArrayINS_5LabelEE8IsPickedEv:
.LFB9985:
	pushq	%rbp
.LCFI397:
	movq	%rsp, %rbp
.LCFI398:
	subq	$16, %rsp
.LCFI399:
	movq	%rdi, -8(%rbp)
	movq	-8(%rbp), %rdi
	addq	$8, %rdi
	call	_ZNK3Upp6VectorIPvE8IsPickedEv
	movzbl	%al, %eax
	leave
	ret
.LFE9985:
	.size	_ZNK3Upp5ArrayINS_5LabelEE8IsPickedEv, .-_ZNK3Upp5ArrayINS_5LabelEE8IsPickedEv
	.section	.text._ZNK3Upp5ArrayINS_4CtrlEE8IsPickedEv,"axG",@progbits,_ZNK3Upp5ArrayINS_4CtrlEE8IsPickedEv,comdat
	.align 2
	.weak	_ZNK3Upp5ArrayINS_4CtrlEE8IsPickedEv
	.type	_ZNK3Upp5ArrayINS_4CtrlEE8IsPickedEv, @function
_ZNK3Upp5ArrayINS_4CtrlEE8IsPickedEv:
.LFB9986:
	pushq	%rbp
.LCFI400:
	movq	%rsp, %rbp
.LCFI401:
	subq	$16, %rsp
.LCFI402:
	movq	%rdi, -8(%rbp)
	movq	-8(%rbp), %rdi
	addq	$8, %rdi
	call	_ZNK3Upp6VectorIPvE8IsPickedEv
	movzbl	%al, %eax
	leave
	ret
.LFE9986:
	.size	_ZNK3Upp5ArrayINS_4CtrlEE8IsPickedEv, .-_ZNK3Upp5ArrayINS_4CtrlEE8IsPickedEv
	.section	.text._ZNK3Upp5ArrayINS_8EscValueEE8IsPickedEv,"axG",@progbits,_ZNK3Upp5ArrayINS_8EscValueEE8IsPickedEv,comdat
	.align 2
	.weak	_ZNK3Upp5ArrayINS_8EscValueEE8IsPickedEv
	.type	_ZNK3Upp5ArrayINS_8EscValueEE8IsPickedEv, @function
_ZNK3Upp5ArrayINS_8EscValueEE8IsPickedEv:
.LFB9823:
	pushq	%rbp
.LCFI403:
	movq	%rsp, %rbp
.LCFI404:
	subq	$16, %rsp
.LCFI405:
	movq	%rdi, -8(%rbp)
	movq	-8(%rbp), %rdi
	addq	$8, %rdi
	call	_ZNK3Upp6VectorIPvE8IsPickedEv
	movzbl	%al, %eax
	leave
	ret
.LFE9823:
	.size	_ZNK3Upp5ArrayINS_8EscValueEE8IsPickedEv, .-_ZNK3Upp5ArrayINS_8EscValueEE8IsPickedEv
	.section	.text._ZNK3Upp5ArrayI10CustomStepE8IsPickedEv,"axG",@progbits,_ZNK3Upp5ArrayI10CustomStepE8IsPickedEv,comdat
	.align 2
	.weak	_ZNK3Upp5ArrayI10CustomStepE8IsPickedEv
	.type	_ZNK3Upp5ArrayI10CustomStepE8IsPickedEv, @function
_ZNK3Upp5ArrayI10CustomStepE8IsPickedEv:
.LFB9959:
	pushq	%rbp
.LCFI406:
	movq	%rsp, %rbp
.LCFI407:
	subq	$16, %rsp
.LCFI408:
	movq	%rdi, -8(%rbp)
	movq	-8(%rbp), %rdi
	addq	$8, %rdi
	call	_ZNK3Upp6VectorIPvE8IsPickedEv
	movzbl	%al, %eax
	leave
	ret
.LFE9959:
	.size	_ZNK3Upp5ArrayI10CustomStepE8IsPickedEv, .-_ZNK3Upp5ArrayI10CustomStepE8IsPickedEv
	.section	.text._ZNK3Upp5ArrayIN7Package6ConfigEE8IsPickedEv,"axG",@progbits,_ZNK3Upp5ArrayIN7Package6ConfigEE8IsPickedEv,comdat
	.align 2
	.weak	_ZNK3Upp5ArrayIN7Package6ConfigEE8IsPickedEv
	.type	_ZNK3Upp5ArrayIN7Package6ConfigEE8IsPickedEv, @function
_ZNK3Upp5ArrayIN7Package6ConfigEE8IsPickedEv:
.LFB9958:
	pushq	%rbp
.LCFI409:
	movq	%rsp, %rbp
.LCFI410:
	subq	$16, %rsp
.LCFI411:
	movq	%rdi, -8(%rbp)
	movq	-8(%rbp), %rdi
	addq	$8, %rdi
	call	_ZNK3Upp6VectorIPvE8IsPickedEv
	movzbl	%al, %eax
	leave
	ret
.LFE9958:
	.size	_ZNK3Upp5ArrayIN7Package6ConfigEE8IsPickedEv, .-_ZNK3Upp5ArrayIN7Package6ConfigEE8IsPickedEv
	.section	.text._ZNK3Upp5ArrayIN7Package4FileEE8IsPickedEv,"axG",@progbits,_ZNK3Upp5ArrayIN7Package4FileEE8IsPickedEv,comdat
	.align 2
	.weak	_ZNK3Upp5ArrayIN7Package4FileEE8IsPickedEv
	.type	_ZNK3Upp5ArrayIN7Package4FileEE8IsPickedEv, @function
_ZNK3Upp5ArrayIN7Package4FileEE8IsPickedEv:
.LFB9957:
	pushq	%rbp
.LCFI412:
	movq	%rsp, %rbp
.LCFI413:
	subq	$16, %rsp
.LCFI414:
	movq	%rdi, -8(%rbp)
	movq	-8(%rbp), %rdi
	addq	$8, %rdi
	call	_ZNK3Upp6VectorIPvE8IsPickedEv
	movzbl	%al, %eax
	leave
	ret
.LFE9957:
	.size	_ZNK3Upp5ArrayIN7Package4FileEE8IsPickedEv, .-_ZNK3Upp5ArrayIN7Package4FileEE8IsPickedEv
	.section	.text._ZNK3Upp5ArrayI7OptItemE8IsPickedEv,"axG",@progbits,_ZNK3Upp5ArrayI7OptItemE8IsPickedEv,comdat
	.align 2
	.weak	_ZNK3Upp5ArrayI7OptItemE8IsPickedEv
	.type	_ZNK3Upp5ArrayI7OptItemE8IsPickedEv, @function
_ZNK3Upp5ArrayI7OptItemE8IsPickedEv:
.LFB9831:
	pushq	%rbp
.LCFI415:
	movq	%rsp, %rbp
.LCFI416:
	subq	$16, %rsp
.LCFI417:
	movq	%rdi, -8(%rbp)
	movq	-8(%rbp), %rdi
	addq	$8, %rdi
	call	_ZNK3Upp6VectorIPvE8IsPickedEv
	movzbl	%al, %eax
	leave
	ret
.LFE9831:
	.size	_ZNK3Upp5ArrayI7OptItemE8IsPickedEv, .-_ZNK3Upp5ArrayI7OptItemE8IsPickedEv
	.section	.text._ZNK3Upp6VectorIPvE3GetEi,"axG",@progbits,_ZNK3Upp6VectorIPvE3GetEi,comdat
	.align 2
	.weak	_ZNK3Upp6VectorIPvE3GetEi
	.type	_ZNK3Upp6VectorIPvE3GetEi, @function
_ZNK3Upp6VectorIPvE3GetEi:
.LFB10015:
	pushq	%rbp
.LCFI418:
	movq	%rsp, %rbp
.LCFI419:
	movq	%rdi, -8(%rbp)
	movl	%esi, -12(%rbp)
	movq	-8(%rbp), %rax
	movq	(%rax), %rdx
	movl	-12(%rbp), %eax
	cltq
	salq	$3, %rax
	leaq	(%rdx,%rax), %rax
	leave
	ret
.LFE10015:
	.size	_ZNK3Upp6VectorIPvE3GetEi, .-_ZNK3Upp6VectorIPvE3GetEi
	.section	.text._ZN3Upp6VectorIPvEixEi,"axG",@progbits,_ZN3Upp6VectorIPvEixEi,comdat
	.align 2
	.weak	_ZN3Upp6VectorIPvEixEi
	.type	_ZN3Upp6VectorIPvEixEi, @function
_ZN3Upp6VectorIPvEixEi:
.LFB9655:
	pushq	%rbp
.LCFI420:
	movq	%rsp, %rbp
.LCFI421:
	subq	$16, %rsp
.LCFI422:
	movq	%rdi, -8(%rbp)
	movl	%esi, -12(%rbp)
	movl	-12(%rbp), %esi
	movq	-8(%rbp), %rdi
	call	_ZNK3Upp6VectorIPvE3GetEi
	leave
	ret
.LFE9655:
	.size	_ZN3Upp6VectorIPvEixEi, .-_ZN3Upp6VectorIPvEixEi
	.section	.text._ZN3Upp5ArrayINS_5LabelEE4FreeEv,"axG",@progbits,_ZN3Upp5ArrayINS_5LabelEE4FreeEv,comdat
	.align 2
	.weak	_ZN3Upp5ArrayINS_5LabelEE4FreeEv
	.type	_ZN3Upp5ArrayINS_5LabelEE4FreeEv, @function
_ZN3Upp5ArrayINS_5LabelEE4FreeEv:
.LFB9609:
	pushq	%rbp
.LCFI423:
	movq	%rsp, %rbp
.LCFI424:
	subq	$32, %rsp
.LCFI425:
	movq	%rdi, -24(%rbp)
	movq	-24(%rbp), %rdi
	call	_ZNK3Upp5ArrayINS_5LabelEE8IsPickedEv
	testb	%al, %al
	jne	.L419
	movl	$0, -4(%rbp)
	jmp	.L415
.L416:
	movq	-24(%rbp), %rdi
	addq	$8, %rdi
	movl	-4(%rbp), %esi
	call	_ZN3Upp6VectorIPvEixEi
	movq	(%rax), %rax
	movq	%rax, -32(%rbp)
	cmpq	$0, -32(%rbp)
	je	.L417
	movq	-32(%rbp), %rdx
	movq	(%rdx), %rax
	addq	$616, %rax
	movq	(%rax), %rax
	movq	-32(%rbp), %rdi
	call	*%rax
.L417:
	addl	$1, -4(%rbp)
.L415:
	movq	-24(%rbp), %rdi
	addq	$8, %rdi
	call	_ZNK3Upp6VectorIPvE8GetCountEv
	cmpl	-4(%rbp), %eax
	setg	%al
	testb	%al, %al
	jne	.L416
.L419:
	leave
	ret
.LFE9609:
	.size	_ZN3Upp5ArrayINS_5LabelEE4FreeEv, .-_ZN3Upp5ArrayINS_5LabelEE4FreeEv
	.section	.text._ZN3Upp5ArrayINS_4CtrlEE4FreeEv,"axG",@progbits,_ZN3Upp5ArrayINS_4CtrlEE4FreeEv,comdat
	.align 2
	.weak	_ZN3Upp5ArrayINS_4CtrlEE4FreeEv
	.type	_ZN3Upp5ArrayINS_4CtrlEE4FreeEv, @function
_ZN3Upp5ArrayINS_4CtrlEE4FreeEv:
.LFB9610:
	pushq	%rbp
.LCFI426:
	movq	%rsp, %rbp
.LCFI427:
	subq	$32, %rsp
.LCFI428:
	movq	%rdi, -24(%rbp)
	movq	-24(%rbp), %rdi
	call	_ZNK3Upp5ArrayINS_4CtrlEE8IsPickedEv
	testb	%al, %al
	jne	.L427
	movl	$0, -4(%rbp)
	jmp	.L423
.L424:
	movq	-24(%rbp), %rdi
	addq	$8, %rdi
	movl	-4(%rbp), %esi
	call	_ZN3Upp6VectorIPvEixEi
	movq	(%rax), %rax
	movq	%rax, -32(%rbp)
	cmpq	$0, -32(%rbp)
	je	.L425
	movq	-32(%rbp), %rdx
	movq	(%rdx), %rax
	addq	$616, %rax
	movq	(%rax), %rax
	movq	-32(%rbp), %rdi
	call	*%rax
.L425:
	addl	$1, -4(%rbp)
.L423:
	movq	-24(%rbp), %rdi
	addq	$8, %rdi
	call	_ZNK3Upp6VectorIPvE8GetCountEv
	cmpl	-4(%rbp), %eax
	setg	%al
	testb	%al, %al
	jne	.L424
.L427:
	leave
	ret
.LFE9610:
	.size	_ZN3Upp5ArrayINS_4CtrlEE4FreeEv, .-_ZN3Upp5ArrayINS_4CtrlEE4FreeEv
	.section	.text._ZNK3Upp6VectorIPvEixEi,"axG",@progbits,_ZNK3Upp6VectorIPvEixEi,comdat
	.align 2
	.weak	_ZNK3Upp6VectorIPvEixEi
	.type	_ZNK3Upp6VectorIPvEixEi, @function
_ZNK3Upp6VectorIPvEixEi:
.LFB9663:
	pushq	%rbp
.LCFI429:
	movq	%rsp, %rbp
.LCFI430:
	subq	$16, %rsp
.LCFI431:
	movq	%rdi, -8(%rbp)
	movl	%esi, -12(%rbp)
	movl	-12(%rbp), %esi
	movq	-8(%rbp), %rdi
	call	_ZNK3Upp6VectorIPvE3GetEi
	leave
	ret
.LFE9663:
	.size	_ZNK3Upp6VectorIPvEixEi, .-_ZNK3Upp6VectorIPvEixEi
	.section	.text._ZNK3Upp5ArrayI15PackageTemplateE3GetEi,"axG",@progbits,_ZNK3Upp5ArrayI15PackageTemplateE3GetEi,comdat
	.align 2
	.weak	_ZNK3Upp5ArrayI15PackageTemplateE3GetEi
	.type	_ZNK3Upp5ArrayI15PackageTemplateE3GetEi, @function
_ZNK3Upp5ArrayI15PackageTemplateE3GetEi:
.LFB9615:
	pushq	%rbp
.LCFI432:
	movq	%rsp, %rbp
.LCFI433:
	subq	$16, %rsp
.LCFI434:
	movq	%rdi, -8(%rbp)
	movl	%esi, -12(%rbp)
	movq	-8(%rbp), %rdi
	addq	$8, %rdi
	movl	-12(%rbp), %esi
	call	_ZNK3Upp6VectorIPvEixEi
	movq	(%rax), %rax
	leave
	ret
.LFE9615:
	.size	_ZNK3Upp5ArrayI15PackageTemplateE3GetEi, .-_ZNK3Upp5ArrayI15PackageTemplateE3GetEi
	.section	.text._ZN3Upp5ArrayI15PackageTemplateEixEi,"axG",@progbits,_ZN3Upp5ArrayI15PackageTemplateEixEi,comdat
	.align 2
	.weak	_ZN3Upp5ArrayI15PackageTemplateEixEi
	.type	_ZN3Upp5ArrayI15PackageTemplateEixEi, @function
_ZN3Upp5ArrayI15PackageTemplateEixEi:
.LFB9068:
	pushq	%rbp
.LCFI435:
	movq	%rsp, %rbp
.LCFI436:
	subq	$16, %rsp
.LCFI437:
	movq	%rdi, -8(%rbp)
	movl	%esi, -12(%rbp)
	movl	-12(%rbp), %esi
	movq	-8(%rbp), %rdi
	call	_ZNK3Upp5ArrayI15PackageTemplateE3GetEi
	leave
	ret
.LFE9068:
	.size	_ZN3Upp5ArrayI15PackageTemplateEixEi, .-_ZN3Upp5ArrayI15PackageTemplateEixEi
	.section	.text._ZNK3Upp5ArrayI12TemplateItemE3GetEi,"axG",@progbits,_ZNK3Upp5ArrayI12TemplateItemE3GetEi,comdat
	.align 2
	.weak	_ZNK3Upp5ArrayI12TemplateItemE3GetEi
	.type	_ZNK3Upp5ArrayI12TemplateItemE3GetEi, @function
_ZNK3Upp5ArrayI12TemplateItemE3GetEi:
.LFB9618:
	pushq	%rbp
.LCFI438:
	movq	%rsp, %rbp
.LCFI439:
	subq	$16, %rsp
.LCFI440:
	movq	%rdi, -8(%rbp)
	movl	%esi, -12(%rbp)
	movq	-8(%rbp), %rdi
	addq	$8, %rdi
	movl	-12(%rbp), %esi
	call	_ZNK3Upp6VectorIPvEixEi
	movq	(%rax), %rax
	leave
	ret
.LFE9618:
	.size	_ZNK3Upp5ArrayI12TemplateItemE3GetEi, .-_ZNK3Upp5ArrayI12TemplateItemE3GetEi
	.section	.text._ZNK3Upp5ArrayI12TemplateItemEixEi,"axG",@progbits,_ZNK3Upp5ArrayI12TemplateItemEixEi,comdat
	.align 2
	.weak	_ZNK3Upp5ArrayI12TemplateItemEixEi
	.type	_ZNK3Upp5ArrayI12TemplateItemEixEi, @function
_ZNK3Upp5ArrayI12TemplateItemEixEi:
.LFB9078:
	pushq	%rbp
.LCFI441:
	movq	%rsp, %rbp
.LCFI442:
	subq	$16, %rsp
.LCFI443:
	movq	%rdi, -8(%rbp)
	movl	%esi, -12(%rbp)
	movl	-12(%rbp), %esi
	movq	-8(%rbp), %rdi
	call	_ZNK3Upp5ArrayI12TemplateItemE3GetEi
	leave
	ret
.LFE9078:
	.size	_ZNK3Upp5ArrayI12TemplateItemEixEi, .-_ZNK3Upp5ArrayI12TemplateItemEixEi
	.section	.text._ZNK3Upp5ArrayINS_5LabelEE3GetEi,"axG",@progbits,_ZNK3Upp5ArrayINS_5LabelEE3GetEi,comdat
	.align 2
	.weak	_ZNK3Upp5ArrayINS_5LabelEE3GetEi
	.type	_ZNK3Upp5ArrayINS_5LabelEE3GetEi, @function
_ZNK3Upp5ArrayINS_5LabelEE3GetEi:
.LFB9620:
	pushq	%rbp
.LCFI444:
	movq	%rsp, %rbp
.LCFI445:
	subq	$16, %rsp
.LCFI446:
	movq	%rdi, -8(%rbp)
	movl	%esi, -12(%rbp)
	movq	-8(%rbp), %rdi
	addq	$8, %rdi
	movl	-12(%rbp), %esi
	call	_ZNK3Upp6VectorIPvEixEi
	movq	(%rax), %rax
	leave
	ret
.LFE9620:
	.size	_ZNK3Upp5ArrayINS_5LabelEE3GetEi, .-_ZNK3Upp5ArrayINS_5LabelEE3GetEi
	.section	.text._ZN3Upp5ArrayINS_5LabelEE3TopEv,"axG",@progbits,_ZN3Upp5ArrayINS_5LabelEE3TopEv,comdat
	.align 2
	.weak	_ZN3Upp5ArrayINS_5LabelEE3TopEv
	.type	_ZN3Upp5ArrayINS_5LabelEE3TopEv, @function
_ZN3Upp5ArrayINS_5LabelEE3TopEv:
.LFB9087:
	pushq	%rbp
.LCFI447:
	movq	%rsp, %rbp
.LCFI448:
	subq	$16, %rsp
.LCFI449:
	movq	%rdi, -8(%rbp)
	movq	-8(%rbp), %rdi
	call	_ZNK3Upp5ArrayINS_5LabelEE8GetCountEv
	leal	-1(%rax), %esi
	movq	-8(%rbp), %rdi
	call	_ZNK3Upp5ArrayINS_5LabelEE3GetEi
	leave
	ret
.LFE9087:
	.size	_ZN3Upp5ArrayINS_5LabelEE3TopEv, .-_ZN3Upp5ArrayINS_5LabelEE3TopEv
	.section	.text._ZNK3Upp5ArrayINS_4CtrlEE3GetEi,"axG",@progbits,_ZNK3Upp5ArrayINS_4CtrlEE3GetEi,comdat
	.align 2
	.weak	_ZNK3Upp5ArrayINS_4CtrlEE3GetEi
	.type	_ZNK3Upp5ArrayINS_4CtrlEE3GetEi, @function
_ZNK3Upp5ArrayINS_4CtrlEE3GetEi:
.LFB9619:
	pushq	%rbp
.LCFI450:
	movq	%rsp, %rbp
.LCFI451:
	subq	$16, %rsp
.LCFI452:
	movq	%rdi, -8(%rbp)
	movl	%esi, -12(%rbp)
	movq	-8(%rbp), %rdi
	addq	$8, %rdi
	movl	-12(%rbp), %esi
	call	_ZNK3Upp6VectorIPvEixEi
	movq	(%rax), %rax
	leave
	ret
.LFE9619:
	.size	_ZNK3Upp5ArrayINS_4CtrlEE3GetEi, .-_ZNK3Upp5ArrayINS_4CtrlEE3GetEi
	.section	.text._ZN3Upp5ArrayINS_4CtrlEE3TopEv,"axG",@progbits,_ZN3Upp5ArrayINS_4CtrlEE3TopEv,comdat
	.align 2
	.weak	_ZN3Upp5ArrayINS_4CtrlEE3TopEv
	.type	_ZN3Upp5ArrayINS_4CtrlEE3TopEv, @function
_ZN3Upp5ArrayINS_4CtrlEE3TopEv:
.LFB9090:
	pushq	%rbp
.LCFI453:
	movq	%rsp, %rbp
.LCFI454:
	subq	$16, %rsp
.LCFI455:
	movq	%rdi, -8(%rbp)
	movq	-8(%rbp), %rdi
	call	_ZNK3Upp5ArrayINS_4CtrlEE8GetCountEv
	leal	-1(%rax), %esi
	movq	-8(%rbp), %rdi
	call	_ZNK3Upp5ArrayINS_4CtrlEE3GetEi
	leave
	ret
.LFE9090:
	.size	_ZN3Upp5ArrayINS_4CtrlEE3TopEv, .-_ZN3Upp5ArrayINS_4CtrlEE3TopEv
	.section	.text._ZN3Upp5ArrayINS_4CtrlEEixEi,"axG",@progbits,_ZN3Upp5ArrayINS_4CtrlEEixEi,comdat
	.align 2
	.weak	_ZN3Upp5ArrayINS_4CtrlEEixEi
	.type	_ZN3Upp5ArrayINS_4CtrlEEixEi, @function
_ZN3Upp5ArrayINS_4CtrlEEixEi:
.LFB9079:
	pushq	%rbp
.LCFI456:
	movq	%rsp, %rbp
.LCFI457:
	subq	$16, %rsp
.LCFI458:
	movq	%rdi, -8(%rbp)
	movl	%esi, -12(%rbp)
	movl	-12(%rbp), %esi
	movq	-8(%rbp), %rdi
	call	_ZNK3Upp5ArrayINS_4CtrlEE3GetEi
	leave
	ret
.LFE9079:
	.size	_ZN3Upp5ArrayINS_4CtrlEEixEi, .-_ZN3Upp5ArrayINS_4CtrlEEixEi
	.section	.text._ZNK3Upp5ArrayI12FileTemplateE3GetEi,"axG",@progbits,_ZNK3Upp5ArrayI12FileTemplateE3GetEi,comdat
	.align 2
	.weak	_ZNK3Upp5ArrayI12FileTemplateE3GetEi
	.type	_ZNK3Upp5ArrayI12FileTemplateE3GetEi, @function
_ZNK3Upp5ArrayI12FileTemplateE3GetEi:
.LFB9597:
	pushq	%rbp
.LCFI459:
	movq	%rsp, %rbp
.LCFI460:
	subq	$16, %rsp
.LCFI461:
	movq	%rdi, -8(%rbp)
	movl	%esi, -12(%rbp)
	movq	-8(%rbp), %rdi
	addq	$8, %rdi
	movl	-12(%rbp), %esi
	call	_ZNK3Upp6VectorIPvEixEi
	movq	(%rax), %rax
	leave
	ret
.LFE9597:
	.size	_ZNK3Upp5ArrayI12FileTemplateE3GetEi, .-_ZNK3Upp5ArrayI12FileTemplateE3GetEi
	.section	.text._ZNK3Upp5ArrayI12FileTemplateEixEi,"axG",@progbits,_ZNK3Upp5ArrayI12FileTemplateEixEi,comdat
	.align 2
	.weak	_ZNK3Upp5ArrayI12FileTemplateEixEi
	.type	_ZNK3Upp5ArrayI12FileTemplateEixEi, @function
_ZNK3Upp5ArrayI12FileTemplateEixEi:
.LFB9081:
	pushq	%rbp
.LCFI462:
	movq	%rsp, %rbp
.LCFI463:
	subq	$16, %rsp
.LCFI464:
	movq	%rdi, -8(%rbp)
	movl	%esi, -12(%rbp)
	movl	-12(%rbp), %esi
	movq	-8(%rbp), %rdi
	call	_ZNK3Upp5ArrayI12FileTemplateE3GetEi
	leave
	ret
.LFE9081:
	.size	_ZNK3Upp5ArrayI12FileTemplateEixEi, .-_ZNK3Upp5ArrayI12FileTemplateEixEi
	.section	.text._ZN3Upp5ArrayI12FileTemplateE3TopEv,"axG",@progbits,_ZN3Upp5ArrayI12FileTemplateE3TopEv,comdat
	.align 2
	.weak	_ZN3Upp5ArrayI12FileTemplateE3TopEv
	.type	_ZN3Upp5ArrayI12FileTemplateE3TopEv, @function
_ZN3Upp5ArrayI12FileTemplateE3TopEv:
.LFB9005:
	pushq	%rbp
.LCFI465:
	movq	%rsp, %rbp
.LCFI466:
	subq	$16, %rsp
.LCFI467:
	movq	%rdi, -8(%rbp)
	movq	-8(%rbp), %rdi
	call	_ZNK3Upp5ArrayI12FileTemplateE8GetCountEv
	leal	-1(%rax), %esi
	movq	-8(%rbp), %rdi
	call	_ZNK3Upp5ArrayI12FileTemplateE3GetEi
	leave
	ret
.LFE9005:
	.size	_ZN3Upp5ArrayI12FileTemplateE3TopEv, .-_ZN3Upp5ArrayI12FileTemplateE3TopEv
	.section	.text._ZN3Upp14ConstructArrayIPvEEvPT_PKS2_,"axG",@progbits,_ZN3Upp14ConstructArrayIPvEEvPT_PKS2_,comdat
	.align 2
	.weak	_ZN3Upp14ConstructArrayIPvEEvPT_PKS2_
	.type	_ZN3Upp14ConstructArrayIPvEEvPT_PKS2_, @function
_ZN3Upp14ConstructArrayIPvEEvPT_PKS2_:
.LFB10018:
	pushq	%rbp
.LCFI468:
	movq	%rsp, %rbp
.LCFI469:
	subq	$16, %rsp
.LCFI470:
	movq	%rdi, -8(%rbp)
	movq	%rsi, -16(%rbp)
	jmp	.L455
.L456:
	movq	-8(%rbp), %rsi
	addq	$8, -8(%rbp)
	movl	$8, %edi
	call	_ZnwmPv
.L455:
	movq	-8(%rbp), %rax
	cmpq	-16(%rbp), %rax
	jb	.L456
	leave
	ret
.LFE10018:
	.size	_ZN3Upp14ConstructArrayIPvEEvPT_PKS2_, .-_ZN3Upp14ConstructArrayIPvEEvPT_PKS2_
	.section	.text._ZN3Upp12DestroyArrayIPvEEvPT_PKS2_,"axG",@progbits,_ZN3Upp12DestroyArrayIPvEEvPT_PKS2_,comdat
	.align 2
	.weak	_ZN3Upp12DestroyArrayIPvEEvPT_PKS2_
	.type	_ZN3Upp12DestroyArrayIPvEEvPT_PKS2_, @function
_ZN3Upp12DestroyArrayIPvEEvPT_PKS2_:
.LFB10021:
	pushq	%rbp
.LCFI471:
	movq	%rsp, %rbp
.LCFI472:
	movq	%rdi, -8(%rbp)
	movq	%rsi, -16(%rbp)
	jmp	.L460
.L461:
	addq	$8, -8(%rbp)
.L460:
	movq	-8(%rbp), %rax
	cmpq	-16(%rbp), %rax
	jb	.L461
	leave
	ret
.LFE10021:
	.size	_ZN3Upp12DestroyArrayIPvEEvPT_PKS2_, .-_ZN3Upp12DestroyArrayIPvEEvPT_PKS2_
	.section	.text._ZN3Upp6VectorIPvE4TrimEi,"axG",@progbits,_ZN3Upp6VectorIPvE4TrimEi,comdat
	.align 2
	.weak	_ZN3Upp6VectorIPvE4TrimEi
	.type	_ZN3Upp6VectorIPvE4TrimEi, @function
_ZN3Upp6VectorIPvE4TrimEi:
.LFB10016:
	pushq	%rbp
.LCFI473:
	movq	%rsp, %rbp
.LCFI474:
	subq	$16, %rsp
.LCFI475:
	movq	%rdi, -8(%rbp)
	movl	%esi, -12(%rbp)
	movq	-8(%rbp), %rax
	movq	(%rax), %rdx
	movq	-8(%rbp), %rax
	movl	8(%rax), %eax
	cltq
	salq	$3, %rax
	leaq	(%rdx,%rax), %rsi
	movq	-8(%rbp), %rax
	movq	(%rax), %rdx
	movl	-12(%rbp), %eax
	cltq
	salq	$3, %rax
	leaq	(%rdx,%rax), %rdi
	call	_ZN3Upp12DestroyArrayIPvEEvPT_PKS2_
	movq	-8(%rbp), %rdx
	movl	-12(%rbp), %eax
	movl	%eax, 8(%rdx)
	leave
	ret
.LFE10016:
	.size	_ZN3Upp6VectorIPvE4TrimEi, .-_ZN3Upp6VectorIPvE4TrimEi
	.section	.text._ZN3Upp6VectorIPvE9SetPickedERKS2_,"axG",@progbits,_ZN3Upp6VectorIPvE9SetPickedERKS2_,comdat
	.align 2
	.weak	_ZN3Upp6VectorIPvE9SetPickedERKS2_
	.type	_ZN3Upp6VectorIPvE9SetPickedERKS2_, @function
_ZN3Upp6VectorIPvE9SetPickedERKS2_:
.LFB10044:
	pushq	%rbp
.LCFI476:
	movq	%rsp, %rbp
.LCFI477:
	movq	%rdi, -24(%rbp)
	movq	-24(%rbp), %rax
	movq	%rax, -8(%rbp)
	movq	-8(%rbp), %rax
	movl	$-1, 8(%rax)
	movq	-8(%rbp), %rax
	movq	$0, (%rax)
	movq	-8(%rbp), %rax
	leave
	ret
.LFE10044:
	.size	_ZN3Upp6VectorIPvE9SetPickedERKS2_, .-_ZN3Upp6VectorIPvE9SetPickedERKS2_
	.section	.text._ZN3Upp6VectorIPvE4PickERKS2_,"axG",@progbits,_ZN3Upp6VectorIPvE4PickERKS2_,comdat
	.align 2
	.weak	_ZN3Upp6VectorIPvE4PickERKS2_
	.type	_ZN3Upp6VectorIPvE4PickERKS2_, @function
_ZN3Upp6VectorIPvE4PickERKS2_:
.LFB9716:
	pushq	%rbp
.LCFI478:
	movq	%rsp, %rbp
.LCFI479:
	subq	$16, %rsp
.LCFI480:
	movq	%rdi, -8(%rbp)
	movq	%rsi, -16(%rbp)
	movq	-16(%rbp), %rax
	movq	(%rax), %rdx
	movq	-8(%rbp), %rax
	movq	%rdx, (%rax)
	movq	-16(%rbp), %rax
	movl	8(%rax), %edx
	movq	-8(%rbp), %rax
	movl	%edx, 8(%rax)
	movq	-16(%rbp), %rax
	movl	12(%rax), %edx
	movq	-8(%rbp), %rax
	movl	%edx, 12(%rax)
	movq	-16(%rbp), %rdi
	call	_ZN3Upp6VectorIPvE9SetPickedERKS2_
	leave
	ret
.LFE9716:
	.size	_ZN3Upp6VectorIPvE4PickERKS2_, .-_ZN3Upp6VectorIPvE4PickERKS2_
	.section	.text._ZN3Upp5ArrayI15PackageTemplateE13ConstIteratorC2EPPS1_,"axG",@progbits,_ZN3Upp5ArrayI15PackageTemplateE13ConstIteratorC2EPPS1_,comdat
	.align 2
	.weak	_ZN3Upp5ArrayI15PackageTemplateE13ConstIteratorC2EPPS1_
	.type	_ZN3Upp5ArrayI15PackageTemplateE13ConstIteratorC2EPPS1_, @function
_ZN3Upp5ArrayI15PackageTemplateE13ConstIteratorC2EPPS1_:
.LFB10085:
	pushq	%rbp
.LCFI481:
	movq	%rsp, %rbp
.LCFI482:
	movq	%rdi, -8(%rbp)
	movq	%rsi, -16(%rbp)
	movq	-8(%rbp), %rdx
	movq	-16(%rbp), %rax
	movq	%rax, (%rdx)
	leave
	ret
.LFE10085:
	.size	_ZN3Upp5ArrayI15PackageTemplateE13ConstIteratorC2EPPS1_, .-_ZN3Upp5ArrayI15PackageTemplateE13ConstIteratorC2EPPS1_
	.section	.text._ZN3Upp5ArrayI15PackageTemplateE8IteratorC1EPPS1_,"axG",@progbits,_ZN3Upp5ArrayI15PackageTemplateE8IteratorC1EPPS1_,comdat
	.align 2
	.weak	_ZN3Upp5ArrayI15PackageTemplateE8IteratorC1EPPS1_
	.type	_ZN3Upp5ArrayI15PackageTemplateE8IteratorC1EPPS1_, @function
_ZN3Upp5ArrayI15PackageTemplateE8IteratorC1EPPS1_:
.LFB9992:
	pushq	%rbp
.LCFI483:
	movq	%rsp, %rbp
.LCFI484:
	subq	$16, %rsp
.LCFI485:
	movq	%rdi, -8(%rbp)
	movq	%rsi, -16(%rbp)
	movq	-8(%rbp), %rdi
	movq	-16(%rbp), %rsi
	call	_ZN3Upp5ArrayI15PackageTemplateE13ConstIteratorC2EPPS1_
	leave
	ret
.LFE9992:
	.size	_ZN3Upp5ArrayI15PackageTemplateE8IteratorC1EPPS1_, .-_ZN3Upp5ArrayI15PackageTemplateE8IteratorC1EPPS1_
	.section	.text._ZN3Upp5ArrayI15PackageTemplateE3EndEv,"axG",@progbits,_ZN3Upp5ArrayI15PackageTemplateE3EndEv,comdat
	.align 2
	.weak	_ZN3Upp5ArrayI15PackageTemplateE3EndEv
	.type	_ZN3Upp5ArrayI15PackageTemplateE3EndEv, @function
_ZN3Upp5ArrayI15PackageTemplateE3EndEv:
.LFB9628:
	pushq	%rbp
.LCFI486:
	movq	%rsp, %rbp
.LCFI487:
	subq	$32, %rsp
.LCFI488:
	movq	%rdi, -24(%rbp)
	movq	-24(%rbp), %rdi
	addq	$8, %rdi
	call	_ZN3Upp6VectorIPvE3EndEv
	movq	%rax, %rsi
	leaq	-16(%rbp), %rdi
	call	_ZN3Upp5ArrayI15PackageTemplateE8IteratorC1EPPS1_
	movq	-16(%rbp), %rax
	leave
	ret
.LFE9628:
	.size	_ZN3Upp5ArrayI15PackageTemplateE3EndEv, .-_ZN3Upp5ArrayI15PackageTemplateE3EndEv
	.section	.text._ZN3Upp5ArrayI15PackageTemplateE5BeginEv,"axG",@progbits,_ZN3Upp5ArrayI15PackageTemplateE5BeginEv,comdat
	.align 2
	.weak	_ZN3Upp5ArrayI15PackageTemplateE5BeginEv
	.type	_ZN3Upp5ArrayI15PackageTemplateE5BeginEv, @function
_ZN3Upp5ArrayI15PackageTemplateE5BeginEv:
.LFB9627:
	pushq	%rbp
.LCFI489:
	movq	%rsp, %rbp
.LCFI490:
	subq	$32, %rsp
.LCFI491:
	movq	%rdi, -24(%rbp)
	movq	-24(%rbp), %rdi
	addq	$8, %rdi
	call	_ZN3Upp6VectorIPvE5BeginEv
	movq	%rax, %rsi
	leaq	-16(%rbp), %rdi
	call	_ZN3Upp5ArrayI15PackageTemplateE8IteratorC1EPPS1_
	movq	-16(%rbp), %rax
	leave
	ret
.LFE9627:
	.size	_ZN3Upp5ArrayI15PackageTemplateE5BeginEv, .-_ZN3Upp5ArrayI15PackageTemplateE5BeginEv
	.section	.text._ZNK3Upp5ArrayI15PackageTemplateE8IteratorplEi,"axG",@progbits,_ZNK3Upp5ArrayI15PackageTemplateE8IteratorplEi,comdat
	.align 2
	.weak	_ZNK3Upp5ArrayI15PackageTemplateE8IteratorplEi
	.type	_ZNK3Upp5ArrayI15PackageTemplateE8IteratorplEi, @function
_ZNK3Upp5ArrayI15PackageTemplateE8IteratorplEi:
.LFB9994:
	pushq	%rbp
.LCFI492:
	movq	%rsp, %rbp
.LCFI493:
	subq	$32, %rsp
.LCFI494:
	movq	%rdi, -24(%rbp)
	movl	%esi, -28(%rbp)
	movq	-24(%rbp), %rax
	movq	(%rax), %rdx
	movl	-28(%rbp), %eax
	cltq
	salq	$3, %rax
	leaq	(%rdx,%rax), %rsi
	leaq	-16(%rbp), %rdi
	call	_ZN3Upp5ArrayI15PackageTemplateE8IteratorC1EPPS1_
	movq	-16(%rbp), %rax
	leave
	ret
.LFE9994:
	.size	_ZNK3Upp5ArrayI15PackageTemplateE8IteratorplEi, .-_ZNK3Upp5ArrayI15PackageTemplateE8IteratorplEi
	.section	.text._ZNK3Upp5ArrayI15PackageTemplateE13ConstIteratormiES3_,"axG",@progbits,_ZNK3Upp5ArrayI15PackageTemplateE13ConstIteratormiES3_,comdat
	.align 2
	.weak	_ZNK3Upp5ArrayI15PackageTemplateE13ConstIteratormiES3_
	.type	_ZNK3Upp5ArrayI15PackageTemplateE13ConstIteratormiES3_, @function
_ZNK3Upp5ArrayI15PackageTemplateE13ConstIteratormiES3_:
.LFB10087:
	pushq	%rbp
.LCFI495:
	movq	%rsp, %rbp
.LCFI496:
	movq	%rdi, -8(%rbp)
	movq	%rsi, -16(%rbp)
	movq	-8(%rbp), %rax
	movq	(%rax), %rax
	movq	%rax, %rdx
	movq	-16(%rbp), %rax
	movq	%rdx, %rcx
	subq	%rax, %rcx
	movq	%rcx, %rax
	sarq	$3, %rax
	leave
	ret
.LFE10087:
	.size	_ZNK3Upp5ArrayI15PackageTemplateE13ConstIteratormiES3_, .-_ZNK3Upp5ArrayI15PackageTemplateE13ConstIteratormiES3_
	.section	.text._ZNK3Upp5ArrayI15PackageTemplateE8IteratormiES3_,"axG",@progbits,_ZNK3Upp5ArrayI15PackageTemplateE8IteratormiES3_,comdat
	.align 2
	.weak	_ZNK3Upp5ArrayI15PackageTemplateE8IteratormiES3_
	.type	_ZNK3Upp5ArrayI15PackageTemplateE8IteratormiES3_, @function
_ZNK3Upp5ArrayI15PackageTemplateE8IteratormiES3_:
.LFB9993:
	pushq	%rbp
.LCFI497:
	movq	%rsp, %rbp
.LCFI498:
	subq	$16, %rsp
.LCFI499:
	movq	%rdi, -8(%rbp)
	movq	%rsi, -16(%rbp)
	movq	-16(%rbp), %rax
	movq	%rax, %rsi
	movq	-8(%rbp), %rdi
	call	_ZNK3Upp5ArrayI15PackageTemplateE13ConstIteratormiES3_
	leave
	ret
.LFE9993:
	.size	_ZNK3Upp5ArrayI15PackageTemplateE8IteratormiES3_, .-_ZNK3Upp5ArrayI15PackageTemplateE8IteratormiES3_
	.section	.text._ZN3Upp5Rect_IiEC1ENS_5Size_IiEE,"axG",@progbits,_ZN3Upp5Rect_IiEC1ENS_5Size_IiEE,comdat
	.align 2
	.weak	_ZN3Upp5Rect_IiEC1ENS_5Size_IiEE
	.type	_ZN3Upp5Rect_IiEC1ENS_5Size_IiEE, @function
_ZN3Upp5Rect_IiEC1ENS_5Size_IiEE:
.LFB10131:
	pushq	%rbp
.LCFI500:
	movq	%rsp, %rbp
.LCFI501:
	subq	$16, %rsp
.LCFI502:
	movq	%rdi, -8(%rbp)
	movq	%rsi, -16(%rbp)
	movq	-8(%rbp), %rdi
	call	_ZN3Upp8MoveableINS_5Rect_IiEENS_10EmptyClassEEC2Ev
	movq	-16(%rbp), %rax
	movl	4(%rax), %edx
	movq	-16(%rbp), %rax
	movl	(%rax), %ecx
	movq	-8(%rbp), %rdi
	movl	%edx, %r8d
	movl	$0, %edx
	movl	$0, %esi
	call	_ZN3Upp5Rect_IiE3SetEiiii
	leave
	ret
.LFE10131:
	.size	_ZN3Upp5Rect_IiEC1ENS_5Size_IiEE, .-_ZN3Upp5Rect_IiEC1ENS_5Size_IiEE
	.section	.text._ZN3Upp4SwapIP15PackageTemplateEEvRT_S4_,"axG",@progbits,_ZN3Upp4SwapIP15PackageTemplateEEvRT_S4_,comdat
	.align 2
	.weak	_ZN3Upp4SwapIP15PackageTemplateEEvRT_S4_
	.type	_ZN3Upp4SwapIP15PackageTemplateEEvRT_S4_, @function
_ZN3Upp4SwapIP15PackageTemplateEEvRT_S4_:
.LFB10133:
	pushq	%rbp
.LCFI503:
	movq	%rsp, %rbp
.LCFI504:
	movq	%rdi, -24(%rbp)
	movq	%rsi, -32(%rbp)
	movq	-24(%rbp), %rax
	movq	(%rax), %rax
	movq	%rax, -8(%rbp)
	movq	-32(%rbp), %rax
	movq	(%rax), %rdx
	movq	-24(%rbp), %rax
	movq	%rdx, (%rax)
	movq	-32(%rbp), %rdx
	movq	-8(%rbp), %rax
	movq	%rax, (%rdx)
	leave
	ret
.LFE10133:
	.size	_ZN3Upp4SwapIP15PackageTemplateEEvRT_S4_, .-_ZN3Upp4SwapIP15PackageTemplateEEvRT_S4_
	.section	.text._ZN3Upp5ArrayI15PackageTemplateE9IterSwap0ENS2_8IteratorES3_,"axG",@progbits,_ZN3Upp5ArrayI15PackageTemplateE9IterSwap0ENS2_8IteratorES3_,comdat
	.align 2
	.weak	_ZN3Upp5ArrayI15PackageTemplateE9IterSwap0ENS2_8IteratorES3_
	.type	_ZN3Upp5ArrayI15PackageTemplateE9IterSwap0ENS2_8IteratorES3_, @function
_ZN3Upp5ArrayI15PackageTemplateE9IterSwap0ENS2_8IteratorES3_:
.LFB10089:
	pushq	%rbp
.LCFI505:
	movq	%rsp, %rbp
.LCFI506:
	subq	$16, %rsp
.LCFI507:
	movq	%rdi, -8(%rbp)
	movq	%rsi, -16(%rbp)
	movq	-16(%rbp), %rsi
	movq	-8(%rbp), %rdi
	call	_ZN3Upp4SwapIP15PackageTemplateEEvRT_S4_
	leave
	ret
.LFE10089:
	.size	_ZN3Upp5ArrayI15PackageTemplateE9IterSwap0ENS2_8IteratorES3_, .-_ZN3Upp5ArrayI15PackageTemplateE9IterSwap0ENS2_8IteratorES3_
	.section	.text._ZN3Upp8IterSwapENS_5ArrayI15PackageTemplateE8IteratorES3_,"axG",@progbits,_ZN3Upp8IterSwapENS_5ArrayI15PackageTemplateE8IteratorES3_,comdat
	.align 2
	.weak	_ZN3Upp8IterSwapENS_5ArrayI15PackageTemplateE8IteratorES3_
	.type	_ZN3Upp8IterSwapENS_5ArrayI15PackageTemplateE8IteratorES3_, @function
_ZN3Upp8IterSwapENS_5ArrayI15PackageTemplateE8IteratorES3_:
.LFB10001:
	pushq	%rbp
.LCFI508:
	movq	%rsp, %rbp
.LCFI509:
	subq	$16, %rsp
.LCFI510:
	movq	%rdi, -8(%rbp)
	movq	%rsi, -16(%rbp)
	movq	-16(%rbp), %rsi
	movq	-8(%rbp), %rdi
	call	_ZN3Upp5ArrayI15PackageTemplateE9IterSwap0ENS2_8IteratorES3_
	leave
	ret
.LFE10001:
	.size	_ZN3Upp8IterSwapENS_5ArrayI15PackageTemplateE8IteratorES3_, .-_ZN3Upp8IterSwapENS_5ArrayI15PackageTemplateE8IteratorES3_
	.section	.text._ZN3Upp20CallbackMethodActionI11TemplateDlgMS1_FvvEE7ExecuteEv,"axG",@progbits,_ZN3Upp20CallbackMethodActionI11TemplateDlgMS1_FvvEE7ExecuteEv,comdat
	.align 2
	.weak	_ZN3Upp20CallbackMethodActionI11TemplateDlgMS1_FvvEE7ExecuteEv
	.type	_ZN3Upp20CallbackMethodActionI11TemplateDlgMS1_FvvEE7ExecuteEv, @function
_ZN3Upp20CallbackMethodActionI11TemplateDlgMS1_FvvEE7ExecuteEv:
.LFB10267:
	pushq	%rbp
.LCFI511:
	movq	%rsp, %rbp
.LCFI512:
	subq	$16, %rsp
.LCFI513:
	movq	%rdi, -8(%rbp)
	movq	-8(%rbp), %rax
	movq	24(%rax), %rax
	andl	$1, %eax
	testb	%al, %al
	je	.L493
	movq	-8(%rbp), %rax
	movq	16(%rax), %rdx
	movq	-8(%rbp), %rax
	movq	32(%rax), %rax
	leaq	(%rdx,%rax), %rax
	movq	(%rax), %rdx
	movq	-8(%rbp), %rax
	movq	24(%rax), %rax
	subq	$1, %rax
	leaq	(%rdx,%rax), %rax
	movq	(%rax), %rax
	movq	%rax, -16(%rbp)
	jmp	.L495
.L493:
	movq	-8(%rbp), %rax
	movq	24(%rax), %rax
	movq	%rax, -16(%rbp)
.L495:
	movq	-8(%rbp), %rax
	movq	16(%rax), %rdx
	movq	-8(%rbp), %rax
	movq	32(%rax), %rax
	leaq	(%rdx,%rax), %rdi
	call	*-16(%rbp)
	leave
	ret
.LFE10267:
	.size	_ZN3Upp20CallbackMethodActionI11TemplateDlgMS1_FvvEE7ExecuteEv, .-_ZN3Upp20CallbackMethodActionI11TemplateDlgMS1_FvvEE7ExecuteEv
	.section	.text._ZN3Upp20CallbackMethodActionI10AppPreviewMS1_FvvEE7ExecuteEv,"axG",@progbits,_ZN3Upp20CallbackMethodActionI10AppPreviewMS1_FvvEE7ExecuteEv,comdat
	.align 2
	.weak	_ZN3Upp20CallbackMethodActionI10AppPreviewMS1_FvvEE7ExecuteEv
	.type	_ZN3Upp20CallbackMethodActionI10AppPreviewMS1_FvvEE7ExecuteEv, @function
_ZN3Upp20CallbackMethodActionI10AppPreviewMS1_FvvEE7ExecuteEv:
.LFB10268:
	pushq	%rbp
.LCFI514:
	movq	%rsp, %rbp
.LCFI515:
	subq	$16, %rsp
.LCFI516:
	movq	%rdi, -8(%rbp)
	movq	-8(%rbp), %rax
	movq	24(%rax), %rax
	andl	$1, %eax
	testb	%al, %al
	je	.L498
	movq	-8(%rbp), %rax
	movq	16(%rax), %rdx
	movq	-8(%rbp), %rax
	movq	32(%rax), %rax
	leaq	(%rdx,%rax), %rax
	movq	(%rax), %rdx
	movq	-8(%rbp), %rax
	movq	24(%rax), %rax
	subq	$1, %rax
	leaq	(%rdx,%rax), %rax
	movq	(%rax), %rax
	movq	%rax, -16(%rbp)
	jmp	.L500
.L498:
	movq	-8(%rbp), %rax
	movq	24(%rax), %rax
	movq	%rax, -16(%rbp)
.L500:
	movq	-8(%rbp), %rax
	movq	16(%rax), %rdx
	movq	-8(%rbp), %rax
	movq	32(%rax), %rax
	leaq	(%rdx,%rax), %rdi
	call	*-16(%rbp)
	leave
	ret
.LFE10268:
	.size	_ZN3Upp20CallbackMethodActionI10AppPreviewMS1_FvvEE7ExecuteEv, .-_ZN3Upp20CallbackMethodActionI10AppPreviewMS1_FvvEE7ExecuteEv
	.section	.text._ZN3Upp20CallbackMethodActionINS_13DelayCallbackEMS1_FvvEE7ExecuteEv,"axG",@progbits,_ZN3Upp20CallbackMethodActionINS_13DelayCallbackEMS1_FvvEE7ExecuteEv,comdat
	.align 2
	.weak	_ZN3Upp20CallbackMethodActionINS_13DelayCallbackEMS1_FvvEE7ExecuteEv
	.type	_ZN3Upp20CallbackMethodActionINS_13DelayCallbackEMS1_FvvEE7ExecuteEv, @function
_ZN3Upp20CallbackMethodActionINS_13DelayCallbackEMS1_FvvEE7ExecuteEv:
.LFB10269:
	pushq	%rbp
.LCFI517:
	movq	%rsp, %rbp
.LCFI518:
	subq	$16, %rsp
.LCFI519:
	movq	%rdi, -8(%rbp)
	movq	-8(%rbp), %rax
	movq	24(%rax), %rax
	andl	$1, %eax
	testb	%al, %al
	je	.L503
	movq	-8(%rbp), %rax
	movq	16(%rax), %rdx
	movq	-8(%rbp), %rax
	movq	32(%rax), %rax
	leaq	(%rdx,%rax), %rax
	movq	(%rax), %rdx
	movq	-8(%rbp), %rax
	movq	24(%rax), %rax
	subq	$1, %rax
	leaq	(%rdx,%rax), %rax
	movq	(%rax), %rax
	movq	%rax, -16(%rbp)
	jmp	.L505
.L503:
	movq	-8(%rbp), %rax
	movq	24(%rax), %rax
	movq	%rax, -16(%rbp)
.L505:
	movq	-8(%rbp), %rax
	movq	16(%rax), %rdx
	movq	-8(%rbp), %rax
	movq	32(%rax), %rax
	leaq	(%rdx,%rax), %rdi
	call	*-16(%rbp)
	leave
	ret
.LFE10269:
	.size	_ZN3Upp20CallbackMethodActionINS_13DelayCallbackEMS1_FvvEE7ExecuteEv, .-_ZN3Upp20CallbackMethodActionINS_13DelayCallbackEMS1_FvvEE7ExecuteEv
	.section	.text._ZN11TemplateDlg9SerializeERN3Upp6StreamE,"axG",@progbits,_ZN11TemplateDlg9SerializeERN3Upp6StreamE,comdat
	.align 2
	.weak	_ZN11TemplateDlg9SerializeERN3Upp6StreamE
	.type	_ZN11TemplateDlg9SerializeERN3Upp6StreamE, @function
_ZN11TemplateDlg9SerializeERN3Upp6StreamE:
.LFB7770:
	pushq	%rbp
.LCFI520:
	movq	%rsp, %rbp
.LCFI521:
	subq	$16, %rsp
.LCFI522:
	movq	%rdi, -8(%rbp)
	movq	%rsi, -16(%rbp)
	movq	-8(%rbp), %rdi
	movq	-16(%rbp), %rsi
	movl	$0, %edx
	call	_ZN3Upp9TopWindow18SerializePlacementERNS_6StreamEb
	leave
	ret
.LFE7770:
	.size	_ZN11TemplateDlg9SerializeERN3Upp6StreamE, .-_ZN11TemplateDlg9SerializeERN3Upp6StreamE
.globl _Unwind_Resume
	.section	.text._ZNK3Upp4Ctrl14IsNullInstanceEv,"axG",@progbits,_ZNK3Upp4Ctrl14IsNullInstanceEv,comdat
	.align 2
	.weak	_ZNK3Upp4Ctrl14IsNullInstanceEv
	.type	_ZNK3Upp4Ctrl14IsNullInstanceEv, @function
_ZNK3Upp4Ctrl14IsNullInstanceEv:
.LFB4704:
	pushq	%rbp
.LCFI523:
	movq	%rsp, %rbp
.LCFI524:
	pushq	%rbx
.LCFI525:
	subq	$56, %rsp
.LCFI526:
	movq	%rdi, -40(%rbp)
	movq	-40(%rbp), %rax
	movq	(%rax), %rax
	addq	$40, %rax
	movq	(%rax), %rax
	leaq	-32(%rbp), %rdi
	movq	-40(%rbp), %rsi
.LEHB0:
	call	*%rax
.LEHE0:
	leaq	-32(%rbp), %rdi
.LEHB1:
	call	_ZNK3Upp5Value6IsNullEv
.LEHE1:
	movzbl	%al, %ebx
	leaq	-32(%rbp), %rdi
.LEHB2:
	call	_ZN3Upp5ValueD1Ev
.LEHE2:
	movl	%ebx, -44(%rbp)
	jmp	.L509
.L512:
	movq	%rax, -56(%rbp)
.L510:
	movq	-56(%rbp), %rbx
	leaq	-32(%rbp), %rdi
	call	_ZN3Upp5ValueD1Ev
	movq	%rbx, -56(%rbp)
	movq	-56(%rbp), %rdi
.LEHB3:
	call	_Unwind_Resume
.LEHE3:
.L509:
	movl	-44(%rbp), %eax
	addq	$56, %rsp
	popq	%rbx
	leave
	ret
.LFE4704:
	.size	_ZNK3Upp4Ctrl14IsNullInstanceEv, .-_ZNK3Upp4Ctrl14IsNullInstanceEv
	.section	.gcc_except_table,"a",@progbits
.LLSDA4704:
	.byte	0xff
	.byte	0xff
	.byte	0x1
	.uleb128 .LLSDACSE4704-.LLSDACSB4704
.LLSDACSB4704:
	.uleb128 .LEHB0-.LFB4704
	.uleb128 .LEHE0-.LEHB0
	.uleb128 0x0
	.uleb128 0x0
	.uleb128 .LEHB1-.LFB4704
	.uleb128 .LEHE1-.LEHB1
	.uleb128 .L512-.LFB4704
	.uleb128 0x0
	.uleb128 .LEHB2-.LFB4704
	.uleb128 .LEHE2-.LEHB2
	.uleb128 0x0
	.uleb128 0x0
	.uleb128 .LEHB3-.LFB4704
	.uleb128 .LEHE3-.LEHB3
	.uleb128 0x0
	.uleb128 0x0
.LLSDACSE4704:
	.section	.text._ZNK3Upp4Ctrl14IsNullInstanceEv,"axG",@progbits,_ZNK3Upp4Ctrl14IsNullInstanceEv,comdat
	.section	.text._ZN3Upp6IsNullINS_10EditStringEEEbRKT_,"axG",@progbits,_ZN3Upp6IsNullINS_10EditStringEEEbRKT_,comdat
	.align 2
	.weak	_ZN3Upp6IsNullINS_10EditStringEEEbRKT_
	.type	_ZN3Upp6IsNullINS_10EditStringEEEbRKT_, @function
_ZN3Upp6IsNullINS_10EditStringEEEbRKT_:
.LFB8932:
	pushq	%rbp
.LCFI527:
	movq	%rsp, %rbp
.LCFI528:
	subq	$16, %rsp
.LCFI529:
	movq	%rdi, -8(%rbp)
	movq	-8(%rbp), %rdi
	call	_ZNK3Upp4Ctrl14IsNullInstanceEv
	movzbl	%al, %eax
	leave
	ret
.LFE8932:
	.size	_ZN3Upp6IsNullINS_10EditStringEEEbRKT_, .-_ZN3Upp6IsNullINS_10EditStringEEEbRKT_
	.section	.text._ZN3Upp6VectorIPvE7RawFreeEPS1_,"axG",@progbits,_ZN3Upp6VectorIPvE7RawFreeEPS1_,comdat
	.align 2
	.weak	_ZN3Upp6VectorIPvE7RawFreeEPS1_
	.type	_ZN3Upp6VectorIPvE7RawFreeEPS1_, @function
_ZN3Upp6VectorIPvE7RawFreeEPS1_:
.LFB10020:
	pushq	%rbp
.LCFI530:
	movq	%rsp, %rbp
.LCFI531:
	subq	$16, %rsp
.LCFI532:
	movq	%rdi, -8(%rbp)
	cmpq	$0, -8(%rbp)
	je	.L518
	movq	-8(%rbp), %rdi
	call	_ZN3Upp10MemoryFreeEPv
.L518:
	leave
	ret
.LFE10020:
	.size	_ZN3Upp6VectorIPvE7RawFreeEPS1_, .-_ZN3Upp6VectorIPvE7RawFreeEPS1_
	.section	.text._ZN3Upp6VectorIPvE4FreeEv,"axG",@progbits,_ZN3Upp6VectorIPvE4FreeEv,comdat
	.align 2
	.weak	_ZN3Upp6VectorIPvE4FreeEv
	.type	_ZN3Upp6VectorIPvE4FreeEv, @function
_ZN3Upp6VectorIPvE4FreeEv:
.LFB9671:
	pushq	%rbp
.LCFI533:
	movq	%rsp, %rbp
.LCFI534:
	subq	$16, %rsp
.LCFI535:
	movq	%rdi, -8(%rbp)
	movq	-8(%rbp), %rax
	movq	(%rax), %rax
	testq	%rax, %rax
	je	.L520
	movq	-8(%rbp), %rax
	movl	8(%rax), %eax
	testl	%eax, %eax
	js	.L520
	movq	-8(%rbp), %rax
	movq	(%rax), %rdx
	movq	-8(%rbp), %rax
	movl	8(%rax), %eax
	cltq
	salq	$3, %rax
	leaq	(%rdx,%rax), %rsi
	movq	-8(%rbp), %rax
	movq	(%rax), %rdi
	call	_ZN3Upp12DestroyArrayIPvEEvPT_PKS2_
.L520:
	movq	-8(%rbp), %rax
	movq	(%rax), %rdi
	call	_ZN3Upp6VectorIPvE7RawFreeEPS1_
	leave
	ret
.LFE9671:
	.size	_ZN3Upp6VectorIPvE4FreeEv, .-_ZN3Upp6VectorIPvE4FreeEv
	.section	.text._ZN3Upp6VectorIPvED1Ev,"axG",@progbits,_ZN3Upp6VectorIPvED1Ev,comdat
	.align 2
	.weak	_ZN3Upp6VectorIPvED1Ev
	.type	_ZN3Upp6VectorIPvED1Ev, @function
_ZN3Upp6VectorIPvED1Ev:
.LFB9216:
	pushq	%rbp
.LCFI536:
	movq	%rsp, %rbp
.LCFI537:
	subq	$32, %rsp
.LCFI538:
	movq	%rdi, -24(%rbp)
	movq	-24(%rbp), %rdi
	call	_ZN3Upp6VectorIPvE4FreeEv
	leave
	ret
.LFE9216:
	.size	_ZN3Upp6VectorIPvED1Ev, .-_ZN3Upp6VectorIPvED1Ev
	.section	.text._ZN3Upp5ArrayINS_4CtrlEED1Ev,"axG",@progbits,_ZN3Upp5ArrayINS_4CtrlEED1Ev,comdat
	.align 2
	.weak	_ZN3Upp5ArrayINS_4CtrlEED1Ev
	.type	_ZN3Upp5ArrayINS_4CtrlEED1Ev, @function
_ZN3Upp5ArrayINS_4CtrlEED1Ev:
.LFB9065:
	pushq	%rbp
.LCFI539:
	movq	%rsp, %rbp
.LCFI540:
	pushq	%rbx
.LCFI541:
	subq	$24, %rsp
.LCFI542:
	movq	%rdi, -16(%rbp)
	movq	-16(%rbp), %rdi
.LEHB4:
	call	_ZN3Upp5ArrayINS_4CtrlEE4FreeEv
.LEHE4:
	movq	-16(%rbp), %rax
	addq	$8, %rax
	movq	%rax, -24(%rbp)
	movq	-24(%rbp), %rdi
.LEHB5:
	call	_ZN3Upp6VectorIPvED1Ev
.LEHE5:
	jmp	.L530
.L531:
	movq	%rax, -32(%rbp)
.L529:
	movq	-32(%rbp), %rbx
	movq	-16(%rbp), %rax
	addq	$8, %rax
	movq	%rax, -24(%rbp)
	movq	-24(%rbp), %rdi
	call	_ZN3Upp6VectorIPvED1Ev
	movq	%rbx, -32(%rbp)
	movq	-32(%rbp), %rdi
.LEHB6:
	call	_Unwind_Resume
.LEHE6:
.L530:
	addq	$24, %rsp
	popq	%rbx
	leave
	ret
.LFE9065:
	.size	_ZN3Upp5ArrayINS_4CtrlEED1Ev, .-_ZN3Upp5ArrayINS_4CtrlEED1Ev
	.section	.gcc_except_table
.LLSDA9065:
	.byte	0xff
	.byte	0xff
	.byte	0x1
	.uleb128 .LLSDACSE9065-.LLSDACSB9065
.LLSDACSB9065:
	.uleb128 .LEHB4-.LFB9065
	.uleb128 .LEHE4-.LEHB4
	.uleb128 .L531-.LFB9065
	.uleb128 0x0
	.uleb128 .LEHB5-.LFB9065
	.uleb128 .LEHE5-.LEHB5
	.uleb128 0x0
	.uleb128 0x0
	.uleb128 .LEHB6-.LFB9065
	.uleb128 .LEHE6-.LEHB6
	.uleb128 0x0
	.uleb128 0x0
.LLSDACSE9065:
	.section	.text._ZN3Upp5ArrayINS_4CtrlEED1Ev,"axG",@progbits,_ZN3Upp5ArrayINS_4CtrlEED1Ev,comdat
	.section	.text._ZN3Upp5ArrayINS_5LabelEED1Ev,"axG",@progbits,_ZN3Upp5ArrayINS_5LabelEED1Ev,comdat
	.align 2
	.weak	_ZN3Upp5ArrayINS_5LabelEED1Ev
	.type	_ZN3Upp5ArrayINS_5LabelEED1Ev, @function
_ZN3Upp5ArrayINS_5LabelEED1Ev:
.LFB9056:
	pushq	%rbp
.LCFI543:
	movq	%rsp, %rbp
.LCFI544:
	pushq	%rbx
.LCFI545:
	subq	$24, %rsp
.LCFI546:
	movq	%rdi, -16(%rbp)
	movq	-16(%rbp), %rdi
.LEHB7:
	call	_ZN3Upp5ArrayINS_5LabelEE4FreeEv
.LEHE7:
	movq	-16(%rbp), %rax
	addq	$8, %rax
	movq	%rax, -24(%rbp)
	movq	-24(%rbp), %rdi
.LEHB8:
	call	_ZN3Upp6VectorIPvED1Ev
.LEHE8:
	jmp	.L535
.L536:
	movq	%rax, -32(%rbp)
.L534:
	movq	-32(%rbp), %rbx
	movq	-16(%rbp), %rax
	addq	$8, %rax
	movq	%rax, -24(%rbp)
	movq	-24(%rbp), %rdi
	call	_ZN3Upp6VectorIPvED1Ev
	movq	%rbx, -32(%rbp)
	movq	-32(%rbp), %rdi
.LEHB9:
	call	_Unwind_Resume
.LEHE9:
.L535:
	addq	$24, %rsp
	popq	%rbx
	leave
	ret
.LFE9056:
	.size	_ZN3Upp5ArrayINS_5LabelEED1Ev, .-_ZN3Upp5ArrayINS_5LabelEED1Ev
	.section	.gcc_except_table
.LLSDA9056:
	.byte	0xff
	.byte	0xff
	.byte	0x1
	.uleb128 .LLSDACSE9056-.LLSDACSB9056
.LLSDACSB9056:
	.uleb128 .LEHB7-.LFB9056
	.uleb128 .LEHE7-.LEHB7
	.uleb128 .L536-.LFB9056
	.uleb128 0x0
	.uleb128 .LEHB8-.LFB9056
	.uleb128 .LEHE8-.LEHB8
	.uleb128 0x0
	.uleb128 0x0
	.uleb128 .LEHB9-.LFB9056
	.uleb128 .LEHE9-.LEHB9
	.uleb128 0x0
	.uleb128 0x0
.LLSDACSE9056:
	.section	.text._ZN3Upp5ArrayINS_5LabelEED1Ev,"axG",@progbits,_ZN3Upp5ArrayINS_5LabelEED1Ev,comdat
	.section	.text._ZN3Upp6VectorIPvEaSERKS2_,"axG",@progbits,_ZN3Upp6VectorIPvEaSERKS2_,comdat
	.align 2
	.weak	_ZN3Upp6VectorIPvEaSERKS2_
	.type	_ZN3Upp6VectorIPvEaSERKS2_, @function
_ZN3Upp6VectorIPvEaSERKS2_:
.LFB9623:
	pushq	%rbp
.LCFI547:
	movq	%rsp, %rbp
.LCFI548:
	subq	$16, %rsp
.LCFI549:
	movq	%rdi, -8(%rbp)
	movq	%rsi, -16(%rbp)
	movq	-8(%rbp), %rdi
	call	_ZN3Upp6VectorIPvE4FreeEv
	movq	-16(%rbp), %rsi
	movq	-8(%rbp), %rdi
	call	_ZN3Upp6VectorIPvE4PickERKS2_
	leave
	ret
.LFE9623:
	.size	_ZN3Upp6VectorIPvEaSERKS2_, .-_ZN3Upp6VectorIPvEaSERKS2_
	.section	.text._ZN3Upp6VectorINS_6StringEE7RawFreeEPS1_,"axG",@progbits,_ZN3Upp6VectorINS_6StringEE7RawFreeEPS1_,comdat
	.align 2
	.weak	_ZN3Upp6VectorINS_6StringEE7RawFreeEPS1_
	.type	_ZN3Upp6VectorINS_6StringEE7RawFreeEPS1_, @function
_ZN3Upp6VectorINS_6StringEE7RawFreeEPS1_:
.LFB9668:
	pushq	%rbp
.LCFI550:
	movq	%rsp, %rbp
.LCFI551:
	subq	$16, %rsp
.LCFI552:
	movq	%rdi, -8(%rbp)
	cmpq	$0, -8(%rbp)
	je	.L542
	movq	-8(%rbp), %rdi
	call	_ZN3Upp10MemoryFreeEPv
.L542:
	leave
	ret
.LFE9668:
	.size	_ZN3Upp6VectorINS_6StringEE7RawFreeEPS1_, .-_ZN3Upp6VectorINS_6StringEE7RawFreeEPS1_
	.section	.text._ZN3Upp6VectorIN10AppPreview4LineEE7RawFreeEPS2_,"axG",@progbits,_ZN3Upp6VectorIN10AppPreview4LineEE7RawFreeEPS2_,comdat
	.align 2
	.weak	_ZN3Upp6VectorIN10AppPreview4LineEE7RawFreeEPS2_
	.type	_ZN3Upp6VectorIN10AppPreview4LineEE7RawFreeEPS2_, @function
_ZN3Upp6VectorIN10AppPreview4LineEE7RawFreeEPS2_:
.LFB9982:
	pushq	%rbp
.LCFI553:
	movq	%rsp, %rbp
.LCFI554:
	subq	$16, %rsp
.LCFI555:
	movq	%rdi, -8(%rbp)
	cmpq	$0, -8(%rbp)
	je	.L546
	movq	-8(%rbp), %rdi
	call	_ZN3Upp10MemoryFreeEPv
.L546:
	leave
	ret
.LFE9982:
	.size	_ZN3Upp6VectorIN10AppPreview4LineEE7RawFreeEPS2_, .-_ZN3Upp6VectorIN10AppPreview4LineEE7RawFreeEPS2_
	.section	.text._ZdlPv,"axG",@progbits,_ZdlPv,comdat
	.align 2
	.weak	_ZdlPv
	.type	_ZdlPv, @function
_ZdlPv:
.LFB933:
	pushq	%rbp
.LCFI556:
	movq	%rsp, %rbp
.LCFI557:
	subq	$16, %rsp
.LCFI558:
	movq	%rdi, -8(%rbp)
	movq	-8(%rbp), %rdi
.LEHB10:
	call	_ZN3Upp10MemoryFreeEPv
.LEHE10:
	jmp	.L549
.L551:
	movq	%rax, -16(%rbp)
	cmpq	$-1, %rdx
	je	.L548
	movq	-16(%rbp), %rdi
.LEHB11:
	call	_Unwind_Resume
.L548:
	movq	-16(%rbp), %rdi
	call	__cxa_call_unexpected
.LEHE11:
.L549:
	leave
	ret
.LFE933:
	.size	_ZdlPv, .-_ZdlPv
	.section	.gcc_except_table
	.align 4
.LLSDA933:
	.byte	0xff
	.byte	0x3
	.uleb128 .LLSDATT933-.LLSDATTD933
.LLSDATTD933:
	.byte	0x1
	.uleb128 .LLSDACSE933-.LLSDACSB933
.LLSDACSB933:
	.uleb128 .LEHB10-.LFB933
	.uleb128 .LEHE10-.LEHB10
	.uleb128 .L551-.LFB933
	.uleb128 0x1
	.uleb128 .LEHB11-.LFB933
	.uleb128 .LEHE11-.LEHB11
	.uleb128 0x0
	.uleb128 0x0
.LLSDACSE933:
	.byte	0x7f
	.byte	0x0
	.align 4
.LLSDATT933:
	.byte	0x0
	.section	.text._ZdlPv,"axG",@progbits,_ZdlPv,comdat
	.section	.text._ZN3Upp14CallbackActionD2Ev,"axG",@progbits,_ZN3Upp14CallbackActionD2Ev,comdat
	.align 2
	.weak	_ZN3Upp14CallbackActionD2Ev
	.type	_ZN3Upp14CallbackActionD2Ev, @function
_ZN3Upp14CallbackActionD2Ev:
.LFB3397:
	pushq	%rbp
.LCFI559:
	movq	%rsp, %rbp
.LCFI560:
	subq	$16, %rsp
.LCFI561:
	movq	%rdi, -8(%rbp)
	movl	$_ZTVN3Upp14CallbackActionE+16, %edx
	movq	-8(%rbp), %rax
	movq	%rdx, (%rax)
	movl	$0, %eax
	testb	%al, %al
	je	.L556
	movq	-8(%rbp), %rdi
	call	_ZdlPv
.L556:
	leave
	ret
.LFE3397:
	.size	_ZN3Upp14CallbackActionD2Ev, .-_ZN3Upp14CallbackActionD2Ev
	.section	.text._ZN3Upp20CallbackMethodActionINS_13DelayCallbackEMS1_FvvEED0Ev,"axG",@progbits,_ZN3Upp20CallbackMethodActionINS_13DelayCallbackEMS1_FvvEED0Ev,comdat
	.align 2
	.weak	_ZN3Upp20CallbackMethodActionINS_13DelayCallbackEMS1_FvvEED0Ev
	.type	_ZN3Upp20CallbackMethodActionINS_13DelayCallbackEMS1_FvvEED0Ev, @function
_ZN3Upp20CallbackMethodActionINS_13DelayCallbackEMS1_FvvEED0Ev:
.LFB10154:
	pushq	%rbp
.LCFI562:
	movq	%rsp, %rbp
.LCFI563:
	subq	$16, %rsp
.LCFI564:
	movq	%rdi, -8(%rbp)
	movl	$_ZTVN3Upp20CallbackMethodActionINS_13DelayCallbackEMS1_FvvEEE+16, %edx
	movq	-8(%rbp), %rax
	movq	%rdx, (%rax)
	movq	-8(%rbp), %rdi
	call	_ZN3Upp14CallbackActionD2Ev
	movl	$1, %eax
	testb	%al, %al
	je	.L561
	movq	-8(%rbp), %rdi
	call	_ZdlPv
.L561:
	leave
	ret
.LFE10154:
	.size	_ZN3Upp20CallbackMethodActionINS_13DelayCallbackEMS1_FvvEED0Ev, .-_ZN3Upp20CallbackMethodActionINS_13DelayCallbackEMS1_FvvEED0Ev
	.section	.text._ZN3Upp14CallbackActionD0Ev,"axG",@progbits,_ZN3Upp14CallbackActionD0Ev,comdat
	.align 2
	.weak	_ZN3Upp14CallbackActionD0Ev
	.type	_ZN3Upp14CallbackActionD0Ev, @function
_ZN3Upp14CallbackActionD0Ev:
.LFB3399:
	pushq	%rbp
.LCFI565:
	movq	%rsp, %rbp
.LCFI566:
	subq	$16, %rsp
.LCFI567:
	movq	%rdi, -8(%rbp)
	movl	$_ZTVN3Upp14CallbackActionE+16, %edx
	movq	-8(%rbp), %rax
	movq	%rdx, (%rax)
	movl	$1, %eax
	testb	%al, %al
	je	.L566
	movq	-8(%rbp), %rdi
	call	_ZdlPv
.L566:
	leave
	ret
.LFE3399:
	.size	_ZN3Upp14CallbackActionD0Ev, .-_ZN3Upp14CallbackActionD0Ev
	.section	.text._ZN3Upp14CallbackActionD1Ev,"axG",@progbits,_ZN3Upp14CallbackActionD1Ev,comdat
	.align 2
	.weak	_ZN3Upp14CallbackActionD1Ev
	.type	_ZN3Upp14CallbackActionD1Ev, @function
_ZN3Upp14CallbackActionD1Ev:
.LFB3398:
	pushq	%rbp
.LCFI568:
	movq	%rsp, %rbp
.LCFI569:
	subq	$16, %rsp
.LCFI570:
	movq	%rdi, -8(%rbp)
	movl	$_ZTVN3Upp14CallbackActionE+16, %edx
	movq	-8(%rbp), %rax
	movq	%rdx, (%rax)
	movl	$0, %eax
	testb	%al, %al
	je	.L571
	movq	-8(%rbp), %rdi
	call	_ZdlPv
.L571:
	leave
	ret
.LFE3398:
	.size	_ZN3Upp14CallbackActionD1Ev, .-_ZN3Upp14CallbackActionD1Ev
	.section	.text._ZN3Upp20CallbackMethodActionINS_13DelayCallbackEMS1_FvvEED1Ev,"axG",@progbits,_ZN3Upp20CallbackMethodActionINS_13DelayCallbackEMS1_FvvEED1Ev,comdat
	.align 2
	.weak	_ZN3Upp20CallbackMethodActionINS_13DelayCallbackEMS1_FvvEED1Ev
	.type	_ZN3Upp20CallbackMethodActionINS_13DelayCallbackEMS1_FvvEED1Ev, @function
_ZN3Upp20CallbackMethodActionINS_13DelayCallbackEMS1_FvvEED1Ev:
.LFB10153:
	pushq	%rbp
.LCFI571:
	movq	%rsp, %rbp
.LCFI572:
	subq	$16, %rsp
.LCFI573:
	movq	%rdi, -8(%rbp)
	movl	$_ZTVN3Upp20CallbackMethodActionINS_13DelayCallbackEMS1_FvvEEE+16, %edx
	movq	-8(%rbp), %rax
	movq	%rdx, (%rax)
	movq	-8(%rbp), %rdi
	call	_ZN3Upp14CallbackActionD2Ev
	movl	$0, %eax
	testb	%al, %al
	je	.L576
	movq	-8(%rbp), %rdi
	call	_ZdlPv
.L576:
	leave
	ret
.LFE10153:
	.size	_ZN3Upp20CallbackMethodActionINS_13DelayCallbackEMS1_FvvEED1Ev, .-_ZN3Upp20CallbackMethodActionINS_13DelayCallbackEMS1_FvvEED1Ev
	.section	.text._ZN3Upp7ConvertD2Ev,"axG",@progbits,_ZN3Upp7ConvertD2Ev,comdat
	.align 2
	.weak	_ZN3Upp7ConvertD2Ev
	.type	_ZN3Upp7ConvertD2Ev, @function
_ZN3Upp7ConvertD2Ev:
.LFB3876:
	pushq	%rbp
.LCFI574:
	movq	%rsp, %rbp
.LCFI575:
	subq	$16, %rsp
.LCFI576:
	movq	%rdi, -8(%rbp)
	movl	$_ZTVN3Upp7ConvertE+16, %edx
	movq	-8(%rbp), %rax
	movq	%rdx, (%rax)
	movl	$0, %eax
	testb	%al, %al
	je	.L581
	movq	-8(%rbp), %rdi
	call	_ZdlPv
.L581:
	leave
	ret
.LFE3876:
	.size	_ZN3Upp7ConvertD2Ev, .-_ZN3Upp7ConvertD2Ev
	.section	.text._ZN3Upp13ConvertStringD2Ev,"axG",@progbits,_ZN3Upp13ConvertStringD2Ev,comdat
	.align 2
	.weak	_ZN3Upp13ConvertStringD2Ev
	.type	_ZN3Upp13ConvertStringD2Ev, @function
_ZN3Upp13ConvertStringD2Ev:
.LFB5670:
	pushq	%rbp
.LCFI577:
	movq	%rsp, %rbp
.LCFI578:
	subq	$16, %rsp
.LCFI579:
	movq	%rdi, -8(%rbp)
	movl	$_ZTVN3Upp13ConvertStringE+16, %edx
	movq	-8(%rbp), %rax
	movq	%rdx, (%rax)
	movq	-8(%rbp), %rdi
	call	_ZN3Upp7ConvertD2Ev
	movl	$0, %eax
	testb	%al, %al
	je	.L586
	movq	-8(%rbp), %rdi
	call	_ZdlPv
.L586:
	leave
	ret
.LFE5670:
	.size	_ZN3Upp13ConvertStringD2Ev, .-_ZN3Upp13ConvertStringD2Ev
	.section	.text._ZN3Upp20CallbackMethodActionI11TemplateDlgMS1_FvvEED0Ev,"axG",@progbits,_ZN3Upp20CallbackMethodActionI11TemplateDlgMS1_FvvEED0Ev,comdat
	.align 2
	.weak	_ZN3Upp20CallbackMethodActionI11TemplateDlgMS1_FvvEED0Ev
	.type	_ZN3Upp20CallbackMethodActionI11TemplateDlgMS1_FvvEED0Ev, @function
_ZN3Upp20CallbackMethodActionI11TemplateDlgMS1_FvvEED0Ev:
.LFB10146:
	pushq	%rbp
.LCFI580:
	movq	%rsp, %rbp
.LCFI581:
	subq	$16, %rsp
.LCFI582:
	movq	%rdi, -8(%rbp)
	movl	$_ZTVN3Upp20CallbackMethodActionI11TemplateDlgMS1_FvvEEE+16, %edx
	movq	-8(%rbp), %rax
	movq	%rdx, (%rax)
	movq	-8(%rbp), %rdi
	call	_ZN3Upp14CallbackActionD2Ev
	movl	$1, %eax
	testb	%al, %al
	je	.L591
	movq	-8(%rbp), %rdi
	call	_ZdlPv
.L591:
	leave
	ret
.LFE10146:
	.size	_ZN3Upp20CallbackMethodActionI11TemplateDlgMS1_FvvEED0Ev, .-_ZN3Upp20CallbackMethodActionI11TemplateDlgMS1_FvvEED0Ev
	.section	.text._ZN3Upp20CallbackMethodActionI11TemplateDlgMS1_FvvEED1Ev,"axG",@progbits,_ZN3Upp20CallbackMethodActionI11TemplateDlgMS1_FvvEED1Ev,comdat
	.align 2
	.weak	_ZN3Upp20CallbackMethodActionI11TemplateDlgMS1_FvvEED1Ev
	.type	_ZN3Upp20CallbackMethodActionI11TemplateDlgMS1_FvvEED1Ev, @function
_ZN3Upp20CallbackMethodActionI11TemplateDlgMS1_FvvEED1Ev:
.LFB10145:
	pushq	%rbp
.LCFI583:
	movq	%rsp, %rbp
.LCFI584:
	subq	$16, %rsp
.LCFI585:
	movq	%rdi, -8(%rbp)
	movl	$_ZTVN3Upp20CallbackMethodActionI11TemplateDlgMS1_FvvEEE+16, %edx
	movq	-8(%rbp), %rax
	movq	%rdx, (%rax)
	movq	-8(%rbp), %rdi
	call	_ZN3Upp14CallbackActionD2Ev
	movl	$0, %eax
	testb	%al, %al
	je	.L596
	movq	-8(%rbp), %rdi
	call	_ZdlPv
.L596:
	leave
	ret
.LFE10145:
	.size	_ZN3Upp20CallbackMethodActionI11TemplateDlgMS1_FvvEED1Ev, .-_ZN3Upp20CallbackMethodActionI11TemplateDlgMS1_FvvEED1Ev
	.section	.text._ZN3Upp20CallbackMethodActionI10AppPreviewMS1_FvvEED0Ev,"axG",@progbits,_ZN3Upp20CallbackMethodActionI10AppPreviewMS1_FvvEED0Ev,comdat
	.align 2
	.weak	_ZN3Upp20CallbackMethodActionI10AppPreviewMS1_FvvEED0Ev
	.type	_ZN3Upp20CallbackMethodActionI10AppPreviewMS1_FvvEED0Ev, @function
_ZN3Upp20CallbackMethodActionI10AppPreviewMS1_FvvEED0Ev:
.LFB10150:
	pushq	%rbp
.LCFI586:
	movq	%rsp, %rbp
.LCFI587:
	subq	$16, %rsp
.LCFI588:
	movq	%rdi, -8(%rbp)
	movl	$_ZTVN3Upp20CallbackMethodActionI10AppPreviewMS1_FvvEEE+16, %edx
	movq	-8(%rbp), %rax
	movq	%rdx, (%rax)
	movq	-8(%rbp), %rdi
	call	_ZN3Upp14CallbackActionD2Ev
	movl	$1, %eax
	testb	%al, %al
	je	.L601
	movq	-8(%rbp), %rdi
	call	_ZdlPv
.L601:
	leave
	ret
.LFE10150:
	.size	_ZN3Upp20CallbackMethodActionI10AppPreviewMS1_FvvEED0Ev, .-_ZN3Upp20CallbackMethodActionI10AppPreviewMS1_FvvEED0Ev
	.section	.text._ZN3Upp20CallbackMethodActionI10AppPreviewMS1_FvvEED1Ev,"axG",@progbits,_ZN3Upp20CallbackMethodActionI10AppPreviewMS1_FvvEED1Ev,comdat
	.align 2
	.weak	_ZN3Upp20CallbackMethodActionI10AppPreviewMS1_FvvEED1Ev
	.type	_ZN3Upp20CallbackMethodActionI10AppPreviewMS1_FvvEED1Ev, @function
_ZN3Upp20CallbackMethodActionI10AppPreviewMS1_FvvEED1Ev:
.LFB10149:
	pushq	%rbp
.LCFI589:
	movq	%rsp, %rbp
.LCFI590:
	subq	$16, %rsp
.LCFI591:
	movq	%rdi, -8(%rbp)
	movl	$_ZTVN3Upp20CallbackMethodActionI10AppPreviewMS1_FvvEEE+16, %edx
	movq	-8(%rbp), %rax
	movq	%rdx, (%rax)
	movq	-8(%rbp), %rdi
	call	_ZN3Upp14CallbackActionD2Ev
	movl	$0, %eax
	testb	%al, %al
	je	.L606
	movq	-8(%rbp), %rdi
	call	_ZdlPv
.L606:
	leave
	ret
.LFE10149:
	.size	_ZN3Upp20CallbackMethodActionI10AppPreviewMS1_FvvEED1Ev, .-_ZN3Upp20CallbackMethodActionI10AppPreviewMS1_FvvEED1Ev
	.section	.text._ZN3Upp6VectorIPvE8ReAllocFEi,"axG",@progbits,_ZN3Upp6VectorIPvE8ReAllocFEi,comdat
	.align 2
	.weak	_ZN3Upp6VectorIPvE8ReAllocFEi
	.type	_ZN3Upp6VectorIPvE8ReAllocFEi, @function
_ZN3Upp6VectorIPvE8ReAllocFEi:
.LFB10017:
	pushq	%rbp
.LCFI592:
	movq	%rsp, %rbp
.LCFI593:
	subq	$16, %rsp
.LCFI594:
	movq	%rdi, -8(%rbp)
	movl	%esi, -12(%rbp)
	movl	-12(%rbp), %esi
	movq	-8(%rbp), %rdi
	movl	$8, %edx
	call	_ZN3Upp15VectorReAllocF_EPvii
	leave
	ret
.LFE10017:
	.size	_ZN3Upp6VectorIPvE8ReAllocFEi, .-_ZN3Upp6VectorIPvE8ReAllocFEi
	.section	.text._ZN3Upp6VectorIPvE8SetCountEi,"axG",@progbits,_ZN3Upp6VectorIPvE8SetCountEi,comdat
	.align 2
	.weak	_ZN3Upp6VectorIPvE8SetCountEi
	.type	_ZN3Upp6VectorIPvE8SetCountEi, @function
_ZN3Upp6VectorIPvE8SetCountEi:
.LFB9656:
	pushq	%rbp
.LCFI595:
	movq	%rsp, %rbp
.LCFI596:
	subq	$16, %rsp
.LCFI597:
	movq	%rdi, -8(%rbp)
	movl	%esi, -12(%rbp)
	movq	-8(%rbp), %rdi
	call	_ZNK3Upp6VectorIPvE3ChkEv
	movq	-8(%rbp), %rax
	movl	8(%rax), %eax
	cmpl	-12(%rbp), %eax
	je	.L616
	movq	-8(%rbp), %rax
	movl	8(%rax), %eax
	cmpl	-12(%rbp), %eax
	jle	.L612
	movl	-12(%rbp), %esi
	movq	-8(%rbp), %rdi
	call	_ZN3Upp6VectorIPvE4TrimEi
	jmp	.L616
.L612:
	movq	-8(%rbp), %rax
	movl	12(%rax), %eax
	cmpl	-12(%rbp), %eax
	jge	.L614
	movl	-12(%rbp), %esi
	movq	-8(%rbp), %rdi
	call	_ZN3Upp6VectorIPvE8ReAllocFEi
.L614:
	movq	-8(%rbp), %rax
	movq	(%rax), %rdx
	movl	-12(%rbp), %eax
	cltq
	salq	$3, %rax
	leaq	(%rdx,%rax), %rsi
	movq	-8(%rbp), %rax
	movq	(%rax), %rdx
	movq	-8(%rbp), %rax
	movl	8(%rax), %eax
	cltq
	salq	$3, %rax
	leaq	(%rdx,%rax), %rdi
	call	_ZN3Upp14ConstructArrayIPvEEvPT_PKS2_
	movq	-8(%rbp), %rdx
	movl	-12(%rbp), %eax
	movl	%eax, 8(%rdx)
.L616:
	leave
	ret
.LFE9656:
	.size	_ZN3Upp6VectorIPvE8SetCountEi, .-_ZN3Upp6VectorIPvE8SetCountEi
	.section	.text._ZN3Upp6VectorIPvE5ClearEv,"axG",@progbits,_ZN3Upp6VectorIPvE5ClearEv,comdat
	.align 2
	.weak	_ZN3Upp6VectorIPvE5ClearEv
	.type	_ZN3Upp6VectorIPvE5ClearEv, @function
_ZN3Upp6VectorIPvE5ClearEv:
.LFB9197:
	pushq	%rbp
.LCFI598:
	movq	%rsp, %rbp
.LCFI599:
	subq	$16, %rsp
.LCFI600:
	movq	%rdi, -8(%rbp)
	movq	-8(%rbp), %rax
	movq	(%rax), %rax
	testq	%rax, %rax
	je	.L618
	movq	-8(%rbp), %rax
	movl	8(%rax), %eax
	testl	%eax, %eax
	js	.L618
	movq	-8(%rbp), %rdi
	movl	$0, %esi
	call	_ZN3Upp6VectorIPvE8SetCountEi
	jmp	.L622
.L618:
	movq	-8(%rbp), %rax
	movl	$0, 8(%rax)
	movq	-8(%rbp), %rax
	movl	8(%rax), %edx
	movq	-8(%rbp), %rax
	movl	%edx, 12(%rax)
	movq	-8(%rbp), %rax
	movq	$0, (%rax)
.L622:
	leave
	ret
.LFE9197:
	.size	_ZN3Upp6VectorIPvE5ClearEv, .-_ZN3Upp6VectorIPvE5ClearEv
	.section	.text._ZN3Upp5ArrayINS_5LabelEE5ClearEv,"axG",@progbits,_ZN3Upp5ArrayINS_5LabelEE5ClearEv,comdat
	.align 2
	.weak	_ZN3Upp5ArrayINS_5LabelEE5ClearEv
	.type	_ZN3Upp5ArrayINS_5LabelEE5ClearEv, @function
_ZN3Upp5ArrayINS_5LabelEE5ClearEv:
.LFB9082:
	pushq	%rbp
.LCFI601:
	movq	%rsp, %rbp
.LCFI602:
	subq	$16, %rsp
.LCFI603:
	movq	%rdi, -8(%rbp)
	movq	-8(%rbp), %rdi
	call	_ZN3Upp5ArrayINS_5LabelEE4FreeEv
	movq	-8(%rbp), %rdi
	addq	$8, %rdi
	call	_ZN3Upp6VectorIPvE5ClearEv
	leave
	ret
.LFE9082:
	.size	_ZN3Upp5ArrayINS_5LabelEE5ClearEv, .-_ZN3Upp5ArrayINS_5LabelEE5ClearEv
	.section	.text._ZN3Upp5ArrayINS_4CtrlEE5ClearEv,"axG",@progbits,_ZN3Upp5ArrayINS_4CtrlEE5ClearEv,comdat
	.align 2
	.weak	_ZN3Upp5ArrayINS_4CtrlEE5ClearEv
	.type	_ZN3Upp5ArrayINS_4CtrlEE5ClearEv, @function
_ZN3Upp5ArrayINS_4CtrlEE5ClearEv:
.LFB9083:
	pushq	%rbp
.LCFI604:
	movq	%rsp, %rbp
.LCFI605:
	subq	$16, %rsp
.LCFI606:
	movq	%rdi, -8(%rbp)
	movq	-8(%rbp), %rdi
	call	_ZN3Upp5ArrayINS_4CtrlEE4FreeEv
	movq	-8(%rbp), %rdi
	addq	$8, %rdi
	call	_ZN3Upp6VectorIPvE5ClearEv
	leave
	ret
.LFE9083:
	.size	_ZN3Upp5ArrayINS_4CtrlEE5ClearEv, .-_ZN3Upp5ArrayINS_4CtrlEE5ClearEv
	.section	.text._ZN3Upp6VectorIN10AppPreview4LineEE8ReAllocFEi,"axG",@progbits,_ZN3Upp6VectorIN10AppPreview4LineEE8ReAllocFEi,comdat
	.align 2
	.weak	_ZN3Upp6VectorIN10AppPreview4LineEE8ReAllocFEi
	.type	_ZN3Upp6VectorIN10AppPreview4LineEE8ReAllocFEi, @function
_ZN3Upp6VectorIN10AppPreview4LineEE8ReAllocFEi:
.LFB9955:
	pushq	%rbp
.LCFI607:
	movq	%rsp, %rbp
.LCFI608:
	subq	$16, %rsp
.LCFI609:
	movq	%rdi, -8(%rbp)
	movl	%esi, -12(%rbp)
	movl	-12(%rbp), %esi
	movq	-8(%rbp), %rdi
	movl	$32, %edx
	call	_ZN3Upp15VectorReAllocF_EPvii
	leave
	ret
.LFE9955:
	.size	_ZN3Upp6VectorIN10AppPreview4LineEE8ReAllocFEi, .-_ZN3Upp6VectorIN10AppPreview4LineEE8ReAllocFEi
	.section	.text._ZN3Upp8DropList3AddERKNS_5ValueE,"axG",@progbits,_ZN3Upp8DropList3AddERKNS_5ValueE,comdat
	.align 2
	.weak	_ZN3Upp8DropList3AddERKNS_5ValueE
	.type	_ZN3Upp8DropList3AddERKNS_5ValueE, @function
_ZN3Upp8DropList3AddERKNS_5ValueE:
.LFB6053:
	pushq	%rbp
.LCFI610:
	movq	%rsp, %rbp
.LCFI611:
	subq	$16, %rsp
.LCFI612:
	movq	%rdi, -8(%rbp)
	movq	%rsi, -16(%rbp)
	movq	-16(%rbp), %rdx
	movq	-16(%rbp), %rsi
	movq	-8(%rbp), %rdi
	call	_ZN3Upp8DropList3AddERKNS_5ValueES3_
	leave
	ret
.LFE6053:
	.size	_ZN3Upp8DropList3AddERKNS_5ValueE, .-_ZN3Upp8DropList3AddERKNS_5ValueE
	.section	.text._ZNK3Upp7String07CompareERKS0_,"axG",@progbits,_ZNK3Upp7String07CompareERKS0_,comdat
	.align 2
	.weak	_ZNK3Upp7String07CompareERKS0_
	.type	_ZNK3Upp7String07CompareERKS0_, @function
_ZNK3Upp7String07CompareERKS0_:
.LFB1509:
	pushq	%rbp
.LCFI613:
	movq	%rsp, %rbp
.LCFI614:
	subq	$64, %rsp
.LCFI615:
	movq	%rdi, -40(%rbp)
	movq	%rsi, -48(%rbp)
	movq	-40(%rbp), %rax
	movzbl	14(%rax), %eax
	movsbl	%al,%edx
	movq	-48(%rbp), %rax
	movzbl	14(%rax), %eax
	movsbl	%al,%eax
	orl	%edx, %eax
	testl	%eax, %eax
	jne	.L632
	movq	-40(%rbp), %rax
	movq	(%rax), %rdi
	call	_ZN3Upp12SwapEndian64Ey
	movq	%rax, -32(%rbp)
	movq	-48(%rbp), %rax
	movq	(%rax), %rdi
	call	_ZN3Upp12SwapEndian64Ey
	movq	%rax, -24(%rbp)
	movq	-32(%rbp), %rax
	cmpq	-24(%rbp), %rax
	je	.L634
	movq	-32(%rbp), %rax
	cmpq	-24(%rbp), %rax
	jae	.L636
	movl	$-1, -60(%rbp)
	jmp	.L638
.L636:
	movl	$1, -60(%rbp)
.L638:
	movl	-60(%rbp), %eax
	movl	%eax, -64(%rbp)
	jmp	.L639
.L634:
	movq	-40(%rbp), %rax
	movl	8(%rax), %edi
	call	_ZN3Upp12SwapEndian32Ej
	movl	%eax, -12(%rbp)
	movq	-48(%rbp), %rax
	movl	8(%rax), %edi
	call	_ZN3Upp12SwapEndian32Ej
	movl	%eax, -8(%rbp)
	movl	-12(%rbp), %eax
	cmpl	-8(%rbp), %eax
	je	.L640
	movl	-12(%rbp), %eax
	cmpl	-8(%rbp), %eax
	jae	.L642
	movl	$-1, -56(%rbp)
	jmp	.L644
.L642:
	movl	$1, -56(%rbp)
.L644:
	movl	-56(%rbp), %eax
	movl	%eax, -64(%rbp)
	jmp	.L639
.L640:
	movq	-40(%rbp), %rax
	movzwl	12(%rax), %eax
	movzwl	%ax, %edi
	call	_ZN3Upp12SwapEndian16Et
	movw	%ax, -4(%rbp)
	movq	-48(%rbp), %rax
	movzwl	12(%rax), %eax
	movzwl	%ax, %edi
	call	_ZN3Upp12SwapEndian16Et
	movw	%ax, -2(%rbp)
	movzwl	-4(%rbp), %eax
	cmpw	-2(%rbp), %ax
	je	.L645
	movzwl	-4(%rbp), %eax
	cmpw	-2(%rbp), %ax
	jae	.L647
	movl	$-1, -52(%rbp)
	jmp	.L649
.L647:
	movl	$1, -52(%rbp)
.L649:
	movl	-52(%rbp), %eax
	movl	%eax, -64(%rbp)
	jmp	.L639
.L645:
	movl	$0, -64(%rbp)
	jmp	.L639
.L632:
	movq	-48(%rbp), %rsi
	movq	-40(%rbp), %rdi
	call	_ZNK3Upp7String08LCompareERKS0_
	movl	%eax, -64(%rbp)
.L639:
	movl	-64(%rbp), %eax
	leave
	ret
.LFE1509:
	.size	_ZNK3Upp7String07CompareERKS0_, .-_ZNK3Upp7String07CompareERKS0_
	.section	.text._ZNK3Upp7AStringINS_7String0EE7CompareERKNS_6StringE,"axG",@progbits,_ZNK3Upp7AStringINS_7String0EE7CompareERKNS_6StringE,comdat
	.align 2
	.weak	_ZNK3Upp7AStringINS_7String0EE7CompareERKNS_6StringE
	.type	_ZNK3Upp7AStringINS_7String0EE7CompareERKNS_6StringE, @function
_ZNK3Upp7AStringINS_7String0EE7CompareERKNS_6StringE:
.LFB10142:
	pushq	%rbp
.LCFI616:
	movq	%rsp, %rbp
.LCFI617:
	subq	$16, %rsp
.LCFI618:
	movq	%rdi, -8(%rbp)
	movq	%rsi, -16(%rbp)
	movq	-16(%rbp), %rsi
	movq	-8(%rbp), %rdi
	call	_ZNK3Upp7String07CompareERKS0_
	leave
	ret
.LFE10142:
	.size	_ZNK3Upp7AStringINS_7String0EE7CompareERKNS_6StringE, .-_ZNK3Upp7AStringINS_7String0EE7CompareERKNS_6StringE
	.section	.text._ZN3UppltERKNS_6StringES2_,"axG",@progbits,_ZN3UppltERKNS_6StringES2_,comdat
	.align 2
	.weak	_ZN3UppltERKNS_6StringES2_
	.type	_ZN3UppltERKNS_6StringES2_, @function
_ZN3UppltERKNS_6StringES2_:
.LFB10132:
	pushq	%rbp
.LCFI619:
	movq	%rsp, %rbp
.LCFI620:
	subq	$16, %rsp
.LCFI621:
	movq	%rdi, -8(%rbp)
	movq	%rsi, -16(%rbp)
	movq	-8(%rbp), %rdi
	movq	-16(%rbp), %rsi
	call	_ZNK3Upp7AStringINS_7String0EE7CompareERKNS_6StringE
	shrl	$31, %eax
	leave
	ret
.LFE10132:
	.size	_ZN3UppltERKNS_6StringES2_, .-_ZN3UppltERKNS_6StringES2_
	.section	.text._ZNK3Upp7StdLessINS_6StringEEclERKS1_S4_,"axG",@progbits,_ZNK3Upp7StdLessINS_6StringEEclERKS1_S4_,comdat
	.align 2
	.weak	_ZNK3Upp7StdLessINS_6StringEEclERKS1_S4_
	.type	_ZNK3Upp7StdLessINS_6StringEEclERKS1_S4_, @function
_ZNK3Upp7StdLessINS_6StringEEclERKS1_S4_:
.LFB10088:
	pushq	%rbp
.LCFI622:
	movq	%rsp, %rbp
.LCFI623:
	subq	$32, %rsp
.LCFI624:
	movq	%rdi, -8(%rbp)
	movq	%rsi, -16(%rbp)
	movq	%rdx, -24(%rbp)
	movq	-24(%rbp), %rsi
	movq	-16(%rbp), %rdi
	call	_ZN3UppltERKNS_6StringES2_
	movzbl	%al, %eax
	leave
	ret
.LFE10088:
	.size	_ZNK3Upp7StdLessINS_6StringEEclERKS1_S4_, .-_ZNK3Upp7StdLessINS_6StringEEclERKS1_S4_
	.section	.text._ZNK3Upp16FieldRelationClsINS_6StringE15PackageTemplateNS_7StdLessIS1_EEEclERKS2_S7_,"axG",@progbits,_ZNK3Upp16FieldRelationClsINS_6StringE15PackageTemplateNS_7StdLessIS1_EEEclERKS2_S7_,comdat
	.align 2
	.weak	_ZNK3Upp16FieldRelationClsINS_6StringE15PackageTemplateNS_7StdLessIS1_EEEclERKS2_S7_
	.type	_ZNK3Upp16FieldRelationClsINS_6StringE15PackageTemplateNS_7StdLessIS1_EEEclERKS2_S7_, @function
_ZNK3Upp16FieldRelationClsINS_6StringE15PackageTemplateNS_7StdLessIS1_EEEclERKS2_S7_:
.LFB9998:
	pushq	%rbp
.LCFI625:
	movq	%rsp, %rbp
.LCFI626:
	subq	$32, %rsp
.LCFI627:
	movq	%rdi, -8(%rbp)
	movq	%rsi, -16(%rbp)
	movq	%rdx, -24(%rbp)
	movq	-8(%rbp), %rax
	movq	(%rax), %rax
	movq	%rax, %rdx
	addq	-24(%rbp), %rdx
	movq	-8(%rbp), %rax
	movq	(%rax), %rax
	movq	%rax, %rsi
	addq	-16(%rbp), %rsi
	movq	-8(%rbp), %rax
	movq	8(%rax), %rdi
	call	_ZNK3Upp7StdLessINS_6StringEEclERKS1_S4_
	movzbl	%al, %eax
	leave
	ret
.LFE9998:
	.size	_ZNK3Upp16FieldRelationClsINS_6StringE15PackageTemplateNS_7StdLessIS1_EEEclERKS2_S7_, .-_ZNK3Upp16FieldRelationClsINS_6StringE15PackageTemplateNS_7StdLessIS1_EEEclERKS2_S7_
	.section	.text._ZN3Upp11ForwardSortINS_5ArrayI15PackageTemplateE8IteratorENS_16FieldRelationClsINS_6StringES2_NS_7StdLessIS6_EEEEEEvT_SA_RKT0_,"axG",@progbits,_ZN3Upp11ForwardSortINS_5ArrayI15PackageTemplateE8IteratorENS_16FieldRelationClsINS_6StringES2_NS_7StdLessIS6_EEEEEEvT_SA_RKT0_,comdat
	.align 2
	.weak	_ZN3Upp11ForwardSortINS_5ArrayI15PackageTemplateE8IteratorENS_16FieldRelationClsINS_6StringES2_NS_7StdLessIS6_EEEEEEvT_SA_RKT0_
	.type	_ZN3Upp11ForwardSortINS_5ArrayI15PackageTemplateE8IteratorENS_16FieldRelationClsINS_6StringES2_NS_7StdLessIS6_EEEEEEvT_SA_RKT0_, @function
_ZN3Upp11ForwardSortINS_5ArrayI15PackageTemplateE8IteratorENS_16FieldRelationClsINS_6StringES2_NS_7StdLessIS6_EEEEEEvT_SA_RKT0_:
.LFB10002:
	pushq	%rbp
.LCFI628:
	movq	%rsp, %rbp
.LCFI629:
	pushq	%rbx
.LCFI630:
	subq	$104, %rsp
.LCFI631:
	movq	%rdi, -88(%rbp)
	movq	%rsi, -96(%rbp)
	movq	%rdx, -104(%rbp)
	movq	-96(%rbp), %rax
	movq	%rax, %rsi
	leaq	-88(%rbp), %rdi
	call	_ZNK3Upp5ArrayI15PackageTemplateE13ConstIteratoreqES3_
	testb	%al, %al
	jne	.L675
	movq	-96(%rbp), %rax
	movq	%rax, -32(%rbp)
	leaq	-32(%rbp), %rdi
	call	_ZN3Upp5ArrayI15PackageTemplateE8IteratormmEv
	jmp	.L676
.L663:
	movq	-32(%rbp), %rax
	movq	%rax, -48(%rbp)
	movq	-32(%rbp), %rax
	movq	%rax, -64(%rbp)
	movq	-32(%rbp), %rax
	movq	%rax, -80(%rbp)
.L664:
	leaq	-80(%rbp), %rdi
	call	_ZN3Upp5ArrayI15PackageTemplateE8IteratormmEv
	movq	%rax, %rdi
	call	_ZN3Upp5ArrayI15PackageTemplateE8IteratordeEv
	movq	%rax, %rbx
	leaq	-48(%rbp), %rdi
	call	_ZN3Upp5ArrayI15PackageTemplateE8IteratordeEv
	movq	%rax, %rsi
	movq	-104(%rbp), %rdi
	movq	%rbx, %rdx
	call	_ZNK3Upp16FieldRelationClsINS_6StringE15PackageTemplateNS_7StdLessIS1_EEEclERKS2_S7_
	xorl	$1, %eax
	testb	%al, %al
	je	.L665
	movq	-88(%rbp), %rax
	movq	%rax, %rsi
	leaq	-80(%rbp), %rdi
	call	_ZNK3Upp5ArrayI15PackageTemplateE13ConstIteratoreqES3_
	testb	%al, %al
	je	.L669
	movq	-64(%rbp), %rax
	movq	%rax, -88(%rbp)
	jmp	.L662
.L665:
	movq	-88(%rbp), %rax
	movq	%rax, %rsi
	leaq	-80(%rbp), %rdi
	call	_ZNK3Upp5ArrayI15PackageTemplateE13ConstIteratoreqES3_
	testb	%al, %al
	je	.L670
	movq	-48(%rbp), %rsi
	movq	-88(%rbp), %rdi
	call	_ZN3Upp8IterSwapENS_5ArrayI15PackageTemplateE8IteratorES3_
	leaq	-88(%rbp), %rdi
	call	_ZN3Upp5ArrayI15PackageTemplateE8IteratorppEv
	jmp	.L662
.L670:
	leaq	-80(%rbp), %rdi
	call	_ZN3Upp5ArrayI15PackageTemplateE8IteratormmEv
	movq	%rax, %rdi
	call	_ZN3Upp5ArrayI15PackageTemplateE8IteratordeEv
	movq	%rax, %rbx
	leaq	-48(%rbp), %rdi
	call	_ZN3Upp5ArrayI15PackageTemplateE8IteratordeEv
	movq	%rax, %rsi
	movq	-104(%rbp), %rdi
	movq	%rbx, %rdx
	call	_ZNK3Upp16FieldRelationClsINS_6StringE15PackageTemplateNS_7StdLessIS1_EEEclERKS2_S7_
	testb	%al, %al
	jne	.L665
	movq	-88(%rbp), %rax
	movq	%rax, %rsi
	leaq	-80(%rbp), %rdi
	call	_ZNK3Upp5ArrayI15PackageTemplateE13ConstIteratoreqES3_
	testb	%al, %al
	je	.L673
	leaq	-88(%rbp), %rdi
	call	_ZN3Upp5ArrayI15PackageTemplateE8IteratorppEv
	movq	-48(%rbp), %rsi
	movq	(%rax), %rdi
	call	_ZN3Upp8IterSwapENS_5ArrayI15PackageTemplateE8IteratorES3_
	leaq	-88(%rbp), %rdi
	call	_ZN3Upp5ArrayI15PackageTemplateE8IteratorppEv
	jmp	.L662
.L673:
	movq	-80(%rbp), %rax
	movq	%rax, -64(%rbp)
	leaq	-64(%rbp), %rdi
	call	_ZN3Upp5ArrayI15PackageTemplateE8IteratorppEv
.L669:
	movq	-80(%rbp), %rax
	movq	%rax, -48(%rbp)
	jmp	.L664
.L662:
.L676:
	movq	-32(%rbp), %rax
	movq	%rax, %rsi
	leaq	-88(%rbp), %rdi
	call	_ZNK3Upp5ArrayI15PackageTemplateE13ConstIteratoreqES3_
	xorl	$1, %eax
	testb	%al, %al
	jne	.L663
.L675:
	addq	$104, %rsp
	popq	%rbx
	leave
	ret
.LFE10002:
	.size	_ZN3Upp11ForwardSortINS_5ArrayI15PackageTemplateE8IteratorENS_16FieldRelationClsINS_6StringES2_NS_7StdLessIS6_EEEEEEvT_SA_RKT0_, .-_ZN3Upp11ForwardSortINS_5ArrayI15PackageTemplateE8IteratorENS_16FieldRelationClsINS_6StringES2_NS_7StdLessIS6_EEEEEEvT_SA_RKT0_
	.section	.text._ZN3Upp4SortINS_5ArrayI15PackageTemplateE8IteratorENS_16FieldRelationClsINS_6StringES2_NS_7StdLessIS6_EEEEEEvT_SA_RKT0_,"axG",@progbits,_ZN3Upp4SortINS_5ArrayI15PackageTemplateE8IteratorENS_16FieldRelationClsINS_6StringES2_NS_7StdLessIS6_EEEEEEvT_SA_RKT0_,comdat
	.align 2
	.weak	_ZN3Upp4SortINS_5ArrayI15PackageTemplateE8IteratorENS_16FieldRelationClsINS_6StringES2_NS_7StdLessIS6_EEEEEEvT_SA_RKT0_
	.type	_ZN3Upp4SortINS_5ArrayI15PackageTemplateE8IteratorENS_16FieldRelationClsINS_6StringES2_NS_7StdLessIS6_EEEEEEvT_SA_RKT0_, @function
_ZN3Upp4SortINS_5ArrayI15PackageTemplateE8IteratorENS_16FieldRelationClsINS_6StringES2_NS_7StdLessIS6_EEEEEEvT_SA_RKT0_:
.LFB9629:
	pushq	%rbp
.LCFI632:
	movq	%rsp, %rbp
.LCFI633:
	pushq	%rbx
.LCFI634:
	subq	$136, %rsp
.LCFI635:
	movq	%rdi, -104(%rbp)
	movq	%rsi, -112(%rbp)
	movq	%rdx, -120(%rbp)
	jmp	.L704
.L679:
	movl	-36(%rbp), %eax
	sarl	%eax
	movl	%eax, -32(%rbp)
	movl	-32(%rbp), %eax
	movl	%eax, %edx
	sarl	$8, %edx
	movl	-32(%rbp), %eax
	subl	%edx, %eax
	movl	%eax, -28(%rbp)
	movq	-104(%rbp), %rax
	movq	%rax, -64(%rbp)
	movq	-112(%rbp), %rax
	movq	%rax, -80(%rbp)
	movl	-32(%rbp), %esi
	leaq	-64(%rbp), %rdi
	call	_ZNK3Upp5ArrayI15PackageTemplateE8IteratorplEi
	movq	%rax, -96(%rbp)
	movl	$1, -24(%rbp)
	jmp	.L703
.L680:
.L703:
	leaq	-80(%rbp), %rdi
	call	_ZN3Upp5ArrayI15PackageTemplateE8IteratormmEv
	movq	%rax, %rdi
	call	_ZN3Upp5ArrayI15PackageTemplateE8IteratordeEv
	movq	%rax, %rbx
	leaq	-96(%rbp), %rdi
	call	_ZN3Upp5ArrayI15PackageTemplateE8IteratordeEv
	movq	%rax, %rsi
	movq	-120(%rbp), %rdi
	movq	%rbx, %rdx
	call	_ZNK3Upp16FieldRelationClsINS_6StringE15PackageTemplateNS_7StdLessIS1_EEEclERKS2_S7_
	testb	%al, %al
	jne	.L680
	jmp	.L682
.L683:
	leaq	-64(%rbp), %rdi
	call	_ZN3Upp5ArrayI15PackageTemplateE8IteratorppEv
.L682:
	leaq	-96(%rbp), %rdi
	call	_ZN3Upp5ArrayI15PackageTemplateE8IteratordeEv
	movq	%rax, %rbx
	leaq	-64(%rbp), %rdi
	call	_ZN3Upp5ArrayI15PackageTemplateE8IteratordeEv
	movq	%rax, %rsi
	movq	-120(%rbp), %rdi
	movq	%rbx, %rdx
	call	_ZNK3Upp16FieldRelationClsINS_6StringE15PackageTemplateNS_7StdLessIS1_EEEclERKS2_S7_
	testb	%al, %al
	jne	.L683
	movq	-80(%rbp), %rax
	movq	%rax, %rsi
	leaq	-64(%rbp), %rdi
	call	_ZNK3Upp5ArrayI15PackageTemplateE13ConstIteratorltES3_
	xorl	$1, %eax
	testb	%al, %al
	jne	.L685
	movq	-64(%rbp), %rax
	movq	%rax, %rsi
	leaq	-96(%rbp), %rdi
	call	_ZNK3Upp5ArrayI15PackageTemplateE13ConstIteratoreqES3_
	testb	%al, %al
	je	.L687
	movq	-80(%rbp), %rax
	movq	%rax, -96(%rbp)
	jmp	.L689
.L687:
	movq	-80(%rbp), %rax
	movq	%rax, %rsi
	leaq	-96(%rbp), %rdi
	call	_ZNK3Upp5ArrayI15PackageTemplateE13ConstIteratoreqES3_
	testb	%al, %al
	je	.L689
	movq	-64(%rbp), %rax
	movq	%rax, -96(%rbp)
.L689:
	movq	-80(%rbp), %rsi
	movq	-64(%rbp), %rdi
	call	_ZN3Upp8IterSwapENS_5ArrayI15PackageTemplateE8IteratorES3_
	leaq	-64(%rbp), %rdi
	call	_ZN3Upp5ArrayI15PackageTemplateE8IteratorppEv
	jmp	.L680
.L685:
	cmpl	$1, -24(%rbp)
	jg	.L691
	movq	-104(%rbp), %rsi
	leaq	-64(%rbp), %rdi
	call	_ZNK3Upp5ArrayI15PackageTemplateE8IteratormiES3_
	movl	%eax, -20(%rbp)
	movl	-28(%rbp), %edx
	movl	-32(%rbp), %eax
	subl	%edx, %eax
	cmpl	-20(%rbp), %eax
	jl	.L693
	movq	-112(%rbp), %rax
	movq	%rax, -80(%rbp)
	jmp	.L695
.L693:
	movl	-28(%rbp), %eax
	addl	-32(%rbp), %eax
	cmpl	-20(%rbp), %eax
	jg	.L691
	movq	-64(%rbp), %rax
	movq	%rax, -80(%rbp)
	movq	-104(%rbp), %rax
	movq	%rax, -64(%rbp)
.L695:
	call	rand
	movl	%eax, %ebx
	movq	-64(%rbp), %rsi
	leaq	-80(%rbp), %rdi
	call	_ZNK3Upp5ArrayI15PackageTemplateE8IteratormiES3_
	subl	$2, %eax
	movl	%eax, -132(%rbp)
	movl	%ebx, %eax
	movl	$0, %edx
	divl	-132(%rbp)
	movl	%edx, %eax
	movl	%eax, %ebx
	leaq	-64(%rbp), %rdi
	movl	$1, %esi
	call	_ZNK3Upp5ArrayI15PackageTemplateE8IteratorplEi
	movq	%rax, -48(%rbp)
	leaq	-48(%rbp), %rdi
	movl	%ebx, %esi
	call	_ZNK3Upp5ArrayI15PackageTemplateE8IteratorplEi
	movq	%rax, -96(%rbp)
	addl	$1, -24(%rbp)
	jmp	.L680
.L691:
	movq	-104(%rbp), %rsi
	leaq	-64(%rbp), %rdi
	call	_ZNK3Upp5ArrayI15PackageTemplateE8IteratormiES3_
	movl	%eax, %ebx
	movq	-80(%rbp), %rsi
	leaq	-112(%rbp), %rdi
	call	_ZNK3Upp5ArrayI15PackageTemplateE8IteratormiES3_
	cmpl	%eax, %ebx
	setl	%al
	testb	%al, %al
	je	.L697
	movq	-120(%rbp), %rdx
	movq	-64(%rbp), %rsi
	movq	-104(%rbp), %rdi
	call	_ZN3Upp4SortINS_5ArrayI15PackageTemplateE8IteratorENS_16FieldRelationClsINS_6StringES2_NS_7StdLessIS6_EEEEEEvT_SA_RKT0_
	movq	-64(%rbp), %rax
	movq	%rax, -104(%rbp)
	jmp	.L678
.L697:
	movq	-120(%rbp), %rdx
	movq	-112(%rbp), %rsi
	movq	-64(%rbp), %rdi
	call	_ZN3Upp4SortINS_5ArrayI15PackageTemplateE8IteratorENS_16FieldRelationClsINS_6StringES2_NS_7StdLessIS6_EEEEEEvT_SA_RKT0_
	movq	-64(%rbp), %rax
	movq	%rax, -112(%rbp)
.L678:
.L704:
	movq	-104(%rbp), %rsi
	leaq	-112(%rbp), %rdi
	call	_ZNK3Upp5ArrayI15PackageTemplateE8IteratormiES3_
	movl	%eax, -36(%rbp)
	cmpl	$16, -36(%rbp)
	setg	%al
	testb	%al, %al
	jne	.L679
	cmpl	$1, -36(%rbp)
	jle	.L702
	movq	-120(%rbp), %rdx
	movq	-112(%rbp), %rsi
	movq	-104(%rbp), %rdi
	call	_ZN3Upp11ForwardSortINS_5ArrayI15PackageTemplateE8IteratorENS_16FieldRelationClsINS_6StringES2_NS_7StdLessIS6_EEEEEEvT_SA_RKT0_
.L702:
	addq	$136, %rsp
	popq	%rbx
	leave
	ret
.LFE9629:
	.size	_ZN3Upp4SortINS_5ArrayI15PackageTemplateE8IteratorENS_16FieldRelationClsINS_6StringES2_NS_7StdLessIS6_EEEEEEvT_SA_RKT0_, .-_ZN3Upp4SortINS_5ArrayI15PackageTemplateE8IteratorENS_16FieldRelationClsINS_6StringES2_NS_7StdLessIS6_EEEEEEvT_SA_RKT0_
	.section	.text._ZN3Upp4SortINS_5ArrayI15PackageTemplateEENS_16FieldRelationClsINS_6StringES2_NS_7StdLessIS5_EEEEEEvRT_RKT0_,"axG",@progbits,_ZN3Upp4SortINS_5ArrayI15PackageTemplateEENS_16FieldRelationClsINS_6StringES2_NS_7StdLessIS5_EEEEEEvRT_RKT0_,comdat
	.align 2
	.weak	_ZN3Upp4SortINS_5ArrayI15PackageTemplateEENS_16FieldRelationClsINS_6StringES2_NS_7StdLessIS5_EEEEEEvRT_RKT0_
	.type	_ZN3Upp4SortINS_5ArrayI15PackageTemplateEENS_16FieldRelationClsINS_6StringES2_NS_7StdLessIS5_EEEEEEvRT_RKT0_, @function
_ZN3Upp4SortINS_5ArrayI15PackageTemplateEENS_16FieldRelationClsINS_6StringES2_NS_7StdLessIS5_EEEEEEvRT_RKT0_:
.LFB9097:
	pushq	%rbp
.LCFI636:
	movq	%rsp, %rbp
.LCFI637:
	pushq	%rbx
.LCFI638:
	subq	$24, %rsp
.LCFI639:
	movq	%rdi, -16(%rbp)
	movq	%rsi, -24(%rbp)
	movq	-16(%rbp), %rdi
	call	_ZN3Upp5ArrayI15PackageTemplateE3EndEv
	movq	%rax, %rbx
	movq	-16(%rbp), %rdi
	call	_ZN3Upp5ArrayI15PackageTemplateE5BeginEv
	movq	%rax, %rdi
	movq	-24(%rbp), %rdx
	movq	%rbx, %rsi
	call	_ZN3Upp4SortINS_5ArrayI15PackageTemplateE8IteratorENS_16FieldRelationClsINS_6StringES2_NS_7StdLessIS6_EEEEEEvT_SA_RKT0_
	addq	$24, %rsp
	popq	%rbx
	leave
	ret
.LFE9097:
	.size	_ZN3Upp4SortINS_5ArrayI15PackageTemplateEENS_16FieldRelationClsINS_6StringES2_NS_7StdLessIS5_EEEEEEvRT_RKT0_, .-_ZN3Upp4SortINS_5ArrayI15PackageTemplateEENS_16FieldRelationClsINS_6StringES2_NS_7StdLessIS5_EEEEEEvRT_RKT0_
	.section	.text._ZN3Upp7String04FreeEv,"axG",@progbits,_ZN3Upp7String04FreeEv,comdat
	.align 2
	.weak	_ZN3Upp7String04FreeEv
	.type	_ZN3Upp7String04FreeEv, @function
_ZN3Upp7String04FreeEv:
.LFB1241:
	pushq	%rbp
.LCFI640:
	movq	%rsp, %rbp
.LCFI641:
	subq	$16, %rsp
.LCFI642:
	movq	%rdi, -8(%rbp)
	movq	-8(%rbp), %rdi
	call	_ZNK3Upp7String07IsLargeEv
	testb	%al, %al
	je	.L710
	movq	-8(%rbp), %rdi
	call	_ZN3Upp7String05LFreeEv
.L710:
	leave
	ret
.LFE1241:
	.size	_ZN3Upp7String04FreeEv, .-_ZN3Upp7String04FreeEv
	.section	.text._ZN3Upp7String0D2Ev,"axG",@progbits,_ZN3Upp7String0D2Ev,comdat
	.align 2
	.weak	_ZN3Upp7String0D2Ev
	.type	_ZN3Upp7String0D2Ev, @function
_ZN3Upp7String0D2Ev:
.LFB1264:
	pushq	%rbp
.LCFI643:
	movq	%rsp, %rbp
.LCFI644:
	subq	$16, %rsp
.LCFI645:
	movq	%rdi, -8(%rbp)
	movq	-8(%rbp), %rdi
	call	_ZN3Upp7String04FreeEv
	leave
	ret
.LFE1264:
	.size	_ZN3Upp7String0D2Ev, .-_ZN3Upp7String0D2Ev
	.section	.text._ZN3Upp7AStringINS_7String0EED2Ev,"axG",@progbits,_ZN3Upp7AStringINS_7String0EED2Ev,comdat
	.align 2
	.weak	_ZN3Upp7AStringINS_7String0EED2Ev
	.type	_ZN3Upp7AStringINS_7String0EED2Ev, @function
_ZN3Upp7AStringINS_7String0EED2Ev:
.LFB1275:
	pushq	%rbp
.LCFI646:
	movq	%rsp, %rbp
.LCFI647:
	subq	$16, %rsp
.LCFI648:
	movq	%rdi, -8(%rbp)
	movq	-8(%rbp), %rdi
	call	_ZN3Upp7String0D2Ev
	leave
	ret
.LFE1275:
	.size	_ZN3Upp7AStringINS_7String0EED2Ev, .-_ZN3Upp7AStringINS_7String0EED2Ev
	.section	.text._ZN3Upp8MoveableINS_6StringENS_7AStringINS_7String0EEEED2Ev,"axG",@progbits,_ZN3Upp8MoveableINS_6StringENS_7AStringINS_7String0EEEED2Ev,comdat
	.align 2
	.weak	_ZN3Upp8MoveableINS_6StringENS_7AStringINS_7String0EEEED2Ev
	.type	_ZN3Upp8MoveableINS_6StringENS_7AStringINS_7String0EEEED2Ev, @function
_ZN3Upp8MoveableINS_6StringENS_7AStringINS_7String0EEEED2Ev:
.LFB1277:
	pushq	%rbp
.LCFI649:
	movq	%rsp, %rbp
.LCFI650:
	subq	$16, %rsp
.LCFI651:
	movq	%rdi, -8(%rbp)
	movq	-8(%rbp), %rdi
	call	_ZN3Upp7AStringINS_7String0EED2Ev
	leave
	ret
.LFE1277:
	.size	_ZN3Upp8MoveableINS_6StringENS_7AStringINS_7String0EEEED2Ev, .-_ZN3Upp8MoveableINS_6StringENS_7AStringINS_7String0EEEED2Ev
	.section	.text._ZN3Upp6StringD1Ev,"axG",@progbits,_ZN3Upp6StringD1Ev,comdat
	.align 2
	.weak	_ZN3Upp6StringD1Ev
	.type	_ZN3Upp6StringD1Ev, @function
_ZN3Upp6StringD1Ev:
.LFB1280:
	pushq	%rbp
.LCFI652:
	movq	%rsp, %rbp
.LCFI653:
	subq	$16, %rsp
.LCFI654:
	movq	%rdi, -8(%rbp)
	movq	-8(%rbp), %rdi
	call	_ZN3Upp8MoveableINS_6StringENS_7AStringINS_7String0EEEED2Ev
	leave
	ret
.LFE1280:
	.size	_ZN3Upp6StringD1Ev, .-_ZN3Upp6StringD1Ev
	.section	.text._ZN12FileTemplateD1Ev,"axG",@progbits,_ZN12FileTemplateD1Ev,comdat
	.align 2
	.weak	_ZN12FileTemplateD1Ev
	.type	_ZN12FileTemplateD1Ev, @function
_ZN12FileTemplateD1Ev:
.LFB9596:
	pushq	%rbp
.LCFI655:
	movq	%rsp, %rbp
.LCFI656:
	subq	$16, %rsp
.LCFI657:
	movq	%rdi, -8(%rbp)
	movq	-8(%rbp), %rdi
	addq	$32, %rdi
	call	_ZN3Upp6StringD1Ev
	movq	-8(%rbp), %rdi
	addq	$16, %rdi
	call	_ZN3Upp6StringD1Ev
	movq	-8(%rbp), %rdi
	call	_ZN3Upp6StringD1Ev
	leave
	ret
.LFE9596:
	.size	_ZN12FileTemplateD1Ev, .-_ZN12FileTemplateD1Ev
	.section	.text._ZN3Upp5ArrayI12FileTemplateE4FreeEv,"axG",@progbits,_ZN3Upp5ArrayI12FileTemplateE4FreeEv,comdat
	.align 2
	.weak	_ZN3Upp5ArrayI12FileTemplateE4FreeEv
	.type	_ZN3Upp5ArrayI12FileTemplateE4FreeEv, @function
_ZN3Upp5ArrayI12FileTemplateE4FreeEv:
.LFB9593:
	pushq	%rbp
.LCFI658:
	movq	%rsp, %rbp
.LCFI659:
	subq	$32, %rsp
.LCFI660:
	movq	%rdi, -24(%rbp)
	movq	-24(%rbp), %rdi
	call	_ZNK3Upp5ArrayI12FileTemplateE8IsPickedEv
	testb	%al, %al
	jne	.L733
	movl	$0, -4(%rbp)
	jmp	.L729
.L730:
	movq	-24(%rbp), %rdi
	addq	$8, %rdi
	movl	-4(%rbp), %esi
	call	_ZN3Upp6VectorIPvEixEi
	movq	(%rax), %rax
	movq	%rax, -32(%rbp)
	cmpq	$0, -32(%rbp)
	je	.L731
	movq	-32(%rbp), %rdi
	call	_ZN12FileTemplateD1Ev
	movq	-32(%rbp), %rdi
	call	_ZdlPv
.L731:
	addl	$1, -4(%rbp)
.L729:
	movq	-24(%rbp), %rdi
	addq	$8, %rdi
	call	_ZNK3Upp6VectorIPvE8GetCountEv
	cmpl	-4(%rbp), %eax
	setg	%al
	testb	%al, %al
	jne	.L730
.L733:
	leave
	ret
.LFE9593:
	.size	_ZN3Upp5ArrayI12FileTemplateE4FreeEv, .-_ZN3Upp5ArrayI12FileTemplateE4FreeEv
	.section	.text._ZN3Upp5ArrayI12FileTemplateED1Ev,"axG",@progbits,_ZN3Upp5ArrayI12FileTemplateED1Ev,comdat
	.align 2
	.weak	_ZN3Upp5ArrayI12FileTemplateED1Ev
	.type	_ZN3Upp5ArrayI12FileTemplateED1Ev, @function
_ZN3Upp5ArrayI12FileTemplateED1Ev:
.LFB8995:
	pushq	%rbp
.LCFI661:
	movq	%rsp, %rbp
.LCFI662:
	subq	$16, %rsp
.LCFI663:
	movq	%rdi, -8(%rbp)
	movq	-8(%rbp), %rdi
	call	_ZN3Upp5ArrayI12FileTemplateE4FreeEv
	movq	-8(%rbp), %rdi
	addq	$8, %rdi
	call	_ZN3Upp6VectorIPvED1Ev
	leave
	ret
.LFE8995:
	.size	_ZN3Upp5ArrayI12FileTemplateED1Ev, .-_ZN3Upp5ArrayI12FileTemplateED1Ev
	.section	.text._ZN3Upp5ArrayI12FileTemplateEaSERKS2_,"axG",@progbits,_ZN3Upp5ArrayI12FileTemplateEaSERKS2_,comdat
	.align 2
	.weak	_ZN3Upp5ArrayI12FileTemplateEaSERKS2_
	.type	_ZN3Upp5ArrayI12FileTemplateEaSERKS2_, @function
_ZN3Upp5ArrayI12FileTemplateEaSERKS2_:
.LFB9093:
	pushq	%rbp
.LCFI664:
	movq	%rsp, %rbp
.LCFI665:
	subq	$16, %rsp
.LCFI666:
	movq	%rdi, -8(%rbp)
	movq	%rsi, -16(%rbp)
	movq	-8(%rbp), %rdi
	call	_ZN3Upp5ArrayI12FileTemplateE4FreeEv
	movq	-16(%rbp), %rsi
	addq	$8, %rsi
	movq	-8(%rbp), %rdi
	addq	$8, %rdi
	call	_ZN3Upp6VectorIPvEaSERKS2_
	leave
	ret
.LFE9093:
	.size	_ZN3Upp5ArrayI12FileTemplateEaSERKS2_, .-_ZN3Upp5ArrayI12FileTemplateEaSERKS2_
	.section	.text._ZN3Upp12DestroyArrayINS_6StringEEEvPT_PKS2_,"axG",@progbits,_ZN3Upp12DestroyArrayINS_6StringEEEvPT_PKS2_,comdat
	.align 2
	.weak	_ZN3Upp12DestroyArrayINS_6StringEEEvPT_PKS2_
	.type	_ZN3Upp12DestroyArrayINS_6StringEEEvPT_PKS2_, @function
_ZN3Upp12DestroyArrayINS_6StringEEEvPT_PKS2_:
.LFB9667:
	pushq	%rbp
.LCFI667:
	movq	%rsp, %rbp
.LCFI668:
	subq	$16, %rsp
.LCFI669:
	movq	%rdi, -8(%rbp)
	movq	%rsi, -16(%rbp)
	jmp	.L740
.L741:
	movq	-8(%rbp), %rdi
	call	_ZN3Upp6StringD1Ev
	addq	$16, -8(%rbp)
.L740:
	movq	-8(%rbp), %rax
	cmpq	-16(%rbp), %rax
	jb	.L741
	leave
	ret
.LFE9667:
	.size	_ZN3Upp12DestroyArrayINS_6StringEEEvPT_PKS2_, .-_ZN3Upp12DestroyArrayINS_6StringEEEvPT_PKS2_
	.section	.text._ZN3Upp6VectorINS_6StringEE4FreeEv,"axG",@progbits,_ZN3Upp6VectorINS_6StringEE4FreeEv,comdat
	.align 2
	.weak	_ZN3Upp6VectorINS_6StringEE4FreeEv
	.type	_ZN3Upp6VectorINS_6StringEE4FreeEv, @function
_ZN3Upp6VectorINS_6StringEE4FreeEv:
.LFB9202:
	pushq	%rbp
.LCFI670:
	movq	%rsp, %rbp
.LCFI671:
	subq	$16, %rsp
.LCFI672:
	movq	%rdi, -8(%rbp)
	movq	-8(%rbp), %rax
	movq	(%rax), %rax
	testq	%rax, %rax
	je	.L745
	movq	-8(%rbp), %rax
	movl	8(%rax), %eax
	testl	%eax, %eax
	js	.L745
	movq	-8(%rbp), %rax
	movq	(%rax), %rdx
	movq	-8(%rbp), %rax
	movl	8(%rax), %eax
	cltq
	salq	$4, %rax
	leaq	(%rdx,%rax), %rsi
	movq	-8(%rbp), %rax
	movq	(%rax), %rdi
	call	_ZN3Upp12DestroyArrayINS_6StringEEEvPT_PKS2_
.L745:
	movq	-8(%rbp), %rax
	movq	(%rax), %rdi
	call	_ZN3Upp6VectorINS_6StringEE7RawFreeEPS1_
	leave
	ret
.LFE9202:
	.size	_ZN3Upp6VectorINS_6StringEE4FreeEv, .-_ZN3Upp6VectorINS_6StringEE4FreeEv
	.section	.text._ZN3Upp6VectorINS_6StringEED1Ev,"axG",@progbits,_ZN3Upp6VectorINS_6StringEED1Ev,comdat
	.align 2
	.weak	_ZN3Upp6VectorINS_6StringEED1Ev
	.type	_ZN3Upp6VectorINS_6StringEED1Ev, @function
_ZN3Upp6VectorINS_6StringEED1Ev:
.LFB8197:
	pushq	%rbp
.LCFI673:
	movq	%rsp, %rbp
.LCFI674:
	subq	$48, %rsp
.LCFI675:
	movq	%rdi, -40(%rbp)
	movq	%fs:40, %rax
	movq	%rax, -8(%rbp)
	xorl	%eax, %eax
	movq	-40(%rbp), %rdi
	call	_ZN3Upp6VectorINS_6StringEE4FreeEv
	movq	-8(%rbp), %rax
	xorq	%fs:40, %rax
	je	.L752
	call	__stack_chk_fail
.L752:
	leave
	ret
.LFE8197:
	.size	_ZN3Upp6VectorINS_6StringEED1Ev, .-_ZN3Upp6VectorINS_6StringEED1Ev
	.section	.text._ZN12TemplateItemD1Ev,"axG",@progbits,_ZN12TemplateItemD1Ev,comdat
	.align 2
	.weak	_ZN12TemplateItemD1Ev
	.type	_ZN12TemplateItemD1Ev, @function
_ZN12TemplateItemD1Ev:
.LFB9592:
	pushq	%rbp
.LCFI676:
	movq	%rsp, %rbp
.LCFI677:
	pushq	%rbx
.LCFI678:
	subq	$40, %rsp
.LCFI679:
	movq	%rdi, -16(%rbp)
	movq	-16(%rbp), %rdi
	addq	$56, %rdi
	call	_ZN3Upp6StringD1Ev
	movq	-16(%rbp), %rdi
	addq	$40, %rdi
.LEHB12:
	call	_ZN3Upp6VectorINS_6StringEED1Ev
.LEHE12:
	movq	-16(%rbp), %rax
	addq	$24, %rax
	movq	%rax, -32(%rbp)
	movq	-32(%rbp), %rdi
	call	_ZN3Upp6StringD1Ev
	movq	-16(%rbp), %rax
	movq	%rax, -24(%rbp)
	movq	-24(%rbp), %rdi
	call	_ZN3Upp6StringD1Ev
	jmp	.L757
.L758:
	movq	%rax, -40(%rbp)
.L755:
	movq	-40(%rbp), %rbx
	movq	-16(%rbp), %rax
	addq	$24, %rax
	movq	%rax, -32(%rbp)
	movq	-32(%rbp), %rdi
	call	_ZN3Upp6StringD1Ev
	movq	%rbx, -40(%rbp)
.L759:
.L756:
	movq	-40(%rbp), %rbx
	movq	-16(%rbp), %rax
	movq	%rax, -24(%rbp)
	movq	-24(%rbp), %rdi
	call	_ZN3Upp6StringD1Ev
	movq	%rbx, -40(%rbp)
	movq	-40(%rbp), %rdi
.LEHB13:
	call	_Unwind_Resume
.LEHE13:
.L757:
	addq	$40, %rsp
	popq	%rbx
	leave
	ret
.LFE9592:
	.size	_ZN12TemplateItemD1Ev, .-_ZN12TemplateItemD1Ev
	.section	.gcc_except_table
.LLSDA9592:
	.byte	0xff
	.byte	0xff
	.byte	0x1
	.uleb128 .LLSDACSE9592-.LLSDACSB9592
.LLSDACSB9592:
	.uleb128 .LEHB12-.LFB9592
	.uleb128 .LEHE12-.LEHB12
	.uleb128 .L758-.LFB9592
	.uleb128 0x0
	.uleb128 .LEHB13-.LFB9592
	.uleb128 .LEHE13-.LEHB13
	.uleb128 0x0
	.uleb128 0x0
.LLSDACSE9592:
	.section	.text._ZN12TemplateItemD1Ev,"axG",@progbits,_ZN12TemplateItemD1Ev,comdat
	.section	.text._ZN3Upp5ArrayI12TemplateItemE4FreeEv,"axG",@progbits,_ZN3Upp5ArrayI12TemplateItemE4FreeEv,comdat
	.align 2
	.weak	_ZN3Upp5ArrayI12TemplateItemE4FreeEv
	.type	_ZN3Upp5ArrayI12TemplateItemE4FreeEv, @function
_ZN3Upp5ArrayI12TemplateItemE4FreeEv:
.LFB9589:
	pushq	%rbp
.LCFI680:
	movq	%rsp, %rbp
.LCFI681:
	subq	$32, %rsp
.LCFI682:
	movq	%rdi, -24(%rbp)
	movq	-24(%rbp), %rdi
	call	_ZNK3Upp5ArrayI12TemplateItemE8IsPickedEv
	testb	%al, %al
	jne	.L767
	movl	$0, -4(%rbp)
	jmp	.L763
.L764:
	movq	-24(%rbp), %rdi
	addq	$8, %rdi
	movl	-4(%rbp), %esi
	call	_ZN3Upp6VectorIPvEixEi
	movq	(%rax), %rax
	movq	%rax, -32(%rbp)
	cmpq	$0, -32(%rbp)
	je	.L765
	movq	-32(%rbp), %rdi
	call	_ZN12TemplateItemD1Ev
	movq	-32(%rbp), %rdi
	call	_ZdlPv
.L765:
	addl	$1, -4(%rbp)
.L763:
	movq	-24(%rbp), %rdi
	addq	$8, %rdi
	call	_ZNK3Upp6VectorIPvE8GetCountEv
	cmpl	-4(%rbp), %eax
	setg	%al
	testb	%al, %al
	jne	.L764
.L767:
	leave
	ret
.LFE9589:
	.size	_ZN3Upp5ArrayI12TemplateItemE4FreeEv, .-_ZN3Upp5ArrayI12TemplateItemE4FreeEv
	.section	.text._ZN3Upp5ArrayI12TemplateItemED1Ev,"axG",@progbits,_ZN3Upp5ArrayI12TemplateItemED1Ev,comdat
	.align 2
	.weak	_ZN3Upp5ArrayI12TemplateItemED1Ev
	.type	_ZN3Upp5ArrayI12TemplateItemED1Ev, @function
_ZN3Upp5ArrayI12TemplateItemED1Ev:
.LFB8986:
	pushq	%rbp
.LCFI683:
	movq	%rsp, %rbp
.LCFI684:
	pushq	%rbx
.LCFI685:
	subq	$24, %rsp
.LCFI686:
	movq	%rdi, -16(%rbp)
	movq	-16(%rbp), %rdi
.LEHB14:
	call	_ZN3Upp5ArrayI12TemplateItemE4FreeEv
.LEHE14:
	movq	-16(%rbp), %rax
	addq	$8, %rax
	movq	%rax, -24(%rbp)
	movq	-24(%rbp), %rdi
.LEHB15:
	call	_ZN3Upp6VectorIPvED1Ev
.LEHE15:
	jmp	.L771
.L772:
	movq	%rax, -32(%rbp)
.L770:
	movq	-32(%rbp), %rbx
	movq	-16(%rbp), %rax
	addq	$8, %rax
	movq	%rax, -24(%rbp)
	movq	-24(%rbp), %rdi
	call	_ZN3Upp6VectorIPvED1Ev
	movq	%rbx, -32(%rbp)
	movq	-32(%rbp), %rdi
.LEHB16:
	call	_Unwind_Resume
.LEHE16:
.L771:
	addq	$24, %rsp
	popq	%rbx
	leave
	ret
.LFE8986:
	.size	_ZN3Upp5ArrayI12TemplateItemED1Ev, .-_ZN3Upp5ArrayI12TemplateItemED1Ev
	.section	.gcc_except_table
.LLSDA8986:
	.byte	0xff
	.byte	0xff
	.byte	0x1
	.uleb128 .LLSDACSE8986-.LLSDACSB8986
.LLSDACSB8986:
	.uleb128 .LEHB14-.LFB8986
	.uleb128 .LEHE14-.LEHB14
	.uleb128 .L772-.LFB8986
	.uleb128 0x0
	.uleb128 .LEHB15-.LFB8986
	.uleb128 .LEHE15-.LEHB15
	.uleb128 0x0
	.uleb128 0x0
	.uleb128 .LEHB16-.LFB8986
	.uleb128 .LEHE16-.LEHB16
	.uleb128 0x0
	.uleb128 0x0
.LLSDACSE8986:
	.section	.text._ZN3Upp5ArrayI12TemplateItemED1Ev,"axG",@progbits,_ZN3Upp5ArrayI12TemplateItemED1Ev,comdat
	.section	.text._ZN15PackageTemplateD1Ev,"axG",@progbits,_ZN15PackageTemplateD1Ev,comdat
	.align 2
	.weak	_ZN15PackageTemplateD1Ev
	.type	_ZN15PackageTemplateD1Ev, @function
_ZN15PackageTemplateD1Ev:
.LFB7912:
	pushq	%rbp
.LCFI687:
	movq	%rsp, %rbp
.LCFI688:
	pushq	%rbx
.LCFI689:
	subq	$40, %rsp
.LCFI690:
	movq	%rdi, -16(%rbp)
	movq	-16(%rbp), %rdi
	addq	$48, %rdi
.LEHB17:
	call	_ZN3Upp5ArrayI12FileTemplateED1Ev
.LEHE17:
	movq	-16(%rbp), %rax
	addq	$24, %rax
	movq	%rax, -32(%rbp)
	movq	-32(%rbp), %rdi
.LEHB18:
	call	_ZN3Upp5ArrayI12TemplateItemED1Ev
.LEHE18:
	jmp	.L774
.L779:
	movq	%rax, -40(%rbp)
.L775:
	movq	-40(%rbp), %rbx
	movq	-16(%rbp), %rax
	addq	$24, %rax
	movq	%rax, -32(%rbp)
	movq	-32(%rbp), %rdi
	call	_ZN3Upp5ArrayI12TemplateItemED1Ev
	movq	%rbx, -40(%rbp)
	jmp	.L777
.L774:
	movq	-16(%rbp), %rax
	movq	%rax, -24(%rbp)
	movq	-24(%rbp), %rdi
	call	_ZN3Upp6StringD1Ev
	jmp	.L778
.L780:
	movq	%rax, -40(%rbp)
.L777:
	movq	-40(%rbp), %rbx
	movq	-16(%rbp), %rax
	movq	%rax, -24(%rbp)
	movq	-24(%rbp), %rdi
	call	_ZN3Upp6StringD1Ev
	movq	%rbx, -40(%rbp)
	movq	-40(%rbp), %rdi
.LEHB19:
	call	_Unwind_Resume
.LEHE19:
.L778:
	addq	$40, %rsp
	popq	%rbx
	leave
	ret
.LFE7912:
	.size	_ZN15PackageTemplateD1Ev, .-_ZN15PackageTemplateD1Ev
	.section	.gcc_except_table
.LLSDA7912:
	.byte	0xff
	.byte	0xff
	.byte	0x1
	.uleb128 .LLSDACSE7912-.LLSDACSB7912
.LLSDACSB7912:
	.uleb128 .LEHB17-.LFB7912
	.uleb128 .LEHE17-.LEHB17
	.uleb128 .L779-.LFB7912
	.uleb128 0x0
	.uleb128 .LEHB18-.LFB7912
	.uleb128 .LEHE18-.LEHB18
	.uleb128 .L780-.LFB7912
	.uleb128 0x0
	.uleb128 .LEHB19-.LFB7912
	.uleb128 .LEHE19-.LEHB19
	.uleb128 0x0
	.uleb128 0x0
.LLSDACSE7912:
	.section	.text._ZN15PackageTemplateD1Ev,"axG",@progbits,_ZN15PackageTemplateD1Ev,comdat
	.section	.text._ZN3Upp5ArrayI15PackageTemplateE4FreeEv,"axG",@progbits,_ZN3Upp5ArrayI15PackageTemplateE4FreeEv,comdat
	.align 2
	.weak	_ZN3Upp5ArrayI15PackageTemplateE4FreeEv
	.type	_ZN3Upp5ArrayI15PackageTemplateE4FreeEv, @function
_ZN3Upp5ArrayI15PackageTemplateE4FreeEv:
.LFB9608:
	pushq	%rbp
.LCFI691:
	movq	%rsp, %rbp
.LCFI692:
	subq	$32, %rsp
.LCFI693:
	movq	%rdi, -24(%rbp)
	movq	-24(%rbp), %rdi
	call	_ZNK3Upp5ArrayI15PackageTemplateE8IsPickedEv
	testb	%al, %al
	jne	.L788
	movl	$0, -4(%rbp)
	jmp	.L784
.L785:
	movq	-24(%rbp), %rdi
	addq	$8, %rdi
	movl	-4(%rbp), %esi
	call	_ZN3Upp6VectorIPvEixEi
	movq	(%rax), %rax
	movq	%rax, -32(%rbp)
	cmpq	$0, -32(%rbp)
	je	.L786
	movq	-32(%rbp), %rdi
	call	_ZN15PackageTemplateD1Ev
	movq	-32(%rbp), %rdi
	call	_ZdlPv
.L786:
	addl	$1, -4(%rbp)
.L784:
	movq	-24(%rbp), %rdi
	addq	$8, %rdi
	call	_ZNK3Upp6VectorIPvE8GetCountEv
	cmpl	-4(%rbp), %eax
	setg	%al
	testb	%al, %al
	jne	.L785
.L788:
	leave
	ret
.LFE9608:
	.size	_ZN3Upp5ArrayI15PackageTemplateE4FreeEv, .-_ZN3Upp5ArrayI15PackageTemplateE4FreeEv
	.section	.text._ZN3Upp5ArrayI15PackageTemplateE5ClearEv,"axG",@progbits,_ZN3Upp5ArrayI15PackageTemplateE5ClearEv,comdat
	.align 2
	.weak	_ZN3Upp5ArrayI15PackageTemplateE5ClearEv
	.type	_ZN3Upp5ArrayI15PackageTemplateE5ClearEv, @function
_ZN3Upp5ArrayI15PackageTemplateE5ClearEv:
.LFB9095:
	pushq	%rbp
.LCFI694:
	movq	%rsp, %rbp
.LCFI695:
	subq	$16, %rsp
.LCFI696:
	movq	%rdi, -8(%rbp)
	movq	-8(%rbp), %rdi
	call	_ZN3Upp5ArrayI15PackageTemplateE4FreeEv
	movq	-8(%rbp), %rdi
	addq	$8, %rdi
	call	_ZN3Upp6VectorIPvE5ClearEv
	leave
	ret
.LFE9095:
	.size	_ZN3Upp5ArrayI15PackageTemplateE5ClearEv, .-_ZN3Upp5ArrayI15PackageTemplateE5ClearEv
	.section	.text._ZN3Upp5ArrayI15PackageTemplateED1Ev,"axG",@progbits,_ZN3Upp5ArrayI15PackageTemplateED1Ev,comdat
	.align 2
	.weak	_ZN3Upp5ArrayI15PackageTemplateED1Ev
	.type	_ZN3Upp5ArrayI15PackageTemplateED1Ev, @function
_ZN3Upp5ArrayI15PackageTemplateED1Ev:
.LFB9047:
	pushq	%rbp
.LCFI697:
	movq	%rsp, %rbp
.LCFI698:
	pushq	%rbx
.LCFI699:
	subq	$24, %rsp
.LCFI700:
	movq	%rdi, -16(%rbp)
	movq	-16(%rbp), %rdi
.LEHB20:
	call	_ZN3Upp5ArrayI15PackageTemplateE4FreeEv
.LEHE20:
	movq	-16(%rbp), %rax
	addq	$8, %rax
	movq	%rax, -24(%rbp)
	movq	-24(%rbp), %rdi
.LEHB21:
	call	_ZN3Upp6VectorIPvED1Ev
.LEHE21:
	jmp	.L794
.L795:
	movq	%rax, -32(%rbp)
.L793:
	movq	-32(%rbp), %rbx
	movq	-16(%rbp), %rax
	addq	$8, %rax
	movq	%rax, -24(%rbp)
	movq	-24(%rbp), %rdi
	call	_ZN3Upp6VectorIPvED1Ev
	movq	%rbx, -32(%rbp)
	movq	-32(%rbp), %rdi
.LEHB22:
	call	_Unwind_Resume
.LEHE22:
.L794:
	addq	$24, %rsp
	popq	%rbx
	leave
	ret
.LFE9047:
	.size	_ZN3Upp5ArrayI15PackageTemplateED1Ev, .-_ZN3Upp5ArrayI15PackageTemplateED1Ev
	.section	.gcc_except_table
.LLSDA9047:
	.byte	0xff
	.byte	0xff
	.byte	0x1
	.uleb128 .LLSDACSE9047-.LLSDACSB9047
.LLSDACSB9047:
	.uleb128 .LEHB20-.LFB9047
	.uleb128 .LEHE20-.LEHB20
	.uleb128 .L795-.LFB9047
	.uleb128 0x0
	.uleb128 .LEHB21-.LFB9047
	.uleb128 .LEHE21-.LEHB21
	.uleb128 0x0
	.uleb128 0x0
	.uleb128 .LEHB22-.LFB9047
	.uleb128 .LEHE22-.LEHB22
	.uleb128 0x0
	.uleb128 0x0
.LLSDACSE9047:
	.section	.text._ZN3Upp5ArrayI15PackageTemplateED1Ev,"axG",@progbits,_ZN3Upp5ArrayI15PackageTemplateED1Ev,comdat
	.text
	.align 2
	.type	__tcf_0, @function
__tcf_0:
.LFB7951:
	pushq	%rbp
.LCFI701:
	movq	%rsp, %rbp
.LCFI702:
	subq	$16, %rsp
.LCFI703:
	movq	%rdi, -8(%rbp)
	movl	$_ZZN11TemplateDlg14ActualTemplateEvE1t, %edi
	call	_ZN15PackageTemplateD1Ev
	leave
	ret
.LFE7951:
	.size	__tcf_0, .-__tcf_0
	.section	.text._ZN3Upp5ArrayI12TemplateItemEaSERKS2_,"axG",@progbits,_ZN3Upp5ArrayI12TemplateItemEaSERKS2_,comdat
	.align 2
	.weak	_ZN3Upp5ArrayI12TemplateItemEaSERKS2_
	.type	_ZN3Upp5ArrayI12TemplateItemEaSERKS2_, @function
_ZN3Upp5ArrayI12TemplateItemEaSERKS2_:
.LFB9092:
	pushq	%rbp
.LCFI704:
	movq	%rsp, %rbp
.LCFI705:
	subq	$16, %rsp
.LCFI706:
	movq	%rdi, -8(%rbp)
	movq	%rsi, -16(%rbp)
	movq	-8(%rbp), %rdi
	call	_ZN3Upp5ArrayI12TemplateItemE4FreeEv
	movq	-16(%rbp), %rsi
	addq	$8, %rsi
	movq	-8(%rbp), %rdi
	addq	$8, %rdi
	call	_ZN3Upp6VectorIPvEaSERKS2_
	leave
	ret
.LFE9092:
	.size	_ZN3Upp5ArrayI12TemplateItemEaSERKS2_, .-_ZN3Upp5ArrayI12TemplateItemEaSERKS2_
	.section	.text._ZN15PackageTemplateC1Ev,"axG",@progbits,_ZN15PackageTemplateC1Ev,comdat
	.align 2
	.weak	_ZN15PackageTemplateC1Ev
	.type	_ZN15PackageTemplateC1Ev, @function
_ZN15PackageTemplateC1Ev:
.LFB7909:
	pushq	%rbp
.LCFI707:
	movq	%rsp, %rbp
.LCFI708:
	subq	$16, %rsp
.LCFI709:
	movq	%rdi, -8(%rbp)
	movq	-8(%rbp), %rdi
	call	_ZN3Upp6StringC1Ev
	movq	-8(%rbp), %rdi
	addq	$24, %rdi
	call	_ZN3Upp5ArrayI12TemplateItemEC1Ev
	movq	-8(%rbp), %rdi
	addq	$48, %rdi
	call	_ZN3Upp5ArrayI12FileTemplateEC1Ev
	leave
	ret
.LFE7909:
	.size	_ZN15PackageTemplateC1Ev, .-_ZN15PackageTemplateC1Ev
	.section	.text._ZN10CustomStepD1Ev,"axG",@progbits,_ZN10CustomStepD1Ev,comdat
	.align 2
	.weak	_ZN10CustomStepD1Ev
	.type	_ZN10CustomStepD1Ev, @function
_ZN10CustomStepD1Ev:
.LFB9575:
	pushq	%rbp
.LCFI710:
	movq	%rsp, %rbp
.LCFI711:
	subq	$16, %rsp
.LCFI712:
	movq	%rdi, -8(%rbp)
	movq	-8(%rbp), %rdi
	addq	$48, %rdi
	call	_ZN3Upp6StringD1Ev
	movq	-8(%rbp), %rdi
	addq	$32, %rdi
	call	_ZN3Upp6StringD1Ev
	movq	-8(%rbp), %rdi
	addq	$16, %rdi
	call	_ZN3Upp6StringD1Ev
	movq	-8(%rbp), %rdi
	call	_ZN3Upp6StringD1Ev
	leave
	ret
.LFE9575:
	.size	_ZN10CustomStepD1Ev, .-_ZN10CustomStepD1Ev
	.section	.text._ZN3Upp5ArrayI10CustomStepE4FreeEv,"axG",@progbits,_ZN3Upp5ArrayI10CustomStepE4FreeEv,comdat
	.align 2
	.weak	_ZN3Upp5ArrayI10CustomStepE4FreeEv
	.type	_ZN3Upp5ArrayI10CustomStepE4FreeEv, @function
_ZN3Upp5ArrayI10CustomStepE4FreeEv:
.LFB9572:
	pushq	%rbp
.LCFI713:
	movq	%rsp, %rbp
.LCFI714:
	subq	$32, %rsp
.LCFI715:
	movq	%rdi, -24(%rbp)
	movq	-24(%rbp), %rdi
	call	_ZNK3Upp5ArrayI10CustomStepE8IsPickedEv
	testb	%al, %al
	jne	.L812
	movl	$0, -4(%rbp)
	jmp	.L808
.L809:
	movq	-24(%rbp), %rdi
	addq	$8, %rdi
	movl	-4(%rbp), %esi
	call	_ZN3Upp6VectorIPvEixEi
	movq	(%rax), %rax
	movq	%rax, -32(%rbp)
	cmpq	$0, -32(%rbp)
	je	.L810
	movq	-32(%rbp), %rdi
	call	_ZN10CustomStepD1Ev
	movq	-32(%rbp), %rdi
	call	_ZdlPv
.L810:
	addl	$1, -4(%rbp)
.L808:
	movq	-24(%rbp), %rdi
	addq	$8, %rdi
	call	_ZNK3Upp6VectorIPvE8GetCountEv
	cmpl	-4(%rbp), %eax
	setg	%al
	testb	%al, %al
	jne	.L809
.L812:
	leave
	ret
.LFE9572:
	.size	_ZN3Upp5ArrayI10CustomStepE4FreeEv, .-_ZN3Upp5ArrayI10CustomStepE4FreeEv
	.section	.text._ZN3Upp5ArrayI10CustomStepED1Ev,"axG",@progbits,_ZN3Upp5ArrayI10CustomStepED1Ev,comdat
	.align 2
	.weak	_ZN3Upp5ArrayI10CustomStepED1Ev
	.type	_ZN3Upp5ArrayI10CustomStepED1Ev, @function
_ZN3Upp5ArrayI10CustomStepED1Ev:
.LFB8942:
	pushq	%rbp
.LCFI716:
	movq	%rsp, %rbp
.LCFI717:
	subq	$16, %rsp
.LCFI718:
	movq	%rdi, -8(%rbp)
	movq	-8(%rbp), %rdi
	call	_ZN3Upp5ArrayI10CustomStepE4FreeEv
	movq	-8(%rbp), %rdi
	addq	$8, %rdi
	call	_ZN3Upp6VectorIPvED1Ev
	leave
	ret
.LFE8942:
	.size	_ZN3Upp5ArrayI10CustomStepED1Ev, .-_ZN3Upp5ArrayI10CustomStepED1Ev
	.section	.text._ZN7Package6ConfigD1Ev,"axG",@progbits,_ZN7Package6ConfigD1Ev,comdat
	.align 2
	.weak	_ZN7Package6ConfigD1Ev
	.type	_ZN7Package6ConfigD1Ev, @function
_ZN7Package6ConfigD1Ev:
.LFB9571:
	pushq	%rbp
.LCFI719:
	movq	%rsp, %rbp
.LCFI720:
	subq	$16, %rsp
.LCFI721:
	movq	%rdi, -8(%rbp)
	movq	-8(%rbp), %rdi
	addq	$16, %rdi
	call	_ZN3Upp6StringD1Ev
	movq	-8(%rbp), %rdi
	call	_ZN3Upp6StringD1Ev
	leave
	ret
.LFE9571:
	.size	_ZN7Package6ConfigD1Ev, .-_ZN7Package6ConfigD1Ev
	.section	.text._ZN3Upp5ArrayIN7Package6ConfigEE4FreeEv,"axG",@progbits,_ZN3Upp5ArrayIN7Package6ConfigEE4FreeEv,comdat
	.align 2
	.weak	_ZN3Upp5ArrayIN7Package6ConfigEE4FreeEv
	.type	_ZN3Upp5ArrayIN7Package6ConfigEE4FreeEv, @function
_ZN3Upp5ArrayIN7Package6ConfigEE4FreeEv:
.LFB9568:
	pushq	%rbp
.LCFI722:
	movq	%rsp, %rbp
.LCFI723:
	subq	$32, %rsp
.LCFI724:
	movq	%rdi, -24(%rbp)
	movq	-24(%rbp), %rdi
	call	_ZNK3Upp5ArrayIN7Package6ConfigEE8IsPickedEv
	testb	%al, %al
	jne	.L826
	movl	$0, -4(%rbp)
	jmp	.L822
.L823:
	movq	-24(%rbp), %rdi
	addq	$8, %rdi
	movl	-4(%rbp), %esi
	call	_ZN3Upp6VectorIPvEixEi
	movq	(%rax), %rax
	movq	%rax, -32(%rbp)
	cmpq	$0, -32(%rbp)
	je	.L824
	movq	-32(%rbp), %rdi
	call	_ZN7Package6ConfigD1Ev
	movq	-32(%rbp), %rdi
	call	_ZdlPv
.L824:
	addl	$1, -4(%rbp)
.L822:
	movq	-24(%rbp), %rdi
	addq	$8, %rdi
	call	_ZNK3Upp6VectorIPvE8GetCountEv
	cmpl	-4(%rbp), %eax
	setg	%al
	testb	%al, %al
	jne	.L823
.L826:
	leave
	ret
.LFE9568:
	.size	_ZN3Upp5ArrayIN7Package6ConfigEE4FreeEv, .-_ZN3Upp5ArrayIN7Package6ConfigEE4FreeEv
	.section	.text._ZN3Upp5ArrayIN7Package6ConfigEED1Ev,"axG",@progbits,_ZN3Upp5ArrayIN7Package6ConfigEED1Ev,comdat
	.align 2
	.weak	_ZN3Upp5ArrayIN7Package6ConfigEED1Ev
	.type	_ZN3Upp5ArrayIN7Package6ConfigEED1Ev, @function
_ZN3Upp5ArrayIN7Package6ConfigEED1Ev:
.LFB8939:
	pushq	%rbp
.LCFI725:
	movq	%rsp, %rbp
.LCFI726:
	subq	$16, %rsp
.LCFI727:
	movq	%rdi, -8(%rbp)
	movq	-8(%rbp), %rdi
	call	_ZN3Upp5ArrayIN7Package6ConfigEE4FreeEv
	movq	-8(%rbp), %rdi
	addq	$8, %rdi
	call	_ZN3Upp6VectorIPvED1Ev
	leave
	ret
.LFE8939:
	.size	_ZN3Upp5ArrayIN7Package6ConfigEED1Ev, .-_ZN3Upp5ArrayIN7Package6ConfigEED1Ev
	.section	.text._ZN7OptItemD1Ev,"axG",@progbits,_ZN7OptItemD1Ev,comdat
	.align 2
	.weak	_ZN7OptItemD1Ev
	.type	_ZN7OptItemD1Ev, @function
_ZN7OptItemD1Ev:
.LFB9432:
	pushq	%rbp
.LCFI728:
	movq	%rsp, %rbp
.LCFI729:
	subq	$16, %rsp
.LCFI730:
	movq	%rdi, -8(%rbp)
	movq	-8(%rbp), %rdi
	addq	$16, %rdi
	call	_ZN3Upp6StringD1Ev
	movq	-8(%rbp), %rdi
	call	_ZN3Upp6StringD1Ev
	leave
	ret
.LFE9432:
	.size	_ZN7OptItemD1Ev, .-_ZN7OptItemD1Ev
	.section	.text._ZN3Upp5ArrayI7OptItemE4FreeEv,"axG",@progbits,_ZN3Upp5ArrayI7OptItemE4FreeEv,comdat
	.align 2
	.weak	_ZN3Upp5ArrayI7OptItemE4FreeEv
	.type	_ZN3Upp5ArrayI7OptItemE4FreeEv, @function
_ZN3Upp5ArrayI7OptItemE4FreeEv:
.LFB9429:
	pushq	%rbp
.LCFI731:
	movq	%rsp, %rbp
.LCFI732:
	subq	$32, %rsp
.LCFI733:
	movq	%rdi, -24(%rbp)
	movq	-24(%rbp), %rdi
	call	_ZNK3Upp5ArrayI7OptItemE8IsPickedEv
	testb	%al, %al
	jne	.L840
	movl	$0, -4(%rbp)
	jmp	.L836
.L837:
	movq	-24(%rbp), %rdi
	addq	$8, %rdi
	movl	-4(%rbp), %esi
	call	_ZN3Upp6VectorIPvEixEi
	movq	(%rax), %rax
	movq	%rax, -32(%rbp)
	cmpq	$0, -32(%rbp)
	je	.L838
	movq	-32(%rbp), %rdi
	call	_ZN7OptItemD1Ev
	movq	-32(%rbp), %rdi
	call	_ZdlPv
.L838:
	addl	$1, -4(%rbp)
.L836:
	movq	-24(%rbp), %rdi
	addq	$8, %rdi
	call	_ZNK3Upp6VectorIPvE8GetCountEv
	cmpl	-4(%rbp), %eax
	setg	%al
	testb	%al, %al
	jne	.L837
.L840:
	leave
	ret
.LFE9429:
	.size	_ZN3Upp5ArrayI7OptItemE4FreeEv, .-_ZN3Upp5ArrayI7OptItemE4FreeEv
	.section	.text._ZN3Upp5ArrayI7OptItemED1Ev,"axG",@progbits,_ZN3Upp5ArrayI7OptItemED1Ev,comdat
	.align 2
	.weak	_ZN3Upp5ArrayI7OptItemED1Ev
	.type	_ZN3Upp5ArrayI7OptItemED1Ev, @function
_ZN3Upp5ArrayI7OptItemED1Ev:
.LFB8668:
	pushq	%rbp
.LCFI734:
	movq	%rsp, %rbp
.LCFI735:
	subq	$16, %rsp
.LCFI736:
	movq	%rdi, -8(%rbp)
	movq	-8(%rbp), %rdi
	call	_ZN3Upp5ArrayI7OptItemE4FreeEv
	movq	-8(%rbp), %rdi
	addq	$8, %rdi
	call	_ZN3Upp6VectorIPvED1Ev
	leave
	ret
.LFE8668:
	.size	_ZN3Upp5ArrayI7OptItemED1Ev, .-_ZN3Upp5ArrayI7OptItemED1Ev
	.section	.text._ZN10AppPreview4LineD1Ev,"axG",@progbits,_ZN10AppPreview4LineD1Ev,comdat
	.align 2
	.weak	_ZN10AppPreview4LineD1Ev
	.type	_ZN10AppPreview4LineD1Ev, @function
_ZN10AppPreview4LineD1Ev:
.LFB9025:
	pushq	%rbp
.LCFI737:
	movq	%rsp, %rbp
.LCFI738:
	subq	$16, %rsp
.LCFI739:
	movq	%rdi, -8(%rbp)
	movq	-8(%rbp), %rdi
	addq	$8, %rdi
	call	_ZN3Upp6StringD1Ev
	leave
	ret
.LFE9025:
	.size	_ZN10AppPreview4LineD1Ev, .-_ZN10AppPreview4LineD1Ev
	.section	.text._ZN3Upp12DestroyArrayIN10AppPreview4LineEEEvPT_PKS3_,"axG",@progbits,_ZN3Upp12DestroyArrayIN10AppPreview4LineEEEvPT_PKS3_,comdat
	.align 2
	.weak	_ZN3Upp12DestroyArrayIN10AppPreview4LineEEEvPT_PKS3_
	.type	_ZN3Upp12DestroyArrayIN10AppPreview4LineEEEvPT_PKS3_, @function
_ZN3Upp12DestroyArrayIN10AppPreview4LineEEEvPT_PKS3_:
.LFB9981:
	pushq	%rbp
.LCFI740:
	movq	%rsp, %rbp
.LCFI741:
	subq	$16, %rsp
.LCFI742:
	movq	%rdi, -8(%rbp)
	movq	%rsi, -16(%rbp)
	jmp	.L848
.L849:
	movq	-8(%rbp), %rdi
	call	_ZN10AppPreview4LineD1Ev
	addq	$32, -8(%rbp)
.L848:
	movq	-8(%rbp), %rax
	cmpq	-16(%rbp), %rax
	jb	.L849
	leave
	ret
.LFE9981:
	.size	_ZN3Upp12DestroyArrayIN10AppPreview4LineEEEvPT_PKS3_, .-_ZN3Upp12DestroyArrayIN10AppPreview4LineEEEvPT_PKS3_
	.section	.text._ZN3Upp6VectorIN10AppPreview4LineEE4TrimEi,"axG",@progbits,_ZN3Upp6VectorIN10AppPreview4LineEE4TrimEi,comdat
	.align 2
	.weak	_ZN3Upp6VectorIN10AppPreview4LineEE4TrimEi
	.type	_ZN3Upp6VectorIN10AppPreview4LineEE4TrimEi, @function
_ZN3Upp6VectorIN10AppPreview4LineEE4TrimEi:
.LFB9954:
	pushq	%rbp
.LCFI743:
	movq	%rsp, %rbp
.LCFI744:
	subq	$16, %rsp
.LCFI745:
	movq	%rdi, -8(%rbp)
	movl	%esi, -12(%rbp)
	movq	-8(%rbp), %rax
	movq	(%rax), %rdx
	movq	-8(%rbp), %rax
	movl	8(%rax), %eax
	cltq
	salq	$5, %rax
	leaq	(%rdx,%rax), %rsi
	movq	-8(%rbp), %rax
	movq	(%rax), %rdx
	movl	-12(%rbp), %eax
	cltq
	salq	$5, %rax
	leaq	(%rdx,%rax), %rdi
	call	_ZN3Upp12DestroyArrayIN10AppPreview4LineEEEvPT_PKS3_
	movq	-8(%rbp), %rdx
	movl	-12(%rbp), %eax
	movl	%eax, 8(%rdx)
	leave
	ret
.LFE9954:
	.size	_ZN3Upp6VectorIN10AppPreview4LineEE4TrimEi, .-_ZN3Upp6VectorIN10AppPreview4LineEE4TrimEi
	.section	.text._ZN3Upp6VectorIN10AppPreview4LineEE8SetCountEi,"axG",@progbits,_ZN3Upp6VectorIN10AppPreview4LineEE8SetCountEi,comdat
	.align 2
	.weak	_ZN3Upp6VectorIN10AppPreview4LineEE8SetCountEi
	.type	_ZN3Upp6VectorIN10AppPreview4LineEE8SetCountEi, @function
_ZN3Upp6VectorIN10AppPreview4LineEE8SetCountEi:
.LFB9563:
	pushq	%rbp
.LCFI746:
	movq	%rsp, %rbp
.LCFI747:
	subq	$16, %rsp
.LCFI748:
	movq	%rdi, -8(%rbp)
	movl	%esi, -12(%rbp)
	movq	-8(%rbp), %rdi
	call	_ZNK3Upp6VectorIN10AppPreview4LineEE3ChkEv
	movq	-8(%rbp), %rax
	movl	8(%rax), %eax
	cmpl	-12(%rbp), %eax
	je	.L861
	movq	-8(%rbp), %rax
	movl	8(%rax), %eax
	cmpl	-12(%rbp), %eax
	jle	.L857
	movl	-12(%rbp), %esi
	movq	-8(%rbp), %rdi
	call	_ZN3Upp6VectorIN10AppPreview4LineEE4TrimEi
	jmp	.L861
.L857:
	movq	-8(%rbp), %rax
	movl	12(%rax), %eax
	cmpl	-12(%rbp), %eax
	jge	.L859
	movl	-12(%rbp), %esi
	movq	-8(%rbp), %rdi
	call	_ZN3Upp6VectorIN10AppPreview4LineEE8ReAllocFEi
.L859:
	movq	-8(%rbp), %rax
	movq	(%rax), %rdx
	movl	-12(%rbp), %eax
	cltq
	salq	$5, %rax
	leaq	(%rdx,%rax), %rsi
	movq	-8(%rbp), %rax
	movq	(%rax), %rdx
	movq	-8(%rbp), %rax
	movl	8(%rax), %eax
	cltq
	salq	$5, %rax
	leaq	(%rdx,%rax), %rdi
	call	_ZN3Upp14ConstructArrayIN10AppPreview4LineEEEvPT_PKS3_
	movq	-8(%rbp), %rdx
	movl	-12(%rbp), %eax
	movl	%eax, 8(%rdx)
.L861:
	leave
	ret
.LFE9563:
	.size	_ZN3Upp6VectorIN10AppPreview4LineEE8SetCountEi, .-_ZN3Upp6VectorIN10AppPreview4LineEE8SetCountEi
	.section	.text._ZN3Upp6VectorIN10AppPreview4LineEE5ClearEv,"axG",@progbits,_ZN3Upp6VectorIN10AppPreview4LineEE5ClearEv,comdat
	.align 2
	.weak	_ZN3Upp6VectorIN10AppPreview4LineEE5ClearEv
	.type	_ZN3Upp6VectorIN10AppPreview4LineEE5ClearEv, @function
_ZN3Upp6VectorIN10AppPreview4LineEE5ClearEv:
.LFB8931:
	pushq	%rbp
.LCFI749:
	movq	%rsp, %rbp
.LCFI750:
	subq	$16, %rsp
.LCFI751:
	movq	%rdi, -8(%rbp)
	movq	-8(%rbp), %rax
	movq	(%rax), %rax
	testq	%rax, %rax
	je	.L863
	movq	-8(%rbp), %rax
	movl	8(%rax), %eax
	testl	%eax, %eax
	js	.L863
	movq	-8(%rbp), %rdi
	movl	$0, %esi
	call	_ZN3Upp6VectorIN10AppPreview4LineEE8SetCountEi
	jmp	.L867
.L863:
	movq	-8(%rbp), %rax
	movl	$0, 8(%rax)
	movq	-8(%rbp), %rax
	movl	8(%rax), %edx
	movq	-8(%rbp), %rax
	movl	%edx, 12(%rax)
	movq	-8(%rbp), %rax
	movq	$0, (%rax)
.L867:
	leave
	ret
.LFE8931:
	.size	_ZN3Upp6VectorIN10AppPreview4LineEE5ClearEv, .-_ZN3Upp6VectorIN10AppPreview4LineEE5ClearEv
	.section	.text._ZN3Upp6VectorIN10AppPreview4LineEE4FreeEv,"axG",@progbits,_ZN3Upp6VectorIN10AppPreview4LineEE4FreeEv,comdat
	.align 2
	.weak	_ZN3Upp6VectorIN10AppPreview4LineEE4FreeEv
	.type	_ZN3Upp6VectorIN10AppPreview4LineEE4FreeEv, @function
_ZN3Upp6VectorIN10AppPreview4LineEE4FreeEv:
.LFB9599:
	pushq	%rbp
.LCFI752:
	movq	%rsp, %rbp
.LCFI753:
	subq	$16, %rsp
.LCFI754:
	movq	%rdi, -8(%rbp)
	movq	-8(%rbp), %rax
	movq	(%rax), %rax
	testq	%rax, %rax
	je	.L869
	movq	-8(%rbp), %rax
	movl	8(%rax), %eax
	testl	%eax, %eax
	js	.L869
	movq	-8(%rbp), %rax
	movq	(%rax), %rdx
	movq	-8(%rbp), %rax
	movl	8(%rax), %eax
	cltq
	salq	$5, %rax
	leaq	(%rdx,%rax), %rsi
	movq	-8(%rbp), %rax
	movq	(%rax), %rdi
	call	_ZN3Upp12DestroyArrayIN10AppPreview4LineEEEvPT_PKS3_
.L869:
	movq	-8(%rbp), %rax
	movq	(%rax), %rdi
	call	_ZN3Upp6VectorIN10AppPreview4LineEE7RawFreeEPS2_
	leave
	ret
.LFE9599:
	.size	_ZN3Upp6VectorIN10AppPreview4LineEE4FreeEv, .-_ZN3Upp6VectorIN10AppPreview4LineEE4FreeEv
	.section	.text._ZN3Upp6VectorIN10AppPreview4LineEED1Ev,"axG",@progbits,_ZN3Upp6VectorIN10AppPreview4LineEED1Ev,comdat
	.align 2
	.weak	_ZN3Upp6VectorIN10AppPreview4LineEED1Ev
	.type	_ZN3Upp6VectorIN10AppPreview4LineEED1Ev, @function
_ZN3Upp6VectorIN10AppPreview4LineEED1Ev:
.LFB9027:
	pushq	%rbp
.LCFI755:
	movq	%rsp, %rbp
.LCFI756:
	subq	$64, %rsp
.LCFI757:
	movq	%rdi, -56(%rbp)
	movq	%fs:40, %rax
	movq	%rax, -8(%rbp)
	xorl	%eax, %eax
	movq	-56(%rbp), %rdi
	call	_ZN3Upp6VectorIN10AppPreview4LineEE4FreeEv
	movq	-8(%rbp), %rax
	xorq	%fs:40, %rax
	je	.L876
	call	__stack_chk_fail
.L876:
	leave
	ret
.LFE9027:
	.size	_ZN3Upp6VectorIN10AppPreview4LineEED1Ev, .-_ZN3Upp6VectorIN10AppPreview4LineEED1Ev
	.section	.text._ZN12TemplateItemC1Ev,"axG",@progbits,_ZN12TemplateItemC1Ev,comdat
	.align 2
	.weak	_ZN12TemplateItemC1Ev
	.type	_ZN12TemplateItemC1Ev, @function
_ZN12TemplateItemC1Ev:
.LFB9000:
	pushq	%rbp
.LCFI758:
	movq	%rsp, %rbp
.LCFI759:
	subq	$16, %rsp
.LCFI760:
	movq	%rdi, -8(%rbp)
	movq	-8(%rbp), %rdi
	call	_ZN3Upp6StringC1Ev
	movq	-8(%rbp), %rdi
	addq	$24, %rdi
	call	_ZN3Upp6StringC1Ev
	movq	-8(%rbp), %rdi
	addq	$40, %rdi
	call	_ZN3Upp6VectorINS_6StringEEC1Ev
	movq	-8(%rbp), %rdi
	addq	$56, %rdi
	call	_ZN3Upp6StringC1Ev
	leave
	ret
.LFE9000:
	.size	_ZN12TemplateItemC1Ev, .-_ZN12TemplateItemC1Ev
	.section	.text._ZN12FileTemplateC1Ev,"axG",@progbits,_ZN12FileTemplateC1Ev,comdat
	.align 2
	.weak	_ZN12FileTemplateC1Ev
	.type	_ZN12FileTemplateC1Ev, @function
_ZN12FileTemplateC1Ev:
.LFB9004:
	pushq	%rbp
.LCFI761:
	movq	%rsp, %rbp
.LCFI762:
	subq	$16, %rsp
.LCFI763:
	movq	%rdi, -8(%rbp)
	movq	-8(%rbp), %rdi
	call	_ZN3Upp6StringC1Ev
	movq	-8(%rbp), %rdi
	addq	$16, %rdi
	call	_ZN3Upp6StringC1Ev
	movq	-8(%rbp), %rdi
	addq	$32, %rdi
	call	_ZN3Upp6StringC1Ev
	leave
	ret
.LFE9004:
	.size	_ZN12FileTemplateC1Ev, .-_ZN12FileTemplateC1Ev
	.section	.text._ZN3Upp7CParserD1Ev,"axG",@progbits,_ZN3Upp7CParserD1Ev,comdat
	.align 2
	.weak	_ZN3Upp7CParserD1Ev
	.type	_ZN3Upp7CParserD1Ev, @function
_ZN3Upp7CParserD1Ev:
.LFB6603:
	pushq	%rbp
.LCFI764:
	movq	%rsp, %rbp
.LCFI765:
	subq	$16, %rsp
.LCFI766:
	movq	%rdi, -8(%rbp)
	movq	-8(%rbp), %rdi
	addq	$16, %rdi
	call	_ZN3Upp6StringD1Ev
	leave
	ret
.LFE6603:
	.size	_ZN3Upp7CParserD1Ev, .-_ZN3Upp7CParserD1Ev
	.section	.text._ZN3Upp6StringD2Ev,"axG",@progbits,_ZN3Upp6StringD2Ev,comdat
	.align 2
	.weak	_ZN3Upp6StringD2Ev
	.type	_ZN3Upp6StringD2Ev, @function
_ZN3Upp6StringD2Ev:
.LFB1279:
	pushq	%rbp
.LCFI767:
	movq	%rsp, %rbp
.LCFI768:
	subq	$16, %rsp
.LCFI769:
	movq	%rdi, -8(%rbp)
	movq	-8(%rbp), %rdi
	call	_ZN3Upp8MoveableINS_6StringENS_7AStringINS_7String0EEEED2Ev
	leave
	ret
.LFE1279:
	.size	_ZN3Upp6StringD2Ev, .-_ZN3Upp6StringD2Ev
	.section	.text._ZN3Upp3ExcD2Ev,"axG",@progbits,_ZN3Upp3ExcD2Ev,comdat
	.align 2
	.weak	_ZN3Upp3ExcD2Ev
	.type	_ZN3Upp3ExcD2Ev, @function
_ZN3Upp3ExcD2Ev:
.LFB3969:
	pushq	%rbp
.LCFI770:
	movq	%rsp, %rbp
.LCFI771:
	subq	$16, %rsp
.LCFI772:
	movq	%rdi, -8(%rbp)
	movq	-8(%rbp), %rdi
	call	_ZN3Upp6StringD2Ev
	leave
	ret
.LFE3969:
	.size	_ZN3Upp3ExcD2Ev, .-_ZN3Upp3ExcD2Ev
	.section	.text._ZN3Upp7CParser5ErrorD1Ev,"axG",@progbits,_ZN3Upp7CParser5ErrorD1Ev,comdat
	.align 2
	.weak	_ZN3Upp7CParser5ErrorD1Ev
	.type	_ZN3Upp7CParser5ErrorD1Ev, @function
_ZN3Upp7CParser5ErrorD1Ev:
.LFB7977:
	pushq	%rbp
.LCFI773:
	movq	%rsp, %rbp
.LCFI774:
	subq	$16, %rsp
.LCFI775:
	movq	%rdi, -8(%rbp)
	movq	-8(%rbp), %rdi
	call	_ZN3Upp3ExcD2Ev
	leave
	ret
.LFE7977:
	.size	_ZN3Upp7CParser5ErrorD1Ev, .-_ZN3Upp7CParser5ErrorD1Ev
	.section	.text._ZN7Package4FileD1Ev,"axG",@progbits,_ZN7Package4FileD1Ev,comdat
	.align 2
	.weak	_ZN7Package4FileD1Ev
	.type	_ZN7Package4FileD1Ev, @function
_ZN7Package4FileD1Ev:
.LFB9567:
	pushq	%rbp
.LCFI776:
	movq	%rsp, %rbp
.LCFI777:
	pushq	%rbx
.LCFI778:
	subq	$40, %rsp
.LCFI779:
	movq	%rdi, -16(%rbp)
	movq	-16(%rbp), %rdi
	addq	$80, %rdi
	call	_ZN3Upp6StringD1Ev
	movq	-16(%rbp), %rdi
	addq	$40, %rdi
.LEHB23:
	call	_ZN3Upp5ArrayI7OptItemED1Ev
.LEHE23:
	movq	-16(%rbp), %rax
	addq	$16, %rax
	movq	%rax, -32(%rbp)
	movq	-32(%rbp), %rdi
.LEHB24:
	call	_ZN3Upp5ArrayI7OptItemED1Ev
.LEHE24:
	jmp	.L894
.L899:
	movq	%rax, -40(%rbp)
.L895:
	movq	-40(%rbp), %rbx
	movq	-16(%rbp), %rax
	addq	$16, %rax
	movq	%rax, -32(%rbp)
	movq	-32(%rbp), %rdi
	call	_ZN3Upp5ArrayI7OptItemED1Ev
	movq	%rbx, -40(%rbp)
	jmp	.L897
.L894:
	movq	-16(%rbp), %rax
	movq	%rax, -24(%rbp)
	movq	-24(%rbp), %rdi
	call	_ZN3Upp6StringD2Ev
	jmp	.L898
.L900:
	movq	%rax, -40(%rbp)
.L897:
	movq	-40(%rbp), %rbx
	movq	-16(%rbp), %rax
	movq	%rax, -24(%rbp)
	movq	-24(%rbp), %rdi
	call	_ZN3Upp6StringD2Ev
	movq	%rbx, -40(%rbp)
	movq	-40(%rbp), %rdi
.LEHB25:
	call	_Unwind_Resume
.LEHE25:
.L898:
	addq	$40, %rsp
	popq	%rbx
	leave
	ret
.LFE9567:
	.size	_ZN7Package4FileD1Ev, .-_ZN7Package4FileD1Ev
	.section	.gcc_except_table
.LLSDA9567:
	.byte	0xff
	.byte	0xff
	.byte	0x1
	.uleb128 .LLSDACSE9567-.LLSDACSB9567
.LLSDACSB9567:
	.uleb128 .LEHB23-.LFB9567
	.uleb128 .LEHE23-.LEHB23
	.uleb128 .L899-.LFB9567
	.uleb128 0x0
	.uleb128 .LEHB24-.LFB9567
	.uleb128 .LEHE24-.LEHB24
	.uleb128 .L900-.LFB9567
	.uleb128 0x0
	.uleb128 .LEHB25-.LFB9567
	.uleb128 .LEHE25-.LEHB25
	.uleb128 0x0
	.uleb128 0x0
.LLSDACSE9567:
	.section	.text._ZN7Package4FileD1Ev,"axG",@progbits,_ZN7Package4FileD1Ev,comdat
	.section	.text._ZN3Upp5ArrayIN7Package4FileEE4FreeEv,"axG",@progbits,_ZN3Upp5ArrayIN7Package4FileEE4FreeEv,comdat
	.align 2
	.weak	_ZN3Upp5ArrayIN7Package4FileEE4FreeEv
	.type	_ZN3Upp5ArrayIN7Package4FileEE4FreeEv, @function
_ZN3Upp5ArrayIN7Package4FileEE4FreeEv:
.LFB9564:
	pushq	%rbp
.LCFI780:
	movq	%rsp, %rbp
.LCFI781:
	subq	$32, %rsp
.LCFI782:
	movq	%rdi, -24(%rbp)
	movq	-24(%rbp), %rdi
	call	_ZNK3Upp5ArrayIN7Package4FileEE8IsPickedEv
	testb	%al, %al
	jne	.L908
	movl	$0, -4(%rbp)
	jmp	.L904
.L905:
	movq	-24(%rbp), %rdi
	addq	$8, %rdi
	movl	-4(%rbp), %esi
	call	_ZN3Upp6VectorIPvEixEi
	movq	(%rax), %rax
	movq	%rax, -32(%rbp)
	cmpq	$0, -32(%rbp)
	je	.L906
	movq	-32(%rbp), %rdi
	call	_ZN7Package4FileD1Ev
	movq	-32(%rbp), %rdi
	call	_ZdlPv
.L906:
	addl	$1, -4(%rbp)
.L904:
	movq	-24(%rbp), %rdi
	addq	$8, %rdi
	call	_ZNK3Upp6VectorIPvE8GetCountEv
	cmpl	-4(%rbp), %eax
	setg	%al
	testb	%al, %al
	jne	.L905
.L908:
	leave
	ret
.LFE9564:
	.size	_ZN3Upp5ArrayIN7Package4FileEE4FreeEv, .-_ZN3Upp5ArrayIN7Package4FileEE4FreeEv
	.section	.text._ZN3Upp5ArrayIN7Package4FileEED1Ev,"axG",@progbits,_ZN3Upp5ArrayIN7Package4FileEED1Ev,comdat
	.align 2
	.weak	_ZN3Upp5ArrayIN7Package4FileEED1Ev
	.type	_ZN3Upp5ArrayIN7Package4FileEED1Ev, @function
_ZN3Upp5ArrayIN7Package4FileEED1Ev:
.LFB8936:
	pushq	%rbp
.LCFI783:
	movq	%rsp, %rbp
.LCFI784:
	pushq	%rbx
.LCFI785:
	subq	$24, %rsp
.LCFI786:
	movq	%rdi, -16(%rbp)
	movq	-16(%rbp), %rdi
.LEHB26:
	call	_ZN3Upp5ArrayIN7Package4FileEE4FreeEv
.LEHE26:
	movq	-16(%rbp), %rax
	addq	$8, %rax
	movq	%rax, -24(%rbp)
	movq	-24(%rbp), %rdi
.LEHB27:
	call	_ZN3Upp6VectorIPvED1Ev
.LEHE27:
	jmp	.L912
.L913:
	movq	%rax, -32(%rbp)
.L911:
	movq	-32(%rbp), %rbx
	movq	-16(%rbp), %rax
	addq	$8, %rax
	movq	%rax, -24(%rbp)
	movq	-24(%rbp), %rdi
	call	_ZN3Upp6VectorIPvED1Ev
	movq	%rbx, -32(%rbp)
	movq	-32(%rbp), %rdi
.LEHB28:
	call	_Unwind_Resume
.LEHE28:
.L912:
	addq	$24, %rsp
	popq	%rbx
	leave
	ret
.LFE8936:
	.size	_ZN3Upp5ArrayIN7Package4FileEED1Ev, .-_ZN3Upp5ArrayIN7Package4FileEED1Ev
	.section	.gcc_except_table
.LLSDA8936:
	.byte	0xff
	.byte	0xff
	.byte	0x1
	.uleb128 .LLSDACSE8936-.LLSDACSB8936
.LLSDACSB8936:
	.uleb128 .LEHB26-.LFB8936
	.uleb128 .LEHE26-.LEHB26
	.uleb128 .L913-.LFB8936
	.uleb128 0x0
	.uleb128 .LEHB27-.LFB8936
	.uleb128 .LEHE27-.LEHB27
	.uleb128 0x0
	.uleb128 0x0
	.uleb128 .LEHB28-.LFB8936
	.uleb128 .LEHE28-.LEHB28
	.uleb128 0x0
	.uleb128 0x0
.LLSDACSE8936:
	.section	.text._ZN3Upp5ArrayIN7Package4FileEED1Ev,"axG",@progbits,_ZN3Upp5ArrayIN7Package4FileEED1Ev,comdat
	.section	.text._ZN7PackageD1Ev,"axG",@progbits,_ZN7PackageD1Ev,comdat
	.align 2
	.weak	_ZN7PackageD1Ev
	.type	_ZN7PackageD1Ev, @function
_ZN7PackageD1Ev:
.LFB7797:
	pushq	%rbp
.LCFI787:
	movq	%rsp, %rbp
.LCFI788:
	pushq	%rbx
.LCFI789:
	subq	$104, %rsp
.LCFI790:
	movq	%rdi, -16(%rbp)
	movq	-16(%rbp), %rdi
	addq	$232, %rdi
.LEHB29:
	call	_ZN3Upp5ArrayI10CustomStepED1Ev
.LEHE29:
	movq	-16(%rbp), %rax
	addq	$208, %rax
	movq	%rax, -96(%rbp)
	movq	-96(%rbp), %rdi
.LEHB30:
	call	_ZN3Upp5ArrayIN7Package6ConfigEED1Ev
.LEHE30:
	jmp	.L915
.L936:
	movq	%rax, -104(%rbp)
.L916:
	movq	-104(%rbp), %rbx
	movq	-16(%rbp), %rax
	addq	$208, %rax
	movq	%rax, -96(%rbp)
	movq	-96(%rbp), %rdi
	call	_ZN3Upp5ArrayIN7Package6ConfigEED1Ev
	movq	%rbx, -104(%rbp)
	jmp	.L918
.L915:
	movq	-16(%rbp), %rax
	addq	$184, %rax
	movq	%rax, -88(%rbp)
	movq	-88(%rbp), %rdi
.LEHB31:
	call	_ZN3Upp5ArrayIN7Package4FileEED1Ev
.LEHE31:
	jmp	.L917
.L937:
	movq	%rax, -104(%rbp)
.L918:
	movq	-104(%rbp), %rbx
	movq	-16(%rbp), %rax
	addq	$184, %rax
	movq	%rax, -88(%rbp)
	movq	-88(%rbp), %rdi
	call	_ZN3Upp5ArrayIN7Package4FileEED1Ev
	movq	%rbx, -104(%rbp)
	jmp	.L920
.L917:
	movq	-16(%rbp), %rax
	addq	$160, %rax
	movq	%rax, -80(%rbp)
	movq	-80(%rbp), %rdi
.LEHB32:
	call	_ZN3Upp5ArrayI7OptItemED1Ev
.LEHE32:
	jmp	.L919
.L938:
	movq	%rax, -104(%rbp)
.L920:
	movq	-104(%rbp), %rbx
	movq	-16(%rbp), %rax
	addq	$160, %rax
	movq	%rax, -80(%rbp)
	movq	-80(%rbp), %rdi
	call	_ZN3Upp5ArrayI7OptItemED1Ev
	movq	%rbx, -104(%rbp)
	jmp	.L922
.L919:
	movq	-16(%rbp), %rax
	addq	$136, %rax
	movq	%rax, -72(%rbp)
	movq	-72(%rbp), %rdi
.LEHB33:
	call	_ZN3Upp5ArrayI7OptItemED1Ev
.LEHE33:
	jmp	.L921
.L939:
	movq	%rax, -104(%rbp)
.L922:
	movq	-104(%rbp), %rbx
	movq	-16(%rbp), %rax
	addq	$136, %rax
	movq	%rax, -72(%rbp)
	movq	-72(%rbp), %rdi
	call	_ZN3Upp5ArrayI7OptItemED1Ev
	movq	%rbx, -104(%rbp)
	jmp	.L924
.L921:
	movq	-16(%rbp), %rax
	addq	$112, %rax
	movq	%rax, -64(%rbp)
	movq	-64(%rbp), %rdi
.LEHB34:
	call	_ZN3Upp5ArrayI7OptItemED1Ev
.LEHE34:
	jmp	.L923
.L940:
	movq	%rax, -104(%rbp)
.L924:
	movq	-104(%rbp), %rbx
	movq	-16(%rbp), %rax
	addq	$112, %rax
	movq	%rax, -64(%rbp)
	movq	-64(%rbp), %rdi
	call	_ZN3Upp5ArrayI7OptItemED1Ev
	movq	%rbx, -104(%rbp)
	jmp	.L926
.L923:
	movq	-16(%rbp), %rax
	addq	$88, %rax
	movq	%rax, -56(%rbp)
	movq	-56(%rbp), %rdi
.LEHB35:
	call	_ZN3Upp5ArrayI7OptItemED1Ev
.LEHE35:
	jmp	.L925
.L941:
	movq	%rax, -104(%rbp)
.L926:
	movq	-104(%rbp), %rbx
	movq	-16(%rbp), %rax
	addq	$88, %rax
	movq	%rax, -56(%rbp)
	movq	-56(%rbp), %rdi
	call	_ZN3Upp5ArrayI7OptItemED1Ev
	movq	%rbx, -104(%rbp)
	jmp	.L928
.L925:
	movq	-16(%rbp), %rax
	addq	$64, %rax
	movq	%rax, -48(%rbp)
	movq	-48(%rbp), %rdi
.LEHB36:
	call	_ZN3Upp5ArrayI7OptItemED1Ev
.LEHE36:
	jmp	.L927
.L942:
	movq	%rax, -104(%rbp)
.L928:
	movq	-104(%rbp), %rbx
	movq	-16(%rbp), %rax
	addq	$64, %rax
	movq	%rax, -48(%rbp)
	movq	-48(%rbp), %rdi
	call	_ZN3Upp5ArrayI7OptItemED1Ev
	movq	%rbx, -104(%rbp)
	jmp	.L930
.L927:
	movq	-16(%rbp), %rax
	addq	$40, %rax
	movq	%rax, -40(%rbp)
	movq	-40(%rbp), %rdi
.LEHB37:
	call	_ZN3Upp5ArrayI7OptItemED1Ev
.LEHE37:
	jmp	.L929
.L943:
	movq	%rax, -104(%rbp)
.L930:
	movq	-104(%rbp), %rbx
	movq	-16(%rbp), %rax
	addq	$40, %rax
	movq	%rax, -40(%rbp)
	movq	-40(%rbp), %rdi
	call	_ZN3Upp5ArrayI7OptItemED1Ev
	movq	%rbx, -104(%rbp)
	jmp	.L932
.L929:
	movq	-16(%rbp), %rax
	addq	$24, %rax
	movq	%rax, -32(%rbp)
	movq	-32(%rbp), %rdi
.LEHB38:
	call	_ZN3Upp6VectorINS_6StringEED1Ev
.LEHE38:
	jmp	.L931
.L944:
	movq	%rax, -104(%rbp)
.L932:
	movq	-104(%rbp), %rbx
	movq	-16(%rbp), %rax
	addq	$24, %rax
	movq	%rax, -32(%rbp)
	movq	-32(%rbp), %rdi
	call	_ZN3Upp6VectorINS_6StringEED1Ev
	movq	%rbx, -104(%rbp)
	jmp	.L934
.L931:
	movq	-16(%rbp), %rax
	addq	$8, %rax
	movq	%rax, -24(%rbp)
	movq	-24(%rbp), %rdi
	call	_ZN3Upp6StringD1Ev
	jmp	.L935
.L945:
	movq	%rax, -104(%rbp)
.L934:
	movq	-104(%rbp), %rbx
	movq	-16(%rbp), %rax
	addq	$8, %rax
	movq	%rax, -24(%rbp)
	movq	-24(%rbp), %rdi
	call	_ZN3Upp6StringD1Ev
	movq	%rbx, -104(%rbp)
	movq	-104(%rbp), %rdi
.LEHB39:
	call	_Unwind_Resume
.LEHE39:
.L935:
	addq	$104, %rsp
	popq	%rbx
	leave
	ret
.LFE7797:
	.size	_ZN7PackageD1Ev, .-_ZN7PackageD1Ev
	.section	.gcc_except_table
.LLSDA7797:
	.byte	0xff
	.byte	0xff
	.byte	0x1
	.uleb128 .LLSDACSE7797-.LLSDACSB7797
.LLSDACSB7797:
	.uleb128 .LEHB29-.LFB7797
	.uleb128 .LEHE29-.LEHB29
	.uleb128 .L936-.LFB7797
	.uleb128 0x0
	.uleb128 .LEHB30-.LFB7797
	.uleb128 .LEHE30-.LEHB30
	.uleb128 .L937-.LFB7797
	.uleb128 0x0
	.uleb128 .LEHB31-.LFB7797
	.uleb128 .LEHE31-.LEHB31
	.uleb128 .L938-.LFB7797
	.uleb128 0x0
	.uleb128 .LEHB32-.LFB7797
	.uleb128 .LEHE32-.LEHB32
	.uleb128 .L939-.LFB7797
	.uleb128 0x0
	.uleb128 .LEHB33-.LFB7797
	.uleb128 .LEHE33-.LEHB33
	.uleb128 .L940-.LFB7797
	.uleb128 0x0
	.uleb128 .LEHB34-.LFB7797
	.uleb128 .LEHE34-.LEHB34
	.uleb128 .L941-.LFB7797
	.uleb128 0x0
	.uleb128 .LEHB35-.LFB7797
	.uleb128 .LEHE35-.LEHB35
	.uleb128 .L942-.LFB7797
	.uleb128 0x0
	.uleb128 .LEHB36-.LFB7797
	.uleb128 .LEHE36-.LEHB36
	.uleb128 .L943-.LFB7797
	.uleb128 0x0
	.uleb128 .LEHB37-.LFB7797
	.uleb128 .LEHE37-.LEHB37
	.uleb128 .L944-.LFB7797
	.uleb128 0x0
	.uleb128 .LEHB38-.LFB7797
	.uleb128 .LEHE38-.LEHB38
	.uleb128 .L945-.LFB7797
	.uleb128 0x0
	.uleb128 .LEHB39-.LFB7797
	.uleb128 .LEHE39-.LEHB39
	.uleb128 0x0
	.uleb128 0x0
.LLSDACSE7797:
	.section	.text._ZN7PackageD1Ev,"axG",@progbits,_ZN7PackageD1Ev,comdat
	.section	.text._ZN3Upp9TopWindow11ActiveFocusERNS_4CtrlE,"axG",@progbits,_ZN3Upp9TopWindow11ActiveFocusERNS_4CtrlE,comdat
	.align 2
	.weak	_ZN3Upp9TopWindow11ActiveFocusERNS_4CtrlE
	.type	_ZN3Upp9TopWindow11ActiveFocusERNS_4CtrlE, @function
_ZN3Upp9TopWindow11ActiveFocusERNS_4CtrlE:
.LFB4786:
	pushq	%rbp
.LCFI791:
	movq	%rsp, %rbp
.LCFI792:
	subq	$16, %rsp
.LCFI793:
	movq	%rdi, -8(%rbp)
	movq	%rsi, -16(%rbp)
	movq	-16(%rbp), %rsi
	movq	-8(%rbp), %rdi
	call	_ZN3Upp9TopWindow12ActiveFocus0ERNS_4CtrlE
	movq	-8(%rbp), %rax
	leave
	ret
.LFE4786:
	.size	_ZN3Upp9TopWindow11ActiveFocusERNS_4CtrlE, .-_ZN3Upp9TopWindow11ActiveFocusERNS_4CtrlE
	.section	.text._ZN3Upp6StringC1EPKci,"axG",@progbits,_ZN3Upp6StringC1EPKci,comdat
	.align 2
	.weak	_ZN3Upp6StringC1EPKci
	.type	_ZN3Upp6StringC1EPKci, @function
_ZN3Upp6StringC1EPKci:
.LFB1306:
	pushq	%rbp
.LCFI794:
	movq	%rsp, %rbp
.LCFI795:
	pushq	%rbx
.LCFI796:
	subq	$40, %rsp
.LCFI797:
	movq	%rdi, -16(%rbp)
	movq	%rsi, -24(%rbp)
	movl	%edx, -28(%rbp)
	movq	-16(%rbp), %rdi
	call	_ZN3Upp8MoveableINS_6StringENS_7AStringINS_7String0EEEEC2Ev
	movq	-16(%rbp), %rdi
	movl	-28(%rbp), %edx
	movq	-24(%rbp), %rsi
.LEHB40:
	call	_ZN3Upp7String03SetEPKci
.LEHE40:
	jmp	.L950
.L951:
	movq	%rax, -40(%rbp)
.L949:
	movq	-40(%rbp), %rbx
	movq	-16(%rbp), %rdi
	call	_ZN3Upp8MoveableINS_6StringENS_7AStringINS_7String0EEEED2Ev
	movq	%rbx, -40(%rbp)
	movq	-40(%rbp), %rdi
.LEHB41:
	call	_Unwind_Resume
.LEHE41:
.L950:
	addq	$40, %rsp
	popq	%rbx
	leave
	ret
.LFE1306:
	.size	_ZN3Upp6StringC1EPKci, .-_ZN3Upp6StringC1EPKci
	.section	.gcc_except_table
.LLSDA1306:
	.byte	0xff
	.byte	0xff
	.byte	0x1
	.uleb128 .LLSDACSE1306-.LLSDACSB1306
.LLSDACSB1306:
	.uleb128 .LEHB40-.LFB1306
	.uleb128 .LEHE40-.LEHB40
	.uleb128 .L951-.LFB1306
	.uleb128 0x0
	.uleb128 .LEHB41-.LFB1306
	.uleb128 .LEHE41-.LEHB41
	.uleb128 0x0
	.uleb128 0x0
.LLSDACSE1306:
	.section	.text._ZN3Upp6StringC1EPKci,"axG",@progbits,_ZN3Upp6StringC1EPKci,comdat
	.section	.text._ZNK3Upp7AStringINS_7String0EE3MidEii,"axG",@progbits,_ZNK3Upp7AStringINS_7String0EE3MidEii,comdat
	.align 2
	.weak	_ZNK3Upp7AStringINS_7String0EE3MidEii
	.type	_ZNK3Upp7AStringINS_7String0EE3MidEii, @function
_ZNK3Upp7AStringINS_7String0EE3MidEii:
.LFB9598:
	pushq	%rbp
.LCFI798:
	movq	%rsp, %rbp
.LCFI799:
	pushq	%rbx
.LCFI800:
	subq	$40, %rsp
.LCFI801:
	movq	%rdi, -48(%rbp)
	movq	%rsi, -32(%rbp)
	movl	%edx, -36(%rbp)
	movl	%ecx, -40(%rbp)
	movq	-32(%rbp), %rdi
	call	_ZNK3Upp7AStringINS_7String0EE9GetLengthEv
	movl	%eax, -12(%rbp)
	movl	-36(%rbp), %eax
	cmpl	-12(%rbp), %eax
	jle	.L953
	movl	-12(%rbp), %eax
	movl	%eax, -36(%rbp)
.L953:
	cmpl	$0, -36(%rbp)
	jns	.L955
	movl	$0, -36(%rbp)
.L955:
	cmpl	$0, -40(%rbp)
	jns	.L957
	movl	$0, -40(%rbp)
.L957:
	movl	-40(%rbp), %eax
	addl	-36(%rbp), %eax
	cmpl	-12(%rbp), %eax
	jle	.L959
	movl	-36(%rbp), %eax
	movl	-12(%rbp), %edx
	movl	%edx, %ecx
	subl	%eax, %ecx
	movl	%ecx, %eax
	movl	%eax, -40(%rbp)
.L959:
	movq	-48(%rbp), %rbx
	movq	-32(%rbp), %rdi
	call	_ZNK3Upp7String05BeginEv
	movq	%rax, %rdx
	movl	-36(%rbp), %eax
	cltq
	leaq	(%rdx,%rax), %rsi
	movl	-40(%rbp), %edx
	movq	%rbx, %rdi
	call	_ZN3Upp6StringC1EPKci
	movq	-48(%rbp), %rax
	addq	$40, %rsp
	popq	%rbx
	leave
	ret
.LFE9598:
	.size	_ZNK3Upp7AStringINS_7String0EE3MidEii, .-_ZNK3Upp7AStringINS_7String0EE3MidEii
	.section	.text._ZNK3Upp7AStringINS_7String0EE3MidEi,"axG",@progbits,_ZNK3Upp7AStringINS_7String0EE3MidEi,comdat
	.align 2
	.weak	_ZNK3Upp7AStringINS_7String0EE3MidEi
	.type	_ZNK3Upp7AStringINS_7String0EE3MidEi, @function
_ZNK3Upp7AStringINS_7String0EE3MidEi:
.LFB9006:
	pushq	%rbp
.LCFI802:
	movq	%rsp, %rbp
.LCFI803:
	pushq	%r12
.LCFI804:
	pushq	%rbx
.LCFI805:
	subq	$16, %rsp
.LCFI806:
	movq	%rdi, %rbx
	movq	%rsi, -24(%rbp)
	movl	%edx, -28(%rbp)
	movq	%rbx, %r12
	movq	-24(%rbp), %rdi
	call	_ZNK3Upp7AStringINS_7String0EE9GetLengthEv
	movl	%eax, %ecx
	subl	-28(%rbp), %ecx
	movl	-28(%rbp), %edx
	movq	-24(%rbp), %rsi
	movq	%r12, %rdi
	call	_ZNK3Upp7AStringINS_7String0EE3MidEii
	movq	%rbx, %rax
	addq	$16, %rsp
	popq	%rbx
	popq	%r12
	leave
	ret
.LFE9006:
	.size	_ZNK3Upp7AStringINS_7String0EE3MidEi, .-_ZNK3Upp7AStringINS_7String0EE3MidEi
	.section	.text._ZN3Upp6StringC1EPKcS2_,"axG",@progbits,_ZN3Upp6StringC1EPKcS2_,comdat
	.align 2
	.weak	_ZN3Upp6StringC1EPKcS2_
	.type	_ZN3Upp6StringC1EPKcS2_, @function
_ZN3Upp6StringC1EPKcS2_:
.LFB1312:
	pushq	%rbp
.LCFI807:
	movq	%rsp, %rbp
.LCFI808:
	pushq	%rbx
.LCFI809:
	subq	$40, %rsp
.LCFI810:
	movq	%rdi, -16(%rbp)
	movq	%rsi, -24(%rbp)
	movq	%rdx, -32(%rbp)
	movq	-16(%rbp), %rdi
	call	_ZN3Upp8MoveableINS_6StringENS_7AStringINS_7String0EEEEC2Ev
	movq	-32(%rbp), %rax
	movl	%eax, %edx
	movq	-24(%rbp), %rax
	movl	%edx, %ecx
	subl	%eax, %ecx
	movl	%ecx, %eax
	movl	%eax, %edx
	movq	-16(%rbp), %rdi
	movq	-24(%rbp), %rsi
.LEHB42:
	call	_ZN3Upp7String03SetEPKci
.LEHE42:
	jmp	.L966
.L967:
	movq	%rax, -40(%rbp)
.L965:
	movq	-40(%rbp), %rbx
	movq	-16(%rbp), %rdi
	call	_ZN3Upp8MoveableINS_6StringENS_7AStringINS_7String0EEEED2Ev
	movq	%rbx, -40(%rbp)
	movq	-40(%rbp), %rdi
.LEHB43:
	call	_Unwind_Resume
.LEHE43:
.L966:
	addq	$40, %rsp
	popq	%rbx
	leave
	ret
.LFE1312:
	.size	_ZN3Upp6StringC1EPKcS2_, .-_ZN3Upp6StringC1EPKcS2_
	.section	.gcc_except_table
.LLSDA1312:
	.byte	0xff
	.byte	0xff
	.byte	0x1
	.uleb128 .LLSDACSE1312-.LLSDACSB1312
.LLSDACSB1312:
	.uleb128 .LEHB42-.LFB1312
	.uleb128 .LEHE42-.LEHB42
	.uleb128 .L967-.LFB1312
	.uleb128 0x0
	.uleb128 .LEHB43-.LFB1312
	.uleb128 .LEHE43-.LEHB43
	.uleb128 0x0
	.uleb128 0x0
.LLSDACSE1312:
	.section	.text._ZN3Upp6StringC1EPKcS2_,"axG",@progbits,_ZN3Upp6StringC1EPKcS2_,comdat
	.section	.text._ZN3Upp8strlen__EPKc,"axG",@progbits,_ZN3Upp8strlen__EPKc,comdat
	.align 2
	.weak	_ZN3Upp8strlen__EPKc
	.type	_ZN3Upp8strlen__EPKc, @function
_ZN3Upp8strlen__EPKc:
.LFB1159:
	pushq	%rbp
.LCFI811:
	movq	%rsp, %rbp
.LCFI812:
	subq	$16, %rsp
.LCFI813:
	movq	%rdi, -8(%rbp)
	cmpq	$0, -8(%rbp)
	je	.L969
	movq	-8(%rbp), %rdi
	call	strlen
	movl	%eax, -12(%rbp)
	jmp	.L971
.L969:
	movl	$0, -12(%rbp)
.L971:
	movl	-12(%rbp), %eax
	leave
	ret
.LFE1159:
	.size	_ZN3Upp8strlen__EPKc, .-_ZN3Upp8strlen__EPKc
	.section	.text._ZN3Upp6StringC1EPKc,"axG",@progbits,_ZN3Upp6StringC1EPKc,comdat
	.align 2
	.weak	_ZN3Upp6StringC1EPKc
	.type	_ZN3Upp6StringC1EPKc, @function
_ZN3Upp6StringC1EPKc:
.LFB1300:
	pushq	%rbp
.LCFI814:
	movq	%rsp, %rbp
.LCFI815:
	pushq	%rbx
.LCFI816:
	subq	$24, %rsp
.LCFI817:
	movq	%rdi, -16(%rbp)
	movq	%rsi, -24(%rbp)
	movq	-16(%rbp), %rdi
	call	_ZN3Upp8MoveableINS_6StringENS_7AStringINS_7String0EEEEC2Ev
	movq	-24(%rbp), %rdi
	call	_ZN3Upp8strlen__EPKc
	movq	-16(%rbp), %rdi
	movq	-24(%rbp), %rsi
	movl	%eax, %edx
.LEHB44:
	call	_ZN3Upp7String03SetEPKci
.LEHE44:
	jmp	.L975
.L976:
	movq	%rax, -32(%rbp)
.L974:
	movq	-32(%rbp), %rbx
	movq	-16(%rbp), %rdi
	call	_ZN3Upp8MoveableINS_6StringENS_7AStringINS_7String0EEEED2Ev
	movq	%rbx, -32(%rbp)
	movq	-32(%rbp), %rdi
.LEHB45:
	call	_Unwind_Resume
.LEHE45:
.L975:
	addq	$24, %rsp
	popq	%rbx
	leave
	ret
.LFE1300:
	.size	_ZN3Upp6StringC1EPKc, .-_ZN3Upp6StringC1EPKc
	.section	.gcc_except_table
.LLSDA1300:
	.byte	0xff
	.byte	0xff
	.byte	0x1
	.uleb128 .LLSDACSE1300-.LLSDACSB1300
.LLSDACSB1300:
	.uleb128 .LEHB44-.LFB1300
	.uleb128 .LEHE44-.LEHB44
	.uleb128 .L976-.LFB1300
	.uleb128 0x0
	.uleb128 .LEHB45-.LFB1300
	.uleb128 .LEHE45-.LEHB45
	.uleb128 0x0
	.uleb128 0x0
.LLSDACSE1300:
	.section	.text._ZN3Upp6StringC1EPKc,"axG",@progbits,_ZN3Upp6StringC1EPKc,comdat
	.section	.text._ZN3Upp7String03SetERKS0_,"axG",@progbits,_ZN3Upp7String03SetERKS0_,comdat
	.align 2
	.weak	_ZN3Upp7String03SetERKS0_
	.type	_ZN3Upp7String03SetERKS0_, @function
_ZN3Upp7String03SetERKS0_:
.LFB1242:
	pushq	%rbp
.LCFI818:
	movq	%rsp, %rbp
.LCFI819:
	subq	$16, %rsp
.LCFI820:
	movq	%rdi, -8(%rbp)
	movq	%rsi, -16(%rbp)
	movq	-16(%rbp), %rdi
	call	_ZNK3Upp7String07IsSmallEv
	testb	%al, %al
	je	.L978
	movq	-16(%rbp), %rax
	movq	(%rax), %rdx
	movq	-8(%rbp), %rax
	movq	%rdx, (%rax)
	movq	-16(%rbp), %rax
	movq	8(%rax), %rdx
	movq	-8(%rbp), %rax
	movq	%rdx, 8(%rax)
	jmp	.L980
.L978:
	movq	-16(%rbp), %rsi
	movq	-8(%rbp), %rdi
	call	_ZN3Upp7String04LSetERKS0_
.L980:
	movq	-8(%rbp), %rdi
	call	_ZN3Upp7String04DsynEv
	leave
	ret
.LFE1242:
	.size	_ZN3Upp7String03SetERKS0_, .-_ZN3Upp7String03SetERKS0_
	.section	.text._ZN3Upp6StringC1ERKS0_,"axG",@progbits,_ZN3Upp6StringC1ERKS0_,comdat
	.align 2
	.weak	_ZN3Upp6StringC1ERKS0_
	.type	_ZN3Upp6StringC1ERKS0_, @function
_ZN3Upp6StringC1ERKS0_:
.LFB1297:
	pushq	%rbp
.LCFI821:
	movq	%rsp, %rbp
.LCFI822:
	pushq	%rbx
.LCFI823:
	subq	$24, %rsp
.LCFI824:
	movq	%rdi, -16(%rbp)
	movq	%rsi, -24(%rbp)
	movq	-16(%rbp), %rdi
	call	_ZN3Upp8MoveableINS_6StringENS_7AStringINS_7String0EEEEC2Ev
	movq	-24(%rbp), %rsi
	movq	-16(%rbp), %rdi
.LEHB46:
	call	_ZN3Upp7String03SetERKS0_
.LEHE46:
	jmp	.L984
.L985:
	movq	%rax, -32(%rbp)
.L983:
	movq	-32(%rbp), %rbx
	movq	-16(%rbp), %rdi
	call	_ZN3Upp8MoveableINS_6StringENS_7AStringINS_7String0EEEED2Ev
	movq	%rbx, -32(%rbp)
	movq	-32(%rbp), %rdi
.LEHB47:
	call	_Unwind_Resume
.LEHE47:
.L984:
	addq	$24, %rsp
	popq	%rbx
	leave
	ret
.LFE1297:
	.size	_ZN3Upp6StringC1ERKS0_, .-_ZN3Upp6StringC1ERKS0_
	.section	.gcc_except_table
.LLSDA1297:
	.byte	0xff
	.byte	0xff
	.byte	0x1
	.uleb128 .LLSDACSE1297-.LLSDACSB1297
.LLSDACSB1297:
	.uleb128 .LEHB46-.LFB1297
	.uleb128 .LEHE46-.LEHB46
	.uleb128 .L985-.LFB1297
	.uleb128 0x0
	.uleb128 .LEHB47-.LFB1297
	.uleb128 .LEHE47-.LEHB47
	.uleb128 0x0
	.uleb128 0x0
.LLSDACSE1297:
	.section	.text._ZN3Upp6StringC1ERKS0_,"axG",@progbits,_ZN3Upp6StringC1ERKS0_,comdat
	.section	.text._ZNK3Upp8FindFile7GetNameEv,"axG",@progbits,_ZNK3Upp8FindFile7GetNameEv,comdat
	.align 2
	.weak	_ZNK3Upp8FindFile7GetNameEv
	.type	_ZNK3Upp8FindFile7GetNameEv, @function
_ZNK3Upp8FindFile7GetNameEv:
.LFB1599:
	pushq	%rbp
.LCFI825:
	movq	%rsp, %rbp
.LCFI826:
	pushq	%rbx
.LCFI827:
	subq	$8, %rsp
.LCFI828:
	movq	%rdi, %rbx
	movq	%rsi, -16(%rbp)
	movq	%rbx, %rdi
	movq	-16(%rbp), %rsi
	addq	$184, %rsi
	call	_ZN3Upp6StringC1ERKS0_
	movq	%rbx, %rax
	addq	$8, %rsp
	popq	%rbx
	leave
	ret
.LFE1599:
	.size	_ZNK3Upp8FindFile7GetNameEv, .-_ZNK3Upp8FindFile7GetNameEv
	.section	.text._ZN3Upp17DeepCopyConstructINS_6StringEEEvPvRKT_,"axG",@progbits,_ZN3Upp17DeepCopyConstructINS_6StringEEEvPvRKT_,comdat
	.align 2
	.weak	_ZN3Upp17DeepCopyConstructINS_6StringEEEvPvRKT_
	.type	_ZN3Upp17DeepCopyConstructINS_6StringEEEvPvRKT_, @function
_ZN3Upp17DeepCopyConstructINS_6StringEEEvPvRKT_:
.LFB9423:
	pushq	%rbp
.LCFI829:
	movq	%rsp, %rbp
.LCFI830:
	pushq	%rbx
.LCFI831:
	subq	$40, %rsp
.LCFI832:
	movq	%rdi, -16(%rbp)
	movq	%rsi, -24(%rbp)
	movq	-16(%rbp), %rsi
	movl	$16, %edi
	call	_ZnwmPv
	movq	%rax, -32(%rbp)
	cmpq	$0, -32(%rbp)
	je	.L993
	movq	-24(%rbp), %rsi
	movq	-32(%rbp), %rdi
.LEHB48:
	call	_ZN3Upp6StringC1ERKS0_
.LEHE48:
	jmp	.L993
.L994:
	movq	%rax, -40(%rbp)
.L992:
	movq	-40(%rbp), %rbx
	movq	-16(%rbp), %rsi
	movq	-32(%rbp), %rdi
	call	_ZdlPvS_
	movq	%rbx, -40(%rbp)
	movq	-40(%rbp), %rdi
.LEHB49:
	call	_Unwind_Resume
.LEHE49:
.L993:
	addq	$40, %rsp
	popq	%rbx
	leave
	ret
.LFE9423:
	.size	_ZN3Upp17DeepCopyConstructINS_6StringEEEvPvRKT_, .-_ZN3Upp17DeepCopyConstructINS_6StringEEEvPvRKT_
	.section	.gcc_except_table
.LLSDA9423:
	.byte	0xff
	.byte	0xff
	.byte	0x1
	.uleb128 .LLSDACSE9423-.LLSDACSB9423
.LLSDACSB9423:
	.uleb128 .LEHB48-.LFB9423
	.uleb128 .LEHE48-.LEHB48
	.uleb128 .L994-.LFB9423
	.uleb128 0x0
	.uleb128 .LEHB49-.LFB9423
	.uleb128 .LEHE49-.LEHB49
	.uleb128 0x0
	.uleb128 0x0
.LLSDACSE9423:
	.section	.text._ZN3Upp17DeepCopyConstructINS_6StringEEEvPvRKT_,"axG",@progbits,_ZN3Upp17DeepCopyConstructINS_6StringEEEvPvRKT_,comdat
	.section	.text._ZN3Upp6StringC2ERKS0_,"axG",@progbits,_ZN3Upp6StringC2ERKS0_,comdat
	.align 2
	.weak	_ZN3Upp6StringC2ERKS0_
	.type	_ZN3Upp6StringC2ERKS0_, @function
_ZN3Upp6StringC2ERKS0_:
.LFB1296:
	pushq	%rbp
.LCFI833:
	movq	%rsp, %rbp
.LCFI834:
	pushq	%rbx
.LCFI835:
	subq	$24, %rsp
.LCFI836:
	movq	%rdi, -16(%rbp)
	movq	%rsi, -24(%rbp)
	movq	-16(%rbp), %rdi
	call	_ZN3Upp8MoveableINS_6StringENS_7AStringINS_7String0EEEEC2Ev
	movq	-24(%rbp), %rsi
	movq	-16(%rbp), %rdi
.LEHB50:
	call	_ZN3Upp7String03SetERKS0_
.LEHE50:
	jmp	.L997
.L998:
	movq	%rax, -32(%rbp)
.L996:
	movq	-32(%rbp), %rbx
	movq	-16(%rbp), %rdi
	call	_ZN3Upp8MoveableINS_6StringENS_7AStringINS_7String0EEEED2Ev
	movq	%rbx, -32(%rbp)
	movq	-32(%rbp), %rdi
.LEHB51:
	call	_Unwind_Resume
.LEHE51:
.L997:
	addq	$24, %rsp
	popq	%rbx
	leave
	ret
.LFE1296:
	.size	_ZN3Upp6StringC2ERKS0_, .-_ZN3Upp6StringC2ERKS0_
	.section	.gcc_except_table
.LLSDA1296:
	.byte	0xff
	.byte	0xff
	.byte	0x1
	.uleb128 .LLSDACSE1296-.LLSDACSB1296
.LLSDACSB1296:
	.uleb128 .LEHB50-.LFB1296
	.uleb128 .LEHE50-.LEHB50
	.uleb128 .L998-.LFB1296
	.uleb128 0x0
	.uleb128 .LEHB51-.LFB1296
	.uleb128 .LEHE51-.LEHB51
	.uleb128 0x0
	.uleb128 0x0
.LLSDACSE1296:
	.section	.text._ZN3Upp6StringC2ERKS0_,"axG",@progbits,_ZN3Upp6StringC2ERKS0_,comdat
	.section	.text._ZN3Upp3ExcC2ERKS0_,"axG",@progbits,_ZN3Upp3ExcC2ERKS0_,comdat
	.align 2
	.weak	_ZN3Upp3ExcC2ERKS0_
	.type	_ZN3Upp3ExcC2ERKS0_, @function
_ZN3Upp3ExcC2ERKS0_:
.LFB7971:
	pushq	%rbp
.LCFI837:
	movq	%rsp, %rbp
.LCFI838:
	subq	$16, %rsp
.LCFI839:
	movq	%rdi, -8(%rbp)
	movq	%rsi, -16(%rbp)
	movq	-16(%rbp), %rsi
	movq	-8(%rbp), %rdi
	call	_ZN3Upp6StringC2ERKS0_
	leave
	ret
.LFE7971:
	.size	_ZN3Upp3ExcC2ERKS0_, .-_ZN3Upp3ExcC2ERKS0_
	.section	.text._ZN3Upp7CParser5ErrorC1ERKS1_,"axG",@progbits,_ZN3Upp7CParser5ErrorC1ERKS1_,comdat
	.align 2
	.weak	_ZN3Upp7CParser5ErrorC1ERKS1_
	.type	_ZN3Upp7CParser5ErrorC1ERKS1_, @function
_ZN3Upp7CParser5ErrorC1ERKS1_:
.LFB7974:
	pushq	%rbp
.LCFI840:
	movq	%rsp, %rbp
.LCFI841:
	subq	$16, %rsp
.LCFI842:
	movq	%rdi, -8(%rbp)
	movq	%rsi, -16(%rbp)
	movq	-16(%rbp), %rsi
	movq	-8(%rbp), %rdi
	call	_ZN3Upp3ExcC2ERKS0_
	leave
	ret
.LFE7974:
	.size	_ZN3Upp7CParser5ErrorC1ERKS1_, .-_ZN3Upp7CParser5ErrorC1ERKS1_
	.section	.text._ZN3Upp7String06AssignERKS0_,"axG",@progbits,_ZN3Upp7String06AssignERKS0_,comdat
	.align 2
	.weak	_ZN3Upp7String06AssignERKS0_
	.type	_ZN3Upp7String06AssignERKS0_, @function
_ZN3Upp7String06AssignERKS0_:
.LFB1243:
	pushq	%rbp
.LCFI843:
	movq	%rsp, %rbp
.LCFI844:
	subq	$16, %rsp
.LCFI845:
	movq	%rdi, -8(%rbp)
	movq	%rsi, -16(%rbp)
	movq	-16(%rbp), %rdi
	call	_ZNK3Upp7String07IsSmallEv
	testb	%al, %al
	je	.L1004
	movq	-8(%rbp), %rdi
	call	_ZNK3Upp7String07IsLargeEv
	testb	%al, %al
	je	.L1006
	movq	-8(%rbp), %rdi
	call	_ZN3Upp7String05LFreeEv
.L1006:
	movq	-16(%rbp), %rax
	movq	(%rax), %rdx
	movq	-8(%rbp), %rax
	movq	%rdx, (%rax)
	movq	-16(%rbp), %rax
	movq	8(%rax), %rdx
	movq	-8(%rbp), %rax
	movq	%rdx, 8(%rax)
	jmp	.L1008
.L1004:
	movq	-8(%rbp), %rax
	cmpq	-16(%rbp), %rax
	je	.L1008
	movq	-8(%rbp), %rdi
	call	_ZN3Upp7String04FreeEv
	movq	-16(%rbp), %rsi
	movq	-8(%rbp), %rdi
	call	_ZN3Upp7String04LSetERKS0_
.L1008:
	movq	-8(%rbp), %rdi
	call	_ZN3Upp7String04DsynEv
	leave
	ret
.LFE1243:
	.size	_ZN3Upp7String06AssignERKS0_, .-_ZN3Upp7String06AssignERKS0_
	.section	.text._ZN3Upp6StringaSERKS0_,"axG",@progbits,_ZN3Upp6StringaSERKS0_,comdat
	.align 2
	.weak	_ZN3Upp6StringaSERKS0_
	.type	_ZN3Upp6StringaSERKS0_, @function
_ZN3Upp6StringaSERKS0_:
.LFB1270:
	pushq	%rbp
.LCFI846:
	movq	%rsp, %rbp
.LCFI847:
	subq	$16, %rsp
.LCFI848:
	movq	%rdi, -8(%rbp)
	movq	%rsi, -16(%rbp)
	movq	-16(%rbp), %rsi
	movq	-8(%rbp), %rdi
	call	_ZN3Upp7String06AssignERKS0_
	movq	-8(%rbp), %rax
	leave
	ret
.LFE1270:
	.size	_ZN3Upp6StringaSERKS0_, .-_ZN3Upp6StringaSERKS0_
	.section	.text._ZN15PackageTemplateaSERKS_,"axG",@progbits,_ZN15PackageTemplateaSERKS_,comdat
	.align 2
	.weak	_ZN15PackageTemplateaSERKS_
	.type	_ZN15PackageTemplateaSERKS_, @function
_ZN15PackageTemplateaSERKS_:
.LFB7968:
	pushq	%rbp
.LCFI849:
	movq	%rsp, %rbp
.LCFI850:
	subq	$16, %rsp
.LCFI851:
	movq	%rdi, -8(%rbp)
	movq	%rsi, -16(%rbp)
	movq	-16(%rbp), %rsi
	movq	-8(%rbp), %rdi
	call	_ZN3Upp6StringaSERKS0_
	movq	-16(%rbp), %rax
	movzbl	16(%rax), %edx
	movq	-8(%rbp), %rax
	movb	%dl, 16(%rax)
	movq	-16(%rbp), %rax
	movzbl	17(%rax), %edx
	movq	-8(%rbp), %rax
	movb	%dl, 17(%rax)
	movq	-16(%rbp), %rsi
	addq	$24, %rsi
	movq	-8(%rbp), %rdi
	addq	$24, %rdi
	call	_ZN3Upp5ArrayI12TemplateItemEaSERKS2_
	movq	-16(%rbp), %rsi
	addq	$48, %rsi
	movq	-8(%rbp), %rdi
	addq	$48, %rdi
	call	_ZN3Upp5ArrayI12FileTemplateEaSERKS2_
	movq	-8(%rbp), %rax
	leave
	ret
.LFE7968:
	.size	_ZN15PackageTemplateaSERKS_, .-_ZN15PackageTemplateaSERKS_
	.section	.text._Znwm,"axG",@progbits,_Znwm,comdat
	.align 2
	.weak	_Znwm
	.type	_Znwm, @function
_Znwm:
.LFB932:
	pushq	%rbp
.LCFI852:
	movq	%rsp, %rbp
.LCFI853:
	subq	$48, %rsp
.LCFI854:
	movq	%rdi, -24(%rbp)
	movq	-24(%rbp), %rdi
.LEHB52:
	call	_ZN3Upp11MemoryAllocEm
.LEHE52:
	movq	%rax, -8(%rbp)
	movq	-8(%rbp), %rax
	movq	%rax, -32(%rbp)
	jmp	.L1015
.L1019:
	movq	%rax, -40(%rbp)
	cmpq	$-1, %rdx
	je	.L1016
	movq	-40(%rbp), %rdi
.LEHB53:
	call	_Unwind_Resume
.L1016:
	movq	-40(%rbp), %rdi
	call	__cxa_call_unexpected
.LEHE53:
.L1015:
	movq	-32(%rbp), %rax
	leave
	ret
.LFE932:
	.size	_Znwm, .-_Znwm
	.section	.gcc_except_table
	.align 4
.LLSDA932:
	.byte	0xff
	.byte	0x3
	.uleb128 .LLSDATT932-.LLSDATTD932
.LLSDATTD932:
	.byte	0x1
	.uleb128 .LLSDACSE932-.LLSDACSB932
.LLSDACSB932:
	.uleb128 .LEHB52-.LFB932
	.uleb128 .LEHE52-.LEHB52
	.uleb128 .L1019-.LFB932
	.uleb128 0x1
	.uleb128 .LEHB53-.LFB932
	.uleb128 .LEHE53-.LEHB53
	.uleb128 0x0
	.uleb128 0x0
.LLSDACSE932:
	.byte	0x7f
	.byte	0x0
	.align 4
	.long	_ZTISt9bad_alloc
.LLSDATT932:
	.byte	0x1
	.byte	0x0
	.section	.text._Znwm,"axG",@progbits,_Znwm,comdat
	.section	.text._ZN3Upp8callbackINS_13DelayCallbackES1_EENS_8CallbackEPT_MT0_FvvE,"axG",@progbits,_ZN3Upp8callbackINS_13DelayCallbackES1_EENS_8CallbackEPT_MT0_FvvE,comdat
	.align 2
	.weak	_ZN3Upp8callbackINS_13DelayCallbackES1_EENS_8CallbackEPT_MT0_FvvE
	.type	_ZN3Upp8callbackINS_13DelayCallbackES1_EENS_8CallbackEPT_MT0_FvvE, @function
_ZN3Upp8callbackINS_13DelayCallbackES1_EENS_8CallbackEPT_MT0_FvvE:
.LFB8570:
	pushq	%rbp
.LCFI855:
	movq	%rsp, %rbp
.LCFI856:
	pushq	%r13
.LCFI857:
	pushq	%r12
.LCFI858:
	pushq	%rbx
.LCFI859:
	subq	$24, %rsp
.LCFI860:
	movq	%rdi, %r12
	movq	%rsi, -32(%rbp)
	movq	%rdx, %rax
	movq	%rcx, %rdx
	movq	%rax, -48(%rbp)
	movq	%rdx, -40(%rbp)
	movq	%r12, %r13
	movl	$40, %edi
	call	_Znwm
	movq	%rax, %rbx
	movq	-48(%rbp), %rdx
	movq	-40(%rbp), %rcx
	movq	-32(%rbp), %rsi
	movq	%rbx, %rdi
	call	_ZN3Upp20CallbackMethodActionINS_13DelayCallbackEMS1_FvvEEC1EPS1_S3_
	movq	%rbx, %rsi
	movq	%r13, %rdi
	call	_ZN3Upp8CallbackC1EPNS_14CallbackActionE
	movq	%r12, %rax
	addq	$24, %rsp
	popq	%rbx
	popq	%r12
	popq	%r13
	leave
	ret
.LFE8570:
	.size	_ZN3Upp8callbackINS_13DelayCallbackES1_EENS_8CallbackEPT_MT0_FvvE, .-_ZN3Upp8callbackINS_13DelayCallbackES1_EENS_8CallbackEPT_MT0_FvvE
	.section	.text._ZN3Upp13DelayCallback3GetEv,"axG",@progbits,_ZN3Upp13DelayCallback3GetEv,comdat
	.align 2
	.weak	_ZN3Upp13DelayCallback3GetEv
	.type	_ZN3Upp13DelayCallback3GetEv, @function
_ZN3Upp13DelayCallback3GetEv:
.LFB6475:
	pushq	%rbp
.LCFI861:
	movq	%rsp, %rbp
.LCFI862:
	pushq	%rbx
.LCFI863:
	subq	$40, %rsp
.LCFI864:
	movq	%rdi, %rbx
	movq	%rsi, -40(%rbp)
	movq	%rbx, %rdi
	movq	$_ZN3Upp13DelayCallback6InvokeEv, -32(%rbp)
	movq	$0, -24(%rbp)
	movq	-32(%rbp), %rdx
	movq	-24(%rbp), %rcx
	movq	-40(%rbp), %rsi
	call	_ZN3Upp8callbackINS_13DelayCallbackES1_EENS_8CallbackEPT_MT0_FvvE
	movq	%rbx, %rax
	addq	$40, %rsp
	popq	%rbx
	leave
	ret
.LFE6475:
	.size	_ZN3Upp13DelayCallback3GetEv, .-_ZN3Upp13DelayCallback3GetEv
	.section	.text._ZN3Upp13DelayCallbackcvNS_8CallbackEEv,"axG",@progbits,_ZN3Upp13DelayCallbackcvNS_8CallbackEEv,comdat
	.align 2
	.weak	_ZN3Upp13DelayCallbackcvNS_8CallbackEEv
	.type	_ZN3Upp13DelayCallbackcvNS_8CallbackEEv, @function
_ZN3Upp13DelayCallbackcvNS_8CallbackEEv:
.LFB6477:
	pushq	%rbp
.LCFI865:
	movq	%rsp, %rbp
.LCFI866:
	pushq	%rbx
.LCFI867:
	subq	$8, %rsp
.LCFI868:
	movq	%rdi, %rbx
	movq	%rsi, -16(%rbp)
	movq	%rbx, %rdi
	movq	-16(%rbp), %rsi
	call	_ZN3Upp13DelayCallback3GetEv
	movq	%rbx, %rax
	addq	$8, %rsp
	popq	%rbx
	leave
	ret
.LFE6477:
	.size	_ZN3Upp13DelayCallbackcvNS_8CallbackEEv, .-_ZN3Upp13DelayCallbackcvNS_8CallbackEEv
	.section	.text._ZN3Upp8callbackI11TemplateDlgS1_EENS_8CallbackEPT_MT0_FvvE,"axG",@progbits,_ZN3Upp8callbackI11TemplateDlgS1_EENS_8CallbackEPT_MT0_FvvE,comdat
	.align 2
	.weak	_ZN3Upp8callbackI11TemplateDlgS1_EENS_8CallbackEPT_MT0_FvvE
	.type	_ZN3Upp8callbackI11TemplateDlgS1_EENS_8CallbackEPT_MT0_FvvE, @function
_ZN3Upp8callbackI11TemplateDlgS1_EENS_8CallbackEPT_MT0_FvvE:
.LFB9067:
	pushq	%rbp
.LCFI869:
	movq	%rsp, %rbp
.LCFI870:
	pushq	%r13
.LCFI871:
	pushq	%r12
.LCFI872:
	pushq	%rbx
.LCFI873:
	subq	$24, %rsp
.LCFI874:
	movq	%rdi, %r12
	movq	%rsi, -32(%rbp)
	movq	%rdx, %rax
	movq	%rcx, %rdx
	movq	%rax, -48(%rbp)
	movq	%rdx, -40(%rbp)
	movq	%r12, %r13
	movl	$40, %edi
	call	_Znwm
	movq	%rax, %rbx
	movq	-48(%rbp), %rdx
	movq	-40(%rbp), %rcx
	movq	-32(%rbp), %rsi
	movq	%rbx, %rdi
	call	_ZN3Upp20CallbackMethodActionI11TemplateDlgMS1_FvvEEC1EPS1_S3_
	movq	%rbx, %rsi
	movq	%r13, %rdi
	call	_ZN3Upp8CallbackC1EPNS_14CallbackActionE
	movq	%r12, %rax
	addq	$24, %rsp
	popq	%rbx
	popq	%r12
	popq	%r13
	leave
	ret
.LFE9067:
	.size	_ZN3Upp8callbackI11TemplateDlgS1_EENS_8CallbackEPT_MT0_FvvE, .-_ZN3Upp8callbackI11TemplateDlgS1_EENS_8CallbackEPT_MT0_FvvE
	.section	.text._ZN3Upp8callbackI10AppPreviewS1_EENS_8CallbackEPT_MT0_FvvE,"axG",@progbits,_ZN3Upp8callbackI10AppPreviewS1_EENS_8CallbackEPT_MT0_FvvE,comdat
	.align 2
	.weak	_ZN3Upp8callbackI10AppPreviewS1_EENS_8CallbackEPT_MT0_FvvE
	.type	_ZN3Upp8callbackI10AppPreviewS1_EENS_8CallbackEPT_MT0_FvvE, @function
_ZN3Upp8callbackI10AppPreviewS1_EENS_8CallbackEPT_MT0_FvvE:
.LFB9028:
	pushq	%rbp
.LCFI875:
	movq	%rsp, %rbp
.LCFI876:
	pushq	%r13
.LCFI877:
	pushq	%r12
.LCFI878:
	pushq	%rbx
.LCFI879:
	subq	$24, %rsp
.LCFI880:
	movq	%rdi, %r12
	movq	%rsi, -32(%rbp)
	movq	%rdx, %rax
	movq	%rcx, %rdx
	movq	%rax, -48(%rbp)
	movq	%rdx, -40(%rbp)
	movq	%r12, %r13
	movl	$40, %edi
	call	_Znwm
	movq	%rax, %rbx
	movq	-48(%rbp), %rdx
	movq	-40(%rbp), %rcx
	movq	-32(%rbp), %rsi
	movq	%rbx, %rdi
	call	_ZN3Upp20CallbackMethodActionI10AppPreviewMS1_FvvEEC1EPS1_S3_
	movq	%rbx, %rsi
	movq	%r13, %rdi
	call	_ZN3Upp8CallbackC1EPNS_14CallbackActionE
	movq	%r12, %rax
	addq	$24, %rsp
	popq	%rbx
	popq	%r12
	popq	%r13
	leave
	ret
.LFE9028:
	.size	_ZN3Upp8callbackI10AppPreviewS1_EENS_8CallbackEPT_MT0_FvvE, .-_ZN3Upp8callbackI10AppPreviewS1_EENS_8CallbackEPT_MT0_FvvE
	.section	.text._ZN3Upp6VectorIPvE4GrowEv,"axG",@progbits,_ZN3Upp6VectorIPvE4GrowEv,comdat
	.align 2
	.weak	_ZN3Upp6VectorIPvE4GrowEv
	.type	_ZN3Upp6VectorIPvE4GrowEv, @function
_ZN3Upp6VectorIPvE4GrowEv:
.LFB10019:
	pushq	%rbp
.LCFI881:
	movq	%rsp, %rbp
.LCFI882:
	subq	$16, %rsp
.LCFI883:
	movq	%rdi, -8(%rbp)
	movq	-8(%rbp), %rdi
	movl	$8, %esi
	call	_ZN3Upp11VectorGrow_EPvi
	leave
	ret
.LFE10019:
	.size	_ZN3Upp6VectorIPvE4GrowEv, .-_ZN3Upp6VectorIPvE4GrowEv
	.section	.text._ZN3Upp6VectorIPvE7GrowAddERKS1_,"axG",@progbits,_ZN3Upp6VectorIPvE7GrowAddERKS1_,comdat
	.align 2
	.weak	_ZN3Upp6VectorIPvE7GrowAddERKS1_
	.type	_ZN3Upp6VectorIPvE7GrowAddERKS1_, @function
_ZN3Upp6VectorIPvE7GrowAddERKS1_:
.LFB9666:
	pushq	%rbp
.LCFI884:
	movq	%rsp, %rbp
.LCFI885:
	subq	$32, %rsp
.LCFI886:
	movq	%rdi, -24(%rbp)
	movq	%rsi, -32(%rbp)
	movq	-24(%rbp), %rax
	movq	(%rax), %rax
	movq	%rax, -8(%rbp)
	movq	-24(%rbp), %rdi
	call	_ZN3Upp6VectorIPvE4GrowEv
	movq	-24(%rbp), %rdi
	call	_ZN3Upp6VectorIPvE3RddEv
	movq	%rax, %rdi
	movq	-32(%rbp), %rsi
	call	_ZN3Upp17DeepCopyConstructIPvEEvS1_RKT_
	movq	-8(%rbp), %rdi
	call	_ZN3Upp6VectorIPvE7RawFreeEPS1_
	leave
	ret
.LFE9666:
	.size	_ZN3Upp6VectorIPvE7GrowAddERKS1_, .-_ZN3Upp6VectorIPvE7GrowAddERKS1_
	.section	.text._ZN3Upp6VectorIPvE3AddERKS1_,"axG",@progbits,_ZN3Upp6VectorIPvE3AddERKS1_,comdat
	.align 2
	.weak	_ZN3Upp6VectorIPvE3AddERKS1_
	.type	_ZN3Upp6VectorIPvE3AddERKS1_, @function
_ZN3Upp6VectorIPvE3AddERKS1_:
.LFB9201:
	pushq	%rbp
.LCFI887:
	movq	%rsp, %rbp
.LCFI888:
	subq	$16, %rsp
.LCFI889:
	movq	%rdi, -8(%rbp)
	movq	%rsi, -16(%rbp)
	movq	-8(%rbp), %rdi
	call	_ZNK3Upp6VectorIPvE3ChkEv
	movq	-8(%rbp), %rax
	movl	8(%rax), %edx
	movq	-8(%rbp), %rax
	movl	12(%rax), %eax
	cmpl	%eax, %edx
	jge	.L1035
	movq	-8(%rbp), %rdi
	call	_ZN3Upp6VectorIPvE3RddEv
	movq	%rax, %rdi
	movq	-16(%rbp), %rsi
	call	_ZN3Upp17DeepCopyConstructIPvEEvS1_RKT_
	jmp	.L1038
.L1035:
	movq	-16(%rbp), %rsi
	movq	-8(%rbp), %rdi
	call	_ZN3Upp6VectorIPvE7GrowAddERKS1_
.L1038:
	leave
	ret
.LFE9201:
	.size	_ZN3Upp6VectorIPvE3AddERKS1_, .-_ZN3Upp6VectorIPvE3AddERKS1_
	.section	.text._ZN3Upp5ArrayI15PackageTemplateE3AddEv,"axG",@progbits,_ZN3Upp5ArrayI15PackageTemplateE3AddEv,comdat
	.align 2
	.weak	_ZN3Upp5ArrayI15PackageTemplateE3AddEv
	.type	_ZN3Upp5ArrayI15PackageTemplateE3AddEv, @function
_ZN3Upp5ArrayI15PackageTemplateE3AddEv:
.LFB9091:
	pushq	%rbp
.LCFI890:
	movq	%rsp, %rbp
.LCFI891:
	pushq	%rbx
.LCFI892:
	subq	$24, %rsp
.LCFI893:
	movq	%rdi, -32(%rbp)
	movl	$72, %edi
	call	_Znwm
	movq	%rax, %rbx
	movq	%rbx, %rdi
	call	_ZN15PackageTemplateC1Ev
	movq	%rbx, -16(%rbp)
	movq	-16(%rbp), %rax
	movq	%rax, -24(%rbp)
	movq	-32(%rbp), %rdi
	addq	$8, %rdi
	leaq	-24(%rbp), %rsi
	call	_ZN3Upp6VectorIPvE3AddERKS1_
	movq	-16(%rbp), %rax
	addq	$24, %rsp
	popq	%rbx
	leave
	ret
.LFE9091:
	.size	_ZN3Upp5ArrayI15PackageTemplateE3AddEv, .-_ZN3Upp5ArrayI15PackageTemplateE3AddEv
	.section	.text._ZN3Upp5ArrayINS_4CtrlEE3AddEPS1_,"axG",@progbits,_ZN3Upp5ArrayINS_4CtrlEE3AddEPS1_,comdat
	.align 2
	.weak	_ZN3Upp5ArrayINS_4CtrlEE3AddEPS1_
	.type	_ZN3Upp5ArrayINS_4CtrlEE3AddEPS1_, @function
_ZN3Upp5ArrayINS_4CtrlEE3AddEPS1_:
.LFB9088:
	pushq	%rbp
.LCFI894:
	movq	%rsp, %rbp
.LCFI895:
	subq	$32, %rsp
.LCFI896:
	movq	%rdi, -24(%rbp)
	movq	%rsi, -32(%rbp)
	movq	-32(%rbp), %rax
	movq	%rax, -8(%rbp)
	movq	-24(%rbp), %rdi
	addq	$8, %rdi
	leaq	-8(%rbp), %rsi
	call	_ZN3Upp6VectorIPvE3AddERKS1_
	movq	-32(%rbp), %rax
	leave
	ret
.LFE9088:
	.size	_ZN3Upp5ArrayINS_4CtrlEE3AddEPS1_, .-_ZN3Upp5ArrayINS_4CtrlEE3AddEPS1_
	.section	.text._ZN3Upp5ArrayI12TemplateItemE3AddEv,"axG",@progbits,_ZN3Upp5ArrayI12TemplateItemE3AddEv,comdat
	.align 2
	.weak	_ZN3Upp5ArrayI12TemplateItemE3AddEv
	.type	_ZN3Upp5ArrayI12TemplateItemE3AddEv, @function
_ZN3Upp5ArrayI12TemplateItemE3AddEv:
.LFB8997:
	pushq	%rbp
.LCFI897:
	movq	%rsp, %rbp
.LCFI898:
	pushq	%rbx
.LCFI899:
	subq	$24, %rsp
.LCFI900:
	movq	%rdi, -32(%rbp)
	movl	$72, %edi
	call	_Znwm
	movq	%rax, %rbx
	movq	%rbx, %rdi
	call	_ZN12TemplateItemC1Ev
	movq	%rbx, -16(%rbp)
	movq	-16(%rbp), %rax
	movq	%rax, -24(%rbp)
	movq	-32(%rbp), %rdi
	addq	$8, %rdi
	leaq	-24(%rbp), %rsi
	call	_ZN3Upp6VectorIPvE3AddERKS1_
	movq	-16(%rbp), %rax
	addq	$24, %rsp
	popq	%rbx
	leave
	ret
.LFE8997:
	.size	_ZN3Upp5ArrayI12TemplateItemE3AddEv, .-_ZN3Upp5ArrayI12TemplateItemE3AddEv
	.section	.text._ZN3Upp5ArrayI12FileTemplateE3AddEv,"axG",@progbits,_ZN3Upp5ArrayI12FileTemplateE3AddEv,comdat
	.align 2
	.weak	_ZN3Upp5ArrayI12FileTemplateE3AddEv
	.type	_ZN3Upp5ArrayI12FileTemplateE3AddEv, @function
_ZN3Upp5ArrayI12FileTemplateE3AddEv:
.LFB9001:
	pushq	%rbp
.LCFI901:
	movq	%rsp, %rbp
.LCFI902:
	pushq	%rbx
.LCFI903:
	subq	$24, %rsp
.LCFI904:
	movq	%rdi, -32(%rbp)
	movl	$48, %edi
	call	_Znwm
	movq	%rax, %rbx
	movq	%rbx, %rdi
	call	_ZN12FileTemplateC1Ev
	movq	%rbx, -16(%rbp)
	movq	-16(%rbp), %rax
	movq	%rax, -24(%rbp)
	movq	-32(%rbp), %rdi
	addq	$8, %rdi
	leaq	-24(%rbp), %rsi
	call	_ZN3Upp6VectorIPvE3AddERKS1_
	movq	-16(%rbp), %rax
	addq	$24, %rsp
	popq	%rbx
	leave
	ret
.LFE9001:
	.size	_ZN3Upp5ArrayI12FileTemplateE3AddEv, .-_ZN3Upp5ArrayI12FileTemplateE3AddEv
	.section	.text._ZN3Upp6VectorINS_6StringEE4GrowEv,"axG",@progbits,_ZN3Upp6VectorINS_6StringEE4GrowEv,comdat
	.align 2
	.weak	_ZN3Upp6VectorINS_6StringEE4GrowEv
	.type	_ZN3Upp6VectorINS_6StringEE4GrowEv, @function
_ZN3Upp6VectorINS_6StringEE4GrowEv:
.LFB9828:
	pushq	%rbp
.LCFI905:
	movq	%rsp, %rbp
.LCFI906:
	subq	$16, %rsp
.LCFI907:
	movq	%rdi, -8(%rbp)
	movq	-8(%rbp), %rdi
	movl	$16, %esi
	call	_ZN3Upp11VectorGrow_EPvi
	leave
	ret
.LFE9828:
	.size	_ZN3Upp6VectorINS_6StringEE4GrowEv, .-_ZN3Upp6VectorINS_6StringEE4GrowEv
	.section	.text._ZN3Upp6VectorINS_6StringEE7GrowAddERKS1_,"axG",@progbits,_ZN3Upp6VectorINS_6StringEE7GrowAddERKS1_,comdat
	.align 2
	.weak	_ZN3Upp6VectorINS_6StringEE7GrowAddERKS1_
	.type	_ZN3Upp6VectorINS_6StringEE7GrowAddERKS1_, @function
_ZN3Upp6VectorINS_6StringEE7GrowAddERKS1_:
.LFB9424:
	pushq	%rbp
.LCFI908:
	movq	%rsp, %rbp
.LCFI909:
	subq	$32, %rsp
.LCFI910:
	movq	%rdi, -24(%rbp)
	movq	%rsi, -32(%rbp)
	movq	-24(%rbp), %rax
	movq	(%rax), %rax
	movq	%rax, -8(%rbp)
	movq	-24(%rbp), %rdi
	call	_ZN3Upp6VectorINS_6StringEE4GrowEv
	movq	-24(%rbp), %rdi
	call	_ZN3Upp6VectorINS_6StringEE3RddEv
	movq	%rax, %rdi
	movq	-32(%rbp), %rsi
	call	_ZN3Upp17DeepCopyConstructINS_6StringEEEvPvRKT_
	movq	-8(%rbp), %rdi
	call	_ZN3Upp6VectorINS_6StringEE7RawFreeEPS1_
	leave
	ret
.LFE9424:
	.size	_ZN3Upp6VectorINS_6StringEE7GrowAddERKS1_, .-_ZN3Upp6VectorINS_6StringEE7GrowAddERKS1_
	.section	.text._ZN3Upp6VectorINS_6StringEE3AddERKS1_,"axG",@progbits,_ZN3Upp6VectorINS_6StringEE3AddERKS1_,comdat
	.align 2
	.weak	_ZN3Upp6VectorINS_6StringEE3AddERKS1_
	.type	_ZN3Upp6VectorINS_6StringEE3AddERKS1_, @function
_ZN3Upp6VectorINS_6StringEE3AddERKS1_:
.LFB8658:
	pushq	%rbp
.LCFI911:
	movq	%rsp, %rbp
.LCFI912:
	subq	$16, %rsp
.LCFI913:
	movq	%rdi, -8(%rbp)
	movq	%rsi, -16(%rbp)
	movq	-8(%rbp), %rdi
	call	_ZNK3Upp6VectorINS_6StringEE3ChkEv
	movq	-8(%rbp), %rax
	movl	8(%rax), %edx
	movq	-8(%rbp), %rax
	movl	12(%rax), %eax
	cmpl	%eax, %edx
	jge	.L1052
	movq	-8(%rbp), %rdi
	call	_ZN3Upp6VectorINS_6StringEE3RddEv
	movq	%rax, %rdi
	movq	-16(%rbp), %rsi
	call	_ZN3Upp17DeepCopyConstructINS_6StringEEEvPvRKT_
	jmp	.L1055
.L1052:
	movq	-16(%rbp), %rsi
	movq	-8(%rbp), %rdi
	call	_ZN3Upp6VectorINS_6StringEE7GrowAddERKS1_
.L1055:
	leave
	ret
.LFE8658:
	.size	_ZN3Upp6VectorINS_6StringEE3AddERKS1_, .-_ZN3Upp6VectorINS_6StringEE3AddERKS1_
	.section	.text._ZN3Upp7AStringINS_7String0EE3CatEPKci,"axG",@progbits,_ZN3Upp7AStringINS_7String0EE3CatEPKci,comdat
	.align 2
	.weak	_ZN3Upp7AStringINS_7String0EE3CatEPKci
	.type	_ZN3Upp7AStringINS_7String0EE3CatEPKci, @function
_ZN3Upp7AStringINS_7String0EE3CatEPKci:
.LFB8638:
	pushq	%rbp
.LCFI914:
	movq	%rsp, %rbp
.LCFI915:
	subq	$32, %rsp
.LCFI916:
	movq	%rdi, -8(%rbp)
	movq	%rsi, -16(%rbp)
	movl	%edx, -20(%rbp)
	movq	-8(%rbp), %rdi
	movl	-20(%rbp), %edx
	movq	-16(%rbp), %rsi
	call	_ZN3Upp7String03CatEPKci
	leave
	ret
.LFE8638:
	.size	_ZN3Upp7AStringINS_7String0EE3CatEPKci, .-_ZN3Upp7AStringINS_7String0EE3CatEPKci
	.section	.text._ZN3Upp7AStringINS_7String0EE3CatERKNS_6StringE,"axG",@progbits,_ZN3Upp7AStringINS_7String0EE3CatERKNS_6StringE,comdat
	.align 2
	.weak	_ZN3Upp7AStringINS_7String0EE3CatERKNS_6StringE
	.type	_ZN3Upp7AStringINS_7String0EE3CatERKNS_6StringE, @function
_ZN3Upp7AStringINS_7String0EE3CatERKNS_6StringE:
.LFB8007:
	pushq	%rbp
.LCFI917:
	movq	%rsp, %rbp
.LCFI918:
	pushq	%rbx
.LCFI919:
	subq	$24, %rsp
.LCFI920:
	movq	%rdi, -16(%rbp)
	movq	%rsi, -24(%rbp)
	movq	-24(%rbp), %rdi
	call	_ZNK3Upp7AStringINS_7String0EE9GetLengthEv
	movl	%eax, %ebx
	movq	-24(%rbp), %rdi
	call	_ZNK3Upp7AStringINS_7String0EEcoEv
	movq	%rax, %rsi
	movq	-16(%rbp), %rdi
	movl	%ebx, %edx
	call	_ZN3Upp7AStringINS_7String0EE3CatEPKci
	addq	$24, %rsp
	popq	%rbx
	leave
	ret
.LFE8007:
	.size	_ZN3Upp7AStringINS_7String0EE3CatERKNS_6StringE, .-_ZN3Upp7AStringINS_7String0EE3CatERKNS_6StringE
	.section	.text._ZN3Upp6StringpLERKS0_,"axG",@progbits,_ZN3Upp6StringpLERKS0_,comdat
	.align 2
	.weak	_ZN3Upp6StringpLERKS0_
	.type	_ZN3Upp6StringpLERKS0_, @function
_ZN3Upp6StringpLERKS0_:
.LFB1269:
	pushq	%rbp
.LCFI921:
	movq	%rsp, %rbp
.LCFI922:
	subq	$16, %rsp
.LCFI923:
	movq	%rdi, -8(%rbp)
	movq	%rsi, -16(%rbp)
	movq	-8(%rbp), %rdi
	movq	-16(%rbp), %rsi
	call	_ZN3Upp7AStringINS_7String0EE3CatERKNS_6StringE
	movq	-8(%rbp), %rax
	leave
	ret
.LFE1269:
	.size	_ZN3Upp6StringpLERKS0_, .-_ZN3Upp6StringpLERKS0_
	.section	.text._ZN3UppplEPKcRKNS_6StringE,"axG",@progbits,_ZN3UppplEPKcRKNS_6StringE,comdat
	.align 2
	.weak	_ZN3UppplEPKcRKNS_6StringE
	.type	_ZN3UppplEPKcRKNS_6StringE, @function
_ZN3UppplEPKcRKNS_6StringE:
.LFB8656:
	pushq	%rbp
.LCFI924:
	movq	%rsp, %rbp
.LCFI925:
	pushq	%rbx
.LCFI926:
	subq	$72, %rsp
.LCFI927:
	movq	%rdi, -72(%rbp)
	movq	%rsi, -56(%rbp)
	movq	%rdx, -64(%rbp)
	movq	%fs:40, %rax
	movq	%rax, -24(%rbp)
	xorl	%eax, %eax
	movq	-72(%rbp), %rdi
	movq	-56(%rbp), %rsi
.LEHB54:
	call	_ZN3Upp6StringC1EPKc
.LEHE54:
	movq	-72(%rbp), %rdi
	movq	-64(%rbp), %rsi
.LEHB55:
	call	_ZN3Upp6StringpLERKS0_
.LEHE55:
	jmp	.L1062
.L1066:
	movq	%rax, -80(%rbp)
.L1063:
	movq	-80(%rbp), %rbx
	movq	-72(%rbp), %rdi
	call	_ZN3Upp6StringD1Ev
	movq	%rbx, -80(%rbp)
	movq	-80(%rbp), %rdi
.LEHB56:
	call	_Unwind_Resume
.LEHE56:
.L1062:
	movq	-72(%rbp), %rax
	movq	-24(%rbp), %rdx
	xorq	%fs:40, %rdx
	je	.L1065
	call	__stack_chk_fail
.L1065:
	addq	$72, %rsp
	popq	%rbx
	leave
	ret
.LFE8656:
	.size	_ZN3UppplEPKcRKNS_6StringE, .-_ZN3UppplEPKcRKNS_6StringE
	.section	.gcc_except_table
.LLSDA8656:
	.byte	0xff
	.byte	0xff
	.byte	0x1
	.uleb128 .LLSDACSE8656-.LLSDACSB8656
.LLSDACSB8656:
	.uleb128 .LEHB54-.LFB8656
	.uleb128 .LEHE54-.LEHB54
	.uleb128 0x0
	.uleb128 0x0
	.uleb128 .LEHB55-.LFB8656
	.uleb128 .LEHE55-.LEHB55
	.uleb128 .L1066-.LFB8656
	.uleb128 0x0
	.uleb128 .LEHB56-.LFB8656
	.uleb128 .LEHE56-.LEHB56
	.uleb128 0x0
	.uleb128 0x0
.LLSDACSE8656:
	.section	.text._ZN3UppplEPKcRKNS_6StringE,"axG",@progbits,_ZN3UppplEPKcRKNS_6StringE,comdat
	.section	.text._ZN3UppplERKNS_6StringES2_,"axG",@progbits,_ZN3UppplERKNS_6StringES2_,comdat
	.align 2
	.weak	_ZN3UppplERKNS_6StringES2_
	.type	_ZN3UppplERKNS_6StringES2_, @function
_ZN3UppplERKNS_6StringES2_:
.LFB9094:
	pushq	%rbp
.LCFI928:
	movq	%rsp, %rbp
.LCFI929:
	pushq	%rbx
.LCFI930:
	subq	$72, %rsp
.LCFI931:
	movq	%rdi, -72(%rbp)
	movq	%rsi, -56(%rbp)
	movq	%rdx, -64(%rbp)
	movq	%fs:40, %rax
	movq	%rax, -24(%rbp)
	xorl	%eax, %eax
	movq	-72(%rbp), %rdi
	movq	-56(%rbp), %rsi
.LEHB57:
	call	_ZN3Upp6StringC1ERKS0_
.LEHE57:
	movq	-72(%rbp), %rdi
	movq	-64(%rbp), %rsi
.LEHB58:
	call	_ZN3Upp6StringpLERKS0_
.LEHE58:
	jmp	.L1067
.L1071:
	movq	%rax, -80(%rbp)
.L1068:
	movq	-80(%rbp), %rbx
	movq	-72(%rbp), %rdi
	call	_ZN3Upp6StringD1Ev
	movq	%rbx, -80(%rbp)
	movq	-80(%rbp), %rdi
.LEHB59:
	call	_Unwind_Resume
.LEHE59:
.L1067:
	movq	-72(%rbp), %rax
	movq	-24(%rbp), %rdx
	xorq	%fs:40, %rdx
	je	.L1070
	call	__stack_chk_fail
.L1070:
	addq	$72, %rsp
	popq	%rbx
	leave
	ret
.LFE9094:
	.size	_ZN3UppplERKNS_6StringES2_, .-_ZN3UppplERKNS_6StringES2_
	.section	.gcc_except_table
.LLSDA9094:
	.byte	0xff
	.byte	0xff
	.byte	0x1
	.uleb128 .LLSDACSE9094-.LLSDACSB9094
.LLSDACSB9094:
	.uleb128 .LEHB57-.LFB9094
	.uleb128 .LEHE57-.LEHB57
	.uleb128 0x0
	.uleb128 0x0
	.uleb128 .LEHB58-.LFB9094
	.uleb128 .LEHE58-.LEHB58
	.uleb128 .L1071-.LFB9094
	.uleb128 0x0
	.uleb128 .LEHB59-.LFB9094
	.uleb128 .LEHE59-.LEHB59
	.uleb128 0x0
	.uleb128 0x0
.LLSDACSE9094:
	.section	.text._ZN3UppplERKNS_6StringES2_,"axG",@progbits,_ZN3UppplERKNS_6StringES2_,comdat
	.section	.text._ZN3UpplsERNS_6StringERKS0_,"axG",@progbits,_ZN3UpplsERNS_6StringERKS0_,comdat
	.align 2
	.weak	_ZN3UpplsERNS_6StringERKS0_
	.type	_ZN3UpplsERNS_6StringERKS0_, @function
_ZN3UpplsERNS_6StringERKS0_:
.LFB1356:
	pushq	%rbp
.LCFI932:
	movq	%rsp, %rbp
.LCFI933:
	subq	$16, %rsp
.LCFI934:
	movq	%rdi, -8(%rbp)
	movq	%rsi, -16(%rbp)
	movq	-8(%rbp), %rdi
	movq	-16(%rbp), %rsi
	call	_ZN3Upp7AStringINS_7String0EE3CatERKNS_6StringE
	movq	-8(%rbp), %rax
	leave
	ret
.LFE1356:
	.size	_ZN3UpplsERNS_6StringERKS0_, .-_ZN3UpplsERNS_6StringERKS0_
	.section	.text._ZN3Upp7AStringINS_7String0EE3CatEPKc,"axG",@progbits,_ZN3Upp7AStringINS_7String0EE3CatEPKc,comdat
	.align 2
	.weak	_ZN3Upp7AStringINS_7String0EE3CatEPKc
	.type	_ZN3Upp7AStringINS_7String0EE3CatEPKc, @function
_ZN3Upp7AStringINS_7String0EE3CatEPKc:
.LFB8006:
	pushq	%rbp
.LCFI935:
	movq	%rsp, %rbp
.LCFI936:
	subq	$16, %rsp
.LCFI937:
	movq	%rdi, -8(%rbp)
	movq	%rsi, -16(%rbp)
	movq	-16(%rbp), %rdi
	call	_ZN3Upp8strlen__EPKc
	movq	-16(%rbp), %rsi
	movq	-8(%rbp), %rdi
	movl	%eax, %edx
	call	_ZN3Upp7AStringINS_7String0EE3CatEPKci
	leave
	ret
.LFE8006:
	.size	_ZN3Upp7AStringINS_7String0EE3CatEPKc, .-_ZN3Upp7AStringINS_7String0EE3CatEPKc
	.section	.text._ZN3Upp6StringpLEPKc,"axG",@progbits,_ZN3Upp6StringpLEPKc,comdat
	.align 2
	.weak	_ZN3Upp6StringpLEPKc
	.type	_ZN3Upp6StringpLEPKc, @function
_ZN3Upp6StringpLEPKc:
.LFB1268:
	pushq	%rbp
.LCFI938:
	movq	%rsp, %rbp
.LCFI939:
	subq	$16, %rsp
.LCFI940:
	movq	%rdi, -8(%rbp)
	movq	%rsi, -16(%rbp)
	movq	-8(%rbp), %rdi
	movq	-16(%rbp), %rsi
	call	_ZN3Upp7AStringINS_7String0EE3CatEPKc
	movq	-8(%rbp), %rax
	leave
	ret
.LFE1268:
	.size	_ZN3Upp6StringpLEPKc, .-_ZN3Upp6StringpLEPKc
	.section	.text._ZN3UppplERKNS_6StringEPKc,"axG",@progbits,_ZN3UppplERKNS_6StringEPKc,comdat
	.align 2
	.weak	_ZN3UppplERKNS_6StringEPKc
	.type	_ZN3UppplERKNS_6StringEPKc, @function
_ZN3UppplERKNS_6StringEPKc:
.LFB8657:
	pushq	%rbp
.LCFI941:
	movq	%rsp, %rbp
.LCFI942:
	pushq	%rbx
.LCFI943:
	subq	$72, %rsp
.LCFI944:
	movq	%rdi, -72(%rbp)
	movq	%rsi, -56(%rbp)
	movq	%rdx, -64(%rbp)
	movq	%fs:40, %rax
	movq	%rax, -24(%rbp)
	xorl	%eax, %eax
	movq	-72(%rbp), %rdi
	movq	-56(%rbp), %rsi
.LEHB60:
	call	_ZN3Upp6StringC1ERKS0_
.LEHE60:
	movq	-72(%rbp), %rdi
	movq	-64(%rbp), %rsi
.LEHB61:
	call	_ZN3Upp6StringpLEPKc
.LEHE61:
	jmp	.L1078
.L1082:
	movq	%rax, -80(%rbp)
.L1079:
	movq	-80(%rbp), %rbx
	movq	-72(%rbp), %rdi
	call	_ZN3Upp6StringD1Ev
	movq	%rbx, -80(%rbp)
	movq	-80(%rbp), %rdi
.LEHB62:
	call	_Unwind_Resume
.LEHE62:
.L1078:
	movq	-72(%rbp), %rax
	movq	-24(%rbp), %rdx
	xorq	%fs:40, %rdx
	je	.L1081
	call	__stack_chk_fail
.L1081:
	addq	$72, %rsp
	popq	%rbx
	leave
	ret
.LFE8657:
	.size	_ZN3UppplERKNS_6StringEPKc, .-_ZN3UppplERKNS_6StringEPKc
	.section	.gcc_except_table
.LLSDA8657:
	.byte	0xff
	.byte	0xff
	.byte	0x1
	.uleb128 .LLSDACSE8657-.LLSDACSB8657
.LLSDACSB8657:
	.uleb128 .LEHB60-.LFB8657
	.uleb128 .LEHE60-.LEHB60
	.uleb128 0x0
	.uleb128 0x0
	.uleb128 .LEHB61-.LFB8657
	.uleb128 .LEHE61-.LEHB61
	.uleb128 .L1082-.LFB8657
	.uleb128 0x0
	.uleb128 .LEHB62-.LFB8657
	.uleb128 .LEHE62-.LEHB62
	.uleb128 0x0
	.uleb128 0x0
.LLSDACSE8657:
	.section	.text._ZN3UppplERKNS_6StringEPKc,"axG",@progbits,_ZN3UppplERKNS_6StringEPKc,comdat
	.section	.text._ZN3UpplsERNS_6StringEPKc,"axG",@progbits,_ZN3UpplsERNS_6StringEPKc,comdat
	.align 2
	.weak	_ZN3UpplsERNS_6StringEPKc
	.type	_ZN3UpplsERNS_6StringEPKc, @function
_ZN3UpplsERNS_6StringEPKc:
.LFB1354:
	pushq	%rbp
.LCFI945:
	movq	%rsp, %rbp
.LCFI946:
	subq	$16, %rsp
.LCFI947:
	movq	%rdi, -8(%rbp)
	movq	%rsi, -16(%rbp)
	movq	-8(%rbp), %rdi
	movq	-16(%rbp), %rsi
	call	_ZN3Upp7AStringINS_7String0EE3CatEPKc
	movq	-8(%rbp), %rax
	leave
	ret
.LFE1354:
	.size	_ZN3UpplsERNS_6StringEPKc, .-_ZN3UpplsERNS_6StringEPKc
	.section	.text._ZN3Upp8FindFileD1Ev,"axG",@progbits,_ZN3Upp8FindFileD1Ev,comdat
	.align 2
	.weak	_ZN3Upp8FindFileD1Ev
	.type	_ZN3Upp8FindFileD1Ev, @function
_ZN3Upp8FindFileD1Ev:
.LFB1614:
	pushq	%rbp
.LCFI948:
	movq	%rsp, %rbp
.LCFI949:
	pushq	%rbx
.LCFI950:
	subq	$40, %rsp
.LCFI951:
	movq	%rdi, -16(%rbp)
	movq	-16(%rbp), %rdi
.LEHB63:
	call	_ZN3Upp8FindFile5CloseEv
.LEHE63:
	movq	-16(%rbp), %rax
	addq	$200, %rax
	movq	%rax, -40(%rbp)
	movq	-40(%rbp), %rdi
	call	_ZN3Upp6StringD1Ev
	movq	-16(%rbp), %rax
	addq	$184, %rax
	movq	%rax, -32(%rbp)
	movq	-32(%rbp), %rdi
	call	_ZN3Upp6StringD1Ev
	movq	-16(%rbp), %rax
	addq	$168, %rax
	movq	%rax, -24(%rbp)
	movq	-24(%rbp), %rdi
	call	_ZN3Upp6StringD1Ev
	jmp	.L1090
.L1091:
	movq	%rax, -48(%rbp)
.L1087:
	movq	-48(%rbp), %rbx
	movq	-16(%rbp), %rax
	addq	$200, %rax
	movq	%rax, -40(%rbp)
	movq	-40(%rbp), %rdi
	call	_ZN3Upp6StringD1Ev
	movq	%rbx, -48(%rbp)
.L1092:
.L1088:
	movq	-48(%rbp), %rbx
	movq	-16(%rbp), %rax
	addq	$184, %rax
	movq	%rax, -32(%rbp)
	movq	-32(%rbp), %rdi
	call	_ZN3Upp6StringD1Ev
	movq	%rbx, -48(%rbp)
.L1093:
.L1089:
	movq	-48(%rbp), %rbx
	movq	-16(%rbp), %rax
	addq	$168, %rax
	movq	%rax, -24(%rbp)
	movq	-24(%rbp), %rdi
	call	_ZN3Upp6StringD1Ev
	movq	%rbx, -48(%rbp)
	movq	-48(%rbp), %rdi
.LEHB64:
	call	_Unwind_Resume
.LEHE64:
.L1090:
	addq	$40, %rsp
	popq	%rbx
	leave
	ret
.LFE1614:
	.size	_ZN3Upp8FindFileD1Ev, .-_ZN3Upp8FindFileD1Ev
	.section	.gcc_except_table
.LLSDA1614:
	.byte	0xff
	.byte	0xff
	.byte	0x1
	.uleb128 .LLSDACSE1614-.LLSDACSB1614
.LLSDACSB1614:
	.uleb128 .LEHB63-.LFB1614
	.uleb128 .LEHE63-.LEHB63
	.uleb128 .L1091-.LFB1614
	.uleb128 0x0
	.uleb128 .LEHB64-.LFB1614
	.uleb128 .LEHE64-.LEHB64
	.uleb128 0x0
	.uleb128 0x0
.LLSDACSE1614:
	.section	.text._ZN3Upp8FindFileD1Ev,"axG",@progbits,_ZN3Upp8FindFileD1Ev,comdat
	.section	.text._ZN3Upp5ArrayINS_8EscValueEE4FreeEv,"axG",@progbits,_ZN3Upp5ArrayINS_8EscValueEE4FreeEv,comdat
	.align 2
	.weak	_ZN3Upp5ArrayINS_8EscValueEE4FreeEv
	.type	_ZN3Upp5ArrayINS_8EscValueEE4FreeEv, @function
_ZN3Upp5ArrayINS_8EscValueEE4FreeEv:
.LFB9399:
	pushq	%rbp
.LCFI952:
	movq	%rsp, %rbp
.LCFI953:
	subq	$32, %rsp
.LCFI954:
	movq	%rdi, -24(%rbp)
	movq	-24(%rbp), %rdi
	call	_ZNK3Upp5ArrayINS_8EscValueEE8IsPickedEv
	testb	%al, %al
	jne	.L1101
	movl	$0, -4(%rbp)
	jmp	.L1097
.L1098:
	movq	-24(%rbp), %rdi
	addq	$8, %rdi
	movl	-4(%rbp), %esi
	call	_ZN3Upp6VectorIPvEixEi
	movq	(%rax), %rax
	movq	%rax, -32(%rbp)
	cmpq	$0, -32(%rbp)
	je	.L1099
	movq	-32(%rbp), %rdi
	call	_ZN3Upp8EscValueD1Ev
	movq	-32(%rbp), %rdi
	call	_ZdlPv
.L1099:
	addl	$1, -4(%rbp)
.L1097:
	movq	-24(%rbp), %rdi
	addq	$8, %rdi
	call	_ZNK3Upp6VectorIPvE8GetCountEv
	cmpl	-4(%rbp), %eax
	setg	%al
	testb	%al, %al
	jne	.L1098
.L1101:
	leave
	ret
.LFE9399:
	.size	_ZN3Upp5ArrayINS_8EscValueEE4FreeEv, .-_ZN3Upp5ArrayINS_8EscValueEE4FreeEv
	.section	.text._ZN3Upp5ArrayINS_8EscValueEED1Ev,"axG",@progbits,_ZN3Upp5ArrayINS_8EscValueEED1Ev,comdat
	.align 2
	.weak	_ZN3Upp5ArrayINS_8EscValueEED1Ev
	.type	_ZN3Upp5ArrayINS_8EscValueEED1Ev, @function
_ZN3Upp5ArrayINS_8EscValueEED1Ev:
.LFB8610:
	pushq	%rbp
.LCFI955:
	movq	%rsp, %rbp
.LCFI956:
	pushq	%rbx
.LCFI957:
	subq	$24, %rsp
.LCFI958:
	movq	%rdi, -16(%rbp)
	movq	-16(%rbp), %rdi
.LEHB65:
	call	_ZN3Upp5ArrayINS_8EscValueEE4FreeEv
.LEHE65:
	movq	-16(%rbp), %rax
	addq	$8, %rax
	movq	%rax, -24(%rbp)
	movq	-24(%rbp), %rdi
.LEHB66:
	call	_ZN3Upp6VectorIPvED1Ev
.LEHE66:
	jmp	.L1105
.L1106:
	movq	%rax, -32(%rbp)
.L1104:
	movq	-32(%rbp), %rbx
	movq	-16(%rbp), %rax
	addq	$8, %rax
	movq	%rax, -24(%rbp)
	movq	-24(%rbp), %rdi
	call	_ZN3Upp6VectorIPvED1Ev
	movq	%rbx, -32(%rbp)
	movq	-32(%rbp), %rdi
.LEHB67:
	call	_Unwind_Resume
.LEHE67:
.L1105:
	addq	$24, %rsp
	popq	%rbx
	leave
	ret
.LFE8610:
	.size	_ZN3Upp5ArrayINS_8EscValueEED1Ev, .-_ZN3Upp5ArrayINS_8EscValueEED1Ev
	.section	.gcc_except_table
.LLSDA8610:
	.byte	0xff
	.byte	0xff
	.byte	0x1
	.uleb128 .LLSDACSE8610-.LLSDACSB8610
.LLSDACSB8610:
	.uleb128 .LEHB65-.LFB8610
	.uleb128 .LEHE65-.LEHB65
	.uleb128 .L1106-.LFB8610
	.uleb128 0x0
	.uleb128 .LEHB66-.LFB8610
	.uleb128 .LEHE66-.LEHB66
	.uleb128 0x0
	.uleb128 0x0
	.uleb128 .LEHB67-.LFB8610
	.uleb128 .LEHE67-.LEHB67
	.uleb128 0x0
	.uleb128 0x0
.LLSDACSE8610:
	.section	.text._ZN3Upp5ArrayINS_8EscValueEED1Ev,"axG",@progbits,_ZN3Upp5ArrayINS_8EscValueEED1Ev,comdat
	.section	.text._ZN3Upp6AIndexINS_6StringENS_6VectorIS1_EENS_7StdHashIS1_EEEC2Ev,"axG",@progbits,_ZN3Upp6AIndexINS_6StringENS_6VectorIS1_EENS_7StdHashIS1_EEEC2Ev,comdat
	.align 2
	.weak	_ZN3Upp6AIndexINS_6StringENS_6VectorIS1_EENS_7StdHashIS1_EEEC2Ev
	.type	_ZN3Upp6AIndexINS_6StringENS_6VectorIS1_EENS_7StdHashIS1_EEEC2Ev, @function
_ZN3Upp6AIndexINS_6StringENS_6VectorIS1_EENS_7StdHashIS1_EEEC2Ev:
.LFB9439:
	pushq	%rbp
.LCFI959:
	movq	%rsp, %rbp
.LCFI960:
	pushq	%rbx
.LCFI961:
	subq	$24, %rsp
.LCFI962:
	movq	%rdi, -16(%rbp)
	movq	-16(%rbp), %rdi
	call	_ZN3Upp6VectorINS_6StringEEC1Ev
	movq	-16(%rbp), %rdi
	addq	$16, %rdi
.LEHB68:
	call	_ZN3Upp8HashBaseC1Ev
.LEHE68:
	jmp	.L1109
.L1110:
	movq	%rax, -24(%rbp)
.L1108:
	movq	-24(%rbp), %rbx
	movq	-16(%rbp), %rdi
	call	_ZN3Upp6VectorINS_6StringEED1Ev
	movq	%rbx, -24(%rbp)
	movq	-24(%rbp), %rdi
.LEHB69:
	call	_Unwind_Resume
.LEHE69:
.L1109:
	addq	$24, %rsp
	popq	%rbx
	leave
	ret
.LFE9439:
	.size	_ZN3Upp6AIndexINS_6StringENS_6VectorIS1_EENS_7StdHashIS1_EEEC2Ev, .-_ZN3Upp6AIndexINS_6StringENS_6VectorIS1_EENS_7StdHashIS1_EEEC2Ev
	.section	.gcc_except_table
.LLSDA9439:
	.byte	0xff
	.byte	0xff
	.byte	0x1
	.uleb128 .LLSDACSE9439-.LLSDACSB9439
.LLSDACSB9439:
	.uleb128 .LEHB68-.LFB9439
	.uleb128 .LEHE68-.LEHB68
	.uleb128 .L1110-.LFB9439
	.uleb128 0x0
	.uleb128 .LEHB69-.LFB9439
	.uleb128 .LEHE69-.LEHB69
	.uleb128 0x0
	.uleb128 0x0
.LLSDACSE9439:
	.section	.text._ZN3Upp6AIndexINS_6StringENS_6VectorIS1_EENS_7StdHashIS1_EEEC2Ev,"axG",@progbits,_ZN3Upp6AIndexINS_6StringENS_6VectorIS1_EENS_7StdHashIS1_EEEC2Ev,comdat
	.section	.text._ZN3Upp5IndexINS_6StringENS_7StdHashIS1_EEEC1Ev,"axG",@progbits,_ZN3Upp5IndexINS_6StringENS_7StdHashIS1_EEEC1Ev,comdat
	.align 2
	.weak	_ZN3Upp5IndexINS_6StringENS_7StdHashIS1_EEEC1Ev
	.type	_ZN3Upp5IndexINS_6StringENS_7StdHashIS1_EEEC1Ev, @function
_ZN3Upp5IndexINS_6StringENS_7StdHashIS1_EEEC1Ev:
.LFB8679:
	pushq	%rbp
.LCFI963:
	movq	%rsp, %rbp
.LCFI964:
	subq	$16, %rsp
.LCFI965:
	movq	%rdi, -8(%rbp)
	movq	-8(%rbp), %rdi
	call	_ZN3Upp25MoveableAndDeepCopyOptionINS_5IndexINS_6StringENS_7StdHashIS2_EEEENS_10EmptyClassEEC2Ev
	movq	-8(%rbp), %rdi
	addq	$8, %rdi
	call	_ZN3Upp6AIndexINS_6StringENS_6VectorIS1_EENS_7StdHashIS1_EEEC2Ev
	leave
	ret
.LFE8679:
	.size	_ZN3Upp5IndexINS_6StringENS_7StdHashIS1_EEEC1Ev, .-_ZN3Upp5IndexINS_6StringENS_7StdHashIS1_EEEC1Ev
	.section	.text._ZN3Upp6AIndexINS_6StringENS_6VectorIS1_EENS_7StdHashIS1_EEED2Ev,"axG",@progbits,_ZN3Upp6AIndexINS_6StringENS_6VectorIS1_EENS_7StdHashIS1_EEED2Ev,comdat
	.align 2
	.weak	_ZN3Upp6AIndexINS_6StringENS_6VectorIS1_EENS_7StdHashIS1_EEED2Ev
	.type	_ZN3Upp6AIndexINS_6StringENS_6VectorIS1_EENS_7StdHashIS1_EEED2Ev, @function
_ZN3Upp6AIndexINS_6StringENS_6VectorIS1_EENS_7StdHashIS1_EEED2Ev:
.LFB4058:
	pushq	%rbp
.LCFI966:
	movq	%rsp, %rbp
.LCFI967:
	pushq	%rbx
.LCFI968:
	subq	$24, %rsp
.LCFI969:
	movq	%rdi, -16(%rbp)
	movq	-16(%rbp), %rdi
	addq	$16, %rdi
.LEHB70:
	call	_ZN3Upp8HashBaseD1Ev
.LEHE70:
	movq	-16(%rbp), %rax
	movq	%rax, -24(%rbp)
	movq	-24(%rbp), %rdi
.LEHB71:
	call	_ZN3Upp6VectorINS_6StringEED1Ev
.LEHE71:
	jmp	.L1116
.L1117:
	movq	%rax, -32(%rbp)
.L1115:
	movq	-32(%rbp), %rbx
	movq	-16(%rbp), %rax
	movq	%rax, -24(%rbp)
	movq	-24(%rbp), %rdi
	call	_ZN3Upp6VectorINS_6StringEED1Ev
	movq	%rbx, -32(%rbp)
	movq	-32(%rbp), %rdi
.LEHB72:
	call	_Unwind_Resume
.LEHE72:
.L1116:
	addq	$24, %rsp
	popq	%rbx
	leave
	ret
.LFE4058:
	.size	_ZN3Upp6AIndexINS_6StringENS_6VectorIS1_EENS_7StdHashIS1_EEED2Ev, .-_ZN3Upp6AIndexINS_6StringENS_6VectorIS1_EENS_7StdHashIS1_EEED2Ev
	.section	.gcc_except_table
.LLSDA4058:
	.byte	0xff
	.byte	0xff
	.byte	0x1
	.uleb128 .LLSDACSE4058-.LLSDACSB4058
.LLSDACSB4058:
	.uleb128 .LEHB70-.LFB4058
	.uleb128 .LEHE70-.LEHB70
	.uleb128 .L1117-.LFB4058
	.uleb128 0x0
	.uleb128 .LEHB71-.LFB4058
	.uleb128 .LEHE71-.LEHB71
	.uleb128 0x0
	.uleb128 0x0
	.uleb128 .LEHB72-.LFB4058
	.uleb128 .LEHE72-.LEHB72
	.uleb128 0x0
	.uleb128 0x0
.LLSDACSE4058:
	.section	.text._ZN3Upp6AIndexINS_6StringENS_6VectorIS1_EENS_7StdHashIS1_EEED2Ev,"axG",@progbits,_ZN3Upp6AIndexINS_6StringENS_6VectorIS1_EENS_7StdHashIS1_EEED2Ev,comdat
	.section	.text._ZN3Upp5IndexINS_6StringENS_7StdHashIS1_EEED1Ev,"axG",@progbits,_ZN3Upp5IndexINS_6StringENS_7StdHashIS1_EEED1Ev,comdat
	.align 2
	.weak	_ZN3Upp5IndexINS_6StringENS_7StdHashIS1_EEED1Ev
	.type	_ZN3Upp5IndexINS_6StringENS_7StdHashIS1_EEED1Ev, @function
_ZN3Upp5IndexINS_6StringENS_7StdHashIS1_EEED1Ev:
.LFB4061:
	pushq	%rbp
.LCFI970:
	movq	%rsp, %rbp
.LCFI971:
	subq	$16, %rsp
.LCFI972:
	movq	%rdi, -8(%rbp)
	movl	$8, %eax
	addq	-8(%rbp), %rax
	movq	%rax, %rdi
	call	_ZN3Upp6AIndexINS_6StringENS_6VectorIS1_EENS_7StdHashIS1_EEED2Ev
	leave
	ret
.LFE4061:
	.size	_ZN3Upp5IndexINS_6StringENS_7StdHashIS1_EEED1Ev, .-_ZN3Upp5IndexINS_6StringENS_7StdHashIS1_EEED1Ev
	.section	.text._ZN3Upp4AMapINS_6StringENS_8EscValueENS_5ArrayIS2_EENS_7StdHashIS1_EEEC2Ev,"axG",@progbits,_ZN3Upp4AMapINS_6StringENS_8EscValueENS_5ArrayIS2_EENS_7StdHashIS1_EEEC2Ev,comdat
	.align 2
	.weak	_ZN3Upp4AMapINS_6StringENS_8EscValueENS_5ArrayIS2_EENS_7StdHashIS1_EEEC2Ev
	.type	_ZN3Upp4AMapINS_6StringENS_8EscValueENS_5ArrayIS2_EENS_7StdHashIS1_EEEC2Ev, @function
_ZN3Upp4AMapINS_6StringENS_8EscValueENS_5ArrayIS2_EENS_7StdHashIS1_EEEC2Ev:
.LFB9397:
	pushq	%rbp
.LCFI973:
	movq	%rsp, %rbp
.LCFI974:
	subq	$16, %rsp
.LCFI975:
	movq	%rdi, -8(%rbp)
	movq	-8(%rbp), %rdi
	call	_ZN3Upp5IndexINS_6StringENS_7StdHashIS1_EEEC1Ev
	movq	-8(%rbp), %rdi
	addq	$88, %rdi
	call	_ZN3Upp5ArrayINS_8EscValueEEC1Ev
	leave
	ret
.LFE9397:
	.size	_ZN3Upp4AMapINS_6StringENS_8EscValueENS_5ArrayIS2_EENS_7StdHashIS1_EEEC2Ev, .-_ZN3Upp4AMapINS_6StringENS_8EscValueENS_5ArrayIS2_EENS_7StdHashIS1_EEEC2Ev
	.section	.text._ZN3Upp8ArrayMapINS_6StringENS_8EscValueENS_7StdHashIS1_EEEC1Ev,"axG",@progbits,_ZN3Upp8ArrayMapINS_6StringENS_8EscValueENS_7StdHashIS1_EEEC1Ev,comdat
	.align 2
	.weak	_ZN3Upp8ArrayMapINS_6StringENS_8EscValueENS_7StdHashIS1_EEEC1Ev
	.type	_ZN3Upp8ArrayMapINS_6StringENS_8EscValueENS_7StdHashIS1_EEEC1Ev, @function
_ZN3Upp8ArrayMapINS_6StringENS_8EscValueENS_7StdHashIS1_EEEC1Ev:
.LFB8607:
	pushq	%rbp
.LCFI976:
	movq	%rsp, %rbp
.LCFI977:
	subq	$16, %rsp
.LCFI978:
	movq	%rdi, -8(%rbp)
	movq	-8(%rbp), %rdi
	call	_ZN3Upp25MoveableAndDeepCopyOptionINS_8ArrayMapINS_6StringENS_8EscValueENS_7StdHashIS2_EEEENS_10EmptyClassEEC2Ev
	movq	-8(%rbp), %rdi
	addq	$8, %rdi
	call	_ZN3Upp4AMapINS_6StringENS_8EscValueENS_5ArrayIS2_EENS_7StdHashIS1_EEEC2Ev
	leave
	ret
.LFE8607:
	.size	_ZN3Upp8ArrayMapINS_6StringENS_8EscValueENS_7StdHashIS1_EEEC1Ev, .-_ZN3Upp8ArrayMapINS_6StringENS_8EscValueENS_7StdHashIS1_EEEC1Ev
	.section	.text._ZN3Upp4AMapINS_6StringENS_8EscValueENS_5ArrayIS2_EENS_7StdHashIS1_EEED2Ev,"axG",@progbits,_ZN3Upp4AMapINS_6StringENS_8EscValueENS_5ArrayIS2_EENS_7StdHashIS1_EEED2Ev,comdat
	.align 2
	.weak	_ZN3Upp4AMapINS_6StringENS_8EscValueENS_5ArrayIS2_EENS_7StdHashIS1_EEED2Ev
	.type	_ZN3Upp4AMapINS_6StringENS_8EscValueENS_5ArrayIS2_EENS_7StdHashIS1_EEED2Ev, @function
_ZN3Upp4AMapINS_6StringENS_8EscValueENS_5ArrayIS2_EENS_7StdHashIS1_EEED2Ev:
.LFB6606:
	pushq	%rbp
.LCFI979:
	movq	%rsp, %rbp
.LCFI980:
	pushq	%rbx
.LCFI981:
	subq	$24, %rsp
.LCFI982:
	movq	%rdi, -16(%rbp)
	movq	-16(%rbp), %rdi
	addq	$88, %rdi
.LEHB73:
	call	_ZN3Upp5ArrayINS_8EscValueEED1Ev
.LEHE73:
	movq	-16(%rbp), %rax
	movq	%rax, -24(%rbp)
	movq	-24(%rbp), %rdi
	call	_ZN3Upp5IndexINS_6StringENS_7StdHashIS1_EEED1Ev
	jmp	.L1128
.L1129:
	movq	%rax, -32(%rbp)
.L1127:
	movq	-32(%rbp), %rbx
	movq	-16(%rbp), %rax
	movq	%rax, -24(%rbp)
	movq	-24(%rbp), %rdi
	call	_ZN3Upp5IndexINS_6StringENS_7StdHashIS1_EEED1Ev
	movq	%rbx, -32(%rbp)
	movq	-32(%rbp), %rdi
.LEHB74:
	call	_Unwind_Resume
.LEHE74:
.L1128:
	addq	$24, %rsp
	popq	%rbx
	leave
	ret
.LFE6606:
	.size	_ZN3Upp4AMapINS_6StringENS_8EscValueENS_5ArrayIS2_EENS_7StdHashIS1_EEED2Ev, .-_ZN3Upp4AMapINS_6StringENS_8EscValueENS_5ArrayIS2_EENS_7StdHashIS1_EEED2Ev
	.section	.gcc_except_table
.LLSDA6606:
	.byte	0xff
	.byte	0xff
	.byte	0x1
	.uleb128 .LLSDACSE6606-.LLSDACSB6606
.LLSDACSB6606:
	.uleb128 .LEHB73-.LFB6606
	.uleb128 .LEHE73-.LEHB73
	.uleb128 .L1129-.LFB6606
	.uleb128 0x0
	.uleb128 .LEHB74-.LFB6606
	.uleb128 .LEHE74-.LEHB74
	.uleb128 0x0
	.uleb128 0x0
.LLSDACSE6606:
	.section	.text._ZN3Upp4AMapINS_6StringENS_8EscValueENS_5ArrayIS2_EENS_7StdHashIS1_EEED2Ev,"axG",@progbits,_ZN3Upp4AMapINS_6StringENS_8EscValueENS_5ArrayIS2_EENS_7StdHashIS1_EEED2Ev,comdat
	.section	.text._ZN3Upp8ArrayMapINS_6StringENS_8EscValueENS_7StdHashIS1_EEED1Ev,"axG",@progbits,_ZN3Upp8ArrayMapINS_6StringENS_8EscValueENS_7StdHashIS1_EEED1Ev,comdat
	.align 2
	.weak	_ZN3Upp8ArrayMapINS_6StringENS_8EscValueENS_7StdHashIS1_EEED1Ev
	.type	_ZN3Upp8ArrayMapINS_6StringENS_8EscValueENS_7StdHashIS1_EEED1Ev, @function
_ZN3Upp8ArrayMapINS_6StringENS_8EscValueENS_7StdHashIS1_EEED1Ev:
.LFB6609:
	pushq	%rbp
.LCFI983:
	movq	%rsp, %rbp
.LCFI984:
	subq	$16, %rsp
.LCFI985:
	movq	%rdi, -8(%rbp)
	movl	$8, %eax
	addq	-8(%rbp), %rax
	movq	%rax, %rdi
	call	_ZN3Upp4AMapINS_6StringENS_8EscValueENS_5ArrayIS2_EENS_7StdHashIS1_EEED2Ev
	leave
	ret
.LFE6609:
	.size	_ZN3Upp8ArrayMapINS_6StringENS_8EscValueENS_7StdHashIS1_EEED1Ev, .-_ZN3Upp8ArrayMapINS_6StringENS_8EscValueENS_7StdHashIS1_EEED1Ev
	.section	.text._ZN3Upp8WString0D2Ev,"axG",@progbits,_ZN3Upp8WString0D2Ev,comdat
	.align 2
	.weak	_ZN3Upp8WString0D2Ev
	.type	_ZN3Upp8WString0D2Ev, @function
_ZN3Upp8WString0D2Ev:
.LFB1402:
	pushq	%rbp
.LCFI986:
	movq	%rsp, %rbp
.LCFI987:
	subq	$16, %rsp
.LCFI988:
	movq	%rdi, -8(%rbp)
	movq	-8(%rbp), %rdi
	call	_ZN3Upp8WString04FreeEv
	leave
	ret
.LFE1402:
	.size	_ZN3Upp8WString0D2Ev, .-_ZN3Upp8WString0D2Ev
	.section	.text._ZN3Upp7AStringINS_8WString0EED2Ev,"axG",@progbits,_ZN3Upp7AStringINS_8WString0EED2Ev,comdat
	.align 2
	.weak	_ZN3Upp7AStringINS_8WString0EED2Ev
	.type	_ZN3Upp7AStringINS_8WString0EED2Ev, @function
_ZN3Upp7AStringINS_8WString0EED2Ev:
.LFB1416:
	pushq	%rbp
.LCFI989:
	movq	%rsp, %rbp
.LCFI990:
	subq	$16, %rsp
.LCFI991:
	movq	%rdi, -8(%rbp)
	movq	-8(%rbp), %rdi
	call	_ZN3Upp8WString0D2Ev
	leave
	ret
.LFE1416:
	.size	_ZN3Upp7AStringINS_8WString0EED2Ev, .-_ZN3Upp7AStringINS_8WString0EED2Ev
	.section	.text._ZN3Upp8MoveableINS_7WStringENS_7AStringINS_8WString0EEEED2Ev,"axG",@progbits,_ZN3Upp8MoveableINS_7WStringENS_7AStringINS_8WString0EEEED2Ev,comdat
	.align 2
	.weak	_ZN3Upp8MoveableINS_7WStringENS_7AStringINS_8WString0EEEED2Ev
	.type	_ZN3Upp8MoveableINS_7WStringENS_7AStringINS_8WString0EEEED2Ev, @function
_ZN3Upp8MoveableINS_7WStringENS_7AStringINS_8WString0EEEED2Ev:
.LFB1418:
	pushq	%rbp
.LCFI992:
	movq	%rsp, %rbp
.LCFI993:
	subq	$16, %rsp
.LCFI994:
	movq	%rdi, -8(%rbp)
	movq	-8(%rbp), %rdi
	call	_ZN3Upp7AStringINS_8WString0EED2Ev
	leave
	ret
.LFE1418:
	.size	_ZN3Upp8MoveableINS_7WStringENS_7AStringINS_8WString0EEEED2Ev, .-_ZN3Upp8MoveableINS_7WStringENS_7AStringINS_8WString0EEEED2Ev
	.section	.text._ZN3Upp7WStringD1Ev,"axG",@progbits,_ZN3Upp7WStringD1Ev,comdat
	.align 2
	.weak	_ZN3Upp7WStringD1Ev
	.type	_ZN3Upp7WStringD1Ev, @function
_ZN3Upp7WStringD1Ev:
.LFB1421:
	pushq	%rbp
.LCFI995:
	movq	%rsp, %rbp
.LCFI996:
	subq	$16, %rsp
.LCFI997:
	movq	%rdi, -8(%rbp)
	movq	-8(%rbp), %rdi
	call	_ZN3Upp8MoveableINS_7WStringENS_7AStringINS_8WString0EEEED2Ev
	leave
	ret
.LFE1421:
	.size	_ZN3Upp7WStringD1Ev, .-_ZN3Upp7WStringD1Ev
	.section	.text._ZN3Upp8EscValueC1ERKNS_6StringE,"axG",@progbits,_ZN3Upp8EscValueC1ERKNS_6StringE,comdat
	.align 2
	.weak	_ZN3Upp8EscValueC1ERKNS_6StringE
	.type	_ZN3Upp8EscValueC1ERKNS_6StringE, @function
_ZN3Upp8EscValueC1ERKNS_6StringE:
.LFB6539:
	pushq	%rbp
.LCFI998:
	movq	%rsp, %rbp
.LCFI999:
	pushq	%rbx
.LCFI1000:
	subq	$56, %rsp
.LCFI1001:
	movq	%rdi, -40(%rbp)
	movq	%rsi, -48(%rbp)
	movq	-40(%rbp), %rdi
	call	_ZN3Upp8MoveableINS_8EscValueENS_10EmptyClassEEC2Ev
	leaq	-32(%rbp), %rdi
	movq	-48(%rbp), %rsi
.LEHB75:
	call	_ZNK3Upp6String9ToWStringEv
.LEHE75:
	leaq	-32(%rbp), %rsi
	movq	-40(%rbp), %rdi
.LEHB76:
	call	_ZN3Upp8EscValue10InitStringERKNS_7WStringE
.LEHE76:
	leaq	-32(%rbp), %rdi
	call	_ZN3Upp7WStringD1Ev
	jmp	.L1147
.L1148:
	movq	%rax, -56(%rbp)
.L1146:
	movq	-56(%rbp), %rbx
	leaq	-32(%rbp), %rdi
	call	_ZN3Upp7WStringD1Ev
	movq	%rbx, -56(%rbp)
	movq	-56(%rbp), %rdi
.LEHB77:
	call	_Unwind_Resume
.LEHE77:
.L1147:
	addq	$56, %rsp
	popq	%rbx
	leave
	ret
.LFE6539:
	.size	_ZN3Upp8EscValueC1ERKNS_6StringE, .-_ZN3Upp8EscValueC1ERKNS_6StringE
	.section	.gcc_except_table
.LLSDA6539:
	.byte	0xff
	.byte	0xff
	.byte	0x1
	.uleb128 .LLSDACSE6539-.LLSDACSB6539
.LLSDACSB6539:
	.uleb128 .LEHB75-.LFB6539
	.uleb128 .LEHE75-.LEHB75
	.uleb128 0x0
	.uleb128 0x0
	.uleb128 .LEHB76-.LFB6539
	.uleb128 .LEHE76-.LEHB76
	.uleb128 .L1148-.LFB6539
	.uleb128 0x0
	.uleb128 .LEHB77-.LFB6539
	.uleb128 .LEHE77-.LEHB77
	.uleb128 0x0
	.uleb128 0x0
.LLSDACSE6539:
	.section	.text._ZN3Upp8EscValueC1ERKNS_6StringE,"axG",@progbits,_ZN3Upp8EscValueC1ERKNS_6StringE,comdat
	.section	.text._ZN3Upp12GetHashValueINS_6StringEEEjRKT_,"axG",@progbits,_ZN3Upp12GetHashValueINS_6StringEEEjRKT_,comdat
	.align 2
	.weak	_ZN3Upp12GetHashValueINS_6StringEEEjRKT_
	.type	_ZN3Upp12GetHashValueINS_6StringEEEjRKT_, @function
_ZN3Upp12GetHashValueINS_6StringEEEjRKT_:
.LFB1366:
	pushq	%rbp
.LCFI1002:
	movq	%rsp, %rbp
.LCFI1003:
	pushq	%rbx
.LCFI1004:
	subq	$8, %rsp
.LCFI1005:
	movq	%rdi, -16(%rbp)
	movq	-16(%rbp), %rdi
	call	_ZNK3Upp7AStringINS_7String0EE9GetLengthEv
	movslq	%eax,%rbx
	movq	-16(%rbp), %rdi
	call	_ZNK3Upp7AStringINS_7String0EEcoEv
	movq	%rax, %rdi
	movq	%rbx, %rsi
	call	_ZN3Upp7memhashEPKvm
	addq	$8, %rsp
	popq	%rbx
	leave
	ret
.LFE1366:
	.size	_ZN3Upp12GetHashValueINS_6StringEEEjRKT_, .-_ZN3Upp12GetHashValueINS_6StringEEEjRKT_
	.section	.text._ZNK3Upp7StdHashINS_6StringEEclERKS1_,"axG",@progbits,_ZNK3Upp7StdHashINS_6StringEEclERKS1_,comdat
	.align 2
	.weak	_ZNK3Upp7StdHashINS_6StringEEclERKS1_
	.type	_ZNK3Upp7StdHashINS_6StringEEclERKS1_, @function
_ZNK3Upp7StdHashINS_6StringEEclERKS1_:
.LFB9451:
	pushq	%rbp
.LCFI1006:
	movq	%rsp, %rbp
.LCFI1007:
	subq	$16, %rsp
.LCFI1008:
	movq	%rdi, -8(%rbp)
	movq	%rsi, -16(%rbp)
	movq	-16(%rbp), %rdi
	call	_ZN3Upp12GetHashValueINS_6StringEEEjRKT_
	leave
	ret
.LFE9451:
	.size	_ZNK3Upp7StdHashINS_6StringEEclERKS1_, .-_ZNK3Upp7StdHashINS_6StringEEclERKS1_
	.section	.text._ZN3Upp6AIndexINS_6StringENS_6VectorIS1_EENS_7StdHashIS1_EEE3AddERKS1_j,"axG",@progbits,_ZN3Upp6AIndexINS_6StringENS_6VectorIS1_EENS_7StdHashIS1_EEE3AddERKS1_j,comdat
	.align 2
	.weak	_ZN3Upp6AIndexINS_6StringENS_6VectorIS1_EENS_7StdHashIS1_EEE3AddERKS1_j
	.type	_ZN3Upp6AIndexINS_6StringENS_6VectorIS1_EENS_7StdHashIS1_EEE3AddERKS1_j, @function
_ZN3Upp6AIndexINS_6StringENS_6VectorIS1_EENS_7StdHashIS1_EEE3AddERKS1_j:
.LFB9464:
	pushq	%rbp
.LCFI1009:
	movq	%rsp, %rbp
.LCFI1010:
	subq	$32, %rsp
.LCFI1011:
	movq	%rdi, -8(%rbp)
	movq	%rsi, -16(%rbp)
	movl	%edx, -20(%rbp)
	movq	-8(%rbp), %rdi
	movq	-16(%rbp), %rsi
	call	_ZN3Upp6VectorINS_6StringEE3AddERKS1_
	movq	-8(%rbp), %rdi
	addq	$16, %rdi
	movl	-20(%rbp), %esi
	call	_ZN3Upp8HashBase3AddEj
	leave
	ret
.LFE9464:
	.size	_ZN3Upp6AIndexINS_6StringENS_6VectorIS1_EENS_7StdHashIS1_EEE3AddERKS1_j, .-_ZN3Upp6AIndexINS_6StringENS_6VectorIS1_EENS_7StdHashIS1_EEE3AddERKS1_j
	.section	.text._ZN3Upp6AIndexINS_6StringENS_6VectorIS1_EENS_7StdHashIS1_EEE3AddERKS1_,"axG",@progbits,_ZN3Upp6AIndexINS_6StringENS_6VectorIS1_EENS_7StdHashIS1_EEE3AddERKS1_,comdat
	.align 2
	.weak	_ZN3Upp6AIndexINS_6StringENS_6VectorIS1_EENS_7StdHashIS1_EEE3AddERKS1_
	.type	_ZN3Upp6AIndexINS_6StringENS_6VectorIS1_EENS_7StdHashIS1_EEE3AddERKS1_, @function
_ZN3Upp6AIndexINS_6StringENS_6VectorIS1_EENS_7StdHashIS1_EEE3AddERKS1_:
.LFB9988:
	pushq	%rbp
.LCFI1012:
	movq	%rsp, %rbp
.LCFI1013:
	subq	$16, %rsp
.LCFI1014:
	movq	%rdi, -8(%rbp)
	movq	%rsi, -16(%rbp)
	movq	-8(%rbp), %rdi
	addq	$72, %rdi
	movq	-16(%rbp), %rsi
	call	_ZNK3Upp7StdHashINS_6StringEEclERKS1_
	movq	-16(%rbp), %rsi
	movq	-8(%rbp), %rdi
	movl	%eax, %edx
	call	_ZN3Upp6AIndexINS_6StringENS_6VectorIS1_EENS_7StdHashIS1_EEE3AddERKS1_j
	leave
	ret
.LFE9988:
	.size	_ZN3Upp6AIndexINS_6StringENS_6VectorIS1_EENS_7StdHashIS1_EEE3AddERKS1_, .-_ZN3Upp6AIndexINS_6StringENS_6VectorIS1_EENS_7StdHashIS1_EEE3AddERKS1_
	.section	.text._ZN3Upp11DeepCopyNewINS_8EscValueEEEPT_RKS2_,"axG",@progbits,_ZN3Upp11DeepCopyNewINS_8EscValueEEEPT_RKS2_,comdat
	.align 2
	.weak	_ZN3Upp11DeepCopyNewINS_8EscValueEEEPT_RKS2_
	.type	_ZN3Upp11DeepCopyNewINS_8EscValueEEEPT_RKS2_, @function
_ZN3Upp11DeepCopyNewINS_8EscValueEEEPT_RKS2_:
.LFB10083:
	pushq	%rbp
.LCFI1015:
	movq	%rsp, %rbp
.LCFI1016:
	pushq	%rbx
.LCFI1017:
	subq	$40, %rsp
.LCFI1018:
	movq	%rdi, -16(%rbp)
	movl	$16, %edi
.LEHB78:
	call	_Znwm
.LEHE78:
	movq	%rax, -24(%rbp)
	movq	-16(%rbp), %rsi
	movq	-24(%rbp), %rdi
.LEHB79:
	call	_ZN3Upp8EscValueC1ERKS0_
.LEHE79:
	movq	-24(%rbp), %rax
	movq	%rax, -32(%rbp)
	jmp	.L1157
.L1160:
	movq	%rax, -40(%rbp)
.L1158:
	movq	-40(%rbp), %rbx
	movq	-24(%rbp), %rdi
	call	_ZdlPv
	movq	%rbx, -40(%rbp)
	movq	-40(%rbp), %rdi
.LEHB80:
	call	_Unwind_Resume
.LEHE80:
.L1157:
	movq	-32(%rbp), %rax
	addq	$40, %rsp
	popq	%rbx
	leave
	ret
.LFE10083:
	.size	_ZN3Upp11DeepCopyNewINS_8EscValueEEEPT_RKS2_, .-_ZN3Upp11DeepCopyNewINS_8EscValueEEEPT_RKS2_
	.section	.gcc_except_table
.LLSDA10083:
	.byte	0xff
	.byte	0xff
	.byte	0x1
	.uleb128 .LLSDACSE10083-.LLSDACSB10083
.LLSDACSB10083:
	.uleb128 .LEHB78-.LFB10083
	.uleb128 .LEHE78-.LEHB78
	.uleb128 0x0
	.uleb128 0x0
	.uleb128 .LEHB79-.LFB10083
	.uleb128 .LEHE79-.LEHB79
	.uleb128 .L1160-.LFB10083
	.uleb128 0x0
	.uleb128 .LEHB80-.LFB10083
	.uleb128 .LEHE80-.LEHB80
	.uleb128 0x0
	.uleb128 0x0
.LLSDACSE10083:
	.section	.text._ZN3Upp11DeepCopyNewINS_8EscValueEEEPT_RKS2_,"axG",@progbits,_ZN3Upp11DeepCopyNewINS_8EscValueEEEPT_RKS2_,comdat
	.section	.text._ZN3Upp5ArrayINS_8EscValueEE3AddERKS1_,"axG",@progbits,_ZN3Upp5ArrayINS_8EscValueEE3AddERKS1_,comdat
	.align 2
	.weak	_ZN3Upp5ArrayINS_8EscValueEE3AddERKS1_
	.type	_ZN3Upp5ArrayINS_8EscValueEE3AddERKS1_, @function
_ZN3Upp5ArrayINS_8EscValueEE3AddERKS1_:
.LFB9989:
	pushq	%rbp
.LCFI1019:
	movq	%rsp, %rbp
.LCFI1020:
	subq	$32, %rsp
.LCFI1021:
	movq	%rdi, -24(%rbp)
	movq	%rsi, -32(%rbp)
	movq	-32(%rbp), %rdi
	call	_ZN3Upp11DeepCopyNewINS_8EscValueEEEPT_RKS2_
	movq	%rax, -8(%rbp)
	movq	-24(%rbp), %rdi
	addq	$8, %rdi
	leaq	-8(%rbp), %rsi
	call	_ZN3Upp6VectorIPvE3AddERKS1_
	leave
	ret
.LFE9989:
	.size	_ZN3Upp5ArrayINS_8EscValueEE3AddERKS1_, .-_ZN3Upp5ArrayINS_8EscValueEE3AddERKS1_
	.section	.text._ZN3Upp4AMapINS_6StringENS_8EscValueENS_5ArrayIS2_EENS_7StdHashIS1_EEE3AddERKS1_RKS2_,"axG",@progbits,_ZN3Upp4AMapINS_6StringENS_8EscValueENS_5ArrayIS2_EENS_7StdHashIS1_EEE3AddERKS1_RKS2_,comdat
	.align 2
	.weak	_ZN3Upp4AMapINS_6StringENS_8EscValueENS_5ArrayIS2_EENS_7StdHashIS1_EEE3AddERKS1_RKS2_
	.type	_ZN3Upp4AMapINS_6StringENS_8EscValueENS_5ArrayIS2_EENS_7StdHashIS1_EEE3AddERKS1_RKS2_, @function
_ZN3Upp4AMapINS_6StringENS_8EscValueENS_5ArrayIS2_EENS_7StdHashIS1_EEE3AddERKS1_RKS2_:
.LFB9617:
	pushq	%rbp
.LCFI1022:
	movq	%rsp, %rbp
.LCFI1023:
	subq	$32, %rsp
.LCFI1024:
	movq	%rdi, -8(%rbp)
	movq	%rsi, -16(%rbp)
	movq	%rdx, -24(%rbp)
	movq	-8(%rbp), %rdi
	addq	$8, %rdi
	movq	-16(%rbp), %rsi
	call	_ZN3Upp6AIndexINS_6StringENS_6VectorIS1_EENS_7StdHashIS1_EEE3AddERKS1_
	movq	-8(%rbp), %rdi
	addq	$88, %rdi
	movq	-24(%rbp), %rsi
	call	_ZN3Upp5ArrayINS_8EscValueEE3AddERKS1_
	leave
	ret
.LFE9617:
	.size	_ZN3Upp4AMapINS_6StringENS_8EscValueENS_5ArrayIS2_EENS_7StdHashIS1_EEE3AddERKS1_RKS2_, .-_ZN3Upp4AMapINS_6StringENS_8EscValueENS_5ArrayIS2_EENS_7StdHashIS1_EEE3AddERKS1_RKS2_
	.section	.text._ZN3Upp8ArrayMapINS_6StringENS_8EscValueENS_7StdHashIS1_EEE3AddERKS1_RKS2_,"axG",@progbits,_ZN3Upp8ArrayMapINS_6StringENS_8EscValueENS_7StdHashIS1_EEE3AddERKS1_RKS2_,comdat
	.align 2
	.weak	_ZN3Upp8ArrayMapINS_6StringENS_8EscValueENS_7StdHashIS1_EEE3AddERKS1_RKS2_
	.type	_ZN3Upp8ArrayMapINS_6StringENS_8EscValueENS_7StdHashIS1_EEE3AddERKS1_RKS2_, @function
_ZN3Upp8ArrayMapINS_6StringENS_8EscValueENS_7StdHashIS1_EEE3AddERKS1_RKS2_:
.LFB9070:
	pushq	%rbp
.LCFI1025:
	movq	%rsp, %rbp
.LCFI1026:
	subq	$32, %rsp
.LCFI1027:
	movq	%rdi, -8(%rbp)
	movq	%rsi, -16(%rbp)
	movq	%rdx, -24(%rbp)
	movq	-8(%rbp), %rdi
	addq	$8, %rdi
	movq	-24(%rbp), %rdx
	movq	-16(%rbp), %rsi
	call	_ZN3Upp4AMapINS_6StringENS_8EscValueENS_5ArrayIS2_EENS_7StdHashIS1_EEE3AddERKS1_RKS2_
	leave
	ret
.LFE9070:
	.size	_ZN3Upp8ArrayMapINS_6StringENS_8EscValueENS_7StdHashIS1_EEE3AddERKS1_RKS2_, .-_ZN3Upp8ArrayMapINS_6StringENS_8EscValueENS_7StdHashIS1_EEE3AddERKS1_RKS2_
	.section	.text._ZN3Upp5ArrayINS_4CtrlEE6CreateINS_6OptionEEERT_v,"axG",@progbits,_ZN3Upp5ArrayINS_4CtrlEE6CreateINS_6OptionEEERT_v,comdat
	.align 2
	.weak	_ZN3Upp5ArrayINS_4CtrlEE6CreateINS_6OptionEEERT_v
	.type	_ZN3Upp5ArrayINS_4CtrlEE6CreateINS_6OptionEEERT_v, @function
_ZN3Upp5ArrayINS_4CtrlEE6CreateINS_6OptionEEERT_v:
.LFB9085:
	pushq	%rbp
.LCFI1028:
	movq	%rsp, %rbp
.LCFI1029:
	pushq	%rbx
.LCFI1030:
	subq	$56, %rsp
.LCFI1031:
	movq	%rdi, -32(%rbp)
	movl	$224, %edi
.LEHB81:
	call	_Znwm
.LEHE81:
	movq	%rax, -40(%rbp)
	movq	-40(%rbp), %rdi
.LEHB82:
	call	_ZN3Upp6OptionC1Ev
.LEHE82:
	movq	-40(%rbp), %rax
	movq	%rax, -16(%rbp)
	movq	-16(%rbp), %rsi
	movq	-32(%rbp), %rdi
.LEHB83:
	call	_ZN3Upp5ArrayINS_4CtrlEE3AddEPS1_
	movq	-16(%rbp), %rax
	movq	%rax, -48(%rbp)
	jmp	.L1167
.L1170:
	movq	%rax, -56(%rbp)
.L1168:
	movq	-56(%rbp), %rbx
	movq	-40(%rbp), %rdi
	call	_ZdlPv
	movq	%rbx, -56(%rbp)
	movq	-56(%rbp), %rdi
	call	_Unwind_Resume
.LEHE83:
.L1167:
	movq	-48(%rbp), %rax
	addq	$56, %rsp
	popq	%rbx
	leave
	ret
.LFE9085:
	.size	_ZN3Upp5ArrayINS_4CtrlEE6CreateINS_6OptionEEERT_v, .-_ZN3Upp5ArrayINS_4CtrlEE6CreateINS_6OptionEEERT_v
	.section	.gcc_except_table
.LLSDA9085:
	.byte	0xff
	.byte	0xff
	.byte	0x1
	.uleb128 .LLSDACSE9085-.LLSDACSB9085
.LLSDACSB9085:
	.uleb128 .LEHB81-.LFB9085
	.uleb128 .LEHE81-.LEHB81
	.uleb128 0x0
	.uleb128 0x0
	.uleb128 .LEHB82-.LFB9085
	.uleb128 .LEHE82-.LEHB82
	.uleb128 .L1170-.LFB9085
	.uleb128 0x0
	.uleb128 .LEHB83-.LFB9085
	.uleb128 .LEHE83-.LEHB83
	.uleb128 0x0
	.uleb128 0x0
.LLSDACSE9085:
	.section	.text._ZN3Upp5ArrayINS_4CtrlEE6CreateINS_6OptionEEERT_v,"axG",@progbits,_ZN3Upp5ArrayINS_4CtrlEE6CreateINS_6OptionEEERT_v,comdat
	.section	.text._ZN3Upp5ArrayINS_5LabelEE3AddEv,"axG",@progbits,_ZN3Upp5ArrayINS_5LabelEE3AddEv,comdat
	.align 2
	.weak	_ZN3Upp5ArrayINS_5LabelEE3AddEv
	.type	_ZN3Upp5ArrayINS_5LabelEE3AddEv, @function
_ZN3Upp5ArrayINS_5LabelEE3AddEv:
.LFB9086:
	pushq	%rbp
.LCFI1032:
	movq	%rsp, %rbp
.LCFI1033:
	pushq	%rbx
.LCFI1034:
	subq	$56, %rsp
.LCFI1035:
	movq	%rdi, -32(%rbp)
	movl	$280, %edi
.LEHB84:
	call	_Znwm
.LEHE84:
	movq	%rax, -40(%rbp)
	movq	-40(%rbp), %rdi
.LEHB85:
	call	_ZN3Upp5LabelC1Ev
.LEHE85:
	movq	-40(%rbp), %rax
	movq	%rax, -16(%rbp)
	movq	-16(%rbp), %rax
	movq	%rax, -24(%rbp)
	movq	-32(%rbp), %rdi
	addq	$8, %rdi
	leaq	-24(%rbp), %rsi
.LEHB86:
	call	_ZN3Upp6VectorIPvE3AddERKS1_
	movq	-16(%rbp), %rax
	movq	%rax, -48(%rbp)
	jmp	.L1171
.L1174:
	movq	%rax, -56(%rbp)
.L1172:
	movq	-56(%rbp), %rbx
	movq	-40(%rbp), %rdi
	call	_ZdlPv
	movq	%rbx, -56(%rbp)
	movq	-56(%rbp), %rdi
	call	_Unwind_Resume
.LEHE86:
.L1171:
	movq	-48(%rbp), %rax
	addq	$56, %rsp
	popq	%rbx
	leave
	ret
.LFE9086:
	.size	_ZN3Upp5ArrayINS_5LabelEE3AddEv, .-_ZN3Upp5ArrayINS_5LabelEE3AddEv
	.section	.gcc_except_table
.LLSDA9086:
	.byte	0xff
	.byte	0xff
	.byte	0x1
	.uleb128 .LLSDACSE9086-.LLSDACSB9086
.LLSDACSB9086:
	.uleb128 .LEHB84-.LFB9086
	.uleb128 .LEHE84-.LEHB84
	.uleb128 0x0
	.uleb128 0x0
	.uleb128 .LEHB85-.LFB9086
	.uleb128 .LEHE85-.LEHB85
	.uleb128 .L1174-.LFB9086
	.uleb128 0x0
	.uleb128 .LEHB86-.LFB9086
	.uleb128 .LEHE86-.LEHB86
	.uleb128 0x0
	.uleb128 0x0
.LLSDACSE9086:
	.section	.text._ZN3Upp5ArrayINS_5LabelEE3AddEv,"axG",@progbits,_ZN3Upp5ArrayINS_5LabelEE3AddEv,comdat
	.section	.text._ZN3Upp4Ctrl3AddERS0_,"axG",@progbits,_ZN3Upp4Ctrl3AddERS0_,comdat
	.align 2
	.weak	_ZN3Upp4Ctrl3AddERS0_
	.type	_ZN3Upp4Ctrl3AddERS0_, @function
_ZN3Upp4Ctrl3AddERS0_:
.LFB4700:
	pushq	%rbp
.LCFI1036:
	movq	%rsp, %rbp
.LCFI1037:
	subq	$16, %rsp
.LCFI1038:
	movq	%rdi, -8(%rbp)
	movq	%rsi, -16(%rbp)
	movq	-16(%rbp), %rsi
	movq	-8(%rbp), %rdi
	call	_ZN3Upp4Ctrl8AddChildEPS0_
	leave
	ret
.LFE4700:
	.size	_ZN3Upp4Ctrl3AddERS0_, .-_ZN3Upp4Ctrl3AddERS0_
	.section	.text._ZN3Upp4CtrllsENS_8CallbackE,"axG",@progbits,_ZN3Upp4CtrllsENS_8CallbackE,comdat
	.align 2
	.weak	_ZN3Upp4CtrllsENS_8CallbackE
	.type	_ZN3Upp4CtrllsENS_8CallbackE, @function
_ZN3Upp4CtrllsENS_8CallbackE:
.LFB4706:
	pushq	%rbp
.LCFI1039:
	movq	%rsp, %rbp
.LCFI1040:
	pushq	%rbx
.LCFI1041:
	subq	$56, %rsp
.LCFI1042:
	movq	%rdi, -40(%rbp)
	movq	%rsi, -48(%rbp)
	movq	-48(%rbp), %rsi
	leaq	-32(%rbp), %rdi
.LEHB87:
	call	_ZN3Upp8CallbackC1ERKS0_
.LEHE87:
	movq	-40(%rbp), %rdi
	addq	$144, %rdi
	leaq	-32(%rbp), %rsi
.LEHB88:
	call	_ZN3UpplsERNS_8CallbackES0_
.LEHE88:
	movq	%rax, %rbx
	leaq	-32(%rbp), %rdi
.LEHB89:
	call	_ZN3Upp8CallbackD1Ev
.LEHE89:
	movq	%rbx, -56(%rbp)
	jmp	.L1177
.L1180:
	movq	%rax, -64(%rbp)
.L1178:
	movq	-64(%rbp), %rbx
	leaq	-32(%rbp), %rdi
	call	_ZN3Upp8CallbackD1Ev
	movq	%rbx, -64(%rbp)
	movq	-64(%rbp), %rdi
.LEHB90:
	call	_Unwind_Resume
.LEHE90:
.L1177:
	movq	-56(%rbp), %rax
	addq	$56, %rsp
	popq	%rbx
	leave
	ret
.LFE4706:
	.size	_ZN3Upp4CtrllsENS_8CallbackE, .-_ZN3Upp4CtrllsENS_8CallbackE
	.section	.gcc_except_table
.LLSDA4706:
	.byte	0xff
	.byte	0xff
	.byte	0x1
	.uleb128 .LLSDACSE4706-.LLSDACSB4706
.LLSDACSB4706:
	.uleb128 .LEHB87-.LFB4706
	.uleb128 .LEHE87-.LEHB87
	.uleb128 0x0
	.uleb128 0x0
	.uleb128 .LEHB88-.LFB4706
	.uleb128 .LEHE88-.LEHB88
	.uleb128 .L1180-.LFB4706
	.uleb128 0x0
	.uleb128 .LEHB89-.LFB4706
	.uleb128 .LEHE89-.LEHB89
	.uleb128 0x0
	.uleb128 0x0
	.uleb128 .LEHB90-.LFB4706
	.uleb128 .LEHE90-.LEHB90
	.uleb128 0x0
	.uleb128 0x0
.LLSDACSE4706:
	.section	.text._ZN3Upp4CtrllsENS_8CallbackE,"axG",@progbits,_ZN3Upp4CtrllsENS_8CallbackE,comdat
	.section	.text._ZN10AppPreview6ScrollEv,"axG",@progbits,_ZN10AppPreview6ScrollEv,comdat
	.align 2
	.weak	_ZN10AppPreview6ScrollEv
	.type	_ZN10AppPreview6ScrollEv, @function
_ZN10AppPreview6ScrollEv:
.LFB7767:
	pushq	%rbp
.LCFI1043:
	movq	%rsp, %rbp
.LCFI1044:
	subq	$16, %rsp
.LCFI1045:
	movq	%rdi, -8(%rbp)
	movq	-8(%rbp), %rdi
	call	_ZN3Upp4Ctrl7RefreshEv
	leave
	ret
.LFE7767:
	.size	_ZN10AppPreview6ScrollEv, .-_ZN10AppPreview6ScrollEv
	.section	.text._ZN10AppPreview5ClearEv,"axG",@progbits,_ZN10AppPreview5ClearEv,comdat
	.align 2
	.weak	_ZN10AppPreview5ClearEv
	.type	_ZN10AppPreview5ClearEv, @function
_ZN10AppPreview5ClearEv:
.LFB7768:
	pushq	%rbp
.LCFI1046:
	movq	%rsp, %rbp
.LCFI1047:
	subq	$16, %rsp
.LCFI1048:
	movq	%rdi, -8(%rbp)
	movq	-8(%rbp), %rdi
	addq	$1288, %rdi
	call	_ZN3Upp6VectorIN10AppPreview4LineEE5ClearEv
	movq	-8(%rbp), %rdi
	call	_ZN3Upp4Ctrl7RefreshEv
	movq	-8(%rbp), %rdi
	addq	$152, %rdi
	movl	$0, %esi
	call	_ZN3Upp9ScrollBar3SetEi
	leave
	ret
.LFE7768:
	.size	_ZN10AppPreview5ClearEv, .-_ZN10AppPreview5ClearEv
	.section	.text._ZN3Upp9ScrollBaraSEi,"axG",@progbits,_ZN3Upp9ScrollBaraSEi,comdat
	.align 2
	.weak	_ZN3Upp9ScrollBaraSEi
	.type	_ZN3Upp9ScrollBaraSEi, @function
_ZN3Upp9ScrollBaraSEi:
.LFB5515:
	pushq	%rbp
.LCFI1049:
	movq	%rsp, %rbp
.LCFI1050:
	subq	$16, %rsp
.LCFI1051:
	movq	%rdi, -8(%rbp)
	movl	%esi, -12(%rbp)
	movl	-12(%rbp), %esi
	movq	-8(%rbp), %rdi
	call	_ZN3Upp9ScrollBar3SetEi
	movl	-12(%rbp), %eax
	leave
	ret
.LFE5515:
	.size	_ZN3Upp9ScrollBaraSEi, .-_ZN3Upp9ScrollBaraSEi
	.section	.text._ZN3Upp7String03CatEi,"axG",@progbits,_ZN3Upp7String03CatEi,comdat
	.align 2
	.weak	_ZN3Upp7String03CatEi
	.type	_ZN3Upp7String03CatEi, @function
_ZN3Upp7String03CatEi:
.LFB1246:
	pushq	%rbp
.LCFI1052:
	movq	%rsp, %rbp
.LCFI1053:
	subq	$16, %rsp
.LCFI1054:
	movq	%rdi, -8(%rbp)
	movl	%esi, -12(%rbp)
	movq	-8(%rbp), %rdi
	call	_ZN3Upp7String04SLenEv
	movzbl	(%rax), %eax
	cmpb	$13, %al
	setle	%al
	testb	%al, %al
	je	.L1188
	movq	-8(%rbp), %rdi
	call	_ZN3Upp7String04SLenEv
	movq	%rax, %r8
	movzbl	(%r8), %esi
	movsbl	%sil,%edi
	movl	-12(%rbp), %eax
	movl	%eax, %ecx
	movq	-8(%rbp), %rdx
	movslq	%edi,%rax
	movb	%cl, (%rdx,%rax)
	leal	1(%rsi), %eax
	movb	%al, (%r8)
	jmp	.L1190
.L1188:
	movl	-12(%rbp), %esi
	movq	-8(%rbp), %rdi
	call	_ZN3Upp7String04LCatEi
.L1190:
	movq	-8(%rbp), %rdi
	call	_ZN3Upp7String04DsynEv
	leave
	ret
.LFE1246:
	.size	_ZN3Upp7String03CatEi, .-_ZN3Upp7String03CatEi
	.section	.text._ZN3Upp7AStringINS_7String0EE3CatEi,"axG",@progbits,_ZN3Upp7AStringINS_7String0EE3CatEi,comdat
	.align 2
	.weak	_ZN3Upp7AStringINS_7String0EE3CatEi
	.type	_ZN3Upp7AStringINS_7String0EE3CatEi, @function
_ZN3Upp7AStringINS_7String0EE3CatEi:
.LFB8005:
	pushq	%rbp
.LCFI1055:
	movq	%rsp, %rbp
.LCFI1056:
	subq	$16, %rsp
.LCFI1057:
	movq	%rdi, -8(%rbp)
	movl	%esi, -12(%rbp)
	movq	-8(%rbp), %rdi
	movl	-12(%rbp), %esi
	call	_ZN3Upp7String03CatEi
	leave
	ret
.LFE8005:
	.size	_ZN3Upp7AStringINS_7String0EE3CatEi, .-_ZN3Upp7AStringINS_7String0EE3CatEi
	.section	.text._ZN3Upp6StringpLEc,"axG",@progbits,_ZN3Upp6StringpLEc,comdat
	.align 2
	.weak	_ZN3Upp6StringpLEc
	.type	_ZN3Upp6StringpLEc, @function
_ZN3Upp6StringpLEc:
.LFB1267:
	pushq	%rbp
.LCFI1058:
	movq	%rsp, %rbp
.LCFI1059:
	subq	$16, %rsp
.LCFI1060:
	movq	%rdi, -8(%rbp)
	movb	%sil, -12(%rbp)
	movsbl	-12(%rbp),%esi
	movq	-8(%rbp), %rdi
	call	_ZN3Upp7AStringINS_7String0EE3CatEi
	movq	-8(%rbp), %rax
	leave
	ret
.LFE1267:
	.size	_ZN3Upp6StringpLEc, .-_ZN3Upp6StringpLEc
	.section	.rodata
.LC0:
	.string	""
	.text
	.align 2
.globl _Z12ToUpper_CapsRKN3Upp6StringE
	.type	_Z12ToUpper_CapsRKN3Upp6StringE, @function
_Z12ToUpper_CapsRKN3Upp6StringE:
.LFB7954:
	pushq	%rbp
.LCFI1061:
	movq	%rsp, %rbp
.LCFI1062:
	pushq	%rbx
.LCFI1063:
	subq	$88, %rsp
.LCFI1064:
	movq	%rdi, -88(%rbp)
	movq	%rsi, -72(%rbp)
	movq	%fs:40, %rax
	movq	%rax, -24(%rbp)
	xorl	%eax, %eax
	movq	-88(%rbp), %rdi
	movl	$.LC0, %esi
.LEHB91:
	call	_ZN3Upp6StringC1EPKc
.LEHE91:
	movq	-72(%rbp), %rdi
	call	_ZNK3Upp7AStringINS_7String0EE9GetLengthEv
	movl	%eax, -60(%rbp)
	movl	$0, -56(%rbp)
	jmp	.L1197
.L1198:
	movq	-72(%rbp), %rdi
	movl	-56(%rbp), %esi
	call	_ZNK3Upp7AStringINS_7String0EEixEi
	movl	%eax, -52(%rbp)
	movl	-52(%rbp), %edi
	call	_ZN3Upp7IsAlNumEi
	testb	%al, %al
	je	.L1199
	movl	-52(%rbp), %edi
	call	_ZN3Upp7ToUpperEi
	movsbl	%al,%esi
	movq	-88(%rbp), %rdi
.LEHB92:
	call	_ZN3Upp6StringpLEc
	movl	-60(%rbp), %eax
	subl	$1, %eax
	cmpl	-56(%rbp), %eax
	jle	.L1208
	movl	-52(%rbp), %edi
	call	_ZN3Upp7IsLowerEi
	xorl	$1, %eax
	testb	%al, %al
	jne	.L1203
	movl	-56(%rbp), %esi
	addl	$1, %esi
	movq	-72(%rbp), %rdi
	call	_ZNK3Upp7AStringINS_7String0EEixEi
	movl	%eax, %edi
	call	_ZN3Upp7IsUpperEi
	xorl	$1, %eax
	testb	%al, %al
	jne	.L1203
	movb	$1, -73(%rbp)
	jmp	.L1206
.L1203:
	movb	$0, -73(%rbp)
.L1206:
	movzbl	-73(%rbp), %eax
	testb	%al, %al
	je	.L1208
	movq	-88(%rbp), %rdi
	movl	$95, %esi
	call	_ZN3Upp6StringpLEc
	jmp	.L1208
.L1199:
	movq	-88(%rbp), %rdi
	movl	$95, %esi
	call	_ZN3Upp6StringpLEc
.LEHE92:
.L1208:
	addl	$1, -56(%rbp)
.L1197:
	movl	-56(%rbp), %eax
	cmpl	-60(%rbp), %eax
	jl	.L1198
	jmp	.L1196
.L1213:
	movq	%rax, -96(%rbp)
.L1210:
	movq	-96(%rbp), %rbx
	movq	-88(%rbp), %rdi
	call	_ZN3Upp6StringD1Ev
	movq	%rbx, -96(%rbp)
	movq	-96(%rbp), %rdi
.LEHB93:
	call	_Unwind_Resume
.LEHE93:
.L1196:
	movq	-88(%rbp), %rax
	movq	-24(%rbp), %rdx
	xorq	%fs:40, %rdx
	je	.L1212
	call	__stack_chk_fail
.L1212:
	addq	$88, %rsp
	popq	%rbx
	leave
	ret
.LFE7954:
	.size	_Z12ToUpper_CapsRKN3Upp6StringE, .-_Z12ToUpper_CapsRKN3Upp6StringE
	.section	.gcc_except_table
.LLSDA7954:
	.byte	0xff
	.byte	0xff
	.byte	0x1
	.uleb128 .LLSDACSE7954-.LLSDACSB7954
.LLSDACSB7954:
	.uleb128 .LEHB91-.LFB7954
	.uleb128 .LEHE91-.LEHB91
	.uleb128 0x0
	.uleb128 0x0
	.uleb128 .LEHB92-.LFB7954
	.uleb128 .LEHE92-.LEHB92
	.uleb128 .L1213-.LFB7954
	.uleb128 0x0
	.uleb128 .LEHB93-.LFB7954
	.uleb128 .LEHE93-.LEHB93
	.uleb128 0x0
	.uleb128 0x0
.LLSDACSE7954:
	.text
	.section	.rodata
.LC1:
	.string	"PACKAGE"
.LC2:
	.string	"PACKAGE_TOUPPER"
.LC3:
	.string	"PACKAGE_TOUPPER_CAPS"
.LC4:
	.string	"DESCRIPTION"
	.text
	.align 2
.globl _ZN11TemplateDlg9MakeVars0Ev
	.type	_ZN11TemplateDlg9MakeVars0Ev, @function
_ZN11TemplateDlg9MakeVars0Ev:
.LFB7955:
	pushq	%rbp
.LCFI1065:
	movq	%rsp, %rbp
.LCFI1066:
	pushq	%rbx
.LCFI1067:
	subq	$424, %rsp
.LCFI1068:
	movq	%rdi, -416(%rbp)
	movq	%rsi, -408(%rbp)
	movq	%fs:40, %rax
	movq	%rax, -24(%rbp)
	xorl	%eax, %eax
	movq	-416(%rbp), %rdi
.LEHB94:
	call	_ZN3Upp8ArrayMapINS_6StringENS_8EscValueENS_7StdHashIS1_EEEC1Ev
.LEHE94:
	movq	-408(%rbp), %rsi
	addq	$656, %rsi
	leaq	-208(%rbp), %rdi
.LEHB95:
	call	_ZNK3Upp4CtrlcoEv
.LEHE95:
	leaq	-176(%rbp), %rdi
	leaq	-208(%rbp), %rsi
.LEHB96:
	call	_ZNK3Upp5ValuecvNS_6StringEEv
.LEHE96:
	leaq	-208(%rbp), %rdi
.LEHB97:
	call	_ZN3Upp5ValueD1Ev
.LEHE97:
	jmp	.L1215
.L1259:
	movq	%rax, -424(%rbp)
.L1216:
	movq	-424(%rbp), %rbx
	leaq	-208(%rbp), %rdi
	call	_ZN3Upp5ValueD1Ev
	movq	%rbx, -424(%rbp)
	jmp	.L1242
.L1215:
	leaq	-176(%rbp), %rdi
	movl	$47, %esi
	call	_ZNK3Upp7AStringINS_7String0EE11ReverseFindEi
	movl	%eax, -180(%rbp)
	cmpl	$0, -180(%rbp)
	js	.L1217
	movl	-180(%rbp), %edx
	addl	$1, %edx
	leaq	-160(%rbp), %rdi
	leaq	-176(%rbp), %rsi
.LEHB98:
	call	_ZNK3Upp7AStringINS_7String0EE3MidEi
	jmp	.L1219
.L1217:
	leaq	-176(%rbp), %rsi
	leaq	-160(%rbp), %rdi
	call	_ZN3Upp6StringC1ERKS0_
.LEHE98:
.L1219:
	leaq	-160(%rbp), %rsi
	leaq	-272(%rbp), %rdi
.LEHB99:
	call	_ZN3Upp8EscValueC1ERKNS_6StringE
.LEHE99:
	leaq	-144(%rbp), %rdi
	movl	$.LC1, %esi
.LEHB100:
	call	_ZN3Upp6StringC1EPKc
.LEHE100:
	movq	-416(%rbp), %rdi
	leaq	-272(%rbp), %rdx
	leaq	-144(%rbp), %rsi
.LEHB101:
	call	_ZN3Upp8ArrayMapINS_6StringENS_8EscValueENS_7StdHashIS1_EEE3AddERKS1_RKS2_
.LEHE101:
	leaq	-144(%rbp), %rdi
	call	_ZN3Upp6StringD1Ev
	leaq	-272(%rbp), %rdi
.LEHB102:
	call	_ZN3Upp8EscValueD1Ev
.LEHE102:
	jmp	.L1220
.L1255:
	movq	%rax, -424(%rbp)
.L1221:
	movq	-424(%rbp), %rbx
	leaq	-144(%rbp), %rdi
	call	_ZN3Upp6StringD1Ev
	movq	%rbx, -424(%rbp)
	jmp	.L1222
.L1256:
	movq	%rax, -424(%rbp)
.L1222:
	movq	-424(%rbp), %rbx
	leaq	-272(%rbp), %rdi
	call	_ZN3Upp8EscValueD1Ev
	movq	%rbx, -424(%rbp)
	jmp	.L1224
.L1220:
	leaq	-160(%rbp), %rdi
	call	_ZN3Upp6StringD1Ev
	leaq	-128(%rbp), %rdi
	leaq	-176(%rbp), %rsi
	movl	$0, %edx
.LEHB103:
	call	_ZN3Upp7ToUpperERKNS_6StringEh
.LEHE103:
	jmp	.L1223
.L1257:
	movq	%rax, -424(%rbp)
.L1224:
	movq	-424(%rbp), %rbx
	leaq	-160(%rbp), %rdi
	call	_ZN3Upp6StringD1Ev
	movq	%rbx, -424(%rbp)
	jmp	.L1241
.L1223:
	leaq	-128(%rbp), %rsi
	leaq	-256(%rbp), %rdi
.LEHB104:
	call	_ZN3Upp8EscValueC1ERKNS_6StringE
.LEHE104:
	leaq	-112(%rbp), %rdi
	movl	$.LC2, %esi
.LEHB105:
	call	_ZN3Upp6StringC1EPKc
.LEHE105:
	movq	-416(%rbp), %rdi
	leaq	-256(%rbp), %rdx
	leaq	-112(%rbp), %rsi
.LEHB106:
	call	_ZN3Upp8ArrayMapINS_6StringENS_8EscValueENS_7StdHashIS1_EEE3AddERKS1_RKS2_
.LEHE106:
	leaq	-112(%rbp), %rdi
	call	_ZN3Upp6StringD1Ev
	leaq	-256(%rbp), %rdi
.LEHB107:
	call	_ZN3Upp8EscValueD1Ev
.LEHE107:
	jmp	.L1225
.L1252:
	movq	%rax, -424(%rbp)
.L1226:
	movq	-424(%rbp), %rbx
	leaq	-112(%rbp), %rdi
	call	_ZN3Upp6StringD1Ev
	movq	%rbx, -424(%rbp)
	jmp	.L1227
.L1253:
	movq	%rax, -424(%rbp)
.L1227:
	movq	-424(%rbp), %rbx
	leaq	-256(%rbp), %rdi
	call	_ZN3Upp8EscValueD1Ev
	movq	%rbx, -424(%rbp)
	jmp	.L1229
.L1225:
	leaq	-128(%rbp), %rdi
	call	_ZN3Upp6StringD1Ev
	leaq	-96(%rbp), %rdi
	leaq	-176(%rbp), %rsi
.LEHB108:
	call	_Z12ToUpper_CapsRKN3Upp6StringE
.LEHE108:
	jmp	.L1228
.L1254:
	movq	%rax, -424(%rbp)
.L1229:
	movq	-424(%rbp), %rbx
	leaq	-128(%rbp), %rdi
	call	_ZN3Upp6StringD1Ev
	movq	%rbx, -424(%rbp)
	jmp	.L1241
.L1228:
	leaq	-96(%rbp), %rsi
	leaq	-240(%rbp), %rdi
.LEHB109:
	call	_ZN3Upp8EscValueC1ERKNS_6StringE
.LEHE109:
	leaq	-80(%rbp), %rdi
	movl	$.LC3, %esi
.LEHB110:
	call	_ZN3Upp6StringC1EPKc
.LEHE110:
	movq	-416(%rbp), %rdi
	leaq	-240(%rbp), %rdx
	leaq	-80(%rbp), %rsi
.LEHB111:
	call	_ZN3Upp8ArrayMapINS_6StringENS_8EscValueENS_7StdHashIS1_EEE3AddERKS1_RKS2_
.LEHE111:
	leaq	-80(%rbp), %rdi
	call	_ZN3Upp6StringD1Ev
	leaq	-240(%rbp), %rdi
.LEHB112:
	call	_ZN3Upp8EscValueD1Ev
.LEHE112:
	jmp	.L1230
.L1249:
	movq	%rax, -424(%rbp)
.L1231:
	movq	-424(%rbp), %rbx
	leaq	-80(%rbp), %rdi
	call	_ZN3Upp6StringD1Ev
	movq	%rbx, -424(%rbp)
	jmp	.L1232
.L1250:
	movq	%rax, -424(%rbp)
.L1232:
	movq	-424(%rbp), %rbx
	leaq	-240(%rbp), %rdi
	call	_ZN3Upp8EscValueD1Ev
	movq	%rbx, -424(%rbp)
	jmp	.L1234
.L1230:
	leaq	-96(%rbp), %rdi
	call	_ZN3Upp6StringD1Ev
	movq	-408(%rbp), %rsi
	addq	$9280, %rsi
	leaq	-192(%rbp), %rdi
.LEHB113:
	call	_ZNK3Upp4CtrlcoEv
.LEHE113:
	jmp	.L1233
.L1251:
	movq	%rax, -424(%rbp)
.L1234:
	movq	-424(%rbp), %rbx
	leaq	-96(%rbp), %rdi
	call	_ZN3Upp6StringD1Ev
	movq	%rbx, -424(%rbp)
	jmp	.L1241
.L1233:
	leaq	-64(%rbp), %rdi
	leaq	-192(%rbp), %rsi
.LEHB114:
	call	_ZNK3Upp5ValuecvNS_6StringEEv
.LEHE114:
	leaq	-64(%rbp), %rsi
	leaq	-224(%rbp), %rdi
.LEHB115:
	call	_ZN3Upp8EscValueC1ERKNS_6StringE
.LEHE115:
	leaq	-48(%rbp), %rdi
	movl	$.LC4, %esi
.LEHB116:
	call	_ZN3Upp6StringC1EPKc
.LEHE116:
	movq	-416(%rbp), %rdi
	leaq	-224(%rbp), %rdx
	leaq	-48(%rbp), %rsi
.LEHB117:
	call	_ZN3Upp8ArrayMapINS_6StringENS_8EscValueENS_7StdHashIS1_EEE3AddERKS1_RKS2_
.LEHE117:
	leaq	-48(%rbp), %rdi
	call	_ZN3Upp6StringD1Ev
	leaq	-224(%rbp), %rdi
.LEHB118:
	call	_ZN3Upp8EscValueD1Ev
.LEHE118:
	jmp	.L1235
.L1245:
	movq	%rax, -424(%rbp)
.L1236:
	movq	-424(%rbp), %rbx
	leaq	-48(%rbp), %rdi
	call	_ZN3Upp6StringD1Ev
	movq	%rbx, -424(%rbp)
	jmp	.L1237
.L1246:
	movq	%rax, -424(%rbp)
.L1237:
	movq	-424(%rbp), %rbx
	leaq	-224(%rbp), %rdi
	call	_ZN3Upp8EscValueD1Ev
	movq	%rbx, -424(%rbp)
	jmp	.L1239
.L1235:
	leaq	-64(%rbp), %rdi
	call	_ZN3Upp6StringD1Ev
	leaq	-192(%rbp), %rdi
.LEHB119:
	call	_ZN3Upp5ValueD1Ev
.LEHE119:
	jmp	.L1238
.L1247:
	movq	%rax, -424(%rbp)
.L1239:
	movq	-424(%rbp), %rbx
	leaq	-64(%rbp), %rdi
	call	_ZN3Upp6StringD1Ev
	movq	%rbx, -424(%rbp)
	jmp	.L1240
.L1248:
	movq	%rax, -424(%rbp)
.L1240:
	movq	-424(%rbp), %rbx
	leaq	-192(%rbp), %rdi
	call	_ZN3Upp5ValueD1Ev
	movq	%rbx, -424(%rbp)
	jmp	.L1241
.L1238:
	leaq	-176(%rbp), %rdi
	call	_ZN3Upp6StringD1Ev
	jmp	.L1214
.L1258:
	movq	%rax, -424(%rbp)
.L1241:
	movq	-424(%rbp), %rbx
	leaq	-176(%rbp), %rdi
	call	_ZN3Upp6StringD1Ev
	movq	%rbx, -424(%rbp)
	jmp	.L1242
.L1260:
	movq	%rax, -424(%rbp)
.L1242:
	movq	-424(%rbp), %rbx
	movq	-416(%rbp), %rdi
	call	_ZN3Upp8ArrayMapINS_6StringENS_8EscValueENS_7StdHashIS1_EEED1Ev
	movq	%rbx, -424(%rbp)
	movq	-424(%rbp), %rdi
.LEHB120:
	call	_Unwind_Resume
.LEHE120:
.L1214:
	movq	-416(%rbp), %rax
	movq	-24(%rbp), %rdx
	xorq	%fs:40, %rdx
	je	.L1244
	call	__stack_chk_fail
.L1244:
	addq	$424, %rsp
	popq	%rbx
	leave
	ret
.LFE7955:
	.size	_ZN11TemplateDlg9MakeVars0Ev, .-_ZN11TemplateDlg9MakeVars0Ev
	.section	.gcc_except_table
.LLSDA7955:
	.byte	0xff
	.byte	0xff
	.byte	0x1
	.uleb128 .LLSDACSE7955-.LLSDACSB7955
.LLSDACSB7955:
	.uleb128 .LEHB94-.LFB7955
	.uleb128 .LEHE94-.LEHB94
	.uleb128 0x0
	.uleb128 0x0
	.uleb128 .LEHB95-.LFB7955
	.uleb128 .LEHE95-.LEHB95
	.uleb128 .L1260-.LFB7955
	.uleb128 0x0
	.uleb128 .LEHB96-.LFB7955
	.uleb128 .LEHE96-.LEHB96
	.uleb128 .L1259-.LFB7955
	.uleb128 0x0
	.uleb128 .LEHB97-.LFB7955
	.uleb128 .LEHE97-.LEHB97
	.uleb128 .L1260-.LFB7955
	.uleb128 0x0
	.uleb128 .LEHB98-.LFB7955
	.uleb128 .LEHE98-.LEHB98
	.uleb128 .L1258-.LFB7955
	.uleb128 0x0
	.uleb128 .LEHB99-.LFB7955
	.uleb128 .LEHE99-.LEHB99
	.uleb128 .L1257-.LFB7955
	.uleb128 0x0
	.uleb128 .LEHB100-.LFB7955
	.uleb128 .LEHE100-.LEHB100
	.uleb128 .L1256-.LFB7955
	.uleb128 0x0
	.uleb128 .LEHB101-.LFB7955
	.uleb128 .LEHE101-.LEHB101
	.uleb128 .L1255-.LFB7955
	.uleb128 0x0
	.uleb128 .LEHB102-.LFB7955
	.uleb128 .LEHE102-.LEHB102
	.uleb128 .L1257-.LFB7955
	.uleb128 0x0
	.uleb128 .LEHB103-.LFB7955
	.uleb128 .LEHE103-.LEHB103
	.uleb128 .L1258-.LFB7955
	.uleb128 0x0
	.uleb128 .LEHB104-.LFB7955
	.uleb128 .LEHE104-.LEHB104
	.uleb128 .L1254-.LFB7955
	.uleb128 0x0
	.uleb128 .LEHB105-.LFB7955
	.uleb128 .LEHE105-.LEHB105
	.uleb128 .L1253-.LFB7955
	.uleb128 0x0
	.uleb128 .LEHB106-.LFB7955
	.uleb128 .LEHE106-.LEHB106
	.uleb128 .L1252-.LFB7955
	.uleb128 0x0
	.uleb128 .LEHB107-.LFB7955
	.uleb128 .LEHE107-.LEHB107
	.uleb128 .L1254-.LFB7955
	.uleb128 0x0
	.uleb128 .LEHB108-.LFB7955
	.uleb128 .LEHE108-.LEHB108
	.uleb128 .L1258-.LFB7955
	.uleb128 0x0
	.uleb128 .LEHB109-.LFB7955
	.uleb128 .LEHE109-.LEHB109
	.uleb128 .L1251-.LFB7955
	.uleb128 0x0
	.uleb128 .LEHB110-.LFB7955
	.uleb128 .LEHE110-.LEHB110
	.uleb128 .L1250-.LFB7955
	.uleb128 0x0
	.uleb128 .LEHB111-.LFB7955
	.uleb128 .LEHE111-.LEHB111
	.uleb128 .L1249-.LFB7955
	.uleb128 0x0
	.uleb128 .LEHB112-.LFB7955
	.uleb128 .LEHE112-.LEHB112
	.uleb128 .L1251-.LFB7955
	.uleb128 0x0
	.uleb128 .LEHB113-.LFB7955
	.uleb128 .LEHE113-.LEHB113
	.uleb128 .L1258-.LFB7955
	.uleb128 0x0
	.uleb128 .LEHB114-.LFB7955
	.uleb128 .LEHE114-.LEHB114
	.uleb128 .L1248-.LFB7955
	.uleb128 0x0
	.uleb128 .LEHB115-.LFB7955
	.uleb128 .LEHE115-.LEHB115
	.uleb128 .L1247-.LFB7955
	.uleb128 0x0
	.uleb128 .LEHB116-.LFB7955
	.uleb128 .LEHE116-.LEHB116
	.uleb128 .L1246-.LFB7955
	.uleb128 0x0
	.uleb128 .LEHB117-.LFB7955
	.uleb128 .LEHE117-.LEHB117
	.uleb128 .L1245-.LFB7955
	.uleb128 0x0
	.uleb128 .LEHB118-.LFB7955
	.uleb128 .LEHE118-.LEHB118
	.uleb128 .L1247-.LFB7955
	.uleb128 0x0
	.uleb128 .LEHB119-.LFB7955
	.uleb128 .LEHE119-.LEHB119
	.uleb128 .L1258-.LFB7955
	.uleb128 0x0
	.uleb128 .LEHB120-.LFB7955
	.uleb128 .LEHE120-.LEHB120
	.uleb128 0x0
	.uleb128 0x0
.LLSDACSE7955:
	.text
	.section	.text._ZN3UpplsERNS_6StringEc,"axG",@progbits,_ZN3UpplsERNS_6StringEc,comdat
	.align 2
	.weak	_ZN3UpplsERNS_6StringEc
	.type	_ZN3UpplsERNS_6StringEc, @function
_ZN3UpplsERNS_6StringEc:
.LFB1357:
	pushq	%rbp
.LCFI1069:
	movq	%rsp, %rbp
.LCFI1070:
	subq	$16, %rsp
.LCFI1071:
	movq	%rdi, -8(%rbp)
	movb	%sil, -12(%rbp)
	movsbl	-12(%rbp),%esi
	movq	-8(%rbp), %rdi
	call	_ZN3Upp7AStringINS_7String0EE3CatEi
	movq	-8(%rbp), %rax
	leave
	ret
.LFE1357:
	.size	_ZN3UpplsERNS_6StringEc, .-_ZN3UpplsERNS_6StringEc
	.text
	.align 2
.globl _ZN11TemplateDlg14ActualTemplateEv
	.type	_ZN11TemplateDlg14ActualTemplateEv, @function
_ZN11TemplateDlg14ActualTemplateEv:
.LFB7950:
	pushq	%rbp
.LCFI1072:
	movq	%rsp, %rbp
.LCFI1073:
	subq	$16, %rsp
.LCFI1074:
	movq	%rdi, -8(%rbp)
	movq	-8(%rbp), %rdi
	addq	$5368, %rdi
	call	_ZNK3Upp9ArrayCtrl9GetCursorEv
	testl	%eax, %eax
	setg	%al
	testb	%al, %al
	je	.L1264
	movq	-8(%rbp), %rdi
	addq	$5368, %rdi
	call	_ZNK3Upp9ArrayCtrl9GetCursorEv
	leal	-1(%rax), %esi
	movq	-8(%rbp), %rdi
	addq	$11400, %rdi
	call	_ZN3Upp5ArrayI15PackageTemplateEixEi
	movq	%rax, -16(%rbp)
	jmp	.L1266
.L1264:
	movl	$_ZGVZN11TemplateDlg14ActualTemplateEvE1t, %eax
	movzbl	(%rax), %eax
	testb	%al, %al
	jne	.L1267
	movl	$_ZGVZN11TemplateDlg14ActualTemplateEvE1t, %edi
	call	__cxa_guard_acquire
	testl	%eax, %eax
	setne	%al
	testb	%al, %al
	je	.L1267
	movl	$_ZZN11TemplateDlg14ActualTemplateEvE1t, %edi
	call	_ZN15PackageTemplateC1Ev
	movl	$_ZGVZN11TemplateDlg14ActualTemplateEvE1t, %edi
	call	__cxa_guard_release
	movl	$__dso_handle, %edx
	movl	$0, %esi
	movl	$__tcf_0, %edi
	call	__cxa_atexit
.L1267:
	movq	$_ZZN11TemplateDlg14ActualTemplateEvE1t, -16(%rbp)
.L1266:
	movq	-16(%rbp), %rax
	leave
	ret
.LFE7950:
	.size	_ZN11TemplateDlg14ActualTemplateEv, .-_ZN11TemplateDlg14ActualTemplateEv
	.align 2
.globl _ZN11TemplateDlg5InitsEv
	.type	_ZN11TemplateDlg5InitsEv, @function
_ZN11TemplateDlg5InitsEv:
.LFB7965:
	pushq	%rbp
.LCFI1075:
	movq	%rsp, %rbp
.LCFI1076:
	pushq	%rbx
.LCFI1077:
	subq	$248, %rsp
.LCFI1078:
	movq	%rdi, -232(%rbp)
	movq	%fs:40, %rax
	movq	%rax, -24(%rbp)
	xorl	%eax, %eax
	movq	-232(%rbp), %rdi
	call	_ZN11TemplateDlg14ActualTemplateEv
	movq	%rax, -64(%rbp)
	leaq	-224(%rbp), %rdi
	movq	-232(%rbp), %rsi
.LEHB121:
	call	_ZN11TemplateDlg9MakeVars0Ev
.LEHE121:
	movl	$0, -52(%rbp)
	jmp	.L1272
.L1273:
	movq	-64(%rbp), %rdi
	addq	$24, %rdi
	movl	-52(%rbp), %esi
	call	_ZNK3Upp5ArrayI12TemplateItemEixEi
	leaq	56(%rax), %rsi
	leaq	-48(%rbp), %rdi
.LEHB122:
	call	_ZN3Upp6StringC1ERKS0_
.LEHE122:
	leaq	-48(%rbp), %rdi
	call	_ZN3Upp6IsNullINS_6StringEEEbRKT_
	xorl	$1, %eax
	xorl	$1, %eax
	testb	%al, %al
	jne	.L1274
	movq	-232(%rbp), %rdi
	addq	$11448, %rdi
	movl	-52(%rbp), %esi
	call	_ZN3Upp5ArrayINS_4CtrlEEixEi
	movq	%rax, %rdi
	movq	(%rdi), %rax
	addq	$72, %rax
	movq	(%rax), %rax
.LEHB123:
	call	*%rax
	xorl	$1, %eax
	xorl	$1, %eax
	testb	%al, %al
	jne	.L1274
	movb	$1, -233(%rbp)
	jmp	.L1277
.L1274:
	movb	$0, -233(%rbp)
.L1277:
	movzbl	-233(%rbp), %eax
	testb	%al, %al
	je	.L1278
	leaq	-48(%rbp), %rdi
	call	_ZNK3Upp7AStringINS_7String0EEcvPKcEv
	movq	%rax, %rsi
	leaq	-96(%rbp), %rdi
	leaq	-224(%rbp), %rdx
	movl	$50000, %ecx
	call	_ZN3Upp8EvaluateEPKcRNS_8ArrayMapINS_6StringENS_8EscValueENS_7StdHashIS3_EEEEi
.LEHE123:
	leaq	-80(%rbp), %rdi
	leaq	-96(%rbp), %rsi
.LEHB124:
	call	_ZN3Upp15StdValueFromEscERKNS_8EscValueE
.LEHE124:
	movq	-232(%rbp), %rdi
	addq	$11448, %rdi
	movl	-52(%rbp), %esi
	call	_ZN3Upp5ArrayINS_4CtrlEEixEi
	movq	%rax, %rdi
	leaq	-80(%rbp), %rsi
.LEHB125:
	call	_ZN3Upp4CtrllSERKNS_5ValueE
.LEHE125:
	leaq	-80(%rbp), %rdi
.LEHB126:
	call	_ZN3Upp5ValueD1Ev
.LEHE126:
	jmp	.L1280
.L1289:
	movq	%rax, -248(%rbp)
.L1281:
	movq	-248(%rbp), %rbx
	leaq	-80(%rbp), %rdi
	call	_ZN3Upp5ValueD1Ev
	movq	%rbx, -248(%rbp)
	jmp	.L1283
.L1280:
	leaq	-96(%rbp), %rdi
.LEHB127:
	call	_ZN3Upp8EscValueD1Ev
.LEHE127:
	jmp	.L1282
.L1290:
	movq	%rax, -248(%rbp)
.L1283:
	movq	-248(%rbp), %rbx
	leaq	-96(%rbp), %rdi
	call	_ZN3Upp8EscValueD1Ev
	movq	%rbx, -248(%rbp)
	jmp	.L1284
.L1282:
	movq	-232(%rbp), %rdi
	addq	$11448, %rdi
	movl	-52(%rbp), %esi
	call	_ZN3Upp5ArrayINS_4CtrlEEixEi
	movq	%rax, %rdi
	movq	(%rdi), %rax
	addq	$64, %rax
	movq	(%rax), %rax
.LEHB128:
	call	*%rax
.LEHE128:
.L1278:
	leaq	-48(%rbp), %rdi
	call	_ZN3Upp6StringD1Ev
	addl	$1, -52(%rbp)
	jmp	.L1272
.L1291:
	movq	%rax, -248(%rbp)
.L1284:
	movq	-248(%rbp), %rbx
	leaq	-48(%rbp), %rdi
	call	_ZN3Upp6StringD1Ev
	movq	%rbx, -248(%rbp)
	jmp	.L1286
.L1272:
	movq	-64(%rbp), %rdi
	addq	$24, %rdi
	call	_ZNK3Upp5ArrayI12TemplateItemE8GetCountEv
	cmpl	-52(%rbp), %eax
	setg	%al
	testb	%al, %al
	jne	.L1273
	leaq	-224(%rbp), %rdi
	call	_ZN3Upp8ArrayMapINS_6StringENS_8EscValueENS_7StdHashIS1_EEED1Ev
	jmp	.L1287
.L1292:
	movq	%rax, -248(%rbp)
.L1286:
	movq	-248(%rbp), %rbx
	leaq	-224(%rbp), %rdi
	call	_ZN3Upp8ArrayMapINS_6StringENS_8EscValueENS_7StdHashIS1_EEED1Ev
	movq	%rbx, -248(%rbp)
	movq	-248(%rbp), %rdi
.LEHB129:
	call	_Unwind_Resume
.LEHE129:
.L1287:
	movq	-24(%rbp), %rax
	xorq	%fs:40, %rax
	je	.L1288
	call	__stack_chk_fail
.L1288:
	addq	$248, %rsp
	popq	%rbx
	leave
	ret
.LFE7965:
	.size	_ZN11TemplateDlg5InitsEv, .-_ZN11TemplateDlg5InitsEv
	.section	.gcc_except_table
.LLSDA7965:
	.byte	0xff
	.byte	0xff
	.byte	0x1
	.uleb128 .LLSDACSE7965-.LLSDACSB7965
.LLSDACSB7965:
	.uleb128 .LEHB121-.LFB7965
	.uleb128 .LEHE121-.LEHB121
	.uleb128 0x0
	.uleb128 0x0
	.uleb128 .LEHB122-.LFB7965
	.uleb128 .LEHE122-.LEHB122
	.uleb128 .L1292-.LFB7965
	.uleb128 0x0
	.uleb128 .LEHB123-.LFB7965
	.uleb128 .LEHE123-.LEHB123
	.uleb128 .L1291-.LFB7965
	.uleb128 0x0
	.uleb128 .LEHB124-.LFB7965
	.uleb128 .LEHE124-.LEHB124
	.uleb128 .L1290-.LFB7965
	.uleb128 0x0
	.uleb128 .LEHB125-.LFB7965
	.uleb128 .LEHE125-.LEHB125
	.uleb128 .L1289-.LFB7965
	.uleb128 0x0
	.uleb128 .LEHB126-.LFB7965
	.uleb128 .LEHE126-.LEHB126
	.uleb128 .L1290-.LFB7965
	.uleb128 0x0
	.uleb128 .LEHB127-.LFB7965
	.uleb128 .LEHE127-.LEHB127
	.uleb128 .L1291-.LFB7965
	.uleb128 0x0
	.uleb128 .LEHB128-.LFB7965
	.uleb128 .LEHE128-.LEHB128
	.uleb128 .L1291-.LFB7965
	.uleb128 0x0
	.uleb128 .LEHB129-.LFB7965
	.uleb128 .LEHE129-.LEHB129
	.uleb128 0x0
	.uleb128 0x0
.LLSDACSE7965:
	.text
	.align 2
.globl _ZN11TemplateDlg8MakeVarsEv
	.type	_ZN11TemplateDlg8MakeVarsEv, @function
_ZN11TemplateDlg8MakeVarsEv:
.LFB7962:
	pushq	%rbp
.LCFI1079:
	movq	%rsp, %rbp
.LCFI1080:
	pushq	%rbx
.LCFI1081:
	subq	$216, %rsp
.LCFI1082:
	movq	%rdi, -208(%rbp)
	movq	%rsi, -200(%rbp)
	movq	-200(%rbp), %rdi
	call	_ZN11TemplateDlg14ActualTemplateEv
	movq	%rax, -32(%rbp)
	movq	-208(%rbp), %rdi
	movq	-200(%rbp), %rsi
.LEHB130:
	call	_ZN11TemplateDlg9MakeVars0Ev
.LEHE130:
	movl	$0, -20(%rbp)
	jmp	.L1294
.L1295:
	movq	-200(%rbp), %rdi
	addq	$11448, %rdi
	movl	-20(%rbp), %esi
	call	_ZN3Upp5ArrayINS_4CtrlEEixEi
	movq	%rax, %rsi
	leaq	-48(%rbp), %rdi
.LEHB131:
	call	_ZNK3Upp4CtrlcoEv
.LEHE131:
	leaq	-64(%rbp), %rdi
	leaq	-48(%rbp), %rsi
.LEHB132:
	call	_ZN3Upp15EscFromStdValueERKNS_5ValueE
.LEHE132:
	movq	-32(%rbp), %rdi
	addq	$24, %rdi
	movl	-20(%rbp), %esi
	call	_ZNK3Upp5ArrayI12TemplateItemEixEi
	leaq	24(%rax), %rsi
	movq	-208(%rbp), %rdi
	leaq	-64(%rbp), %rdx
.LEHB133:
	call	_ZN3Upp8ArrayMapINS_6StringENS_8EscValueENS_7StdHashIS1_EEE3AddERKS1_RKS2_
.LEHE133:
	leaq	-64(%rbp), %rdi
.LEHB134:
	call	_ZN3Upp8EscValueD1Ev
.LEHE134:
	jmp	.L1296
.L1303:
	movq	%rax, -216(%rbp)
.L1297:
	movq	-216(%rbp), %rbx
	leaq	-64(%rbp), %rdi
	call	_ZN3Upp8EscValueD1Ev
	movq	%rbx, -216(%rbp)
	jmp	.L1299
.L1296:
	leaq	-48(%rbp), %rdi
.LEHB135:
	call	_ZN3Upp5ValueD1Ev
.LEHE135:
	jmp	.L1298
.L1304:
	movq	%rax, -216(%rbp)
.L1299:
	movq	-216(%rbp), %rbx
	leaq	-48(%rbp), %rdi
	call	_ZN3Upp5ValueD1Ev
	movq	%rbx, -216(%rbp)
	jmp	.L1301
.L1298:
	addl	$1, -20(%rbp)
.L1294:
	movq	-32(%rbp), %rdi
	addq	$24, %rdi
	call	_ZNK3Upp5ArrayI12TemplateItemE8GetCountEv
	cmpl	-20(%rbp), %eax
	setg	%al
	testb	%al, %al
	jne	.L1295
	movq	-208(%rbp), %rdi
.LEHB136:
	call	_ZN3Upp6StdLibERNS_8ArrayMapINS_6StringENS_8EscValueENS_7StdHashIS1_EEEE
.LEHE136:
	jmp	.L1293
.L1305:
	movq	%rax, -216(%rbp)
.L1301:
	movq	-216(%rbp), %rbx
	movq	-208(%rbp), %rdi
	call	_ZN3Upp8ArrayMapINS_6StringENS_8EscValueENS_7StdHashIS1_EEED1Ev
	movq	%rbx, -216(%rbp)
	movq	-216(%rbp), %rdi
.LEHB137:
	call	_Unwind_Resume
.LEHE137:
.L1293:
	movq	-208(%rbp), %rax
	addq	$216, %rsp
	popq	%rbx
	leave
	ret
.LFE7962:
	.size	_ZN11TemplateDlg8MakeVarsEv, .-_ZN11TemplateDlg8MakeVarsEv
	.section	.gcc_except_table
.LLSDA7962:
	.byte	0xff
	.byte	0xff
	.byte	0x1
	.uleb128 .LLSDACSE7962-.LLSDACSB7962
.LLSDACSB7962:
	.uleb128 .LEHB130-.LFB7962
	.uleb128 .LEHE130-.LEHB130
	.uleb128 0x0
	.uleb128 0x0
	.uleb128 .LEHB131-.LFB7962
	.uleb128 .LEHE131-.LEHB131
	.uleb128 .L1305-.LFB7962
	.uleb128 0x0
	.uleb128 .LEHB132-.LFB7962
	.uleb128 .LEHE132-.LEHB132
	.uleb128 .L1304-.LFB7962
	.uleb128 0x0
	.uleb128 .LEHB133-.LFB7962
	.uleb128 .LEHE133-.LEHB133
	.uleb128 .L1303-.LFB7962
	.uleb128 0x0
	.uleb128 .LEHB134-.LFB7962
	.uleb128 .LEHE134-.LEHB134
	.uleb128 .L1304-.LFB7962
	.uleb128 0x0
	.uleb128 .LEHB135-.LFB7962
	.uleb128 .LEHE135-.LEHB135
	.uleb128 .L1305-.LFB7962
	.uleb128 0x0
	.uleb128 .LEHB136-.LFB7962
	.uleb128 .LEHE136-.LEHB136
	.uleb128 .L1305-.LFB7962
	.uleb128 0x0
	.uleb128 .LEHB137-.LFB7962
	.uleb128 .LEHE137-.LEHB137
	.uleb128 0x0
	.uleb128 0x0
.LLSDACSE7962:
	.text
	.section	.rodata
.LC5:
	.string	".upp"
	.text
	.align 2
.globl _ZN11TemplateDlg6CreateEv
	.type	_ZN11TemplateDlg6CreateEv, @function
_ZN11TemplateDlg6CreateEv:
.LFB7964:
	pushq	%rbp
.LCFI1083:
	movq	%rsp, %rbp
.LCFI1084:
	pushq	%rbx
.LCFI1085:
	subq	$840, %rsp
.LCFI1086:
	movq	%rdi, -792(%rbp)
	movq	%fs:40, %rax
	movq	%rax, -24(%rbp)
	xorl	%eax, %eax
	movq	-792(%rbp), %rdi
	call	_ZN11TemplateDlg14ActualTemplateEv
	movq	%rax, -552(%rbp)
	leaq	-784(%rbp), %rdi
	movq	-792(%rbp), %rsi
.LEHB138:
	call	_ZN11TemplateDlg8MakeVarsEv
.LEHE138:
	movl	$0, -532(%rbp)
	jmp	.L1307
.L1308:
	movq	-552(%rbp), %rdi
	addq	$48, %rdi
	movl	-532(%rbp), %esi
	call	_ZNK3Upp5ArrayI12FileTemplateEixEi
	movq	%rax, -544(%rbp)
	movb	$0, -833(%rbp)
	movq	-544(%rbp), %rdi
	addq	$16, %rdi
	call	_ZN3Upp6IsNullINS_6StringEEEbRKT_
	testb	%al, %al
	jne	.L1309
	movq	-544(%rbp), %rdi
	addq	$16, %rdi
	call	_ZNK3Upp7AStringINS_7String0EEcvPKcEv
	movq	%rax, %rsi
	leaq	-656(%rbp), %rdi
	leaq	-784(%rbp), %rdx
	movl	$50000, %ecx
.LEHB139:
	call	_ZN3Upp8EvaluateEPKcRNS_8ArrayMapINS_6StringENS_8EscValueENS_7StdHashIS3_EEEEi
	movb	$1, -833(%rbp)
	leaq	-656(%rbp), %rdi
	call	_ZN3Upp6IsTrueERKNS_8EscValueE
.LEHE139:
	testb	%al, %al
	je	.L1311
.L1309:
	movb	$1, -834(%rbp)
	jmp	.L1312
.L1311:
	movb	$0, -834(%rbp)
.L1312:
	movzbl	-834(%rbp), %eax
	movb	%al, -835(%rbp)
	cmpb	$0, -833(%rbp)
	jne	.L1313
	jmp	.L1314
.L1376:
	movq	%rax, -848(%rbp)
.L1315:
	movq	-848(%rbp), %rax
	movq	%rax, -800(%rbp)
	cmpb	$0, -833(%rbp)
	je	.L1316
	leaq	-656(%rbp), %rdi
	call	_ZN3Upp8EscValueD1Ev
.L1316:
	movq	-800(%rbp), %rax
	movq	%rax, -848(%rbp)
	jmp	.L1352
.L1313:
	leaq	-656(%rbp), %rdi
.LEHB140:
	call	_ZN3Upp8EscValueD1Ev
.L1314:
	cmpb	$0, -835(%rbp)
	je	.L1318
	movq	-544(%rbp), %rsi
	leaq	-256(%rbp), %rdi
	leaq	-784(%rbp), %rdx
	movl	$_ZN3Upp9StdFormatERKNS_5ValueE, %r8d
	movl	$50000, %ecx
	call	_ZN3Upp6ExpandERKNS_6StringERNS_8ArrayMapIS0_NS_8EscValueENS_7StdHashIS0_EEEEiPFS0_RKNS_5ValueEE
.LEHE140:
	leaq	-256(%rbp), %rdi
	call	_ZN3Upp6IsNullINS_6StringEEEbRKT_
	xorl	$1, %eax
	testb	%al, %al
	je	.L1320
	leaq	-256(%rbp), %rdi
	call	_ZNK3Upp7AStringINS_7String0EEcvPKcEv
	movq	%rax, -832(%rbp)
	movq	-792(%rbp), %rsi
	addq	$656, %rsi
	leaq	-640(%rbp), %rdi
.LEHB141:
	call	_ZNK3Upp4CtrlcoEv
.LEHE141:
	leaq	-192(%rbp), %rdi
	leaq	-640(%rbp), %rsi
.LEHB142:
	call	_ZNK3Upp5ValuecvNS_6StringEEv
.LEHE142:
	leaq	-192(%rbp), %rdi
	call	_ZNK3Upp7AStringINS_7String0EEcvPKcEv
	movq	%rax, -824(%rbp)
	movq	-792(%rbp), %rsi
	addq	$1304, %rsi
	leaq	-624(%rbp), %rdi
.LEHB143:
	call	_ZNK3Upp4CtrlcoEv
.LEHE143:
	leaq	-176(%rbp), %rdi
	leaq	-624(%rbp), %rsi
.LEHB144:
	call	_ZNK3Upp5ValuecvNS_6StringEEv
.LEHE144:
	leaq	-208(%rbp), %rdi
	leaq	-176(%rbp), %rsi
	movq	-824(%rbp), %rdx
.LEHB145:
	call	_ZN3Upp14AppendFileNameERKNS_6StringEPKc
.LEHE145:
	leaq	-224(%rbp), %rdi
	leaq	-208(%rbp), %rsi
	movq	-832(%rbp), %rdx
.LEHB146:
	call	_ZN3Upp14AppendFileNameERKNS_6StringEPKc
.LEHE146:
	leaq	-224(%rbp), %rsi
	leaq	-256(%rbp), %rdi
.LEHB147:
	call	_ZN3Upp6StringaSERKS0_
.LEHE147:
	leaq	-224(%rbp), %rdi
	call	_ZN3Upp6StringD1Ev
	leaq	-208(%rbp), %rdi
	call	_ZN3Upp6StringD1Ev
	leaq	-176(%rbp), %rdi
	call	_ZN3Upp6StringD1Ev
	leaq	-624(%rbp), %rdi
.LEHB148:
	call	_ZN3Upp5ValueD1Ev
.LEHE148:
	jmp	.L1322
.L1369:
	movq	%rax, -848(%rbp)
.L1323:
	movq	-848(%rbp), %rbx
	leaq	-224(%rbp), %rdi
	call	_ZN3Upp6StringD1Ev
	movq	%rbx, -848(%rbp)
	jmp	.L1324
.L1370:
	movq	%rax, -848(%rbp)
.L1324:
	movq	-848(%rbp), %rbx
	leaq	-208(%rbp), %rdi
	call	_ZN3Upp6StringD1Ev
	movq	%rbx, -848(%rbp)
	jmp	.L1325
.L1371:
	movq	%rax, -848(%rbp)
.L1325:
	movq	-848(%rbp), %rbx
	leaq	-176(%rbp), %rdi
	call	_ZN3Upp6StringD1Ev
	movq	%rbx, -848(%rbp)
	jmp	.L1326
.L1372:
	movq	%rax, -848(%rbp)
.L1326:
	movq	-848(%rbp), %rbx
	leaq	-624(%rbp), %rdi
	call	_ZN3Upp5ValueD1Ev
	movq	%rbx, -848(%rbp)
	jmp	.L1328
.L1322:
	leaq	-192(%rbp), %rdi
	call	_ZN3Upp6StringD1Ev
	leaq	-640(%rbp), %rdi
.LEHB149:
	call	_ZN3Upp5ValueD1Ev
.LEHE149:
	jmp	.L1327
.L1373:
	movq	%rax, -848(%rbp)
.L1328:
	movq	-848(%rbp), %rbx
	leaq	-192(%rbp), %rdi
	call	_ZN3Upp6StringD1Ev
	movq	%rbx, -848(%rbp)
	jmp	.L1329
.L1374:
	movq	%rax, -848(%rbp)
.L1329:
	movq	-848(%rbp), %rbx
	leaq	-640(%rbp), %rdi
	call	_ZN3Upp5ValueD1Ev
	movq	%rbx, -848(%rbp)
	jmp	.L1333
.L1327:
	leaq	-256(%rbp), %rsi
	leaq	-160(%rbp), %rdi
.LEHB150:
	call	_ZN3Upp6StringC1ERKS0_
.LEHE150:
	leaq	-160(%rbp), %rdi
.LEHB151:
	call	_ZN3Upp11RealizePathENS_6StringE
.LEHE151:
	leaq	-160(%rbp), %rdi
	call	_ZN3Upp6StringD1Ev
	movq	-544(%rbp), %rsi
	addq	$32, %rsi
	leaq	-144(%rbp), %rdi
	leaq	-784(%rbp), %rdx
	movl	$_ZN3Upp9StdFormatERKNS_5ValueE, %r8d
	movl	$50000, %ecx
.LEHB152:
	call	_ZN3Upp6ExpandERKNS_6StringERNS_8ArrayMapIS0_NS_8EscValueENS_7StdHashIS0_EEEEiPFS0_RKNS_5ValueEE
.LEHE152:
	jmp	.L1330
.L1368:
	movq	%rax, -848(%rbp)
.L1331:
	movq	-848(%rbp), %rbx
	leaq	-160(%rbp), %rdi
	call	_ZN3Upp6StringD1Ev
	movq	%rbx, -848(%rbp)
	jmp	.L1333
.L1330:
	leaq	-256(%rbp), %rdi
	call	_ZNK3Upp7AStringINS_7String0EEcvPKcEv
	movq	%rax, %rdi
	leaq	-144(%rbp), %rsi
.LEHB153:
	call	_ZN3Upp8SaveFileEPKcRKNS_6StringE
.LEHE153:
	leaq	-144(%rbp), %rdi
	call	_ZN3Upp6StringD1Ev
	jmp	.L1320
.L1367:
	movq	%rax, -848(%rbp)
.L1332:
	movq	-848(%rbp), %rbx
	leaq	-144(%rbp), %rdi
	call	_ZN3Upp6StringD1Ev
	movq	%rbx, -848(%rbp)
	jmp	.L1333
.L1320:
	leaq	-256(%rbp), %rdi
	call	_ZN3Upp6StringD1Ev
	jmp	.L1318
.L1375:
	movq	%rax, -848(%rbp)
.L1333:
	movq	-848(%rbp), %rbx
	leaq	-256(%rbp), %rdi
	call	_ZN3Upp6StringD1Ev
	movq	%rbx, -848(%rbp)
	jmp	.L1352
.L1318:
	addl	$1, -532(%rbp)
.L1307:
	movq	-552(%rbp), %rdi
	addq	$48, %rdi
	call	_ZNK3Upp5ArrayI12FileTemplateE8GetCountEv
	cmpl	-532(%rbp), %eax
	setg	%al
	testb	%al, %al
	jne	.L1308
	leaq	-528(%rbp), %rdi
.LEHB154:
	call	_ZN7PackageC1Ev
.LEHE154:
	movq	-792(%rbp), %rsi
	addq	$656, %rsi
	leaq	-608(%rbp), %rdi
.LEHB155:
	call	_ZNK3Upp4CtrlcoEv
.LEHE155:
	leaq	-112(%rbp), %rdi
	leaq	-608(%rbp), %rsi
.LEHB156:
	call	_ZNK3Upp5ValuecvNS_6StringEEv
.LEHE156:
	leaq	-128(%rbp), %rdi
	leaq	-112(%rbp), %rsi
	movl	$.LC5, %edx
.LEHB157:
	call	_ZN3UppplERKNS_6StringEPKc
.LEHE157:
	leaq	-128(%rbp), %rdi
	call	_ZNK3Upp7AStringINS_7String0EEcvPKcEv
	movq	%rax, -816(%rbp)
	movq	-792(%rbp), %rsi
	addq	$656, %rsi
	leaq	-592(%rbp), %rdi
.LEHB158:
	call	_ZNK3Upp4CtrlcoEv
.LEHE158:
	leaq	-80(%rbp), %rdi
	leaq	-592(%rbp), %rsi
.LEHB159:
	call	_ZNK3Upp5ValuecvNS_6StringEEv
.LEHE159:
	leaq	-80(%rbp), %rdi
	call	_ZNK3Upp7AStringINS_7String0EEcvPKcEv
	movq	%rax, -808(%rbp)
	movq	-792(%rbp), %rsi
	addq	$1304, %rsi
	leaq	-576(%rbp), %rdi
.LEHB160:
	call	_ZNK3Upp4CtrlcoEv
.LEHE160:
	leaq	-64(%rbp), %rdi
	leaq	-576(%rbp), %rsi
.LEHB161:
	call	_ZNK3Upp5ValuecvNS_6StringEEv
.LEHE161:
	leaq	-96(%rbp), %rdi
	leaq	-64(%rbp), %rsi
	movq	-808(%rbp), %rdx
.LEHB162:
	call	_ZN3Upp14AppendFileNameERKNS_6StringEPKc
.LEHE162:
	leaq	-240(%rbp), %rdi
	leaq	-96(%rbp), %rsi
	movq	-816(%rbp), %rdx
.LEHB163:
	call	_ZN3Upp14AppendFileNameERKNS_6StringEPKc
.LEHE163:
	leaq	-96(%rbp), %rdi
	call	_ZN3Upp6StringD1Ev
	leaq	-64(%rbp), %rdi
	call	_ZN3Upp6StringD1Ev
	leaq	-576(%rbp), %rdi
.LEHB164:
	call	_ZN3Upp5ValueD1Ev
.LEHE164:
	jmp	.L1335
.L1358:
	movq	%rax, -848(%rbp)
.L1336:
	movq	-848(%rbp), %rbx
	leaq	-96(%rbp), %rdi
	call	_ZN3Upp6StringD1Ev
	movq	%rbx, -848(%rbp)
	jmp	.L1337
.L1359:
	movq	%rax, -848(%rbp)
.L1337:
	movq	-848(%rbp), %rbx
	leaq	-64(%rbp), %rdi
	call	_ZN3Upp6StringD1Ev
	movq	%rbx, -848(%rbp)
	jmp	.L1338
.L1360:
	movq	%rax, -848(%rbp)
.L1338:
	movq	-848(%rbp), %rbx
	leaq	-576(%rbp), %rdi
	call	_ZN3Upp5ValueD1Ev
	movq	%rbx, -848(%rbp)
	jmp	.L1340
.L1335:
	leaq	-80(%rbp), %rdi
	call	_ZN3Upp6StringD1Ev
	leaq	-592(%rbp), %rdi
.LEHB165:
	call	_ZN3Upp5ValueD1Ev
.LEHE165:
	jmp	.L1339
.L1361:
	movq	%rax, -848(%rbp)
.L1340:
	movq	-848(%rbp), %rbx
	leaq	-80(%rbp), %rdi
	call	_ZN3Upp6StringD1Ev
	movq	%rbx, -848(%rbp)
	jmp	.L1341
.L1362:
	movq	%rax, -848(%rbp)
.L1341:
	movq	-848(%rbp), %rbx
	leaq	-592(%rbp), %rdi
	call	_ZN3Upp5ValueD1Ev
	movq	%rbx, -848(%rbp)
	jmp	.L1343
.L1339:
	leaq	-128(%rbp), %rdi
	call	_ZN3Upp6StringD1Ev
	leaq	-112(%rbp), %rdi
	call	_ZN3Upp6StringD1Ev
	leaq	-608(%rbp), %rdi
.LEHB166:
	call	_ZN3Upp5ValueD1Ev
.LEHE166:
	jmp	.L1342
.L1363:
	movq	%rax, -848(%rbp)
.L1343:
	movq	-848(%rbp), %rbx
	leaq	-128(%rbp), %rdi
	call	_ZN3Upp6StringD1Ev
	movq	%rbx, -848(%rbp)
	jmp	.L1344
.L1364:
	movq	%rax, -848(%rbp)
.L1344:
	movq	-848(%rbp), %rbx
	leaq	-112(%rbp), %rdi
	call	_ZN3Upp6StringD1Ev
	movq	%rbx, -848(%rbp)
	jmp	.L1345
.L1365:
	movq	%rax, -848(%rbp)
.L1345:
	movq	-848(%rbp), %rbx
	leaq	-608(%rbp), %rdi
	call	_ZN3Upp5ValueD1Ev
	movq	%rbx, -848(%rbp)
	jmp	.L1351
.L1342:
	leaq	-240(%rbp), %rdi
	call	_ZNK3Upp7AStringINS_7String0EEcvPKcEv
	movq	%rax, %rsi
	leaq	-528(%rbp), %rdi
.LEHB167:
	call	_ZN7Package4LoadEPKc
	movq	-792(%rbp), %rsi
	addq	$9280, %rsi
	leaq	-560(%rbp), %rdi
	call	_ZNK3Upp4CtrlcoEv
.LEHE167:
	leaq	-48(%rbp), %rdi
	leaq	-560(%rbp), %rsi
.LEHB168:
	call	_ZNK3Upp5ValuecvNS_6StringEEv
.LEHE168:
	leaq	-48(%rbp), %rsi
	leaq	-528(%rbp), %rax
	leaq	8(%rax), %rdi
.LEHB169:
	call	_ZN3Upp6StringaSERKS0_
.LEHE169:
	leaq	-48(%rbp), %rdi
	call	_ZN3Upp6StringD1Ev
	leaq	-560(%rbp), %rdi
.LEHB170:
	call	_ZN3Upp5ValueD1Ev
.LEHE170:
	jmp	.L1346
.L1355:
	movq	%rax, -848(%rbp)
.L1347:
	movq	-848(%rbp), %rbx
	leaq	-48(%rbp), %rdi
	call	_ZN3Upp6StringD1Ev
	movq	%rbx, -848(%rbp)
	jmp	.L1348
.L1356:
	movq	%rax, -848(%rbp)
.L1348:
	movq	-848(%rbp), %rbx
	leaq	-560(%rbp), %rdi
	call	_ZN3Upp5ValueD1Ev
	movq	%rbx, -848(%rbp)
	jmp	.L1350
.L1346:
	leaq	-240(%rbp), %rdi
	call	_ZNK3Upp7AStringINS_7String0EEcvPKcEv
	movq	%rax, %rsi
	leaq	-528(%rbp), %rdi
.LEHB171:
	call	_ZNK7Package4SaveEPKc
.LEHE171:
	leaq	-240(%rbp), %rdi
	call	_ZN3Upp6StringD1Ev
	leaq	-528(%rbp), %rdi
.LEHB172:
	call	_ZN7PackageD1Ev
.LEHE172:
	jmp	.L1349
.L1357:
	movq	%rax, -848(%rbp)
.L1350:
	movq	-848(%rbp), %rbx
	leaq	-240(%rbp), %rdi
	call	_ZN3Upp6StringD1Ev
	movq	%rbx, -848(%rbp)
	jmp	.L1351
.L1366:
	movq	%rax, -848(%rbp)
.L1351:
	movq	-848(%rbp), %rbx
	leaq	-528(%rbp), %rdi
	call	_ZN7PackageD1Ev
	movq	%rbx, -848(%rbp)
	jmp	.L1352
.L1349:
	leaq	-784(%rbp), %rdi
	call	_ZN3Upp8ArrayMapINS_6StringENS_8EscValueENS_7StdHashIS1_EEED1Ev
	jmp	.L1353
.L1377:
	movq	%rax, -848(%rbp)
.L1352:
	movq	-848(%rbp), %rbx
	leaq	-784(%rbp), %rdi
	call	_ZN3Upp8ArrayMapINS_6StringENS_8EscValueENS_7StdHashIS1_EEED1Ev
	movq	%rbx, -848(%rbp)
	movq	-848(%rbp), %rdi
.LEHB173:
	call	_Unwind_Resume
.LEHE173:
.L1353:
	movq	-24(%rbp), %rax
	xorq	%fs:40, %rax
	je	.L1354
	call	__stack_chk_fail
.L1354:
	addq	$840, %rsp
	popq	%rbx
	leave
	ret
.LFE7964:
	.size	_ZN11TemplateDlg6CreateEv, .-_ZN11TemplateDlg6CreateEv
	.section	.gcc_except_table
.LLSDA7964:
	.byte	0xff
	.byte	0xff
	.byte	0x1
	.uleb128 .LLSDACSE7964-.LLSDACSB7964
.LLSDACSB7964:
	.uleb128 .LEHB138-.LFB7964
	.uleb128 .LEHE138-.LEHB138
	.uleb128 0x0
	.uleb128 0x0
	.uleb128 .LEHB139-.LFB7964
	.uleb128 .LEHE139-.LEHB139
	.uleb128 .L1376-.LFB7964
	.uleb128 0x0
	.uleb128 .LEHB140-.LFB7964
	.uleb128 .LEHE140-.LEHB140
	.uleb128 .L1377-.LFB7964
	.uleb128 0x0
	.uleb128 .LEHB141-.LFB7964
	.uleb128 .LEHE141-.LEHB141
	.uleb128 .L1375-.LFB7964
	.uleb128 0x0
	.uleb128 .LEHB142-.LFB7964
	.uleb128 .LEHE142-.LEHB142
	.uleb128 .L1374-.LFB7964
	.uleb128 0x0
	.uleb128 .LEHB143-.LFB7964
	.uleb128 .LEHE143-.LEHB143
	.uleb128 .L1373-.LFB7964
	.uleb128 0x0
	.uleb128 .LEHB144-.LFB7964
	.uleb128 .LEHE144-.LEHB144
	.uleb128 .L1372-.LFB7964
	.uleb128 0x0
	.uleb128 .LEHB145-.LFB7964
	.uleb128 .LEHE145-.LEHB145
	.uleb128 .L1371-.LFB7964
	.uleb128 0x0
	.uleb128 .LEHB146-.LFB7964
	.uleb128 .LEHE146-.LEHB146
	.uleb128 .L1370-.LFB7964
	.uleb128 0x0
	.uleb128 .LEHB147-.LFB7964
	.uleb128 .LEHE147-.LEHB147
	.uleb128 .L1369-.LFB7964
	.uleb128 0x0
	.uleb128 .LEHB148-.LFB7964
	.uleb128 .LEHE148-.LEHB148
	.uleb128 .L1373-.LFB7964
	.uleb128 0x0
	.uleb128 .LEHB149-.LFB7964
	.uleb128 .LEHE149-.LEHB149
	.uleb128 .L1375-.LFB7964
	.uleb128 0x0
	.uleb128 .LEHB150-.LFB7964
	.uleb128 .LEHE150-.LEHB150
	.uleb128 .L1375-.LFB7964
	.uleb128 0x0
	.uleb128 .LEHB151-.LFB7964
	.uleb128 .LEHE151-.LEHB151
	.uleb128 .L1368-.LFB7964
	.uleb128 0x0
	.uleb128 .LEHB152-.LFB7964
	.uleb128 .LEHE152-.LEHB152
	.uleb128 .L1375-.LFB7964
	.uleb128 0x0
	.uleb128 .LEHB153-.LFB7964
	.uleb128 .LEHE153-.LEHB153
	.uleb128 .L1367-.LFB7964
	.uleb128 0x0
	.uleb128 .LEHB154-.LFB7964
	.uleb128 .LEHE154-.LEHB154
	.uleb128 .L1377-.LFB7964
	.uleb128 0x0
	.uleb128 .LEHB155-.LFB7964
	.uleb128 .LEHE155-.LEHB155
	.uleb128 .L1366-.LFB7964
	.uleb128 0x0
	.uleb128 .LEHB156-.LFB7964
	.uleb128 .LEHE156-.LEHB156
	.uleb128 .L1365-.LFB7964
	.uleb128 0x0
	.uleb128 .LEHB157-.LFB7964
	.uleb128 .LEHE157-.LEHB157
	.uleb128 .L1364-.LFB7964
	.uleb128 0x0
	.uleb128 .LEHB158-.LFB7964
	.uleb128 .LEHE158-.LEHB158
	.uleb128 .L1363-.LFB7964
	.uleb128 0x0
	.uleb128 .LEHB159-.LFB7964
	.uleb128 .LEHE159-.LEHB159
	.uleb128 .L1362-.LFB7964
	.uleb128 0x0
	.uleb128 .LEHB160-.LFB7964
	.uleb128 .LEHE160-.LEHB160
	.uleb128 .L1361-.LFB7964
	.uleb128 0x0
	.uleb128 .LEHB161-.LFB7964
	.uleb128 .LEHE161-.LEHB161
	.uleb128 .L1360-.LFB7964
	.uleb128 0x0
	.uleb128 .LEHB162-.LFB7964
	.uleb128 .LEHE162-.LEHB162
	.uleb128 .L1359-.LFB7964
	.uleb128 0x0
	.uleb128 .LEHB163-.LFB7964
	.uleb128 .LEHE163-.LEHB163
	.uleb128 .L1358-.LFB7964
	.uleb128 0x0
	.uleb128 .LEHB164-.LFB7964
	.uleb128 .LEHE164-.LEHB164
	.uleb128 .L1361-.LFB7964
	.uleb128 0x0
	.uleb128 .LEHB165-.LFB7964
	.uleb128 .LEHE165-.LEHB165
	.uleb128 .L1363-.LFB7964
	.uleb128 0x0
	.uleb128 .LEHB166-.LFB7964
	.uleb128 .LEHE166-.LEHB166
	.uleb128 .L1366-.LFB7964
	.uleb128 0x0
	.uleb128 .LEHB167-.LFB7964
	.uleb128 .LEHE167-.LEHB167
	.uleb128 .L1357-.LFB7964
	.uleb128 0x0
	.uleb128 .LEHB168-.LFB7964
	.uleb128 .LEHE168-.LEHB168
	.uleb128 .L1356-.LFB7964
	.uleb128 0x0
	.uleb128 .LEHB169-.LFB7964
	.uleb128 .LEHE169-.LEHB169
	.uleb128 .L1355-.LFB7964
	.uleb128 0x0
	.uleb128 .LEHB170-.LFB7964
	.uleb128 .LEHE170-.LEHB170
	.uleb128 .L1357-.LFB7964
	.uleb128 0x0
	.uleb128 .LEHB171-.LFB7964
	.uleb128 .LEHE171-.LEHB171
	.uleb128 .L1357-.LFB7964
	.uleb128 0x0
	.uleb128 .LEHB172-.LFB7964
	.uleb128 .LEHE172-.LEHB172
	.uleb128 .L1377-.LFB7964
	.uleb128 0x0
	.uleb128 .LEHB173-.LFB7964
	.uleb128 .LEHE173-.LEHB173
	.uleb128 0x0
	.uleb128 0x0
.LLSDACSE7964:
	.text
	.section	.text._ZN3Upp3PteINS_13DelayCallbackEED2Ev,"axG",@progbits,_ZN3Upp3PteINS_13DelayCallbackEED2Ev,comdat
	.align 2
	.weak	_ZN3Upp3PteINS_13DelayCallbackEED2Ev
	.type	_ZN3Upp3PteINS_13DelayCallbackEED2Ev, @function
_ZN3Upp3PteINS_13DelayCallbackEED2Ev:
.LFB6483:
	pushq	%rbp
.LCFI1087:
	movq	%rsp, %rbp
.LCFI1088:
	subq	$16, %rsp
.LCFI1089:
	movq	%rdi, -8(%rbp)
	movq	-8(%rbp), %rdi
	call	_ZN3Upp7PteBaseD2Ev
	leave
	ret
.LFE6483:
	.size	_ZN3Upp3PteINS_13DelayCallbackEED2Ev, .-_ZN3Upp3PteINS_13DelayCallbackEED2Ev
	.section	.text._ZN3Upp13DelayCallbackD1Ev,"axG",@progbits,_ZN3Upp13DelayCallbackD1Ev,comdat
	.align 2
	.weak	_ZN3Upp13DelayCallbackD1Ev
	.type	_ZN3Upp13DelayCallbackD1Ev, @function
_ZN3Upp13DelayCallbackD1Ev:
.LFB6489:
	pushq	%rbp
.LCFI1090:
	movq	%rsp, %rbp
.LCFI1091:
	pushq	%rbx
.LCFI1092:
	subq	$40, %rsp
.LCFI1093:
	movq	%rdi, -16(%rbp)
	movq	-16(%rbp), %rdi
.LEHB174:
	call	_ZN3Upp16KillTimeCallbackEPv
.LEHE174:
	movq	-16(%rbp), %rax
	addq	$8, %rax
	movq	%rax, -32(%rbp)
	movq	-32(%rbp), %rdi
.LEHB175:
	call	_ZN3Upp8CallbackD1Ev
.LEHE175:
	jmp	.L1382
.L1387:
	movq	%rax, -40(%rbp)
.L1383:
	movq	-40(%rbp), %rbx
	movq	-16(%rbp), %rax
	addq	$8, %rax
	movq	%rax, -32(%rbp)
	movq	-32(%rbp), %rdi
	call	_ZN3Upp8CallbackD1Ev
	movq	%rbx, -40(%rbp)
	jmp	.L1385
.L1382:
	movq	-16(%rbp), %rax
	movq	%rax, -24(%rbp)
	movq	-24(%rbp), %rdi
.LEHB176:
	call	_ZN3Upp3PteINS_13DelayCallbackEED2Ev
.LEHE176:
	jmp	.L1386
.L1388:
	movq	%rax, -40(%rbp)
.L1385:
	movq	-40(%rbp), %rbx
	movq	-16(%rbp), %rax
	movq	%rax, -24(%rbp)
	movq	-24(%rbp), %rdi
	call	_ZN3Upp3PteINS_13DelayCallbackEED2Ev
	movq	%rbx, -40(%rbp)
	movq	-40(%rbp), %rdi
.LEHB177:
	call	_Unwind_Resume
.LEHE177:
.L1386:
	addq	$40, %rsp
	popq	%rbx
	leave
	ret
.LFE6489:
	.size	_ZN3Upp13DelayCallbackD1Ev, .-_ZN3Upp13DelayCallbackD1Ev
	.section	.gcc_except_table
.LLSDA6489:
	.byte	0xff
	.byte	0xff
	.byte	0x1
	.uleb128 .LLSDACSE6489-.LLSDACSB6489
.LLSDACSB6489:
	.uleb128 .LEHB174-.LFB6489
	.uleb128 .LEHE174-.LEHB174
	.uleb128 .L1387-.LFB6489
	.uleb128 0x0
	.uleb128 .LEHB175-.LFB6489
	.uleb128 .LEHE175-.LEHB175
	.uleb128 .L1388-.LFB6489
	.uleb128 0x0
	.uleb128 .LEHB176-.LFB6489
	.uleb128 .LEHE176-.LEHB176
	.uleb128 0x0
	.uleb128 0x0
	.uleb128 .LEHB177-.LFB6489
	.uleb128 .LEHE177-.LEHB177
	.uleb128 0x0
	.uleb128 0x0
.LLSDACSE6489:
	.section	.text._ZN3Upp13DelayCallbackD1Ev,"axG",@progbits,_ZN3Upp13DelayCallbackD1Ev,comdat
	.section	.text._ZN3Upp9EditValueINS_7WStringENS_13ConvertStringEED2Ev,"axG",@progbits,_ZN3Upp9EditValueINS_7WStringENS_13ConvertStringEED2Ev,comdat
	.align 2
	.weak	_ZN3Upp9EditValueINS_7WStringENS_13ConvertStringEED2Ev
	.type	_ZN3Upp9EditValueINS_7WStringENS_13ConvertStringEED2Ev, @function
_ZN3Upp9EditValueINS_7WStringENS_13ConvertStringEED2Ev:
.LFB5673:
	pushq	%rbp
.LCFI1094:
	movq	%rsp, %rbp
.LCFI1095:
	subq	$16, %rsp
.LCFI1096:
	movq	%rdi, -8(%rbp)
	movl	$_ZTVN3Upp9EditValueINS_7WStringENS_13ConvertStringEEE+16, %edx
	movq	-8(%rbp), %rax
	movq	%rdx, (%rax)
	movl	$_ZTVN3Upp9EditValueINS_7WStringENS_13ConvertStringEEE+672, %edx
	movq	-8(%rbp), %rax
	movq	%rdx, 152(%rax)
	movl	$_ZTVN3Upp9EditValueINS_7WStringENS_13ConvertStringEEE+720, %edx
	movq	-8(%rbp), %rax
	movq	%rdx, 352(%rax)
	movl	$352, %eax
	addq	-8(%rbp), %rax
	movq	%rax, %rdi
	call	_ZN3Upp13ConvertStringD2Ev
	movq	-8(%rbp), %rdi
	call	_ZN3Upp9EditFieldD2Ev
	movl	$0, %eax
	testb	%al, %al
	je	.L1393
	movq	-8(%rbp), %rdi
	call	_ZdlPv
.L1393:
	leave
	ret
.LFE5673:
	.size	_ZN3Upp9EditValueINS_7WStringENS_13ConvertStringEED2Ev, .-_ZN3Upp9EditValueINS_7WStringENS_13ConvertStringEED2Ev
	.section	.text._ZN3Upp10EditStringD1Ev,"axG",@progbits,_ZN3Upp10EditStringD1Ev,comdat
	.align 2
	.weak	_ZThn352_N3Upp10EditStringD1Ev
	.type	_ZThn352_N3Upp10EditStringD1Ev, @function
_ZThn352_N3Upp10EditStringD1Ev:
	addq	$-352, %rdi
	jmp	.LTHUNK2
	.size	_ZThn352_N3Upp10EditStringD1Ev, .-_ZThn352_N3Upp10EditStringD1Ev
	.align 2
	.weak	_ZThn152_N3Upp10EditStringD1Ev
	.type	_ZThn152_N3Upp10EditStringD1Ev, @function
_ZThn152_N3Upp10EditStringD1Ev:
	addq	$-152, %rdi
	jmp	.LTHUNK3
	.size	_ZThn152_N3Upp10EditStringD1Ev, .-_ZThn152_N3Upp10EditStringD1Ev
	.align 2
	.weak	_ZN3Upp10EditStringD1Ev
	.type	_ZN3Upp10EditStringD1Ev, @function
_ZN3Upp10EditStringD1Ev:
.LFB5688:
	pushq	%rbp
.LCFI1097:
	movq	%rsp, %rbp
.LCFI1098:
	subq	$16, %rsp
.LCFI1099:
	movq	%rdi, -8(%rbp)
	movl	$_ZTVN3Upp10EditStringE+16, %edx
	movq	-8(%rbp), %rax
	movq	%rdx, (%rax)
	movl	$_ZTVN3Upp10EditStringE+672, %edx
	movq	-8(%rbp), %rax
	movq	%rdx, 152(%rax)
	movl	$_ZTVN3Upp10EditStringE+720, %edx
	movq	-8(%rbp), %rax
	movq	%rdx, 352(%rax)
	movq	-8(%rbp), %rdi
	call	_ZN3Upp9EditValueINS_7WStringENS_13ConvertStringEED2Ev
	movl	$0, %eax
	testb	%al, %al
	je	.L1398
	movq	-8(%rbp), %rdi
	call	_ZdlPv
.L1398:
	leave
	ret
.LFE5688:
	.size	_ZN3Upp10EditStringD1Ev, .-_ZN3Upp10EditStringD1Ev
	.section	.text._ZN20WithNewPackageLayoutIN3Upp9TopWindowEED2Ev,"axG",@progbits,_ZN20WithNewPackageLayoutIN3Upp9TopWindowEED2Ev,comdat
	.align 2
	.weak	_ZN20WithNewPackageLayoutIN3Upp9TopWindowEED2Ev
	.type	_ZN20WithNewPackageLayoutIN3Upp9TopWindowEED2Ev, @function
_ZN20WithNewPackageLayoutIN3Upp9TopWindowEED2Ev:
.LFB7941:
	pushq	%rbp
.LCFI1100:
	movq	%rsp, %rbp
.LCFI1101:
	pushq	%rbx
.LCFI1102:
	subq	$88, %rsp
.LCFI1103:
	movq	%rdi, -16(%rbp)
	movl	$_ZTV20WithNewPackageLayoutIN3Upp9TopWindowEE+16, %eax
	movq	-16(%rbp), %rdx
	movq	%rax, (%rdx)
	movq	-16(%rbp), %rdi
	addq	$9872, %rdi
.LEHB178:
	call	_ZN3Upp6ButtonD1Ev
.LEHE178:
	movq	-16(%rbp), %rax
	addq	$9648, %rax
	movq	%rax, -88(%rbp)
	movq	-88(%rbp), %rdi
.LEHB179:
	call	_ZN3Upp6ButtonD1Ev
.LEHE179:
	jmp	.L1400
.L1421:
	movq	%rax, -96(%rbp)
.L1401:
	movq	-96(%rbp), %rbx
	movq	-16(%rbp), %rax
	addq	$9648, %rax
	movq	%rax, -88(%rbp)
	movq	-88(%rbp), %rdi
	call	_ZN3Upp6ButtonD1Ev
	movq	%rbx, -96(%rbp)
	jmp	.L1403
.L1400:
	movq	-16(%rbp), %rax
	addq	$9280, %rax
	movq	%rax, -80(%rbp)
	movq	-80(%rbp), %rdi
.LEHB180:
	call	_ZN3Upp10EditStringD1Ev
.LEHE180:
	jmp	.L1402
.L1422:
	movq	%rax, -96(%rbp)
.L1403:
	movq	-96(%rbp), %rbx
	movq	-16(%rbp), %rax
	addq	$9280, %rax
	movq	%rax, -80(%rbp)
	movq	-80(%rbp), %rdi
	call	_ZN3Upp10EditStringD1Ev
	movq	%rbx, -96(%rbp)
	jmp	.L1405
.L1402:
	movq	-16(%rbp), %rax
	addq	$9000, %rax
	movq	%rax, -72(%rbp)
	movq	-72(%rbp), %rdi
.LEHB181:
	call	_ZN3Upp5LabelD1Ev
.LEHE181:
	jmp	.L1404
.L1423:
	movq	%rax, -96(%rbp)
.L1405:
	movq	-96(%rbp), %rbx
	movq	-16(%rbp), %rax
	addq	$9000, %rax
	movq	%rax, -72(%rbp)
	movq	-72(%rbp), %rdi
	call	_ZN3Upp5LabelD1Ev
	movq	%rbx, -96(%rbp)
	jmp	.L1407
.L1404:
	movq	-16(%rbp), %rax
	addq	$5368, %rax
	movq	%rax, -64(%rbp)
	movq	-64(%rbp), %rdi
.LEHB182:
	call	_ZN3Upp9ArrayCtrlD1Ev
.LEHE182:
	jmp	.L1406
.L1424:
	movq	%rax, -96(%rbp)
.L1407:
	movq	-96(%rbp), %rbx
	movq	-16(%rbp), %rax
	addq	$5368, %rax
	movq	%rax, -64(%rbp)
	movq	-64(%rbp), %rdi
	call	_ZN3Upp9ArrayCtrlD1Ev
	movq	%rbx, -96(%rbp)
	jmp	.L1409
.L1406:
	movq	-16(%rbp), %rax
	addq	$1304, %rax
	movq	%rax, -56(%rbp)
	movq	-56(%rbp), %rdi
.LEHB183:
	call	_ZN3Upp8DropListD1Ev
.LEHE183:
	jmp	.L1408
.L1425:
	movq	%rax, -96(%rbp)
.L1409:
	movq	-96(%rbp), %rbx
	movq	-16(%rbp), %rax
	addq	$1304, %rax
	movq	%rax, -56(%rbp)
	movq	-56(%rbp), %rdi
	call	_ZN3Upp8DropListD1Ev
	movq	%rbx, -96(%rbp)
	jmp	.L1411
.L1408:
	movq	-16(%rbp), %rax
	addq	$1024, %rax
	movq	%rax, -48(%rbp)
	movq	-48(%rbp), %rdi
.LEHB184:
	call	_ZN3Upp5LabelD1Ev
.LEHE184:
	jmp	.L1410
.L1426:
	movq	%rax, -96(%rbp)
.L1411:
	movq	-96(%rbp), %rbx
	movq	-16(%rbp), %rax
	addq	$1024, %rax
	movq	%rax, -48(%rbp)
	movq	-48(%rbp), %rdi
	call	_ZN3Upp5LabelD1Ev
	movq	%rbx, -96(%rbp)
	jmp	.L1413
.L1410:
	movq	-16(%rbp), %rax
	addq	$656, %rax
	movq	%rax, -40(%rbp)
	movq	-40(%rbp), %rdi
.LEHB185:
	call	_ZN3Upp10EditStringD1Ev
.LEHE185:
	jmp	.L1412
.L1427:
	movq	%rax, -96(%rbp)
.L1413:
	movq	-96(%rbp), %rbx
	movq	-16(%rbp), %rax
	addq	$656, %rax
	movq	%rax, -40(%rbp)
	movq	-40(%rbp), %rdi
	call	_ZN3Upp10EditStringD1Ev
	movq	%rbx, -96(%rbp)
	jmp	.L1415
.L1412:
	movq	-16(%rbp), %rax
	addq	$376, %rax
	movq	%rax, -32(%rbp)
	movq	-32(%rbp), %rdi
.LEHB186:
	call	_ZN3Upp5LabelD1Ev
.LEHE186:
	jmp	.L1414
.L1428:
	movq	%rax, -96(%rbp)
.L1415:
	movq	-96(%rbp), %rbx
	movq	-16(%rbp), %rax
	addq	$376, %rax
	movq	%rax, -32(%rbp)
	movq	-32(%rbp), %rdi
	call	_ZN3Upp5LabelD1Ev
	movq	%rbx, -96(%rbp)
	jmp	.L1417
.L1414:
	movq	-16(%rbp), %rax
	movq	%rax, -24(%rbp)
	movq	-24(%rbp), %rdi
.LEHB187:
	call	_ZN3Upp9TopWindowD2Ev
.LEHE187:
	jmp	.L1416
.L1429:
	movq	%rax, -96(%rbp)
.L1417:
	movq	-96(%rbp), %rbx
	movq	-16(%rbp), %rax
	movq	%rax, -24(%rbp)
	movq	-24(%rbp), %rdi
	call	_ZN3Upp9TopWindowD2Ev
	movq	%rbx, -96(%rbp)
	movq	-96(%rbp), %rdi
.LEHB188:
	call	_Unwind_Resume
.LEHE188:
.L1416:
	movl	$0, %eax
	testb	%al, %al
	je	.L1420
	movq	-16(%rbp), %rdi
	call	_ZdlPv
.L1420:
	addq	$88, %rsp
	popq	%rbx
	leave
	ret
.LFE7941:
	.size	_ZN20WithNewPackageLayoutIN3Upp9TopWindowEED2Ev, .-_ZN20WithNewPackageLayoutIN3Upp9TopWindowEED2Ev
	.section	.gcc_except_table
.LLSDA7941:
	.byte	0xff
	.byte	0xff
	.byte	0x1
	.uleb128 .LLSDACSE7941-.LLSDACSB7941
.LLSDACSB7941:
	.uleb128 .LEHB178-.LFB7941
	.uleb128 .LEHE178-.LEHB178
	.uleb128 .L1421-.LFB7941
	.uleb128 0x0
	.uleb128 .LEHB179-.LFB7941
	.uleb128 .LEHE179-.LEHB179
	.uleb128 .L1422-.LFB7941
	.uleb128 0x0
	.uleb128 .LEHB180-.LFB7941
	.uleb128 .LEHE180-.LEHB180
	.uleb128 .L1423-.LFB7941
	.uleb128 0x0
	.uleb128 .LEHB181-.LFB7941
	.uleb128 .LEHE181-.LEHB181
	.uleb128 .L1424-.LFB7941
	.uleb128 0x0
	.uleb128 .LEHB182-.LFB7941
	.uleb128 .LEHE182-.LEHB182
	.uleb128 .L1425-.LFB7941
	.uleb128 0x0
	.uleb128 .LEHB183-.LFB7941
	.uleb128 .LEHE183-.LEHB183
	.uleb128 .L1426-.LFB7941
	.uleb128 0x0
	.uleb128 .LEHB184-.LFB7941
	.uleb128 .LEHE184-.LEHB184
	.uleb128 .L1427-.LFB7941
	.uleb128 0x0
	.uleb128 .LEHB185-.LFB7941
	.uleb128 .LEHE185-.LEHB185
	.uleb128 .L1428-.LFB7941
	.uleb128 0x0
	.uleb128 .LEHB186-.LFB7941
	.uleb128 .LEHE186-.LEHB186
	.uleb128 .L1429-.LFB7941
	.uleb128 0x0
	.uleb128 .LEHB187-.LFB7941
	.uleb128 .LEHE187-.LEHB187
	.uleb128 0x0
	.uleb128 0x0
	.uleb128 .LEHB188-.LFB7941
	.uleb128 .LEHE188-.LEHB188
	.uleb128 0x0
	.uleb128 0x0
.LLSDACSE7941:
	.section	.text._ZN20WithNewPackageLayoutIN3Upp9TopWindowEED2Ev,"axG",@progbits,_ZN20WithNewPackageLayoutIN3Upp9TopWindowEED2Ev,comdat
	.section	.text._ZN20WithNewPackageLayoutIN3Upp9TopWindowEED0Ev,"axG",@progbits,_ZN20WithNewPackageLayoutIN3Upp9TopWindowEED0Ev,comdat
	.align 2
	.weak	_ZN20WithNewPackageLayoutIN3Upp9TopWindowEED0Ev
	.type	_ZN20WithNewPackageLayoutIN3Upp9TopWindowEED0Ev, @function
_ZN20WithNewPackageLayoutIN3Upp9TopWindowEED0Ev:
.LFB7943:
	pushq	%rbp
.LCFI1104:
	movq	%rsp, %rbp
.LCFI1105:
	pushq	%rbx
.LCFI1106:
	subq	$88, %rsp
.LCFI1107:
	movq	%rdi, -16(%rbp)
	movl	$_ZTV20WithNewPackageLayoutIN3Upp9TopWindowEE+16, %eax
	movq	-16(%rbp), %rdx
	movq	%rax, (%rdx)
	movq	-16(%rbp), %rdi
	addq	$9872, %rdi
.LEHB189:
	call	_ZN3Upp6ButtonD1Ev
.LEHE189:
	movq	-16(%rbp), %rax
	addq	$9648, %rax
	movq	%rax, -88(%rbp)
	movq	-88(%rbp), %rdi
.LEHB190:
	call	_ZN3Upp6ButtonD1Ev
.LEHE190:
	jmp	.L1431
.L1452:
	movq	%rax, -96(%rbp)
.L1432:
	movq	-96(%rbp), %rbx
	movq	-16(%rbp), %rax
	addq	$9648, %rax
	movq	%rax, -88(%rbp)
	movq	-88(%rbp), %rdi
	call	_ZN3Upp6ButtonD1Ev
	movq	%rbx, -96(%rbp)
	jmp	.L1434
.L1431:
	movq	-16(%rbp), %rax
	addq	$9280, %rax
	movq	%rax, -80(%rbp)
	movq	-80(%rbp), %rdi
.LEHB191:
	call	_ZN3Upp10EditStringD1Ev
.LEHE191:
	jmp	.L1433
.L1453:
	movq	%rax, -96(%rbp)
.L1434:
	movq	-96(%rbp), %rbx
	movq	-16(%rbp), %rax
	addq	$9280, %rax
	movq	%rax, -80(%rbp)
	movq	-80(%rbp), %rdi
	call	_ZN3Upp10EditStringD1Ev
	movq	%rbx, -96(%rbp)
	jmp	.L1436
.L1433:
	movq	-16(%rbp), %rax
	addq	$9000, %rax
	movq	%rax, -72(%rbp)
	movq	-72(%rbp), %rdi
.LEHB192:
	call	_ZN3Upp5LabelD1Ev
.LEHE192:
	jmp	.L1435
.L1454:
	movq	%rax, -96(%rbp)
.L1436:
	movq	-96(%rbp), %rbx
	movq	-16(%rbp), %rax
	addq	$9000, %rax
	movq	%rax, -72(%rbp)
	movq	-72(%rbp), %rdi
	call	_ZN3Upp5LabelD1Ev
	movq	%rbx, -96(%rbp)
	jmp	.L1438
.L1435:
	movq	-16(%rbp), %rax
	addq	$5368, %rax
	movq	%rax, -64(%rbp)
	movq	-64(%rbp), %rdi
.LEHB193:
	call	_ZN3Upp9ArrayCtrlD1Ev
.LEHE193:
	jmp	.L1437
.L1455:
	movq	%rax, -96(%rbp)
.L1438:
	movq	-96(%rbp), %rbx
	movq	-16(%rbp), %rax
	addq	$5368, %rax
	movq	%rax, -64(%rbp)
	movq	-64(%rbp), %rdi
	call	_ZN3Upp9ArrayCtrlD1Ev
	movq	%rbx, -96(%rbp)
	jmp	.L1440
.L1437:
	movq	-16(%rbp), %rax
	addq	$1304, %rax
	movq	%rax, -56(%rbp)
	movq	-56(%rbp), %rdi
.LEHB194:
	call	_ZN3Upp8DropListD1Ev
.LEHE194:
	jmp	.L1439
.L1456:
	movq	%rax, -96(%rbp)
.L1440:
	movq	-96(%rbp), %rbx
	movq	-16(%rbp), %rax
	addq	$1304, %rax
	movq	%rax, -56(%rbp)
	movq	-56(%rbp), %rdi
	call	_ZN3Upp8DropListD1Ev
	movq	%rbx, -96(%rbp)
	jmp	.L1442
.L1439:
	movq	-16(%rbp), %rax
	addq	$1024, %rax
	movq	%rax, -48(%rbp)
	movq	-48(%rbp), %rdi
.LEHB195:
	call	_ZN3Upp5LabelD1Ev
.LEHE195:
	jmp	.L1441
.L1457:
	movq	%rax, -96(%rbp)
.L1442:
	movq	-96(%rbp), %rbx
	movq	-16(%rbp), %rax
	addq	$1024, %rax
	movq	%rax, -48(%rbp)
	movq	-48(%rbp), %rdi
	call	_ZN3Upp5LabelD1Ev
	movq	%rbx, -96(%rbp)
	jmp	.L1444
.L1441:
	movq	-16(%rbp), %rax
	addq	$656, %rax
	movq	%rax, -40(%rbp)
	movq	-40(%rbp), %rdi
.LEHB196:
	call	_ZN3Upp10EditStringD1Ev
.LEHE196:
	jmp	.L1443
.L1458:
	movq	%rax, -96(%rbp)
.L1444:
	movq	-96(%rbp), %rbx
	movq	-16(%rbp), %rax
	addq	$656, %rax
	movq	%rax, -40(%rbp)
	movq	-40(%rbp), %rdi
	call	_ZN3Upp10EditStringD1Ev
	movq	%rbx, -96(%rbp)
	jmp	.L1446
.L1443:
	movq	-16(%rbp), %rax
	addq	$376, %rax
	movq	%rax, -32(%rbp)
	movq	-32(%rbp), %rdi
.LEHB197:
	call	_ZN3Upp5LabelD1Ev
.LEHE197:
	jmp	.L1445
.L1459:
	movq	%rax, -96(%rbp)
.L1446:
	movq	-96(%rbp), %rbx
	movq	-16(%rbp), %rax
	addq	$376, %rax
	movq	%rax, -32(%rbp)
	movq	-32(%rbp), %rdi
	call	_ZN3Upp5LabelD1Ev
	movq	%rbx, -96(%rbp)
	jmp	.L1448
.L1445:
	movq	-16(%rbp), %rax
	movq	%rax, -24(%rbp)
	movq	-24(%rbp), %rdi
.LEHB198:
	call	_ZN3Upp9TopWindowD2Ev
.LEHE198:
	jmp	.L1447
.L1460:
	movq	%rax, -96(%rbp)
.L1448:
	movq	-96(%rbp), %rbx
	movq	-16(%rbp), %rax
	movq	%rax, -24(%rbp)
	movq	-24(%rbp), %rdi
	call	_ZN3Upp9TopWindowD2Ev
	movq	%rbx, -96(%rbp)
	movq	-96(%rbp), %rdi
.LEHB199:
	call	_Unwind_Resume
.LEHE199:
.L1447:
	movl	$1, %eax
	testb	%al, %al
	je	.L1451
	movq	-16(%rbp), %rdi
	call	_ZdlPv
.L1451:
	addq	$88, %rsp
	popq	%rbx
	leave
	ret
.LFE7943:
	.size	_ZN20WithNewPackageLayoutIN3Upp9TopWindowEED0Ev, .-_ZN20WithNewPackageLayoutIN3Upp9TopWindowEED0Ev
	.section	.gcc_except_table
.LLSDA7943:
	.byte	0xff
	.byte	0xff
	.byte	0x1
	.uleb128 .LLSDACSE7943-.LLSDACSB7943
.LLSDACSB7943:
	.uleb128 .LEHB189-.LFB7943
	.uleb128 .LEHE189-.LEHB189
	.uleb128 .L1452-.LFB7943
	.uleb128 0x0
	.uleb128 .LEHB190-.LFB7943
	.uleb128 .LEHE190-.LEHB190
	.uleb128 .L1453-.LFB7943
	.uleb128 0x0
	.uleb128 .LEHB191-.LFB7943
	.uleb128 .LEHE191-.LEHB191
	.uleb128 .L1454-.LFB7943
	.uleb128 0x0
	.uleb128 .LEHB192-.LFB7943
	.uleb128 .LEHE192-.LEHB192
	.uleb128 .L1455-.LFB7943
	.uleb128 0x0
	.uleb128 .LEHB193-.LFB7943
	.uleb128 .LEHE193-.LEHB193
	.uleb128 .L1456-.LFB7943
	.uleb128 0x0
	.uleb128 .LEHB194-.LFB7943
	.uleb128 .LEHE194-.LEHB194
	.uleb128 .L1457-.LFB7943
	.uleb128 0x0
	.uleb128 .LEHB195-.LFB7943
	.uleb128 .LEHE195-.LEHB195
	.uleb128 .L1458-.LFB7943
	.uleb128 0x0
	.uleb128 .LEHB196-.LFB7943
	.uleb128 .LEHE196-.LEHB196
	.uleb128 .L1459-.LFB7943
	.uleb128 0x0
	.uleb128 .LEHB197-.LFB7943
	.uleb128 .LEHE197-.LEHB197
	.uleb128 .L1460-.LFB7943
	.uleb128 0x0
	.uleb128 .LEHB198-.LFB7943
	.uleb128 .LEHE198-.LEHB198
	.uleb128 0x0
	.uleb128 0x0
	.uleb128 .LEHB199-.LFB7943
	.uleb128 .LEHE199-.LEHB199
	.uleb128 0x0
	.uleb128 0x0
.LLSDACSE7943:
	.section	.text._ZN20WithNewPackageLayoutIN3Upp9TopWindowEED0Ev,"axG",@progbits,_ZN20WithNewPackageLayoutIN3Upp9TopWindowEED0Ev,comdat
	.section	.text._ZN20WithNewPackageLayoutIN3Upp9TopWindowEED1Ev,"axG",@progbits,_ZN20WithNewPackageLayoutIN3Upp9TopWindowEED1Ev,comdat
	.align 2
	.weak	_ZN20WithNewPackageLayoutIN3Upp9TopWindowEED1Ev
	.type	_ZN20WithNewPackageLayoutIN3Upp9TopWindowEED1Ev, @function
_ZN20WithNewPackageLayoutIN3Upp9TopWindowEED1Ev:
.LFB7942:
	pushq	%rbp
.LCFI1108:
	movq	%rsp, %rbp
.LCFI1109:
	pushq	%rbx
.LCFI1110:
	subq	$88, %rsp
.LCFI1111:
	movq	%rdi, -16(%rbp)
	movl	$_ZTV20WithNewPackageLayoutIN3Upp9TopWindowEE+16, %eax
	movq	-16(%rbp), %rdx
	movq	%rax, (%rdx)
	movq	-16(%rbp), %rdi
	addq	$9872, %rdi
.LEHB200:
	call	_ZN3Upp6ButtonD1Ev
.LEHE200:
	movq	-16(%rbp), %rax
	addq	$9648, %rax
	movq	%rax, -88(%rbp)
	movq	-88(%rbp), %rdi
.LEHB201:
	call	_ZN3Upp6ButtonD1Ev
.LEHE201:
	jmp	.L1462
.L1483:
	movq	%rax, -96(%rbp)
.L1463:
	movq	-96(%rbp), %rbx
	movq	-16(%rbp), %rax
	addq	$9648, %rax
	movq	%rax, -88(%rbp)
	movq	-88(%rbp), %rdi
	call	_ZN3Upp6ButtonD1Ev
	movq	%rbx, -96(%rbp)
	jmp	.L1465
.L1462:
	movq	-16(%rbp), %rax
	addq	$9280, %rax
	movq	%rax, -80(%rbp)
	movq	-80(%rbp), %rdi
.LEHB202:
	call	_ZN3Upp10EditStringD1Ev
.LEHE202:
	jmp	.L1464
.L1484:
	movq	%rax, -96(%rbp)
.L1465:
	movq	-96(%rbp), %rbx
	movq	-16(%rbp), %rax
	addq	$9280, %rax
	movq	%rax, -80(%rbp)
	movq	-80(%rbp), %rdi
	call	_ZN3Upp10EditStringD1Ev
	movq	%rbx, -96(%rbp)
	jmp	.L1467
.L1464:
	movq	-16(%rbp), %rax
	addq	$9000, %rax
	movq	%rax, -72(%rbp)
	movq	-72(%rbp), %rdi
.LEHB203:
	call	_ZN3Upp5LabelD1Ev
.LEHE203:
	jmp	.L1466
.L1485:
	movq	%rax, -96(%rbp)
.L1467:
	movq	-96(%rbp), %rbx
	movq	-16(%rbp), %rax
	addq	$9000, %rax
	movq	%rax, -72(%rbp)
	movq	-72(%rbp), %rdi
	call	_ZN3Upp5LabelD1Ev
	movq	%rbx, -96(%rbp)
	jmp	.L1469
.L1466:
	movq	-16(%rbp), %rax
	addq	$5368, %rax
	movq	%rax, -64(%rbp)
	movq	-64(%rbp), %rdi
.LEHB204:
	call	_ZN3Upp9ArrayCtrlD1Ev
.LEHE204:
	jmp	.L1468
.L1486:
	movq	%rax, -96(%rbp)
.L1469:
	movq	-96(%rbp), %rbx
	movq	-16(%rbp), %rax
	addq	$5368, %rax
	movq	%rax, -64(%rbp)
	movq	-64(%rbp), %rdi
	call	_ZN3Upp9ArrayCtrlD1Ev
	movq	%rbx, -96(%rbp)
	jmp	.L1471
.L1468:
	movq	-16(%rbp), %rax
	addq	$1304, %rax
	movq	%rax, -56(%rbp)
	movq	-56(%rbp), %rdi
.LEHB205:
	call	_ZN3Upp8DropListD1Ev
.LEHE205:
	jmp	.L1470
.L1487:
	movq	%rax, -96(%rbp)
.L1471:
	movq	-96(%rbp), %rbx
	movq	-16(%rbp), %rax
	addq	$1304, %rax
	movq	%rax, -56(%rbp)
	movq	-56(%rbp), %rdi
	call	_ZN3Upp8DropListD1Ev
	movq	%rbx, -96(%rbp)
	jmp	.L1473
.L1470:
	movq	-16(%rbp), %rax
	addq	$1024, %rax
	movq	%rax, -48(%rbp)
	movq	-48(%rbp), %rdi
.LEHB206:
	call	_ZN3Upp5LabelD1Ev
.LEHE206:
	jmp	.L1472
.L1488:
	movq	%rax, -96(%rbp)
.L1473:
	movq	-96(%rbp), %rbx
	movq	-16(%rbp), %rax
	addq	$1024, %rax
	movq	%rax, -48(%rbp)
	movq	-48(%rbp), %rdi
	call	_ZN3Upp5LabelD1Ev
	movq	%rbx, -96(%rbp)
	jmp	.L1475
.L1472:
	movq	-16(%rbp), %rax
	addq	$656, %rax
	movq	%rax, -40(%rbp)
	movq	-40(%rbp), %rdi
.LEHB207:
	call	_ZN3Upp10EditStringD1Ev
.LEHE207:
	jmp	.L1474
.L1489:
	movq	%rax, -96(%rbp)
.L1475:
	movq	-96(%rbp), %rbx
	movq	-16(%rbp), %rax
	addq	$656, %rax
	movq	%rax, -40(%rbp)
	movq	-40(%rbp), %rdi
	call	_ZN3Upp10EditStringD1Ev
	movq	%rbx, -96(%rbp)
	jmp	.L1477
.L1474:
	movq	-16(%rbp), %rax
	addq	$376, %rax
	movq	%rax, -32(%rbp)
	movq	-32(%rbp), %rdi
.LEHB208:
	call	_ZN3Upp5LabelD1Ev
.LEHE208:
	jmp	.L1476
.L1490:
	movq	%rax, -96(%rbp)
.L1477:
	movq	-96(%rbp), %rbx
	movq	-16(%rbp), %rax
	addq	$376, %rax
	movq	%rax, -32(%rbp)
	movq	-32(%rbp), %rdi
	call	_ZN3Upp5LabelD1Ev
	movq	%rbx, -96(%rbp)
	jmp	.L1479
.L1476:
	movq	-16(%rbp), %rax
	movq	%rax, -24(%rbp)
	movq	-24(%rbp), %rdi
.LEHB209:
	call	_ZN3Upp9TopWindowD2Ev
.LEHE209:
	jmp	.L1478
.L1491:
	movq	%rax, -96(%rbp)
.L1479:
	movq	-96(%rbp), %rbx
	movq	-16(%rbp), %rax
	movq	%rax, -24(%rbp)
	movq	-24(%rbp), %rdi
	call	_ZN3Upp9TopWindowD2Ev
	movq	%rbx, -96(%rbp)
	movq	-96(%rbp), %rdi
.LEHB210:
	call	_Unwind_Resume
.LEHE210:
.L1478:
	movl	$0, %eax
	testb	%al, %al
	je	.L1482
	movq	-16(%rbp), %rdi
	call	_ZdlPv
.L1482:
	addq	$88, %rsp
	popq	%rbx
	leave
	ret
.LFE7942:
	.size	_ZN20WithNewPackageLayoutIN3Upp9TopWindowEED1Ev, .-_ZN20WithNewPackageLayoutIN3Upp9TopWindowEED1Ev
	.section	.gcc_except_table
.LLSDA7942:
	.byte	0xff
	.byte	0xff
	.byte	0x1
	.uleb128 .LLSDACSE7942-.LLSDACSB7942
.LLSDACSB7942:
	.uleb128 .LEHB200-.LFB7942
	.uleb128 .LEHE200-.LEHB200
	.uleb128 .L1483-.LFB7942
	.uleb128 0x0
	.uleb128 .LEHB201-.LFB7942
	.uleb128 .LEHE201-.LEHB201
	.uleb128 .L1484-.LFB7942
	.uleb128 0x0
	.uleb128 .LEHB202-.LFB7942
	.uleb128 .LEHE202-.LEHB202
	.uleb128 .L1485-.LFB7942
	.uleb128 0x0
	.uleb128 .LEHB203-.LFB7942
	.uleb128 .LEHE203-.LEHB203
	.uleb128 .L1486-.LFB7942
	.uleb128 0x0
	.uleb128 .LEHB204-.LFB7942
	.uleb128 .LEHE204-.LEHB204
	.uleb128 .L1487-.LFB7942
	.uleb128 0x0
	.uleb128 .LEHB205-.LFB7942
	.uleb128 .LEHE205-.LEHB205
	.uleb128 .L1488-.LFB7942
	.uleb128 0x0
	.uleb128 .LEHB206-.LFB7942
	.uleb128 .LEHE206-.LEHB206
	.uleb128 .L1489-.LFB7942
	.uleb128 0x0
	.uleb128 .LEHB207-.LFB7942
	.uleb128 .LEHE207-.LEHB207
	.uleb128 .L1490-.LFB7942
	.uleb128 0x0
	.uleb128 .LEHB208-.LFB7942
	.uleb128 .LEHE208-.LEHB208
	.uleb128 .L1491-.LFB7942
	.uleb128 0x0
	.uleb128 .LEHB209-.LFB7942
	.uleb128 .LEHE209-.LEHB209
	.uleb128 0x0
	.uleb128 0x0
	.uleb128 .LEHB210-.LFB7942
	.uleb128 .LEHE210-.LEHB210
	.uleb128 0x0
	.uleb128 0x0
.LLSDACSE7942:
	.section	.text._ZN20WithNewPackageLayoutIN3Upp9TopWindowEED1Ev,"axG",@progbits,_ZN20WithNewPackageLayoutIN3Upp9TopWindowEED1Ev,comdat
	.section	.text._ZN3Upp10EditStringD0Ev,"axG",@progbits,_ZN3Upp10EditStringD0Ev,comdat
	.align 2
	.weak	_ZThn352_N3Upp10EditStringD0Ev
	.type	_ZThn352_N3Upp10EditStringD0Ev, @function
_ZThn352_N3Upp10EditStringD0Ev:
	addq	$-352, %rdi
	jmp	.LTHUNK4
	.size	_ZThn352_N3Upp10EditStringD0Ev, .-_ZThn352_N3Upp10EditStringD0Ev
	.align 2
	.weak	_ZThn152_N3Upp10EditStringD0Ev
	.type	_ZThn152_N3Upp10EditStringD0Ev, @function
_ZThn152_N3Upp10EditStringD0Ev:
	addq	$-152, %rdi
	jmp	.LTHUNK5
	.size	_ZThn152_N3Upp10EditStringD0Ev, .-_ZThn152_N3Upp10EditStringD0Ev
	.align 2
	.weak	_ZN3Upp10EditStringD0Ev
	.type	_ZN3Upp10EditStringD0Ev, @function
_ZN3Upp10EditStringD0Ev:
.LFB5689:
	pushq	%rbp
.LCFI1112:
	movq	%rsp, %rbp
.LCFI1113:
	subq	$16, %rsp
.LCFI1114:
	movq	%rdi, -8(%rbp)
	movl	$_ZTVN3Upp10EditStringE+16, %edx
	movq	-8(%rbp), %rax
	movq	%rdx, (%rax)
	movl	$_ZTVN3Upp10EditStringE+672, %edx
	movq	-8(%rbp), %rax
	movq	%rdx, 152(%rax)
	movl	$_ZTVN3Upp10EditStringE+720, %edx
	movq	-8(%rbp), %rax
	movq	%rdx, 352(%rax)
	movq	-8(%rbp), %rdi
	call	_ZN3Upp9EditValueINS_7WStringENS_13ConvertStringEED2Ev
	movl	$1, %eax
	testb	%al, %al
	je	.L1496
	movq	-8(%rbp), %rdi
	call	_ZdlPv
.L1496:
	leave
	ret
.LFE5689:
	.size	_ZN3Upp10EditStringD0Ev, .-_ZN3Upp10EditStringD0Ev
	.section	.text._ZN3Upp9EditValueINS_7WStringENS_13ConvertStringEED0Ev,"axG",@progbits,_ZN3Upp9EditValueINS_7WStringENS_13ConvertStringEED0Ev,comdat
	.align 2
	.weak	_ZThn352_N3Upp9EditValueINS_7WStringENS_13ConvertStringEED0Ev
	.type	_ZThn352_N3Upp9EditValueINS_7WStringENS_13ConvertStringEED0Ev, @function
_ZThn352_N3Upp9EditValueINS_7WStringENS_13ConvertStringEED0Ev:
	addq	$-352, %rdi
	jmp	.LTHUNK6
	.size	_ZThn352_N3Upp9EditValueINS_7WStringENS_13ConvertStringEED0Ev, .-_ZThn352_N3Upp9EditValueINS_7WStringENS_13ConvertStringEED0Ev
	.align 2
	.weak	_ZThn152_N3Upp9EditValueINS_7WStringENS_13ConvertStringEED0Ev
	.type	_ZThn152_N3Upp9EditValueINS_7WStringENS_13ConvertStringEED0Ev, @function
_ZThn152_N3Upp9EditValueINS_7WStringENS_13ConvertStringEED0Ev:
	addq	$-152, %rdi
	jmp	.LTHUNK7
	.size	_ZThn152_N3Upp9EditValueINS_7WStringENS_13ConvertStringEED0Ev, .-_ZThn152_N3Upp9EditValueINS_7WStringENS_13ConvertStringEED0Ev
	.align 2
	.weak	_ZN3Upp9EditValueINS_7WStringENS_13ConvertStringEED0Ev
	.type	_ZN3Upp9EditValueINS_7WStringENS_13ConvertStringEED0Ev, @function
_ZN3Upp9EditValueINS_7WStringENS_13ConvertStringEED0Ev:
.LFB5675:
	pushq	%rbp
.LCFI1115:
	movq	%rsp, %rbp
.LCFI1116:
	subq	$16, %rsp
.LCFI1117:
	movq	%rdi, -8(%rbp)
	movl	$_ZTVN3Upp9EditValueINS_7WStringENS_13ConvertStringEEE+16, %edx
	movq	-8(%rbp), %rax
	movq	%rdx, (%rax)
	movl	$_ZTVN3Upp9EditValueINS_7WStringENS_13ConvertStringEEE+672, %edx
	movq	-8(%rbp), %rax
	movq	%rdx, 152(%rax)
	movl	$_ZTVN3Upp9EditValueINS_7WStringENS_13ConvertStringEEE+720, %edx
	movq	-8(%rbp), %rax
	movq	%rdx, 352(%rax)
	movl	$352, %eax
	addq	-8(%rbp), %rax
	movq	%rax, %rdi
	call	_ZN3Upp13ConvertStringD2Ev
	movq	-8(%rbp), %rdi
	call	_ZN3Upp9EditFieldD2Ev
	movl	$1, %eax
	testb	%al, %al
	je	.L1501
	movq	-8(%rbp), %rdi
	call	_ZdlPv
.L1501:
	leave
	ret
.LFE5675:
	.size	_ZN3Upp9EditValueINS_7WStringENS_13ConvertStringEED0Ev, .-_ZN3Upp9EditValueINS_7WStringENS_13ConvertStringEED0Ev
	.section	.text._ZN3Upp9EditValueINS_7WStringENS_13ConvertStringEED1Ev,"axG",@progbits,_ZN3Upp9EditValueINS_7WStringENS_13ConvertStringEED1Ev,comdat
	.align 2
	.weak	_ZThn352_N3Upp9EditValueINS_7WStringENS_13ConvertStringEED1Ev
	.type	_ZThn352_N3Upp9EditValueINS_7WStringENS_13ConvertStringEED1Ev, @function
_ZThn352_N3Upp9EditValueINS_7WStringENS_13ConvertStringEED1Ev:
	addq	$-352, %rdi
	jmp	.LTHUNK8
	.size	_ZThn352_N3Upp9EditValueINS_7WStringENS_13ConvertStringEED1Ev, .-_ZThn352_N3Upp9EditValueINS_7WStringENS_13ConvertStringEED1Ev
	.align 2
	.weak	_ZThn152_N3Upp9EditValueINS_7WStringENS_13ConvertStringEED1Ev
	.type	_ZThn152_N3Upp9EditValueINS_7WStringENS_13ConvertStringEED1Ev, @function
_ZThn152_N3Upp9EditValueINS_7WStringENS_13ConvertStringEED1Ev:
	addq	$-152, %rdi
	jmp	.LTHUNK9
	.size	_ZThn152_N3Upp9EditValueINS_7WStringENS_13ConvertStringEED1Ev, .-_ZThn152_N3Upp9EditValueINS_7WStringENS_13ConvertStringEED1Ev
	.align 2
	.weak	_ZN3Upp9EditValueINS_7WStringENS_13ConvertStringEED1Ev
	.type	_ZN3Upp9EditValueINS_7WStringENS_13ConvertStringEED1Ev, @function
_ZN3Upp9EditValueINS_7WStringENS_13ConvertStringEED1Ev:
.LFB5674:
	pushq	%rbp
.LCFI1118:
	movq	%rsp, %rbp
.LCFI1119:
	subq	$16, %rsp
.LCFI1120:
	movq	%rdi, -8(%rbp)
	movl	$_ZTVN3Upp9EditValueINS_7WStringENS_13ConvertStringEEE+16, %edx
	movq	-8(%rbp), %rax
	movq	%rdx, (%rax)
	movl	$_ZTVN3Upp9EditValueINS_7WStringENS_13ConvertStringEEE+672, %edx
	movq	-8(%rbp), %rax
	movq	%rdx, 152(%rax)
	movl	$_ZTVN3Upp9EditValueINS_7WStringENS_13ConvertStringEEE+720, %edx
	movq	-8(%rbp), %rax
	movq	%rdx, 352(%rax)
	movl	$352, %eax
	addq	-8(%rbp), %rax
	movq	%rax, %rdi
	call	_ZN3Upp13ConvertStringD2Ev
	movq	-8(%rbp), %rdi
	call	_ZN3Upp9EditFieldD2Ev
	movl	$0, %eax
	testb	%al, %al
	je	.L1506
	movq	-8(%rbp), %rdi
	call	_ZdlPv
.L1506:
	leave
	ret
.LFE5674:
	.size	_ZN3Upp9EditValueINS_7WStringENS_13ConvertStringEED1Ev, .-_ZN3Upp9EditValueINS_7WStringENS_13ConvertStringEED1Ev
	.section	.text._ZN3Upp13DelayCallbacklSENS_8CallbackE,"axG",@progbits,_ZN3Upp13DelayCallbacklSENS_8CallbackE,comdat
	.align 2
	.weak	_ZN3Upp13DelayCallbacklSENS_8CallbackE
	.type	_ZN3Upp13DelayCallbacklSENS_8CallbackE, @function
_ZN3Upp13DelayCallbacklSENS_8CallbackE:
.LFB6473:
	pushq	%rbp
.LCFI1121:
	movq	%rsp, %rbp
.LCFI1122:
	subq	$16, %rsp
.LCFI1123:
	movq	%rdi, -8(%rbp)
	movq	%rsi, -16(%rbp)
	movq	-8(%rbp), %rdi
	addq	$8, %rdi
	movq	-16(%rbp), %rsi
	call	_ZN3Upp8CallbackaSERKS0_
	leave
	ret
.LFE6473:
	.size	_ZN3Upp13DelayCallbacklSENS_8CallbackE, .-_ZN3Upp13DelayCallbacklSENS_8CallbackE
	.section	.text._ZN3Upp4CtrllSENS_8CallbackE,"axG",@progbits,_ZN3Upp4CtrllSENS_8CallbackE,comdat
	.align 2
	.weak	_ZN3Upp4CtrllSENS_8CallbackE
	.type	_ZN3Upp4CtrllSENS_8CallbackE, @function
_ZN3Upp4CtrllSENS_8CallbackE:
.LFB4705:
	pushq	%rbp
.LCFI1124:
	movq	%rsp, %rbp
.LCFI1125:
	pushq	%rbx
.LCFI1126:
	subq	$24, %rsp
.LCFI1127:
	movq	%rdi, %rbx
	movq	%rsi, -16(%rbp)
	movq	%rdx, -24(%rbp)
	movq	-16(%rbp), %rdi
	addq	$144, %rdi
	movq	-24(%rbp), %rsi
	call	_ZN3Upp8CallbackaSERKS0_
	movq	%rbx, %rdi
	movq	-24(%rbp), %rsi
	call	_ZN3Upp8CallbackC1ERKS0_
	movq	%rbx, %rax
	addq	$24, %rsp
	popq	%rbx
	leave
	ret
.LFE4705:
	.size	_ZN3Upp4CtrllSENS_8CallbackE, .-_ZN3Upp4CtrllSENS_8CallbackE
	.section	.text._ZN3Upp9EditValueINS_7WStringENS_13ConvertStringEEC2Ev,"axG",@progbits,_ZN3Upp9EditValueINS_7WStringENS_13ConvertStringEEC2Ev,comdat
	.align 2
	.weak	_ZN3Upp9EditValueINS_7WStringENS_13ConvertStringEEC2Ev
	.type	_ZN3Upp9EditValueINS_7WStringENS_13ConvertStringEEC2Ev, @function
_ZN3Upp9EditValueINS_7WStringENS_13ConvertStringEEC2Ev:
.LFB8469:
	pushq	%rbp
.LCFI1128:
	movq	%rsp, %rbp
.LCFI1129:
	subq	$16, %rsp
.LCFI1130:
	movq	%rdi, -8(%rbp)
	movq	-8(%rbp), %rdi
	call	_ZN3Upp9EditFieldC2Ev
	movq	-8(%rbp), %rdi
	addq	$352, %rdi
	movl	$0, %edx
	movl	$2147483647, %esi
	call	_ZN3Upp13ConvertStringC2Eib
	movl	$_ZTVN3Upp9EditValueINS_7WStringENS_13ConvertStringEEE+16, %edx
	movq	-8(%rbp), %rax
	movq	%rdx, (%rax)
	movl	$_ZTVN3Upp9EditValueINS_7WStringENS_13ConvertStringEEE+672, %edx
	movq	-8(%rbp), %rax
	movq	%rdx, 152(%rax)
	movl	$_ZTVN3Upp9EditValueINS_7WStringENS_13ConvertStringEEE+720, %edx
	movq	-8(%rbp), %rax
	movq	%rdx, 352(%rax)
	movq	-8(%rbp), %rsi
	addq	$352, %rsi
	movq	-8(%rbp), %rdi
	call	_ZN3Upp9EditField10SetConvertERKNS_7ConvertE
	leave
	ret
.LFE8469:
	.size	_ZN3Upp9EditValueINS_7WStringENS_13ConvertStringEEC2Ev, .-_ZN3Upp9EditValueINS_7WStringENS_13ConvertStringEEC2Ev
	.section	.text._ZN3Upp10EditStringC1Ev,"axG",@progbits,_ZN3Upp10EditStringC1Ev,comdat
	.align 2
	.weak	_ZN3Upp10EditStringC1Ev
	.type	_ZN3Upp10EditStringC1Ev, @function
_ZN3Upp10EditStringC1Ev:
.LFB5677:
	pushq	%rbp
.LCFI1131:
	movq	%rsp, %rbp
.LCFI1132:
	subq	$16, %rsp
.LCFI1133:
	movq	%rdi, -8(%rbp)
	movq	-8(%rbp), %rdi
	call	_ZN3Upp9EditValueINS_7WStringENS_13ConvertStringEEC2Ev
	movl	$_ZTVN3Upp10EditStringE+16, %edx
	movq	-8(%rbp), %rax
	movq	%rdx, (%rax)
	movl	$_ZTVN3Upp10EditStringE+672, %edx
	movq	-8(%rbp), %rax
	movq	%rdx, 152(%rax)
	movl	$_ZTVN3Upp10EditStringE+720, %edx
	movq	-8(%rbp), %rax
	movq	%rdx, 352(%rax)
	leave
	ret
.LFE5677:
	.size	_ZN3Upp10EditStringC1Ev, .-_ZN3Upp10EditStringC1Ev
	.section	.text._ZN20WithNewPackageLayoutIN3Upp9TopWindowEEC2Ev,"axG",@progbits,_ZN20WithNewPackageLayoutIN3Upp9TopWindowEEC2Ev,comdat
	.align 2
	.weak	_ZN20WithNewPackageLayoutIN3Upp9TopWindowEEC2Ev
	.type	_ZN20WithNewPackageLayoutIN3Upp9TopWindowEEC2Ev, @function
_ZN20WithNewPackageLayoutIN3Upp9TopWindowEEC2Ev:
.LFB7938:
	pushq	%rbp
.LCFI1134:
	movq	%rsp, %rbp
.LCFI1135:
	pushq	%rbx
.LCFI1136:
	subq	$24, %rsp
.LCFI1137:
	movq	%rdi, -16(%rbp)
	movq	-16(%rbp), %rdi
.LEHB211:
	call	_ZN3Upp9TopWindowC2Ev
.LEHE211:
	movq	-16(%rbp), %rdi
	call	_ZN23NewPackageLayout__layidC2Ev
	movl	$_ZTV20WithNewPackageLayoutIN3Upp9TopWindowEE+16, %edx
	movq	-16(%rbp), %rax
	movq	%rdx, (%rax)
	movq	-16(%rbp), %rdi
	addq	$376, %rdi
.LEHB212:
	call	_ZN3Upp5LabelC1Ev
.LEHE212:
	movq	-16(%rbp), %rdi
	addq	$656, %rdi
.LEHB213:
	call	_ZN3Upp10EditStringC1Ev
.LEHE213:
	movq	-16(%rbp), %rdi
	addq	$1024, %rdi
.LEHB214:
	call	_ZN3Upp5LabelC1Ev
.LEHE214:
	movq	-16(%rbp), %rdi
	addq	$1304, %rdi
.LEHB215:
	call	_ZN3Upp8DropListC1Ev
.LEHE215:
	movq	-16(%rbp), %rdi
	addq	$5368, %rdi
.LEHB216:
	call	_ZN3Upp9ArrayCtrlC1Ev
.LEHE216:
	movq	-16(%rbp), %rdi
	addq	$9000, %rdi
.LEHB217:
	call	_ZN3Upp5LabelC1Ev
.LEHE217:
	movq	-16(%rbp), %rdi
	addq	$9280, %rdi
.LEHB218:
	call	_ZN3Upp10EditStringC1Ev
.LEHE218:
	movq	-16(%rbp), %rdi
	addq	$9648, %rdi
.LEHB219:
	call	_ZN3Upp6ButtonC1Ev
.LEHE219:
	movq	-16(%rbp), %rdi
	addq	$9872, %rdi
.LEHB220:
	call	_ZN3Upp6ButtonC1Ev
.LEHE220:
	jmp	.L1525
.L1526:
	movq	%rax, -24(%rbp)
.L1516:
	movq	-24(%rbp), %rbx
	movq	-16(%rbp), %rdi
	addq	$9648, %rdi
	call	_ZN3Upp6ButtonD1Ev
	movq	%rbx, -24(%rbp)
	jmp	.L1517
.L1527:
	movq	%rax, -24(%rbp)
.L1517:
	movq	-24(%rbp), %rbx
	movq	-16(%rbp), %rdi
	addq	$9280, %rdi
	call	_ZN3Upp10EditStringD1Ev
	movq	%rbx, -24(%rbp)
	jmp	.L1518
.L1528:
	movq	%rax, -24(%rbp)
.L1518:
	movq	-24(%rbp), %rbx
	movq	-16(%rbp), %rdi
	addq	$9000, %rdi
	call	_ZN3Upp5LabelD1Ev
	movq	%rbx, -24(%rbp)
	jmp	.L1519
.L1529:
	movq	%rax, -24(%rbp)
.L1519:
	movq	-24(%rbp), %rbx
	movq	-16(%rbp), %rdi
	addq	$5368, %rdi
	call	_ZN3Upp9ArrayCtrlD1Ev
	movq	%rbx, -24(%rbp)
	jmp	.L1520
.L1530:
	movq	%rax, -24(%rbp)
.L1520:
	movq	-24(%rbp), %rbx
	movq	-16(%rbp), %rdi
	addq	$1304, %rdi
	call	_ZN3Upp8DropListD1Ev
	movq	%rbx, -24(%rbp)
	jmp	.L1521
.L1531:
	movq	%rax, -24(%rbp)
.L1521:
	movq	-24(%rbp), %rbx
	movq	-16(%rbp), %rdi
	addq	$1024, %rdi
	call	_ZN3Upp5LabelD1Ev
	movq	%rbx, -24(%rbp)
	jmp	.L1522
.L1532:
	movq	%rax, -24(%rbp)
.L1522:
	movq	-24(%rbp), %rbx
	movq	-16(%rbp), %rdi
	addq	$656, %rdi
	call	_ZN3Upp10EditStringD1Ev
	movq	%rbx, -24(%rbp)
	jmp	.L1523
.L1533:
	movq	%rax, -24(%rbp)
.L1523:
	movq	-24(%rbp), %rbx
	movq	-16(%rbp), %rdi
	addq	$376, %rdi
	call	_ZN3Upp5LabelD1Ev
	movq	%rbx, -24(%rbp)
	jmp	.L1524
.L1534:
	movq	%rax, -24(%rbp)
.L1524:
	movq	-24(%rbp), %rbx
	movq	-16(%rbp), %rdi
	call	_ZN3Upp9TopWindowD2Ev
	movq	%rbx, -24(%rbp)
	movq	-24(%rbp), %rdi
.LEHB221:
	call	_Unwind_Resume
.LEHE221:
.L1525:
	addq	$24, %rsp
	popq	%rbx
	leave
	ret
.LFE7938:
	.size	_ZN20WithNewPackageLayoutIN3Upp9TopWindowEEC2Ev, .-_ZN20WithNewPackageLayoutIN3Upp9TopWindowEEC2Ev
	.section	.gcc_except_table
.LLSDA7938:
	.byte	0xff
	.byte	0xff
	.byte	0x1
	.uleb128 .LLSDACSE7938-.LLSDACSB7938
.LLSDACSB7938:
	.uleb128 .LEHB211-.LFB7938
	.uleb128 .LEHE211-.LEHB211
	.uleb128 0x0
	.uleb128 0x0
	.uleb128 .LEHB212-.LFB7938
	.uleb128 .LEHE212-.LEHB212
	.uleb128 .L1534-.LFB7938
	.uleb128 0x0
	.uleb128 .LEHB213-.LFB7938
	.uleb128 .LEHE213-.LEHB213
	.uleb128 .L1533-.LFB7938
	.uleb128 0x0
	.uleb128 .LEHB214-.LFB7938
	.uleb128 .LEHE214-.LEHB214
	.uleb128 .L1532-.LFB7938
	.uleb128 0x0
	.uleb128 .LEHB215-.LFB7938
	.uleb128 .LEHE215-.LEHB215
	.uleb128 .L1531-.LFB7938
	.uleb128 0x0
	.uleb128 .LEHB216-.LFB7938
	.uleb128 .LEHE216-.LEHB216
	.uleb128 .L1530-.LFB7938
	.uleb128 0x0
	.uleb128 .LEHB217-.LFB7938
	.uleb128 .LEHE217-.LEHB217
	.uleb128 .L1529-.LFB7938
	.uleb128 0x0
	.uleb128 .LEHB218-.LFB7938
	.uleb128 .LEHE218-.LEHB218
	.uleb128 .L1528-.LFB7938
	.uleb128 0x0
	.uleb128 .LEHB219-.LFB7938
	.uleb128 .LEHE219-.LEHB219
	.uleb128 .L1527-.LFB7938
	.uleb128 0x0
	.uleb128 .LEHB220-.LFB7938
	.uleb128 .LEHE220-.LEHB220
	.uleb128 .L1526-.LFB7938
	.uleb128 0x0
	.uleb128 .LEHB221-.LFB7938
	.uleb128 .LEHE221-.LEHB221
	.uleb128 0x0
	.uleb128 0x0
.LLSDACSE7938:
	.section	.text._ZN20WithNewPackageLayoutIN3Upp9TopWindowEEC2Ev,"axG",@progbits,_ZN20WithNewPackageLayoutIN3Upp9TopWindowEEC2Ev,comdat
	.section	.text._ZN3Upp3PteINS_13DelayCallbackEEC2Ev,"axG",@progbits,_ZN3Upp3PteINS_13DelayCallbackEEC2Ev,comdat
	.align 2
	.weak	_ZN3Upp3PteINS_13DelayCallbackEEC2Ev
	.type	_ZN3Upp3PteINS_13DelayCallbackEEC2Ev, @function
_ZN3Upp3PteINS_13DelayCallbackEEC2Ev:
.LFB6480:
	pushq	%rbp
.LCFI1138:
	movq	%rsp, %rbp
.LCFI1139:
	subq	$16, %rsp
.LCFI1140:
	movq	%rdi, -8(%rbp)
	movq	-8(%rbp), %rdi
	call	_ZN3Upp7PteBaseC2Ev
	leave
	ret
.LFE6480:
	.size	_ZN3Upp3PteINS_13DelayCallbackEEC2Ev, .-_ZN3Upp3PteINS_13DelayCallbackEEC2Ev
	.section	.text._ZN3Upp13DelayCallbackC1Ev,"axG",@progbits,_ZN3Upp13DelayCallbackC1Ev,comdat
	.align 2
	.weak	_ZN3Upp13DelayCallbackC1Ev
	.type	_ZN3Upp13DelayCallbackC1Ev, @function
_ZN3Upp13DelayCallbackC1Ev:
.LFB6486:
	pushq	%rbp
.LCFI1141:
	movq	%rsp, %rbp
.LCFI1142:
	subq	$16, %rsp
.LCFI1143:
	movq	%rdi, -8(%rbp)
	movq	-8(%rbp), %rdi
	call	_ZN3Upp3PteINS_13DelayCallbackEEC2Ev
	movq	-8(%rbp), %rdi
	addq	$8, %rdi
	call	_ZN3Upp8CallbackC1Ev
	movq	-8(%rbp), %rax
	movl	$2000, 16(%rax)
	leave
	ret
.LFE6486:
	.size	_ZN3Upp13DelayCallbackC1Ev, .-_ZN3Upp13DelayCallbackC1Ev
	.section	.text._ZN3Upp9ArrayCtrl10AutoHideSbEb,"axG",@progbits,_ZN3Upp9ArrayCtrl10AutoHideSbEb,comdat
	.align 2
	.weak	_ZN3Upp9ArrayCtrl10AutoHideSbEb
	.type	_ZN3Upp9ArrayCtrl10AutoHideSbEb, @function
_ZN3Upp9ArrayCtrl10AutoHideSbEb:
.LFB6021:
	pushq	%rbp
.LCFI1144:
	movq	%rsp, %rbp
.LCFI1145:
	subq	$16, %rsp
.LCFI1146:
	movq	%rdi, -8(%rbp)
	movb	%sil, -12(%rbp)
	movzbl	-12(%rbp), %esi
	movq	-8(%rbp), %rdi
	addq	$1616, %rdi
	call	_ZN3Upp9ScrollBar8AutoHideEb
	movq	-8(%rbp), %rax
	leave
	ret
.LFE6021:
	.size	_ZN3Upp9ArrayCtrl10AutoHideSbEb, .-_ZN3Upp9ArrayCtrl10AutoHideSbEb
	.section	.rodata
.LC6:
	.string	"NewPackageLayout"
.LC7:
	.string	"Package name"
.LC8:
	.string	"dv___0"
.LC9:
	.string	"package"
.LC10:
	.string	"Create in"
.LC11:
	.string	"dv___2"
.LC12:
	.string	"nest"
.LC13:
	.string	"templist"
.LC14:
	.string	"Package description"
.LC15:
	.string	"dv___5"
.LC16:
	.string	"description"
.LC17:
	.string	"Cancel"
.LC18:
	.string	"cancel"
.LC19:
	.string	"Create"
.LC20:
	.string	"ok"
.LC21:
	.string	"preview"
	.section	.text._Z10InitLayoutI11TemplateDlgS0_EvRN3Upp4CtrlERT_RT0_R23NewPackageLayout__layid,"axG",@progbits,_Z10InitLayoutI11TemplateDlgS0_EvRN3Upp4CtrlERT_RT0_R23NewPackageLayout__layid,comdat
	.align 2
	.weak	_Z10InitLayoutI11TemplateDlgS0_EvRN3Upp4CtrlERT_RT0_R23NewPackageLayout__layid
	.type	_Z10InitLayoutI11TemplateDlgS0_EvRN3Upp4CtrlERT_RT0_R23NewPackageLayout__layid, @function
_Z10InitLayoutI11TemplateDlgS0_EvRN3Upp4CtrlERT_RT0_R23NewPackageLayout__layid:
.LFB10127:
	pushq	%rbp
.LCFI1147:
	movq	%rsp, %rbp
.LCFI1148:
	subq	$32, %rsp
.LCFI1149:
	movq	%rdi, -8(%rbp)
	movq	%rsi, -16(%rbp)
	movq	%rdx, -24(%rbp)
	movq	%rcx, -32(%rbp)
	movq	-8(%rbp), %rdi
	movl	$.LC6, %esi
	call	_ZN3Upp4Ctrl8LayoutIdEPKc
	movl	$.LC7, %edi
	call	_ZN3Upp14t_GetLngStringEPKc
	movq	%rax, %rsi
	movq	-16(%rbp), %rdi
	addq	$376, %rdi
	call	_ZN3Upp5Label8SetLabelEPKc
	movq	%rax, %rdi
	movl	$80, %edx
	movl	$8, %esi
	call	_ZN3Upp4Ctrl8LeftPosZEii
	movq	%rax, %rdi
	movl	$19, %edx
	movl	$4, %esi
	call	_ZN3Upp4Ctrl7TopPosZEii
	movq	-16(%rbp), %rdi
	addq	$376, %rdi
	movl	$.LC8, %esi
	call	_ZN3Upp4Ctrl8LayoutIdEPKc
	movq	-16(%rbp), %rsi
	addq	$376, %rsi
	movq	-8(%rbp), %rdi
	call	_ZN3Upp4Ctrl3AddERS0_
	movq	-16(%rbp), %rdi
	addq	$656, %rdi
	movl	$156, %edx
	movl	$88, %esi
	call	_ZN3Upp4Ctrl8LeftPosZEii
	movq	%rax, %rdi
	movl	$19, %edx
	movl	$4, %esi
	call	_ZN3Upp4Ctrl7TopPosZEii
	movq	-16(%rbp), %rdi
	addq	$656, %rdi
	movl	$.LC9, %esi
	call	_ZN3Upp4Ctrl8LayoutIdEPKc
	movq	-16(%rbp), %rsi
	addq	$656, %rsi
	movq	-8(%rbp), %rdi
	call	_ZN3Upp4Ctrl3AddERS0_
	movl	$.LC10, %edi
	call	_ZN3Upp14t_GetLngStringEPKc
	movq	%rax, %rsi
	movq	-16(%rbp), %rdi
	addq	$1024, %rdi
	call	_ZN3Upp5Label8SetLabelEPKc
	movq	%rax, %rdi
	movl	$84, %edx
	movl	$8, %esi
	call	_ZN3Upp4Ctrl8LeftPosZEii
	movq	%rax, %rdi
	movl	$19, %edx
	movl	$28, %esi
	call	_ZN3Upp4Ctrl7TopPosZEii
	movq	-16(%rbp), %rdi
	addq	$1024, %rdi
	movl	$.LC11, %esi
	call	_ZN3Upp4Ctrl8LayoutIdEPKc
	movq	-16(%rbp), %rsi
	addq	$1024, %rsi
	movq	-8(%rbp), %rdi
	call	_ZN3Upp4Ctrl3AddERS0_
	movq	-16(%rbp), %rdi
	addq	$1304, %rdi
	movl	$156, %edx
	movl	$88, %esi
	call	_ZN3Upp4Ctrl8LeftPosZEii
	movq	%rax, %rdi
	movl	$19, %edx
	movl	$28, %esi
	call	_ZN3Upp4Ctrl7TopPosZEii
	movq	-16(%rbp), %rdi
	addq	$1304, %rdi
	movl	$.LC12, %esi
	call	_ZN3Upp4Ctrl8LayoutIdEPKc
	movq	-16(%rbp), %rsi
	addq	$1304, %rsi
	movq	-8(%rbp), %rdi
	call	_ZN3Upp4Ctrl3AddERS0_
	movq	-16(%rbp), %rdi
	addq	$5368, %rdi
	movl	$1, %esi
	call	_ZN3Upp9ArrayCtrl10AutoHideSbEb
	movq	%rax, %rdi
	movl	$236, %edx
	movl	$8, %esi
	call	_ZN3Upp4Ctrl8LeftPosZEii
	movq	%rax, %rdi
	movl	$272, %edx
	movl	$52, %esi
	call	_ZN3Upp4Ctrl7TopPosZEii
	movq	-16(%rbp), %rdi
	addq	$5368, %rdi
	movl	$.LC13, %esi
	call	_ZN3Upp4Ctrl8LayoutIdEPKc
	movq	-16(%rbp), %rsi
	addq	$5368, %rsi
	movq	-8(%rbp), %rdi
	call	_ZN3Upp4Ctrl3AddERS0_
	movl	$.LC14, %edi
	call	_ZN3Upp14t_GetLngStringEPKc
	movq	%rax, %rsi
	movq	-16(%rbp), %rdi
	addq	$9000, %rdi
	call	_ZN3Upp5Label8SetLabelEPKc
	movq	%rax, %rdi
	movl	$108, %edx
	movl	$248, %esi
	call	_ZN3Upp4Ctrl8LeftPosZEii
	movq	%rax, %rdi
	movl	$20, %edx
	movl	$4, %esi
	call	_ZN3Upp4Ctrl7TopPosZEii
	movq	-16(%rbp), %rdi
	addq	$9000, %rdi
	movl	$.LC15, %esi
	call	_ZN3Upp4Ctrl8LayoutIdEPKc
	movq	-16(%rbp), %rsi
	addq	$9000, %rsi
	movq	-8(%rbp), %rdi
	call	_ZN3Upp4Ctrl3AddERS0_
	movq	-16(%rbp), %rdi
	addq	$9280, %rdi
	movl	$8, %edx
	movl	$356, %esi
	call	_ZN3Upp4Ctrl9HSizePosZEii
	movq	%rax, %rdi
	movl	$19, %edx
	movl	$4, %esi
	call	_ZN3Upp4Ctrl7TopPosZEii
	movq	-16(%rbp), %rdi
	addq	$9280, %rdi
	movl	$.LC16, %esi
	call	_ZN3Upp4Ctrl8LayoutIdEPKc
	movq	-16(%rbp), %rsi
	addq	$9280, %rsi
	movq	-8(%rbp), %rdi
	call	_ZN3Upp4Ctrl3AddERS0_
	movl	$.LC17, %edi
	call	_ZN3Upp14t_GetLngStringEPKc
	movq	%rax, %rsi
	movq	-16(%rbp), %rdi
	addq	$9648, %rdi
	call	_ZN3Upp6Pusher8SetLabelEPKc
	movq	%rax, %rdi
	movl	$64, %edx
	movl	$176, %esi
	call	_ZN3Upp4Ctrl8LeftPosZEii
	movq	%rax, %rdi
	movl	$24, %edx
	movl	$4, %esi
	call	_ZN3Upp4Ctrl10BottomPosZEii
	movq	-16(%rbp), %rdi
	addq	$9648, %rdi
	movl	$.LC18, %esi
	call	_ZN3Upp4Ctrl8LayoutIdEPKc
	movq	-16(%rbp), %rsi
	addq	$9648, %rsi
	movq	-8(%rbp), %rdi
	call	_ZN3Upp4Ctrl3AddERS0_
	movl	$.LC19, %edi
	call	_ZN3Upp14t_GetLngStringEPKc
	movq	%rax, %rsi
	movq	-16(%rbp), %rdi
	addq	$9872, %rdi
	call	_ZN3Upp6Pusher8SetLabelEPKc
	movq	%rax, %rdi
	movl	$64, %edx
	movl	$108, %esi
	call	_ZN3Upp4Ctrl8LeftPosZEii
	movq	%rax, %rdi
	movl	$24, %edx
	movl	$4, %esi
	call	_ZN3Upp4Ctrl10BottomPosZEii
	movq	-16(%rbp), %rdi
	addq	$9872, %rdi
	movl	$.LC20, %esi
	call	_ZN3Upp4Ctrl8LayoutIdEPKc
	movq	-16(%rbp), %rsi
	addq	$9872, %rsi
	movq	-8(%rbp), %rdi
	call	_ZN3Upp4Ctrl3AddERS0_
	movq	-24(%rbp), %rdi
	addq	$10096, %rdi
	movl	$8, %edx
	movl	$248, %esi
	call	_ZN3Upp4Ctrl9HSizePosZEii
	movq	%rax, %rdi
	movl	$4, %edx
	movl	$28, %esi
	call	_ZN3Upp4Ctrl9VSizePosZEii
	movq	-24(%rbp), %rdi
	addq	$10096, %rdi
	movl	$.LC21, %esi
	call	_ZN3Upp4Ctrl8LayoutIdEPKc
	movq	-24(%rbp), %rsi
	addq	$10096, %rsi
	movq	-8(%rbp), %rdi
	call	_ZN3Upp4Ctrl3AddERS0_
	leave
	ret
.LFE10127:
	.size	_Z10InitLayoutI11TemplateDlgS0_EvRN3Upp4CtrlERT_RT0_R23NewPackageLayout__layid, .-_Z10InitLayoutI11TemplateDlgS0_EvRN3Upp4CtrlERT_RT0_R23NewPackageLayout__layid
	.section	.text._ZN20WithNewPackageLayoutIN3Upp9TopWindowEE13GetLayoutSizeEv,"axG",@progbits,_ZN20WithNewPackageLayoutIN3Upp9TopWindowEE13GetLayoutSizeEv,comdat
	.align 2
	.weak	_ZN20WithNewPackageLayoutIN3Upp9TopWindowEE13GetLayoutSizeEv
	.type	_ZN20WithNewPackageLayoutIN3Upp9TopWindowEE13GetLayoutSizeEv, @function
_ZN20WithNewPackageLayoutIN3Upp9TopWindowEE13GetLayoutSizeEv:
.LFB10128:
	pushq	%rbp
.LCFI1150:
	movq	%rsp, %rbp
.LCFI1151:
	pushq	%rbx
.LCFI1152:
	subq	$8, %rsp
.LCFI1153:
	movq	%rdi, %rbx
	movq	%rbx, %rdi
	movl	$560, %edx
	movl	$728, %esi
	call	_ZN3Upp4Ctrl10LayoutZoomEii
	movq	%rbx, %rax
	addq	$8, %rsp
	popq	%rbx
	leave
	ret
.LFE10128:
	.size	_ZN20WithNewPackageLayoutIN3Upp9TopWindowEE13GetLayoutSizeEv, .-_ZN20WithNewPackageLayoutIN3Upp9TopWindowEE13GetLayoutSizeEv
	.section	.text._ZNK3Upp4Ctrl12AddFrameSizeENS_5Size_IiEE,"axG",@progbits,_ZNK3Upp4Ctrl12AddFrameSizeENS_5Size_IiEE,comdat
	.align 2
	.weak	_ZNK3Upp4Ctrl12AddFrameSizeENS_5Size_IiEE
	.type	_ZNK3Upp4Ctrl12AddFrameSizeENS_5Size_IiEE, @function
_ZNK3Upp4Ctrl12AddFrameSizeENS_5Size_IiEE:
.LFB4665:
	pushq	%rbp
.LCFI1154:
	movq	%rsp, %rbp
.LCFI1155:
	pushq	%rbx
.LCFI1156:
	subq	$24, %rsp
.LCFI1157:
	movq	%rdi, %rbx
	movq	%rsi, -16(%rbp)
	movq	%rdx, -24(%rbp)
	movq	%rbx, %rdi
	movq	-24(%rbp), %rax
	movl	4(%rax), %ecx
	movq	-24(%rbp), %rax
	movl	(%rax), %edx
	movq	-16(%rbp), %rsi
	call	_ZNK3Upp4Ctrl12AddFrameSizeEii
	movq	%rbx, %rax
	addq	$24, %rsp
	popq	%rbx
	leave
	ret
.LFE4665:
	.size	_ZNK3Upp4Ctrl12AddFrameSizeENS_5Size_IiEE, .-_ZNK3Upp4Ctrl12AddFrameSizeENS_5Size_IiEE
	.section	.text._ZN3Upp10CtrlLayoutI11TemplateDlgEEvRT_,"axG",@progbits,_ZN3Upp10CtrlLayoutI11TemplateDlgEEvRT_,comdat
	.align 2
	.weak	_ZN3Upp10CtrlLayoutI11TemplateDlgEEvRT_
	.type	_ZN3Upp10CtrlLayoutI11TemplateDlgEEvRT_, @function
_ZN3Upp10CtrlLayoutI11TemplateDlgEEvRT_:
.LFB10082:
	pushq	%rbp
.LCFI1158:
	movq	%rsp, %rbp
.LCFI1159:
	subq	$96, %rsp
.LCFI1160:
	movq	%rdi, -88(%rbp)
	movq	-88(%rbp), %rcx
	movq	-88(%rbp), %rdi
	movq	-88(%rbp), %rdx
	movq	-88(%rbp), %rsi
	call	_Z10InitLayoutI11TemplateDlgS0_EvRN3Upp4CtrlERT_RT0_R23NewPackageLayout__layid
	leaq	-48(%rbp), %rdi
	call	_ZN20WithNewPackageLayoutIN3Upp9TopWindowEE13GetLayoutSizeEv
	movq	-88(%rbp), %rsi
	leaq	-64(%rbp), %rdi
	leaq	-48(%rbp), %rdx
	call	_ZNK3Upp4Ctrl12AddFrameSizeENS_5Size_IiEE
	leaq	-64(%rbp), %rsi
	leaq	-32(%rbp), %rdi
	call	_ZN3Upp5Size_IiEC1ERKS1_
	movq	-88(%rbp), %rdi
	leaq	-32(%rbp), %rsi
	call	_ZN3Upp9TopWindow10SetMinSizeENS_5Size_IiEE
	leaq	-64(%rbp), %rsi
	leaq	-16(%rbp), %rdi
	call	_ZN3Upp5Size_IiEC1ERKS1_
	leaq	-16(%rbp), %rsi
	leaq	-80(%rbp), %rdi
	call	_ZN3Upp5Rect_IiEC1ENS_5Size_IiEE
	movq	-88(%rbp), %rdi
	leaq	-80(%rbp), %rsi
	call	_ZN3Upp4Ctrl7SetRectERKNS_5Rect_IiEE
	leave
	ret
.LFE10082:
	.size	_ZN3Upp10CtrlLayoutI11TemplateDlgEEvRT_, .-_ZN3Upp10CtrlLayoutI11TemplateDlgEEvRT_
	.section	.text._ZN3Upp10CtrlLayoutI11TemplateDlgEEvRT_PKc,"axG",@progbits,_ZN3Upp10CtrlLayoutI11TemplateDlgEEvRT_PKc,comdat
	.align 2
	.weak	_ZN3Upp10CtrlLayoutI11TemplateDlgEEvRT_PKc
	.type	_ZN3Upp10CtrlLayoutI11TemplateDlgEEvRT_PKc, @function
_ZN3Upp10CtrlLayoutI11TemplateDlgEEvRT_PKc:
.LFB9987:
	pushq	%rbp
.LCFI1161:
	movq	%rsp, %rbp
.LCFI1162:
	subq	$16, %rsp
.LCFI1163:
	movq	%rdi, -8(%rbp)
	movq	%rsi, -16(%rbp)
	movq	-8(%rbp), %rdi
	call	_ZN3Upp10CtrlLayoutI11TemplateDlgEEvRT_
	movq	-8(%rbp), %rdi
	movq	-16(%rbp), %rsi
	call	_ZN3Upp9TopWindow5TitleEPKc
	leave
	ret
.LFE9987:
	.size	_ZN3Upp10CtrlLayoutI11TemplateDlgEEvRT_PKc, .-_ZN3Upp10CtrlLayoutI11TemplateDlgEEvRT_PKc
	.section	.text._ZN3Upp12CtrlLayoutOKI11TemplateDlgEEvRT_PKc,"axG",@progbits,_ZN3Upp12CtrlLayoutOKI11TemplateDlgEEvRT_PKc,comdat
	.align 2
	.weak	_ZN3Upp12CtrlLayoutOKI11TemplateDlgEEvRT_PKc
	.type	_ZN3Upp12CtrlLayoutOKI11TemplateDlgEEvRT_PKc, @function
_ZN3Upp12CtrlLayoutOKI11TemplateDlgEEvRT_PKc:
.LFB9611:
	pushq	%rbp
.LCFI1164:
	movq	%rsp, %rbp
.LCFI1165:
	subq	$16, %rsp
.LCFI1166:
	movq	%rdi, -8(%rbp)
	movq	%rsi, -16(%rbp)
	movq	-16(%rbp), %rsi
	movq	-8(%rbp), %rdi
	call	_ZN3Upp10CtrlLayoutI11TemplateDlgEEvRT_PKc
	movq	-8(%rbp), %rsi
	addq	$9872, %rsi
	movq	-8(%rbp), %rdi
	movl	$1, %edx
	call	_ZN3Upp9TopWindow8AcceptorERNS_4CtrlEi
	movq	-8(%rbp), %rdi
	addq	$9872, %rdi
	call	_ZN3Upp6Button2OkEv
	leave
	ret
.LFE9611:
	.size	_ZN3Upp12CtrlLayoutOKI11TemplateDlgEEvRT_PKc, .-_ZN3Upp12CtrlLayoutOKI11TemplateDlgEEvRT_PKc
	.section	.text._ZN3Upp18CtrlLayoutOKCancelI11TemplateDlgEEvRT_PKc,"axG",@progbits,_ZN3Upp18CtrlLayoutOKCancelI11TemplateDlgEEvRT_PKc,comdat
	.align 2
	.weak	_ZN3Upp18CtrlLayoutOKCancelI11TemplateDlgEEvRT_PKc
	.type	_ZN3Upp18CtrlLayoutOKCancelI11TemplateDlgEEvRT_PKc, @function
_ZN3Upp18CtrlLayoutOKCancelI11TemplateDlgEEvRT_PKc:
.LFB9066:
	pushq	%rbp
.LCFI1167:
	movq	%rsp, %rbp
.LCFI1168:
	subq	$16, %rsp
.LCFI1169:
	movq	%rdi, -8(%rbp)
	movq	%rsi, -16(%rbp)
	movq	-16(%rbp), %rsi
	movq	-8(%rbp), %rdi
	call	_ZN3Upp12CtrlLayoutOKI11TemplateDlgEEvRT_PKc
	movq	-8(%rbp), %rsi
	addq	$9648, %rsi
	movq	-8(%rbp), %rdi
	movl	$2, %edx
	call	_ZN3Upp9TopWindow8RejectorERNS_4CtrlEi
	movq	-8(%rbp), %rdi
	addq	$9648, %rdi
	call	_ZN3Upp6Button6CancelEv
	movq	-8(%rbp), %rsi
	addq	$9648, %rsi
	movq	-8(%rbp), %rdi
	addq	$9872, %rdi
	call	_ZN3Upp15ArrangeOKCancelERNS_4CtrlES1_
	leave
	ret
.LFE9066:
	.size	_ZN3Upp18CtrlLayoutOKCancelI11TemplateDlgEEvRT_PKc, .-_ZN3Upp18CtrlLayoutOKCancelI11TemplateDlgEEvRT_PKc
	.section	.text._ZN3Upp9TopWindow8ZoomableEb,"axG",@progbits,_ZN3Upp9TopWindow8ZoomableEb,comdat
	.align 2
	.weak	_ZN3Upp9TopWindow8ZoomableEb
	.type	_ZN3Upp9TopWindow8ZoomableEb, @function
_ZN3Upp9TopWindow8ZoomableEb:
.LFB4790:
	pushq	%rbp
.LCFI1170:
	movq	%rsp, %rbp
.LCFI1171:
	subq	$16, %rsp
.LCFI1172:
	movq	%rdi, -8(%rbp)
	movb	%sil, -12(%rbp)
	movzbl	-12(%rbp), %esi
	movq	-8(%rbp), %rdi
	call	_ZN3Upp9TopWindow11MinimizeBoxEb
	movzbl	-12(%rbp), %esi
	movq	-8(%rbp), %rdi
	call	_ZN3Upp9TopWindow11MaximizeBoxEb
	leave
	ret
.LFE4790:
	.size	_ZN3Upp9TopWindow8ZoomableEb, .-_ZN3Upp9TopWindow8ZoomableEb
	.section	.text._ZN3Upp4Ctrl7DisableEv,"axG",@progbits,_ZN3Upp4Ctrl7DisableEv,comdat
	.align 2
	.weak	_ZN3Upp4Ctrl7DisableEv
	.type	_ZN3Upp4Ctrl7DisableEv, @function
_ZN3Upp4Ctrl7DisableEv:
.LFB4684:
	pushq	%rbp
.LCFI1173:
	movq	%rsp, %rbp
.LCFI1174:
	subq	$16, %rsp
.LCFI1175:
	movq	%rdi, -8(%rbp)
	movq	-8(%rbp), %rdi
	movl	$0, %esi
	call	_ZN3Upp4Ctrl6EnableEb
	leave
	ret
.LFE4684:
	.size	_ZN3Upp4Ctrl7DisableEv, .-_ZN3Upp4Ctrl7DisableEv
	.section	.text._ZN11TemplateDlg12EnableCreateEv,"axG",@progbits,_ZN11TemplateDlg12EnableCreateEv,comdat
	.align 2
	.weak	_ZN11TemplateDlg12EnableCreateEv
	.type	_ZN11TemplateDlg12EnableCreateEv, @function
_ZN11TemplateDlg12EnableCreateEv:
.LFB7769:
	pushq	%rbp
.LCFI1176:
	movq	%rsp, %rbp
.LCFI1177:
	subq	$16, %rsp
.LCFI1178:
	movq	%rdi, -8(%rbp)
	movq	-8(%rbp), %rdi
	addq	$656, %rdi
	call	_ZN3Upp6IsNullINS_10EditStringEEEbRKT_
	xorl	$1, %eax
	movzbl	%al, %esi
	movq	-8(%rbp), %rdi
	addq	$9872, %rdi
	call	_ZN3Upp4Ctrl6EnableEb
	movq	-8(%rbp), %rdi
	call	_ZN11TemplateDlg5InitsEv
	movq	-8(%rbp), %rdi
	addq	$11472, %rdi
	call	_ZN3Upp13DelayCallback6InvokeEv
	leave
	ret
.LFE7769:
	.size	_ZN11TemplateDlg12EnableCreateEv, .-_ZN11TemplateDlg12EnableCreateEv
	.section	.text._ZN6IdeImg13CreatePackageEv,"axG",@progbits,_ZN6IdeImg13CreatePackageEv,comdat
	.align 2
	.weak	_ZN6IdeImg13CreatePackageEv
	.type	_ZN6IdeImg13CreatePackageEv, @function
_ZN6IdeImg13CreatePackageEv:
.LFB7280:
	pushq	%rbp
.LCFI1179:
	movq	%rsp, %rbp
.LCFI1180:
	pushq	%rbx
.LCFI1181:
	subq	$8, %rsp
.LCFI1182:
	movq	%rdi, %rbx
	movq	%rbx, %rdi
	movl	$24, %esi
	call	_ZN6IdeImg3GetEi
	movq	%rbx, %rax
	addq	$8, %rsp
	popq	%rbx
	leave
	ret
.LFE7280:
	.size	_ZN6IdeImg13CreatePackageEv, .-_ZN6IdeImg13CreatePackageEv
	.section	.text._ZN3Upp6VectorIN10AppPreview4LineEE5GrowFEv,"axG",@progbits,_ZN3Upp6VectorIN10AppPreview4LineEE5GrowFEv,comdat
	.align 2
	.weak	_ZN3Upp6VectorIN10AppPreview4LineEE5GrowFEv
	.type	_ZN3Upp6VectorIN10AppPreview4LineEE5GrowFEv, @function
_ZN3Upp6VectorIN10AppPreview4LineEE5GrowFEv:
.LFB9606:
	pushq	%rbp
.LCFI1183:
	movq	%rsp, %rbp
.LCFI1184:
	subq	$16, %rsp
.LCFI1185:
	movq	%rdi, -8(%rbp)
	movq	-8(%rbp), %rdi
	movl	$32, %esi
	call	_ZN3Upp12VectorGrowF_EPvi
	leave
	ret
.LFE9606:
	.size	_ZN3Upp6VectorIN10AppPreview4LineEE5GrowFEv, .-_ZN3Upp6VectorIN10AppPreview4LineEE5GrowFEv
	.section	.text._ZN3Upp6VectorIN10AppPreview4LineEE3AddEv,"axG",@progbits,_ZN3Upp6VectorIN10AppPreview4LineEE3AddEv,comdat
	.align 2
	.weak	_ZN3Upp6VectorIN10AppPreview4LineEE3AddEv
	.type	_ZN3Upp6VectorIN10AppPreview4LineEE3AddEv, @function
_ZN3Upp6VectorIN10AppPreview4LineEE3AddEv:
.LFB9031:
	pushq	%rbp
.LCFI1186:
	movq	%rsp, %rbp
.LCFI1187:
	subq	$32, %rsp
.LCFI1188:
	movq	%rdi, -8(%rbp)
	movq	-8(%rbp), %rdi
	call	_ZNK3Upp6VectorIN10AppPreview4LineEE3ChkEv
	movq	-8(%rbp), %rax
	movl	8(%rax), %edx
	movq	-8(%rbp), %rax
	movl	12(%rax), %eax
	cmpl	%eax, %edx
	jl	.L1566
	movq	-8(%rbp), %rdi
	call	_ZN3Upp6VectorIN10AppPreview4LineEE5GrowFEv
.L1566:
	movq	-8(%rbp), %rax
	movq	(%rax), %rcx
	movq	-8(%rbp), %rax
	movl	8(%rax), %edx
	movslq	%edx,%rax
	salq	$5, %rax
	leaq	(%rcx,%rax), %rsi
	addl	$1, %edx
	movq	-8(%rbp), %rax
	movl	%edx, 8(%rax)
	movl	$32, %edi
	call	_ZnwmPv
	movq	%rax, -24(%rbp)
	cmpq	$0, -24(%rbp)
	je	.L1568
	movq	-24(%rbp), %rdi
	call	_ZN10AppPreview4LineC1Ev
	movq	-24(%rbp), %rax
	movq	%rax, -16(%rbp)
	jmp	.L1570
.L1568:
	movq	-24(%rbp), %rax
	movq	%rax, -16(%rbp)
.L1570:
	movq	-16(%rbp), %rax
	leave
	ret
.LFE9031:
	.size	_ZN3Upp6VectorIN10AppPreview4LineEE3AddEv, .-_ZN3Upp6VectorIN10AppPreview4LineEE3AddEv
	.section	.rodata
.LC22:
	.string	"    "
	.text
	.align 2
.globl _ZN10AppPreview3AddERKN3Upp6StringEb
	.type	_ZN10AppPreview3AddERKN3Upp6StringEb, @function
_ZN10AppPreview3AddERKN3Upp6StringEb:
.LFB7931:
	pushq	%rbp
.LCFI1189:
	movq	%rsp, %rbp
.LCFI1190:
	pushq	%rbx
.LCFI1191:
	subq	$120, %rsp
.LCFI1192:
	movq	%rdi, -104(%rbp)
	movq	%rsi, -112(%rbp)
	movb	%dl, -116(%rbp)
	movq	%fs:40, %rax
	movq	%rax, -24(%rbp)
	xorl	%eax, %eax
	movq	-112(%rbp), %rdi
	call	_ZNK3Upp7AStringINS_7String0EEcvPKcEv
	movq	%rax, %rsi
	leaq	-48(%rbp), %rdi
	movl	$_Z4NoCri, %edx
.LEHB222:
	call	_ZN3Upp6FilterEPKcPFiiE
.LEHE222:
	leaq	-48(%rbp), %rdi
	call	_ZNK3Upp7AStringINS_7String0EEcvPKcEv
	movq	%rax, %rsi
	leaq	-96(%rbp), %rdi
	movl	$0, %ecx
	movl	$10, %edx
.LEHB223:
	call	_ZN3Upp5SplitEPKcib
.LEHE223:
	leaq	-48(%rbp), %rdi
	call	_ZN3Upp6StringD1Ev
	movl	$0, -52(%rbp)
	jmp	.L1573
.L1584:
	movq	%rax, -128(%rbp)
.L1574:
	movq	-128(%rbp), %rbx
	leaq	-48(%rbp), %rdi
	call	_ZN3Upp6StringD1Ev
	movq	%rbx, -128(%rbp)
	movq	-128(%rbp), %rdi
.LEHB224:
	call	_Unwind_Resume
.LEHE224:
.L1575:
	movq	-104(%rbp), %rdi
	addq	$1288, %rdi
.LEHB225:
	call	_ZN3Upp6VectorIN10AppPreview4LineEE3AddEv
	movq	%rax, -72(%rbp)
	movl	-52(%rbp), %esi
	leaq	-96(%rbp), %rdi
	call	_ZN3Upp6VectorINS_6StringEEixEi
	movq	%rax, %rdi
	call	_ZNK3Upp7AStringINS_7String0EEcvPKcEv
	movq	%rax, -64(%rbp)
	jmp	.L1576
.L1577:
	movq	-72(%rbp), %rdi
	addq	$8, %rdi
	movl	$.LC22, %esi
	call	_ZN3UpplsERNS_6StringEPKc
	addq	$1, -64(%rbp)
.L1576:
	movq	-64(%rbp), %rax
	movzbl	(%rax), %eax
	cmpb	$9, %al
	je	.L1577
	movq	-72(%rbp), %rdi
	addq	$8, %rdi
	movq	-64(%rbp), %rsi
	call	_ZN3UpplsERNS_6StringEPKc
	movq	-72(%rbp), %rdx
	movzbl	-116(%rbp), %eax
	movb	%al, 24(%rdx)
	addl	$1, -52(%rbp)
.L1573:
	leaq	-96(%rbp), %rdi
	call	_ZNK3Upp6VectorINS_6StringEE8GetCountEv
	cmpl	-52(%rbp), %eax
	setg	%al
	testb	%al, %al
	jne	.L1575
	movq	-104(%rbp), %rdi
	call	_ZN3Upp4Ctrl7RefreshEv
	movq	-104(%rbp), %rax
	movq	(%rax), %rax
	addq	$520, %rax
	movq	(%rax), %rax
	movq	-104(%rbp), %rdi
	call	*%rax
.LEHE225:
	leaq	-96(%rbp), %rdi
.LEHB226:
	call	_ZN3Upp6VectorINS_6StringEED1Ev
.LEHE226:
	jmp	.L1581
.L1583:
	movq	%rax, -128(%rbp)
.L1580:
	movq	-128(%rbp), %rbx
	leaq	-96(%rbp), %rdi
	call	_ZN3Upp6VectorINS_6StringEED1Ev
	movq	%rbx, -128(%rbp)
	movq	-128(%rbp), %rdi
.LEHB227:
	call	_Unwind_Resume
.LEHE227:
.L1581:
	movq	-24(%rbp), %rax
	xorq	%fs:40, %rax
	je	.L1582
	call	__stack_chk_fail
.L1582:
	addq	$120, %rsp
	popq	%rbx
	leave
	ret
.LFE7931:
	.size	_ZN10AppPreview3AddERKN3Upp6StringEb, .-_ZN10AppPreview3AddERKN3Upp6StringEb
	.section	.gcc_except_table
.LLSDA7931:
	.byte	0xff
	.byte	0xff
	.byte	0x1
	.uleb128 .LLSDACSE7931-.LLSDACSB7931
.LLSDACSB7931:
	.uleb128 .LEHB222-.LFB7931
	.uleb128 .LEHE222-.LEHB222
	.uleb128 0x0
	.uleb128 0x0
	.uleb128 .LEHB223-.LFB7931
	.uleb128 .LEHE223-.LEHB223
	.uleb128 .L1584-.LFB7931
	.uleb128 0x0
	.uleb128 .LEHB224-.LFB7931
	.uleb128 .LEHE224-.LEHB224
	.uleb128 0x0
	.uleb128 0x0
	.uleb128 .LEHB225-.LFB7931
	.uleb128 .LEHE225-.LEHB225
	.uleb128 .L1583-.LFB7931
	.uleb128 0x0
	.uleb128 .LEHB226-.LFB7931
	.uleb128 .LEHE226-.LEHB226
	.uleb128 0x0
	.uleb128 0x0
	.uleb128 .LEHB227-.LFB7931
	.uleb128 .LEHE227-.LEHB227
	.uleb128 0x0
	.uleb128 0x0
.LLSDACSE7931:
	.text
	.align 2
.globl _ZN11TemplateDlg7PreviewEv
	.type	_ZN11TemplateDlg7PreviewEv, @function
_ZN11TemplateDlg7PreviewEv:
.LFB7963:
	pushq	%rbp
.LCFI1193:
	movq	%rsp, %rbp
.LCFI1194:
	pushq	%rbx
.LCFI1195:
	subq	$264, %rsp
.LCFI1196:
	movq	%rdi, -248(%rbp)
	movq	%fs:40, %rax
	movq	%rax, -24(%rbp)
	xorl	%eax, %eax
	movq	-248(%rbp), %rdi
	call	_ZN11TemplateDlg14ActualTemplateEv
	movq	%rax, -88(%rbp)
	leaq	-240(%rbp), %rdi
	movq	-248(%rbp), %rsi
.LEHB228:
	call	_ZN11TemplateDlg8MakeVarsEv
.LEHE228:
	movq	-248(%rbp), %rdi
	addq	$10248, %rdi
	call	_ZNK3Upp9ScrollBarcviEv
	movl	%eax, -72(%rbp)
	movq	-248(%rbp), %rdi
	addq	$10096, %rdi
.LEHB229:
	call	_ZN10AppPreview5ClearEv
.LEHE229:
	movl	$0, -68(%rbp)
	jmp	.L1586
.L1587:
	movq	-88(%rbp), %rdi
	addq	$48, %rdi
	movl	-68(%rbp), %esi
	call	_ZNK3Upp5ArrayI12FileTemplateEixEi
	movq	%rax, -80(%rbp)
	movb	$0, -257(%rbp)
	movq	-80(%rbp), %rdi
	addq	$16, %rdi
	call	_ZN3Upp6IsNullINS_6StringEEEbRKT_
	testb	%al, %al
	jne	.L1588
	movq	-80(%rbp), %rdi
	addq	$16, %rdi
	call	_ZNK3Upp7AStringINS_7String0EEcvPKcEv
	movq	%rax, %rsi
	leaq	-112(%rbp), %rdi
	leaq	-240(%rbp), %rdx
	movl	$50000, %ecx
.LEHB230:
	call	_ZN3Upp8EvaluateEPKcRNS_8ArrayMapINS_6StringENS_8EscValueENS_7StdHashIS3_EEEEi
	movb	$1, -257(%rbp)
	leaq	-112(%rbp), %rdi
	call	_ZN3Upp6IsTrueERKNS_8EscValueE
.LEHE230:
	testb	%al, %al
	je	.L1590
.L1588:
	movb	$1, -258(%rbp)
	jmp	.L1591
.L1590:
	movb	$0, -258(%rbp)
.L1591:
	movzbl	-258(%rbp), %eax
	movb	%al, -259(%rbp)
	cmpb	$0, -257(%rbp)
	jne	.L1592
	jmp	.L1593
.L1608:
	movq	%rax, -272(%rbp)
.L1594:
	movq	-272(%rbp), %rax
	movq	%rax, -256(%rbp)
	cmpb	$0, -257(%rbp)
	je	.L1595
	leaq	-112(%rbp), %rdi
	call	_ZN3Upp8EscValueD1Ev
.L1595:
	movq	-256(%rbp), %rax
	movq	%rax, -272(%rbp)
	jmp	.L1603
.L1592:
	leaq	-112(%rbp), %rdi
.LEHB231:
	call	_ZN3Upp8EscValueD1Ev
.L1593:
	cmpb	$0, -259(%rbp)
	je	.L1597
	movq	-80(%rbp), %rsi
	leaq	-64(%rbp), %rdi
	leaq	-240(%rbp), %rdx
	movl	$_ZN3Upp9StdFormatERKNS_5ValueE, %r8d
	movl	$50000, %ecx
	call	_ZN3Upp6ExpandERKNS_6StringERNS_8ArrayMapIS0_NS_8EscValueENS_7StdHashIS0_EEEEiPFS0_RKNS_5ValueEE
.LEHE231:
	movq	-248(%rbp), %rdi
	addq	$10096, %rdi
	leaq	-64(%rbp), %rsi
	movl	$1, %edx
.LEHB232:
	call	_ZN10AppPreview3AddERKN3Upp6StringEb
.LEHE232:
	leaq	-64(%rbp), %rdi
	call	_ZN3Upp6StringD1Ev
	movq	-80(%rbp), %rsi
	addq	$32, %rsi
	leaq	-48(%rbp), %rdi
	leaq	-240(%rbp), %rdx
	movl	$_ZN3Upp9StdFormatERKNS_5ValueE, %r8d
	movl	$50000, %ecx
.LEHB233:
	call	_ZN3Upp6ExpandERKNS_6StringERNS_8ArrayMapIS0_NS_8EscValueENS_7StdHashIS0_EEEEiPFS0_RKNS_5ValueEE
.LEHE233:
	jmp	.L1599
.L1607:
	movq	%rax, -272(%rbp)
.L1600:
	movq	-272(%rbp), %rbx
	leaq	-64(%rbp), %rdi
	call	_ZN3Upp6StringD1Ev
	movq	%rbx, -272(%rbp)
	jmp	.L1603
.L1599:
	movq	-248(%rbp), %rdi
	addq	$10096, %rdi
	leaq	-48(%rbp), %rsi
	movl	$0, %edx
.LEHB234:
	call	_ZN10AppPreview3AddERKN3Upp6StringEb
.LEHE234:
	leaq	-48(%rbp), %rdi
	call	_ZN3Upp6StringD1Ev
	jmp	.L1597
.L1606:
	movq	%rax, -272(%rbp)
.L1601:
	movq	-272(%rbp), %rbx
	leaq	-48(%rbp), %rdi
	call	_ZN3Upp6StringD1Ev
	movq	%rbx, -272(%rbp)
	jmp	.L1603
.L1597:
	addl	$1, -68(%rbp)
.L1586:
	movq	-88(%rbp), %rdi
	addq	$48, %rdi
	call	_ZNK3Upp5ArrayI12FileTemplateE8GetCountEv
	cmpl	-68(%rbp), %eax
	setg	%al
	testb	%al, %al
	jne	.L1587
	movq	-248(%rbp), %rdi
	addq	$10248, %rdi
	movl	-72(%rbp), %esi
.LEHB235:
	call	_ZN3Upp9ScrollBaraSEi
.LEHE235:
	leaq	-240(%rbp), %rdi
	call	_ZN3Upp8ArrayMapINS_6StringENS_8EscValueENS_7StdHashIS1_EEED1Ev
	jmp	.L1604
.L1609:
	movq	%rax, -272(%rbp)
.L1603:
	movq	-272(%rbp), %rbx
	leaq	-240(%rbp), %rdi
	call	_ZN3Upp8ArrayMapINS_6StringENS_8EscValueENS_7StdHashIS1_EEED1Ev
	movq	%rbx, -272(%rbp)
	movq	-272(%rbp), %rdi
.LEHB236:
	call	_Unwind_Resume
.LEHE236:
.L1604:
	movq	-24(%rbp), %rax
	xorq	%fs:40, %rax
	je	.L1605
	call	__stack_chk_fail
.L1605:
	addq	$264, %rsp
	popq	%rbx
	leave
	ret
.LFE7963:
	.size	_ZN11TemplateDlg7PreviewEv, .-_ZN11TemplateDlg7PreviewEv
	.section	.gcc_except_table
.LLSDA7963:
	.byte	0xff
	.byte	0xff
	.byte	0x1
	.uleb128 .LLSDACSE7963-.LLSDACSB7963
.LLSDACSB7963:
	.uleb128 .LEHB228-.LFB7963
	.uleb128 .LEHE228-.LEHB228
	.uleb128 0x0
	.uleb128 0x0
	.uleb128 .LEHB229-.LFB7963
	.uleb128 .LEHE229-.LEHB229
	.uleb128 .L1609-.LFB7963
	.uleb128 0x0
	.uleb128 .LEHB230-.LFB7963
	.uleb128 .LEHE230-.LEHB230
	.uleb128 .L1608-.LFB7963
	.uleb128 0x0
	.uleb128 .LEHB231-.LFB7963
	.uleb128 .LEHE231-.LEHB231
	.uleb128 .L1609-.LFB7963
	.uleb128 0x0
	.uleb128 .LEHB232-.LFB7963
	.uleb128 .LEHE232-.LEHB232
	.uleb128 .L1607-.LFB7963
	.uleb128 0x0
	.uleb128 .LEHB233-.LFB7963
	.uleb128 .LEHE233-.LEHB233
	.uleb128 .L1609-.LFB7963
	.uleb128 0x0
	.uleb128 .LEHB234-.LFB7963
	.uleb128 .LEHE234-.LEHB234
	.uleb128 .L1606-.LFB7963
	.uleb128 0x0
	.uleb128 .LEHB235-.LFB7963
	.uleb128 .LEHE235-.LEHB235
	.uleb128 .L1609-.LFB7963
	.uleb128 0x0
	.uleb128 .LEHB236-.LFB7963
	.uleb128 .LEHE236-.LEHB236
	.uleb128 0x0
	.uleb128 0x0
.LLSDACSE7963:
	.text
	.align 2
.globl _ZN11TemplateDlg13EnterTemplateEv
	.type	_ZN11TemplateDlg13EnterTemplateEv, @function
_ZN11TemplateDlg13EnterTemplateEv:
.LFB7966:
	pushq	%rbp
.LCFI1197:
	movq	%rsp, %rbp
.LCFI1198:
	pushq	%rbx
.LCFI1199:
	subq	$504, %rsp
.LCFI1200:
	movq	%rdi, -424(%rbp)
	movq	%fs:40, %rax
	movq	%rax, -24(%rbp)
	xorl	%eax, %eax
	movq	-424(%rbp), %rdi
	call	_ZN11TemplateDlg14ActualTemplateEv
	movq	%rax, -128(%rbp)
	leaq	-416(%rbp), %rdi
.LEHB237:
	call	_ZN3Upp8ArrayMapINS_6StringENS_8EscValueENS_7StdHashIS1_EEEC1Ev
.LEHE237:
	movq	-424(%rbp), %rsi
	addq	$656, %rsi
	leaq	-224(%rbp), %rdi
.LEHB238:
	call	_ZNK3Upp4CtrlcoEv
.LEHE238:
	leaq	-64(%rbp), %rdi
	leaq	-224(%rbp), %rsi
.LEHB239:
	call	_ZNK3Upp5ValuecvNS_6StringEEv
.LEHE239:
	leaq	-64(%rbp), %rsi
	leaq	-288(%rbp), %rdi
.LEHB240:
	call	_ZN3Upp8EscValueC1ERKNS_6StringE
.LEHE240:
	leaq	-48(%rbp), %rdi
	movl	$.LC1, %esi
.LEHB241:
	call	_ZN3Upp6StringC1EPKc
.LEHE241:
	leaq	-288(%rbp), %rdx
	leaq	-48(%rbp), %rsi
	leaq	-416(%rbp), %rdi
.LEHB242:
	call	_ZN3Upp8ArrayMapINS_6StringENS_8EscValueENS_7StdHashIS1_EEE3AddERKS1_RKS2_
.LEHE242:
	leaq	-48(%rbp), %rdi
	call	_ZN3Upp6StringD1Ev
	leaq	-288(%rbp), %rdi
.LEHB243:
	call	_ZN3Upp8EscValueD1Ev
.LEHE243:
	jmp	.L1611
.L1655:
	movq	%rax, -504(%rbp)
.L1612:
	movq	-504(%rbp), %rbx
	leaq	-48(%rbp), %rdi
	call	_ZN3Upp6StringD1Ev
	movq	%rbx, -504(%rbp)
	jmp	.L1613
.L1656:
	movq	%rax, -504(%rbp)
.L1613:
	movq	-504(%rbp), %rbx
	leaq	-288(%rbp), %rdi
	call	_ZN3Upp8EscValueD1Ev
	movq	%rbx, -504(%rbp)
	jmp	.L1615
.L1611:
	leaq	-64(%rbp), %rdi
	call	_ZN3Upp6StringD1Ev
	leaq	-224(%rbp), %rdi
.LEHB244:
	call	_ZN3Upp5ValueD1Ev
.LEHE244:
	jmp	.L1614
.L1657:
	movq	%rax, -504(%rbp)
.L1615:
	movq	-504(%rbp), %rbx
	leaq	-64(%rbp), %rdi
	call	_ZN3Upp6StringD1Ev
	movq	%rbx, -504(%rbp)
	jmp	.L1616
.L1658:
	movq	%rax, -504(%rbp)
.L1616:
	movq	-504(%rbp), %rbx
	leaq	-224(%rbp), %rdi
	call	_ZN3Upp5ValueD1Ev
	movq	%rbx, -504(%rbp)
	jmp	.L1645
.L1614:
	leaq	-416(%rbp), %rdi
.LEHB245:
	call	_ZN3Upp6StdLibERNS_8ArrayMapINS_6StringENS_8EscValueENS_7StdHashIS1_EEEE
	movq	-424(%rbp), %rdi
	addq	$11424, %rdi
	call	_ZN3Upp5ArrayINS_5LabelEE5ClearEv
	movq	-424(%rbp), %rdi
	addq	$11448, %rdi
	call	_ZN3Upp5ArrayINS_4CtrlEE5ClearEv
	movq	-424(%rbp), %rsi
	addq	$5368, %rsi
	leaq	-272(%rbp), %rdi
	call	_ZNK3Upp4Ctrl7GetRectEv
	leaq	-240(%rbp), %rdi
	leaq	-272(%rbp), %rsi
	call	_ZNK3Upp5Rect_IiE10BottomLeftEv
	movl	-236(%rbp), %eax
	addl	$8, %eax
	movl	%eax, -236(%rbp)
	movq	-424(%rbp), %rsi
	addq	$9648, %rsi
	leaq	-256(%rbp), %rdi
	call	_ZNK3Upp4Ctrl7GetRectEv
	movl	-248(%rbp), %eax
	movl	-240(%rbp), %edx
	subl	%edx, %eax
	movl	%eax, -76(%rbp)
	movl	$0, -72(%rbp)
	jmp	.L1617
.L1618:
	movq	-128(%rbp), %rdi
	addq	$24, %rdi
	movl	-72(%rbp), %esi
	call	_ZNK3Upp5ArrayI12TemplateItemEixEi
	movq	%rax, -120(%rbp)
	movq	-120(%rbp), %rax
	movl	16(%rax), %eax
	cmpl	$2, %eax
	jne	.L1619
	movq	-120(%rbp), %rdi
	call	_ZNK3Upp7AStringINS_7String0EEcvPKcEv
	movq	%rax, -496(%rbp)
	movq	-424(%rbp), %rdi
	addq	$11448, %rdi
	call	_ZN3Upp5ArrayINS_4CtrlEE6CreateINS_6OptionEEERT_v
	movq	%rax, %rdi
	movq	-496(%rbp), %rsi
	call	_ZN3Upp6Pusher8SetLabelEPKc
	jmp	.L1621
.L1619:
	movl	-236(%rbp), %eax
	movl	%eax, -488(%rbp)
	movl	-240(%rbp), %eax
	movl	%eax, -484(%rbp)
	movq	-120(%rbp), %rdi
	call	_ZNK3Upp7AStringINS_7String0EEcvPKcEv
	movq	%rax, -480(%rbp)
	movq	-424(%rbp), %rdi
	addq	$11424, %rdi
	call	_ZN3Upp5ArrayINS_5LabelEE3AddEv
	movq	%rax, %rdi
	movq	-480(%rbp), %rsi
	call	_ZN3Upp5Label8SetLabelEPKc
	movq	%rax, %rdi
	movl	-76(%rbp), %edx
	movl	-484(%rbp), %esi
	call	_ZN3Upp4Ctrl7LeftPosEii
	movq	%rax, %rdi
	movl	$-16382, %edx
	movl	-488(%rbp), %esi
	call	_ZN3Upp4Ctrl6TopPosEii
	movq	-424(%rbp), %rdi
	addq	$11424, %rdi
	call	_ZN3Upp5ArrayINS_5LabelEE3TopEv
	movq	%rax, %rsi
	movq	-424(%rbp), %rdi
	call	_ZN3Upp4Ctrl3AddERS0_
	movl	-236(%rbp), %eax
	movl	%eax, -472(%rbp)
	movq	-424(%rbp), %rdi
	addq	$11424, %rdi
	call	_ZN3Upp5ArrayINS_5LabelEE3TopEv
	movq	%rax, %rsi
	movq	(%rsi), %rax
	addq	$528, %rax
	movq	(%rax), %rax
	leaq	-208(%rbp), %rdi
	call	*%rax
	movl	-204(%rbp), %eax
	addl	-472(%rbp), %eax
	movl	%eax, -236(%rbp)
	movq	-120(%rbp), %rax
	movl	16(%rax), %eax
	movl	%eax, -468(%rbp)
	cmpl	$1, -468(%rbp)
	je	.L1623
	cmpl	$1, -468(%rbp)
	jg	.L1626
	cmpl	$0, -468(%rbp)
	je	.L1622
	jmp	.L1621
.L1626:
	cmpl	$3, -468(%rbp)
	je	.L1624
	cmpl	$4, -468(%rbp)
	je	.L1625
	jmp	.L1621
.L1622:
	movl	$352, %edi
	call	_Znwm
.LEHE245:
	movq	%rax, -464(%rbp)
	movq	-464(%rbp), %rdi
.LEHB246:
	call	_ZN3Upp9EditFieldC1Ev
.LEHE246:
	movq	-464(%rbp), %rax
	movq	%rax, -112(%rbp)
	movq	-112(%rbp), %rdi
	movl	$_Z8IdFilteri, %esi
	call	_ZN3Upp9EditField9SetFilterEPFiiE
	movq	-112(%rbp), %rsi
	movq	-424(%rbp), %rdi
	addq	$11448, %rdi
.LEHB247:
	call	_ZN3Upp5ArrayINS_4CtrlEE3AddEPS1_
	jmp	.L1621
.L1654:
	movq	%rax, -504(%rbp)
.L1628:
	movq	-504(%rbp), %rbx
	movq	-464(%rbp), %rdi
	call	_ZdlPv
	movq	%rbx, -504(%rbp)
	jmp	.L1645
.L1623:
	movl	$352, %edi
	call	_Znwm
.LEHE247:
	movq	%rax, -456(%rbp)
	movq	-456(%rbp), %rdi
.LEHB248:
	call	_ZN3Upp9EditFieldC1Ev
.LEHE248:
	movq	-456(%rbp), %rax
	movq	%rax, -104(%rbp)
	movq	-104(%rbp), %rdi
	movl	$_Z14FilenameFilteri, %esi
	call	_ZN3Upp9EditField9SetFilterEPFiiE
	movq	-104(%rbp), %rsi
	movq	-424(%rbp), %rdi
	addq	$11448, %rdi
.LEHB249:
	call	_ZN3Upp5ArrayINS_4CtrlEE3AddEPS1_
	jmp	.L1621
.L1653:
	movq	%rax, -504(%rbp)
.L1630:
	movq	-504(%rbp), %rbx
	movq	-456(%rbp), %rdi
	call	_ZdlPv
	movq	%rbx, -504(%rbp)
	jmp	.L1645
.L1624:
	movl	$4064, %edi
	call	_Znwm
.LEHE249:
	movq	%rax, -448(%rbp)
	movq	-448(%rbp), %rdi
.LEHB250:
	call	_ZN3Upp8DropListC1Ev
.LEHE250:
	movq	-448(%rbp), %rax
	movq	%rax, -96(%rbp)
	movl	$0, -68(%rbp)
	jmp	.L1631
.L1652:
	movq	%rax, -504(%rbp)
.L1632:
	movq	-504(%rbp), %rbx
	movq	-448(%rbp), %rdi
	call	_ZdlPv
	movq	%rbx, -504(%rbp)
	jmp	.L1645
.L1633:
	movq	-120(%rbp), %rdi
	addq	$40, %rdi
	movl	-68(%rbp), %esi
	call	_ZNK3Upp6VectorINS_6StringEEixEi
	movq	%rax, %rsi
	leaq	-192(%rbp), %rdi
.LEHB251:
	call	_ZN3Upp5ValueC1ERKNS_6StringE
.LEHE251:
	movl	-68(%rbp), %esi
	leaq	-176(%rbp), %rdi
.LEHB252:
	call	_ZN3Upp5ValueC1Ei
.LEHE252:
	leaq	-192(%rbp), %rdx
	leaq	-176(%rbp), %rsi
	movq	-96(%rbp), %rdi
.LEHB253:
	call	_ZN3Upp8DropList3AddERKNS_5ValueES3_
.LEHE253:
	leaq	-176(%rbp), %rdi
.LEHB254:
	call	_ZN3Upp5ValueD1Ev
.LEHE254:
	jmp	.L1634
.L1650:
	movq	%rax, -504(%rbp)
.L1635:
	movq	-504(%rbp), %rbx
	leaq	-176(%rbp), %rdi
	call	_ZN3Upp5ValueD1Ev
	movq	%rbx, -504(%rbp)
	jmp	.L1637
.L1634:
	leaq	-192(%rbp), %rdi
.LEHB255:
	call	_ZN3Upp5ValueD1Ev
.LEHE255:
	jmp	.L1636
.L1651:
	movq	%rax, -504(%rbp)
.L1637:
	movq	-504(%rbp), %rbx
	leaq	-192(%rbp), %rdi
	call	_ZN3Upp5ValueD1Ev
	movq	%rbx, -504(%rbp)
	jmp	.L1645
.L1636:
	addl	$1, -68(%rbp)
.L1631:
	movq	-120(%rbp), %rdi
	addq	$40, %rdi
	call	_ZNK3Upp6VectorINS_6StringEE8GetCountEv
	cmpl	-68(%rbp), %eax
	setg	%al
	testb	%al, %al
	jne	.L1633
	movq	-120(%rbp), %rdi
	addq	$40, %rdi
	call	_ZNK3Upp6VectorINS_6StringEE8GetCountEv
	testl	%eax, %eax
	setne	%al
	testb	%al, %al
	je	.L1639
	movq	-96(%rbp), %rdi
	movl	$0, %esi
.LEHB256:
	call	_ZN3Upp8DropList8SetIndexEi
.L1639:
	movq	-96(%rbp), %rsi
	movq	-424(%rbp), %rdi
	addq	$11448, %rdi
	call	_ZN3Upp5ArrayINS_4CtrlEE3AddEPS1_
	jmp	.L1621
.L1625:
	movl	$352, %edi
	call	_Znwm
.LEHE256:
	movq	%rax, -440(%rbp)
	movq	-440(%rbp), %rdi
.LEHB257:
	call	_ZN3Upp9EditFieldC1Ev
.LEHE257:
	movq	-440(%rbp), %rax
	movq	%rax, -88(%rbp)
	movq	-88(%rbp), %rsi
	movq	-424(%rbp), %rdi
	addq	$11448, %rdi
.LEHB258:
	call	_ZN3Upp5ArrayINS_4CtrlEE3AddEPS1_
	jmp	.L1621
.L1649:
	movq	%rax, -504(%rbp)
.L1641:
	movq	-504(%rbp), %rbx
	movq	-440(%rbp), %rdi
	call	_ZdlPv
	movq	%rbx, -504(%rbp)
	jmp	.L1645
.L1621:
	movq	-424(%rbp), %rdi
	addq	$11448, %rdi
	call	_ZN3Upp5ArrayINS_4CtrlEE3TopEv
	movq	%rax, %rsi
	movq	-424(%rbp), %rdi
	call	_ZN3Upp4Ctrl3AddERS0_
	movq	-424(%rbp), %rsi
	addq	$11472, %rsi
	leaq	-160(%rbp), %rdi
	call	_ZN3Upp13DelayCallbackcvNS_8CallbackEEv
.LEHE258:
	movq	-424(%rbp), %rdi
	addq	$11448, %rdi
	call	_ZN3Upp5ArrayINS_4CtrlEE3TopEv
	movq	%rax, %rdi
	leaq	-160(%rbp), %rsi
.LEHB259:
	call	_ZN3Upp4CtrllsENS_8CallbackE
.LEHE259:
	leaq	-160(%rbp), %rdi
.LEHB260:
	call	_ZN3Upp8CallbackD1Ev
.LEHE260:
	jmp	.L1642
.L1648:
	movq	%rax, -504(%rbp)
.L1643:
	movq	-504(%rbp), %rbx
	leaq	-160(%rbp), %rdi
	call	_ZN3Upp8CallbackD1Ev
	movq	%rbx, -504(%rbp)
	jmp	.L1645
.L1642:
	movl	-236(%rbp), %eax
	movl	%eax, -432(%rbp)
	movl	-240(%rbp), %ebx
	movq	-424(%rbp), %rdi
	addq	$11448, %rdi
	call	_ZN3Upp5ArrayINS_4CtrlEE3TopEv
	movq	%rax, %rdi
	movl	-76(%rbp), %edx
	movl	%ebx, %esi
.LEHB261:
	call	_ZN3Upp4Ctrl7LeftPosEii
	movq	%rax, %rdi
	movl	$-16382, %edx
	movl	-432(%rbp), %esi
	call	_ZN3Upp4Ctrl6TopPosEii
	movl	-236(%rbp), %eax
	movl	%eax, -428(%rbp)
	movq	-424(%rbp), %rdi
	addq	$11448, %rdi
	call	_ZN3Upp5ArrayINS_4CtrlEE3TopEv
	movq	%rax, %rsi
	movq	(%rsi), %rax
	addq	$528, %rax
	movq	(%rax), %rax
	leaq	-144(%rbp), %rdi
	call	*%rax
	movl	-140(%rbp), %eax
	addl	$6, %eax
	addl	-428(%rbp), %eax
	movl	%eax, -236(%rbp)
	movq	-424(%rbp), %rdi
	addq	$11448, %rdi
	call	_ZN3Upp5ArrayINS_4CtrlEE3TopEv
	movq	%rax, %rdi
	movq	(%rdi), %rax
	addq	$64, %rax
	movq	(%rax), %rax
	call	*%rax
	addl	$1, -72(%rbp)
.L1617:
	movq	-128(%rbp), %rdi
	addq	$24, %rdi
	call	_ZNK3Upp5ArrayI12TemplateItemE8GetCountEv
	cmpl	-72(%rbp), %eax
	setg	%al
	testb	%al, %al
	jne	.L1618
	movq	-424(%rbp), %rdi
	call	_ZN11TemplateDlg5InitsEv
	movq	-424(%rbp), %rdi
	call	_ZN11TemplateDlg7PreviewEv
.LEHE261:
	leaq	-416(%rbp), %rdi
	call	_ZN3Upp8ArrayMapINS_6StringENS_8EscValueENS_7StdHashIS1_EEED1Ev
	jmp	.L1646
.L1659:
	movq	%rax, -504(%rbp)
.L1645:
	movq	-504(%rbp), %rbx
	leaq	-416(%rbp), %rdi
	call	_ZN3Upp8ArrayMapINS_6StringENS_8EscValueENS_7StdHashIS1_EEED1Ev
	movq	%rbx, -504(%rbp)
	movq	-504(%rbp), %rdi
.LEHB262:
	call	_Unwind_Resume
.LEHE262:
.L1646:
	movq	-24(%rbp), %rax
	xorq	%fs:40, %rax
	je	.L1647
	call	__stack_chk_fail
.L1647:
	addq	$504, %rsp
	popq	%rbx
	leave
	ret
.LFE7966:
	.size	_ZN11TemplateDlg13EnterTemplateEv, .-_ZN11TemplateDlg13EnterTemplateEv
	.section	.gcc_except_table
.LLSDA7966:
	.byte	0xff
	.byte	0xff
	.byte	0x1
	.uleb128 .LLSDACSE7966-.LLSDACSB7966
.LLSDACSB7966:
	.uleb128 .LEHB237-.LFB7966
	.uleb128 .LEHE237-.LEHB237
	.uleb128 0x0
	.uleb128 0x0
	.uleb128 .LEHB238-.LFB7966
	.uleb128 .LEHE238-.LEHB238
	.uleb128 .L1659-.LFB7966
	.uleb128 0x0
	.uleb128 .LEHB239-.LFB7966
	.uleb128 .LEHE239-.LEHB239
	.uleb128 .L1658-.LFB7966
	.uleb128 0x0
	.uleb128 .LEHB240-.LFB7966
	.uleb128 .LEHE240-.LEHB240
	.uleb128 .L1657-.LFB7966
	.uleb128 0x0
	.uleb128 .LEHB241-.LFB7966
	.uleb128 .LEHE241-.LEHB241
	.uleb128 .L1656-.LFB7966
	.uleb128 0x0
	.uleb128 .LEHB242-.LFB7966
	.uleb128 .LEHE242-.LEHB242
	.uleb128 .L1655-.LFB7966
	.uleb128 0x0
	.uleb128 .LEHB243-.LFB7966
	.uleb128 .LEHE243-.LEHB243
	.uleb128 .L1657-.LFB7966
	.uleb128 0x0
	.uleb128 .LEHB244-.LFB7966
	.uleb128 .LEHE244-.LEHB244
	.uleb128 .L1659-.LFB7966
	.uleb128 0x0
	.uleb128 .LEHB245-.LFB7966
	.uleb128 .LEHE245-.LEHB245
	.uleb128 .L1659-.LFB7966
	.uleb128 0x0
	.uleb128 .LEHB246-.LFB7966
	.uleb128 .LEHE246-.LEHB246
	.uleb128 .L1654-.LFB7966
	.uleb128 0x0
	.uleb128 .LEHB247-.LFB7966
	.uleb128 .LEHE247-.LEHB247
	.uleb128 .L1659-.LFB7966
	.uleb128 0x0
	.uleb128 .LEHB248-.LFB7966
	.uleb128 .LEHE248-.LEHB248
	.uleb128 .L1653-.LFB7966
	.uleb128 0x0
	.uleb128 .LEHB249-.LFB7966
	.uleb128 .LEHE249-.LEHB249
	.uleb128 .L1659-.LFB7966
	.uleb128 0x0
	.uleb128 .LEHB250-.LFB7966
	.uleb128 .LEHE250-.LEHB250
	.uleb128 .L1652-.LFB7966
	.uleb128 0x0
	.uleb128 .LEHB251-.LFB7966
	.uleb128 .LEHE251-.LEHB251
	.uleb128 .L1659-.LFB7966
	.uleb128 0x0
	.uleb128 .LEHB252-.LFB7966
	.uleb128 .LEHE252-.LEHB252
	.uleb128 .L1651-.LFB7966
	.uleb128 0x0
	.uleb128 .LEHB253-.LFB7966
	.uleb128 .LEHE253-.LEHB253
	.uleb128 .L1650-.LFB7966
	.uleb128 0x0
	.uleb128 .LEHB254-.LFB7966
	.uleb128 .LEHE254-.LEHB254
	.uleb128 .L1651-.LFB7966
	.uleb128 0x0
	.uleb128 .LEHB255-.LFB7966
	.uleb128 .LEHE255-.LEHB255
	.uleb128 .L1659-.LFB7966
	.uleb128 0x0
	.uleb128 .LEHB256-.LFB7966
	.uleb128 .LEHE256-.LEHB256
	.uleb128 .L1659-.LFB7966
	.uleb128 0x0
	.uleb128 .LEHB257-.LFB7966
	.uleb128 .LEHE257-.LEHB257
	.uleb128 .L1649-.LFB7966
	.uleb128 0x0
	.uleb128 .LEHB258-.LFB7966
	.uleb128 .LEHE258-.LEHB258
	.uleb128 .L1659-.LFB7966
	.uleb128 0x0
	.uleb128 .LEHB259-.LFB7966
	.uleb128 .LEHE259-.LEHB259
	.uleb128 .L1648-.LFB7966
	.uleb128 0x0
	.uleb128 .LEHB260-.LFB7966
	.uleb128 .LEHE260-.LEHB260
	.uleb128 .L1659-.LFB7966
	.uleb128 0x0
	.uleb128 .LEHB261-.LFB7966
	.uleb128 .LEHE261-.LEHB261
	.uleb128 .L1659-.LFB7966
	.uleb128 0x0
	.uleb128 .LEHB262-.LFB7966
	.uleb128 .LEHE262-.LEHB262
	.uleb128 0x0
	.uleb128 0x0
.LLSDACSE7966:
	.text
	.section	.text._ZN3Upp8FontInfoD1Ev,"axG",@progbits,_ZN3Upp8FontInfoD1Ev,comdat
	.align 2
	.weak	_ZN3Upp8FontInfoD1Ev
	.type	_ZN3Upp8FontInfoD1Ev, @function
_ZN3Upp8FontInfoD1Ev:
.LFB4397:
	pushq	%rbp
.LCFI1201:
	movq	%rsp, %rbp
.LCFI1202:
	subq	$16, %rsp
.LCFI1203:
	movq	%rdi, -8(%rbp)
	movq	-8(%rbp), %rdi
	call	_ZN3Upp8FontInfo7ReleaseEv
	leave
	ret
.LFE4397:
	.size	_ZN3Upp8FontInfoD1Ev, .-_ZN3Upp8FontInfoD1Ev
	.text
	.align 2
.globl _ZN10AppPreview5PaintERN3Upp4DrawE
	.type	_ZN10AppPreview5PaintERN3Upp4DrawE, @function
_ZN10AppPreview5PaintERN3Upp4DrawE:
.LFB7930:
	pushq	%rbp
.LCFI1204:
	movq	%rsp, %rbp
.LCFI1205:
	pushq	%rbx
.LCFI1206:
	subq	$200, %rsp
.LCFI1207:
	movq	%rdi, -152(%rbp)
	movq	%rsi, -160(%rbp)
	movq	-152(%rbp), %rsi
	leaq	-128(%rbp), %rdi
.LEHB263:
	call	_ZNK3Upp4Ctrl7GetSizeEv
	leaq	-112(%rbp), %rdi
	movl	$12, %esi
	call	_ZN3Upp7CourierC1Ei
	leaq	-144(%rbp), %rdi
	leaq	-112(%rbp), %rsi
	call	_ZNK3Upp4Font4InfoEv
.LEHE263:
	movl	$0, -28(%rbp)
	movq	-152(%rbp), %rdi
	addq	$152, %rdi
	call	_ZNK3Upp9ScrollBarcviEv
	movl	%eax, -24(%rbp)
	jmp	.L1664
.L1665:
	movq	-152(%rbp), %rdi
	addq	$1288, %rdi
	call	_ZNK3Upp6VectorIN10AppPreview4LineEE8GetCountEv
	cmpl	-24(%rbp), %eax
	jle	.L1666
	movq	-152(%rbp), %rdi
	addq	$1288, %rdi
	movl	-24(%rbp), %esi
	call	_ZN3Upp6VectorIN10AppPreview4LineEEixEi
	movzbl	24(%rax), %eax
	xorl	$1, %eax
	testb	%al, %al
	jne	.L1666
	movb	$1, -169(%rbp)
	jmp	.L1669
.L1666:
	movb	$0, -169(%rbp)
.L1669:
	movzbl	-169(%rbp), %eax
	movb	%al, -17(%rbp)
	cmpb	$0, -17(%rbp)
	je	.L1670
	movq	$_ZN3Upp6LtCyanEv, -168(%rbp)
	jmp	.L1672
.L1670:
	movq	$_ZN3Upp11SColorPaperEv, -168(%rbp)
.L1672:
	leaq	-48(%rbp), %rdi
	movq	-168(%rbp), %rsi
.LEHB264:
	call	_ZN3Upp5ColorC1EPFS0_vE
	leaq	-144(%rbp), %rdi
	call	_ZNK3Upp8FontInfo9GetHeightEv
	movl	%eax, %ecx
	movl	-128(%rbp), %esi
	movl	-48(%rbp), %eax
	movl	-28(%rbp), %edx
	movq	-160(%rbp), %rdi
	movl	%eax, %r9d
	movl	%ecx, %r8d
	movl	%esi, %ecx
	movl	$0, %esi
	call	_ZN3Upp4Draw8DrawRectEiiiiNS_5ColorE
	movq	-152(%rbp), %rdi
	addq	$1288, %rdi
	call	_ZNK3Upp6VectorIN10AppPreview4LineEE8GetCountEv
	cmpl	-24(%rbp), %eax
	setg	%al
	testb	%al, %al
	je	.L1673
	leaq	-32(%rbp), %rdi
	movl	$_ZN3Upp10SColorTextEv, %esi
	call	_ZN3Upp5ColorC1EPFS0_vE
	cmpb	$0, -17(%rbp)
	je	.L1675
	leaq	-80(%rbp), %rdi
	movl	$12, %esi
	call	_ZN3Upp5ArialC1Ei
	leaq	-80(%rbp), %rdi
	call	_ZN3Upp4Font4BoldEv
	movq	%rax, %rdi
	call	_ZN3Upp4Font6ItalicEv
	movq	(%rax), %rax
	movq	%rax, -96(%rbp)
	jmp	.L1677
.L1675:
	leaq	-64(%rbp), %rdi
	movl	$12, %esi
	call	_ZN3Upp7CourierC1Ei
	movq	-64(%rbp), %rax
	movq	%rax, -96(%rbp)
.L1677:
	movq	-152(%rbp), %rdi
	addq	$1288, %rdi
	movl	-24(%rbp), %esi
	call	_ZN3Upp6VectorIN10AppPreview4LineEEixEi
	leaq	8(%rax), %rcx
	movl	-32(%rbp), %eax
	movq	-96(%rbp), %rdx
	movl	-28(%rbp), %esi
	movq	-160(%rbp), %rdi
	movq	$0, (%rsp)
	movl	%eax, %r9d
	movq	%rdx, %r8
	movl	%esi, %edx
	movl	$0, %esi
	call	_ZN3Upp4Draw8DrawTextEiiRKNS_6StringENS_4FontENS_5ColorEPKi
.LEHE264:
.L1673:
	leaq	-144(%rbp), %rdi
	call	_ZNK3Upp8FontInfo9GetHeightEv
	addl	%eax, -28(%rbp)
	addl	$1, -24(%rbp)
.L1664:
	movl	-124(%rbp), %eax
	cmpl	-28(%rbp), %eax
	jg	.L1665
	leaq	-144(%rbp), %rdi
.LEHB265:
	call	_ZN3Upp8FontInfoD1Ev
.LEHE265:
	jmp	.L1680
.L1681:
	movq	%rax, -184(%rbp)
.L1679:
	movq	-184(%rbp), %rbx
	leaq	-144(%rbp), %rdi
	call	_ZN3Upp8FontInfoD1Ev
	movq	%rbx, -184(%rbp)
	movq	-184(%rbp), %rdi
.LEHB266:
	call	_Unwind_Resume
.LEHE266:
.L1680:
	addq	$200, %rsp
	popq	%rbx
	leave
	ret
.LFE7930:
	.size	_ZN10AppPreview5PaintERN3Upp4DrawE, .-_ZN10AppPreview5PaintERN3Upp4DrawE
	.section	.gcc_except_table
.LLSDA7930:
	.byte	0xff
	.byte	0xff
	.byte	0x1
	.uleb128 .LLSDACSE7930-.LLSDACSB7930
.LLSDACSB7930:
	.uleb128 .LEHB263-.LFB7930
	.uleb128 .LEHE263-.LEHB263
	.uleb128 0x0
	.uleb128 0x0
	.uleb128 .LEHB264-.LFB7930
	.uleb128 .LEHE264-.LEHB264
	.uleb128 .L1681-.LFB7930
	.uleb128 0x0
	.uleb128 .LEHB265-.LFB7930
	.uleb128 .LEHE265-.LEHB265
	.uleb128 0x0
	.uleb128 0x0
	.uleb128 .LEHB266-.LFB7930
	.uleb128 .LEHE266-.LEHB266
	.uleb128 0x0
	.uleb128 0x0
.LLSDACSE7930:
	.text
	.align 2
.globl _ZN10AppPreview6LayoutEv
	.type	_ZN10AppPreview6LayoutEv, @function
_ZN10AppPreview6LayoutEv:
.LFB7929:
	pushq	%rbp
.LCFI1208:
	movq	%rsp, %rbp
.LCFI1209:
	pushq	%rbx
.LCFI1210:
	subq	$72, %rsp
.LCFI1211:
	movq	%rdi, -72(%rbp)
	movq	-72(%rbp), %rdi
	addq	$1288, %rdi
	call	_ZNK3Upp6VectorIN10AppPreview4LineEE8GetCountEv
	movl	%eax, %esi
	movq	-72(%rbp), %rdi
	addq	$152, %rdi
.LEHB267:
	call	_ZN3Upp9ScrollBar8SetTotalEi
	movq	-72(%rbp), %rsi
	leaq	-48(%rbp), %rdi
	call	_ZNK3Upp4Ctrl7GetSizeEv
	movl	-44(%rbp), %ebx
	leaq	-32(%rbp), %rdi
	movl	$12, %esi
	call	_ZN3Upp7CourierC1Ei
	leaq	-64(%rbp), %rdi
	leaq	-32(%rbp), %rsi
	call	_ZNK3Upp4Font4InfoEv
.LEHE267:
	leaq	-64(%rbp), %rdi
	call	_ZNK3Upp8FontInfo9GetHeightEv
	movl	%ebx, %edx
	movl	%eax, %ecx
	movl	%edx, %eax
	sarl	$31, %edx
	idivl	%ecx
	movl	%eax, %esi
	movq	-72(%rbp), %rdi
	addq	$152, %rdi
.LEHB268:
	call	_ZN3Upp9ScrollBar7SetPageEi
.LEHE268:
	leaq	-64(%rbp), %rdi
.LEHB269:
	call	_ZN3Upp8FontInfoD1Ev
.LEHE269:
	jmp	.L1684
.L1685:
	movq	%rax, -80(%rbp)
.L1683:
	movq	-80(%rbp), %rbx
	leaq	-64(%rbp), %rdi
	call	_ZN3Upp8FontInfoD1Ev
	movq	%rbx, -80(%rbp)
	movq	-80(%rbp), %rdi
.LEHB270:
	call	_Unwind_Resume
.LEHE270:
.L1684:
	addq	$72, %rsp
	popq	%rbx
	leave
	ret
.LFE7929:
	.size	_ZN10AppPreview6LayoutEv, .-_ZN10AppPreview6LayoutEv
	.section	.gcc_except_table
.LLSDA7929:
	.byte	0xff
	.byte	0xff
	.byte	0x1
	.uleb128 .LLSDACSE7929-.LLSDACSB7929
.LLSDACSB7929:
	.uleb128 .LEHB267-.LFB7929
	.uleb128 .LEHE267-.LEHB267
	.uleb128 0x0
	.uleb128 0x0
	.uleb128 .LEHB268-.LFB7929
	.uleb128 .LEHE268-.LEHB268
	.uleb128 .L1685-.LFB7929
	.uleb128 0x0
	.uleb128 .LEHB269-.LFB7929
	.uleb128 .LEHE269-.LEHB269
	.uleb128 0x0
	.uleb128 0x0
	.uleb128 .LEHB270-.LFB7929
	.uleb128 .LEHE270-.LEHB270
	.uleb128 0x0
	.uleb128 0x0
.LLSDACSE7929:
	.text
	.align 2
.globl _ZN10AppPreview10MouseWheelEN3Upp6Point_IiEEij
	.type	_ZN10AppPreview10MouseWheelEN3Upp6Point_IiEEij, @function
_ZN10AppPreview10MouseWheelEN3Upp6Point_IiEEij:
.LFB7928:
	pushq	%rbp
.LCFI1212:
	movq	%rsp, %rbp
.LCFI1213:
	subq	$32, %rsp
.LCFI1214:
	movq	%rdi, -8(%rbp)
	movq	%rsi, -16(%rbp)
	movl	%edx, -20(%rbp)
	movl	%ecx, -24(%rbp)
	movq	-8(%rbp), %rdi
	addq	$152, %rdi
	movl	-20(%rbp), %esi
	movl	$3, %edx
	call	_ZN3Upp9ScrollBar5WheelEii
	leave
	ret
.LFE7928:
	.size	_ZN10AppPreview10MouseWheelEN3Upp6Point_IiEEij, .-_ZN10AppPreview10MouseWheelEN3Upp6Point_IiEEij
	.align 2
.globl _ZN10AppPreviewD0Ev
	.type	_ZN10AppPreviewD0Ev, @function
_ZN10AppPreviewD0Ev:
.LFB7927:
	pushq	%rbp
.LCFI1215:
	movq	%rsp, %rbp
.LCFI1216:
	pushq	%rbx
.LCFI1217:
	subq	$40, %rsp
.LCFI1218:
	movq	%rdi, -16(%rbp)
	movl	$_ZTV10AppPreview+16, %eax
	movq	-16(%rbp), %rdx
	movq	%rax, (%rdx)
	movq	-16(%rbp), %rdi
	addq	$1288, %rdi
.LEHB271:
	call	_ZN3Upp6VectorIN10AppPreview4LineEED1Ev
.LEHE271:
	movq	-16(%rbp), %rax
	addq	$152, %rax
	movq	%rax, -32(%rbp)
	movq	-32(%rbp), %rdi
.LEHB272:
	call	_ZN3Upp9ScrollBarD1Ev
.LEHE272:
	jmp	.L1689
.L1696:
	movq	%rax, -40(%rbp)
.L1690:
	movq	-40(%rbp), %rbx
	movq	-16(%rbp), %rax
	addq	$152, %rax
	movq	%rax, -32(%rbp)
	movq	-32(%rbp), %rdi
	call	_ZN3Upp9ScrollBarD1Ev
	movq	%rbx, -40(%rbp)
	jmp	.L1692
.L1689:
	movq	-16(%rbp), %rax
	movq	%rax, -24(%rbp)
	movq	-24(%rbp), %rdi
.LEHB273:
	call	_ZN3Upp4CtrlD2Ev
.LEHE273:
	jmp	.L1691
.L1697:
	movq	%rax, -40(%rbp)
.L1692:
	movq	-40(%rbp), %rbx
	movq	-16(%rbp), %rax
	movq	%rax, -24(%rbp)
	movq	-24(%rbp), %rdi
	call	_ZN3Upp4CtrlD2Ev
	movq	%rbx, -40(%rbp)
	movq	-40(%rbp), %rdi
.LEHB274:
	call	_Unwind_Resume
.LEHE274:
.L1691:
	movl	$1, %eax
	testb	%al, %al
	je	.L1695
	movq	-16(%rbp), %rdi
	call	_ZdlPv
.L1695:
	addq	$40, %rsp
	popq	%rbx
	leave
	ret
.LFE7927:
	.size	_ZN10AppPreviewD0Ev, .-_ZN10AppPreviewD0Ev
	.section	.gcc_except_table
.LLSDA7927:
	.byte	0xff
	.byte	0xff
	.byte	0x1
	.uleb128 .LLSDACSE7927-.LLSDACSB7927
.LLSDACSB7927:
	.uleb128 .LEHB271-.LFB7927
	.uleb128 .LEHE271-.LEHB271
	.uleb128 .L1696-.LFB7927
	.uleb128 0x0
	.uleb128 .LEHB272-.LFB7927
	.uleb128 .LEHE272-.LEHB272
	.uleb128 .L1697-.LFB7927
	.uleb128 0x0
	.uleb128 .LEHB273-.LFB7927
	.uleb128 .LEHE273-.LEHB273
	.uleb128 0x0
	.uleb128 0x0
	.uleb128 .LEHB274-.LFB7927
	.uleb128 .LEHE274-.LEHB274
	.uleb128 0x0
	.uleb128 0x0
.LLSDACSE7927:
	.text
	.align 2
.globl _ZN10AppPreviewD1Ev
	.type	_ZN10AppPreviewD1Ev, @function
_ZN10AppPreviewD1Ev:
.LFB7926:
	pushq	%rbp
.LCFI1219:
	movq	%rsp, %rbp
.LCFI1220:
	pushq	%rbx
.LCFI1221:
	subq	$40, %rsp
.LCFI1222:
	movq	%rdi, -16(%rbp)
	movl	$_ZTV10AppPreview+16, %eax
	movq	-16(%rbp), %rdx
	movq	%rax, (%rdx)
	movq	-16(%rbp), %rdi
	addq	$1288, %rdi
.LEHB275:
	call	_ZN3Upp6VectorIN10AppPreview4LineEED1Ev
.LEHE275:
	movq	-16(%rbp), %rax
	addq	$152, %rax
	movq	%rax, -32(%rbp)
	movq	-32(%rbp), %rdi
.LEHB276:
	call	_ZN3Upp9ScrollBarD1Ev
.LEHE276:
	jmp	.L1699
.L1706:
	movq	%rax, -40(%rbp)
.L1700:
	movq	-40(%rbp), %rbx
	movq	-16(%rbp), %rax
	addq	$152, %rax
	movq	%rax, -32(%rbp)
	movq	-32(%rbp), %rdi
	call	_ZN3Upp9ScrollBarD1Ev
	movq	%rbx, -40(%rbp)
	jmp	.L1702
.L1699:
	movq	-16(%rbp), %rax
	movq	%rax, -24(%rbp)
	movq	-24(%rbp), %rdi
.LEHB277:
	call	_ZN3Upp4CtrlD2Ev
.LEHE277:
	jmp	.L1701
.L1707:
	movq	%rax, -40(%rbp)
.L1702:
	movq	-40(%rbp), %rbx
	movq	-16(%rbp), %rax
	movq	%rax, -24(%rbp)
	movq	-24(%rbp), %rdi
	call	_ZN3Upp4CtrlD2Ev
	movq	%rbx, -40(%rbp)
	movq	-40(%rbp), %rdi
.LEHB278:
	call	_Unwind_Resume
.LEHE278:
.L1701:
	movl	$0, %eax
	testb	%al, %al
	je	.L1705
	movq	-16(%rbp), %rdi
	call	_ZdlPv
.L1705:
	addq	$40, %rsp
	popq	%rbx
	leave
	ret
.LFE7926:
	.size	_ZN10AppPreviewD1Ev, .-_ZN10AppPreviewD1Ev
	.section	.gcc_except_table
.LLSDA7926:
	.byte	0xff
	.byte	0xff
	.byte	0x1
	.uleb128 .LLSDACSE7926-.LLSDACSB7926
.LLSDACSB7926:
	.uleb128 .LEHB275-.LFB7926
	.uleb128 .LEHE275-.LEHB275
	.uleb128 .L1706-.LFB7926
	.uleb128 0x0
	.uleb128 .LEHB276-.LFB7926
	.uleb128 .LEHE276-.LEHB276
	.uleb128 .L1707-.LFB7926
	.uleb128 0x0
	.uleb128 .LEHB277-.LFB7926
	.uleb128 .LEHE277-.LEHB277
	.uleb128 0x0
	.uleb128 0x0
	.uleb128 .LEHB278-.LFB7926
	.uleb128 .LEHE278-.LEHB278
	.uleb128 0x0
	.uleb128 0x0
.LLSDACSE7926:
	.text
	.align 2
.globl _ZN11TemplateDlgD0Ev
	.type	_ZN11TemplateDlgD0Ev, @function
_ZN11TemplateDlgD0Ev:
.LFB7949:
	pushq	%rbp
.LCFI1223:
	movq	%rsp, %rbp
.LCFI1224:
	pushq	%rbx
.LCFI1225:
	subq	$56, %rsp
.LCFI1226:
	movq	%rdi, -16(%rbp)
	movl	$_ZTV11TemplateDlg+16, %eax
	movq	-16(%rbp), %rdx
	movq	%rax, (%rdx)
	movq	-16(%rbp), %rdi
	addq	$11472, %rdi
.LEHB279:
	call	_ZN3Upp13DelayCallbackD1Ev
.LEHE279:
	movq	-16(%rbp), %rax
	addq	$11448, %rax
	movq	%rax, -56(%rbp)
	movq	-56(%rbp), %rdi
.LEHB280:
	call	_ZN3Upp5ArrayINS_4CtrlEED1Ev
.LEHE280:
	jmp	.L1709
.L1722:
	movq	%rax, -64(%rbp)
.L1710:
	movq	-64(%rbp), %rbx
	movq	-16(%rbp), %rax
	addq	$11448, %rax
	movq	%rax, -56(%rbp)
	movq	-56(%rbp), %rdi
	call	_ZN3Upp5ArrayINS_4CtrlEED1Ev
	movq	%rbx, -64(%rbp)
	jmp	.L1712
.L1709:
	movq	-16(%rbp), %rax
	addq	$11424, %rax
	movq	%rax, -48(%rbp)
	movq	-48(%rbp), %rdi
.LEHB281:
	call	_ZN3Upp5ArrayINS_5LabelEED1Ev
.LEHE281:
	jmp	.L1711
.L1723:
	movq	%rax, -64(%rbp)
.L1712:
	movq	-64(%rbp), %rbx
	movq	-16(%rbp), %rax
	addq	$11424, %rax
	movq	%rax, -48(%rbp)
	movq	-48(%rbp), %rdi
	call	_ZN3Upp5ArrayINS_5LabelEED1Ev
	movq	%rbx, -64(%rbp)
	jmp	.L1714
.L1711:
	movq	-16(%rbp), %rax
	addq	$11400, %rax
	movq	%rax, -40(%rbp)
	movq	-40(%rbp), %rdi
.LEHB282:
	call	_ZN3Upp5ArrayI15PackageTemplateED1Ev
.LEHE282:
	jmp	.L1713
.L1724:
	movq	%rax, -64(%rbp)
.L1714:
	movq	-64(%rbp), %rbx
	movq	-16(%rbp), %rax
	addq	$11400, %rax
	movq	%rax, -40(%rbp)
	movq	-40(%rbp), %rdi
	call	_ZN3Upp5ArrayI15PackageTemplateED1Ev
	movq	%rbx, -64(%rbp)
	jmp	.L1716
.L1713:
	movq	-16(%rbp), %rax
	addq	$10096, %rax
	movq	%rax, -32(%rbp)
	movq	-32(%rbp), %rdi
.LEHB283:
	call	_ZN10AppPreviewD1Ev
.LEHE283:
	jmp	.L1715
.L1725:
	movq	%rax, -64(%rbp)
.L1716:
	movq	-64(%rbp), %rbx
	movq	-16(%rbp), %rax
	addq	$10096, %rax
	movq	%rax, -32(%rbp)
	movq	-32(%rbp), %rdi
	call	_ZN10AppPreviewD1Ev
	movq	%rbx, -64(%rbp)
	jmp	.L1718
.L1715:
	movq	-16(%rbp), %rax
	movq	%rax, -24(%rbp)
	movq	-24(%rbp), %rdi
.LEHB284:
	call	_ZN20WithNewPackageLayoutIN3Upp9TopWindowEED2Ev
.LEHE284:
	jmp	.L1717
.L1726:
	movq	%rax, -64(%rbp)
.L1718:
	movq	-64(%rbp), %rbx
	movq	-16(%rbp), %rax
	movq	%rax, -24(%rbp)
	movq	-24(%rbp), %rdi
	call	_ZN20WithNewPackageLayoutIN3Upp9TopWindowEED2Ev
	movq	%rbx, -64(%rbp)
	movq	-64(%rbp), %rdi
.LEHB285:
	call	_Unwind_Resume
.LEHE285:
.L1717:
	movl	$1, %eax
	testb	%al, %al
	je	.L1721
	movq	-16(%rbp), %rdi
	call	_ZdlPv
.L1721:
	addq	$56, %rsp
	popq	%rbx
	leave
	ret
.LFE7949:
	.size	_ZN11TemplateDlgD0Ev, .-_ZN11TemplateDlgD0Ev
	.section	.gcc_except_table
.LLSDA7949:
	.byte	0xff
	.byte	0xff
	.byte	0x1
	.uleb128 .LLSDACSE7949-.LLSDACSB7949
.LLSDACSB7949:
	.uleb128 .LEHB279-.LFB7949
	.uleb128 .LEHE279-.LEHB279
	.uleb128 .L1722-.LFB7949
	.uleb128 0x0
	.uleb128 .LEHB280-.LFB7949
	.uleb128 .LEHE280-.LEHB280
	.uleb128 .L1723-.LFB7949
	.uleb128 0x0
	.uleb128 .LEHB281-.LFB7949
	.uleb128 .LEHE281-.LEHB281
	.uleb128 .L1724-.LFB7949
	.uleb128 0x0
	.uleb128 .LEHB282-.LFB7949
	.uleb128 .LEHE282-.LEHB282
	.uleb128 .L1725-.LFB7949
	.uleb128 0x0
	.uleb128 .LEHB283-.LFB7949
	.uleb128 .LEHE283-.LEHB283
	.uleb128 .L1726-.LFB7949
	.uleb128 0x0
	.uleb128 .LEHB284-.LFB7949
	.uleb128 .LEHE284-.LEHB284
	.uleb128 0x0
	.uleb128 0x0
	.uleb128 .LEHB285-.LFB7949
	.uleb128 .LEHE285-.LEHB285
	.uleb128 0x0
	.uleb128 0x0
.LLSDACSE7949:
	.text
	.align 2
.globl _ZN11TemplateDlgD1Ev
	.type	_ZN11TemplateDlgD1Ev, @function
_ZN11TemplateDlgD1Ev:
.LFB7948:
	pushq	%rbp
.LCFI1227:
	movq	%rsp, %rbp
.LCFI1228:
	pushq	%rbx
.LCFI1229:
	subq	$56, %rsp
.LCFI1230:
	movq	%rdi, -16(%rbp)
	movl	$_ZTV11TemplateDlg+16, %eax
	movq	-16(%rbp), %rdx
	movq	%rax, (%rdx)
	movq	-16(%rbp), %rdi
	addq	$11472, %rdi
.LEHB286:
	call	_ZN3Upp13DelayCallbackD1Ev
.LEHE286:
	movq	-16(%rbp), %rax
	addq	$11448, %rax
	movq	%rax, -56(%rbp)
	movq	-56(%rbp), %rdi
.LEHB287:
	call	_ZN3Upp5ArrayINS_4CtrlEED1Ev
.LEHE287:
	jmp	.L1728
.L1741:
	movq	%rax, -64(%rbp)
.L1729:
	movq	-64(%rbp), %rbx
	movq	-16(%rbp), %rax
	addq	$11448, %rax
	movq	%rax, -56(%rbp)
	movq	-56(%rbp), %rdi
	call	_ZN3Upp5ArrayINS_4CtrlEED1Ev
	movq	%rbx, -64(%rbp)
	jmp	.L1731
.L1728:
	movq	-16(%rbp), %rax
	addq	$11424, %rax
	movq	%rax, -48(%rbp)
	movq	-48(%rbp), %rdi
.LEHB288:
	call	_ZN3Upp5ArrayINS_5LabelEED1Ev
.LEHE288:
	jmp	.L1730
.L1742:
	movq	%rax, -64(%rbp)
.L1731:
	movq	-64(%rbp), %rbx
	movq	-16(%rbp), %rax
	addq	$11424, %rax
	movq	%rax, -48(%rbp)
	movq	-48(%rbp), %rdi
	call	_ZN3Upp5ArrayINS_5LabelEED1Ev
	movq	%rbx, -64(%rbp)
	jmp	.L1733
.L1730:
	movq	-16(%rbp), %rax
	addq	$11400, %rax
	movq	%rax, -40(%rbp)
	movq	-40(%rbp), %rdi
.LEHB289:
	call	_ZN3Upp5ArrayI15PackageTemplateED1Ev
.LEHE289:
	jmp	.L1732
.L1743:
	movq	%rax, -64(%rbp)
.L1733:
	movq	-64(%rbp), %rbx
	movq	-16(%rbp), %rax
	addq	$11400, %rax
	movq	%rax, -40(%rbp)
	movq	-40(%rbp), %rdi
	call	_ZN3Upp5ArrayI15PackageTemplateED1Ev
	movq	%rbx, -64(%rbp)
	jmp	.L1735
.L1732:
	movq	-16(%rbp), %rax
	addq	$10096, %rax
	movq	%rax, -32(%rbp)
	movq	-32(%rbp), %rdi
.LEHB290:
	call	_ZN10AppPreviewD1Ev
.LEHE290:
	jmp	.L1734
.L1744:
	movq	%rax, -64(%rbp)
.L1735:
	movq	-64(%rbp), %rbx
	movq	-16(%rbp), %rax
	addq	$10096, %rax
	movq	%rax, -32(%rbp)
	movq	-32(%rbp), %rdi
	call	_ZN10AppPreviewD1Ev
	movq	%rbx, -64(%rbp)
	jmp	.L1737
.L1734:
	movq	-16(%rbp), %rax
	movq	%rax, -24(%rbp)
	movq	-24(%rbp), %rdi
.LEHB291:
	call	_ZN20WithNewPackageLayoutIN3Upp9TopWindowEED2Ev
.LEHE291:
	jmp	.L1736
.L1745:
	movq	%rax, -64(%rbp)
.L1737:
	movq	-64(%rbp), %rbx
	movq	-16(%rbp), %rax
	movq	%rax, -24(%rbp)
	movq	-24(%rbp), %rdi
	call	_ZN20WithNewPackageLayoutIN3Upp9TopWindowEED2Ev
	movq	%rbx, -64(%rbp)
	movq	-64(%rbp), %rdi
.LEHB292:
	call	_Unwind_Resume
.LEHE292:
.L1736:
	movl	$0, %eax
	testb	%al, %al
	je	.L1740
	movq	-16(%rbp), %rdi
	call	_ZdlPv
.L1740:
	addq	$56, %rsp
	popq	%rbx
	leave
	ret
.LFE7948:
	.size	_ZN11TemplateDlgD1Ev, .-_ZN11TemplateDlgD1Ev
	.section	.gcc_except_table
.LLSDA7948:
	.byte	0xff
	.byte	0xff
	.byte	0x1
	.uleb128 .LLSDACSE7948-.LLSDACSB7948
.LLSDACSB7948:
	.uleb128 .LEHB286-.LFB7948
	.uleb128 .LEHE286-.LEHB286
	.uleb128 .L1741-.LFB7948
	.uleb128 0x0
	.uleb128 .LEHB287-.LFB7948
	.uleb128 .LEHE287-.LEHB287
	.uleb128 .L1742-.LFB7948
	.uleb128 0x0
	.uleb128 .LEHB288-.LFB7948
	.uleb128 .LEHE288-.LEHB288
	.uleb128 .L1743-.LFB7948
	.uleb128 0x0
	.uleb128 .LEHB289-.LFB7948
	.uleb128 .LEHE289-.LEHB289
	.uleb128 .L1744-.LFB7948
	.uleb128 0x0
	.uleb128 .LEHB290-.LFB7948
	.uleb128 .LEHE290-.LEHB290
	.uleb128 .L1745-.LFB7948
	.uleb128 0x0
	.uleb128 .LEHB291-.LFB7948
	.uleb128 .LEHE291-.LEHB291
	.uleb128 0x0
	.uleb128 0x0
	.uleb128 .LEHB292-.LFB7948
	.uleb128 .LEHE292-.LEHB292
	.uleb128 0x0
	.uleb128 0x0
.LLSDACSE7948:
	.text
	.align 2
.globl _ZN11TemplateDlgD2Ev
	.type	_ZN11TemplateDlgD2Ev, @function
_ZN11TemplateDlgD2Ev:
.LFB7947:
	pushq	%rbp
.LCFI1231:
	movq	%rsp, %rbp
.LCFI1232:
	pushq	%rbx
.LCFI1233:
	subq	$56, %rsp
.LCFI1234:
	movq	%rdi, -16(%rbp)
	movl	$_ZTV11TemplateDlg+16, %eax
	movq	-16(%rbp), %rdx
	movq	%rax, (%rdx)
	movq	-16(%rbp), %rdi
	addq	$11472, %rdi
.LEHB293:
	call	_ZN3Upp13DelayCallbackD1Ev
.LEHE293:
	movq	-16(%rbp), %rax
	addq	$11448, %rax
	movq	%rax, -56(%rbp)
	movq	-56(%rbp), %rdi
.LEHB294:
	call	_ZN3Upp5ArrayINS_4CtrlEED1Ev
.LEHE294:
	jmp	.L1747
.L1760:
	movq	%rax, -64(%rbp)
.L1748:
	movq	-64(%rbp), %rbx
	movq	-16(%rbp), %rax
	addq	$11448, %rax
	movq	%rax, -56(%rbp)
	movq	-56(%rbp), %rdi
	call	_ZN3Upp5ArrayINS_4CtrlEED1Ev
	movq	%rbx, -64(%rbp)
	jmp	.L1750
.L1747:
	movq	-16(%rbp), %rax
	addq	$11424, %rax
	movq	%rax, -48(%rbp)
	movq	-48(%rbp), %rdi
.LEHB295:
	call	_ZN3Upp5ArrayINS_5LabelEED1Ev
.LEHE295:
	jmp	.L1749
.L1761:
	movq	%rax, -64(%rbp)
.L1750:
	movq	-64(%rbp), %rbx
	movq	-16(%rbp), %rax
	addq	$11424, %rax
	movq	%rax, -48(%rbp)
	movq	-48(%rbp), %rdi
	call	_ZN3Upp5ArrayINS_5LabelEED1Ev
	movq	%rbx, -64(%rbp)
	jmp	.L1752
.L1749:
	movq	-16(%rbp), %rax
	addq	$11400, %rax
	movq	%rax, -40(%rbp)
	movq	-40(%rbp), %rdi
.LEHB296:
	call	_ZN3Upp5ArrayI15PackageTemplateED1Ev
.LEHE296:
	jmp	.L1751
.L1762:
	movq	%rax, -64(%rbp)
.L1752:
	movq	-64(%rbp), %rbx
	movq	-16(%rbp), %rax
	addq	$11400, %rax
	movq	%rax, -40(%rbp)
	movq	-40(%rbp), %rdi
	call	_ZN3Upp5ArrayI15PackageTemplateED1Ev
	movq	%rbx, -64(%rbp)
	jmp	.L1754
.L1751:
	movq	-16(%rbp), %rax
	addq	$10096, %rax
	movq	%rax, -32(%rbp)
	movq	-32(%rbp), %rdi
.LEHB297:
	call	_ZN10AppPreviewD1Ev
.LEHE297:
	jmp	.L1753
.L1763:
	movq	%rax, -64(%rbp)
.L1754:
	movq	-64(%rbp), %rbx
	movq	-16(%rbp), %rax
	addq	$10096, %rax
	movq	%rax, -32(%rbp)
	movq	-32(%rbp), %rdi
	call	_ZN10AppPreviewD1Ev
	movq	%rbx, -64(%rbp)
	jmp	.L1756
.L1753:
	movq	-16(%rbp), %rax
	movq	%rax, -24(%rbp)
	movq	-24(%rbp), %rdi
.LEHB298:
	call	_ZN20WithNewPackageLayoutIN3Upp9TopWindowEED2Ev
.LEHE298:
	jmp	.L1755
.L1764:
	movq	%rax, -64(%rbp)
.L1756:
	movq	-64(%rbp), %rbx
	movq	-16(%rbp), %rax
	movq	%rax, -24(%rbp)
	movq	-24(%rbp), %rdi
	call	_ZN20WithNewPackageLayoutIN3Upp9TopWindowEED2Ev
	movq	%rbx, -64(%rbp)
	movq	-64(%rbp), %rdi
.LEHB299:
	call	_Unwind_Resume
.LEHE299:
.L1755:
	movl	$0, %eax
	testb	%al, %al
	je	.L1759
	movq	-16(%rbp), %rdi
	call	_ZdlPv
.L1759:
	addq	$56, %rsp
	popq	%rbx
	leave
	ret
.LFE7947:
	.size	_ZN11TemplateDlgD2Ev, .-_ZN11TemplateDlgD2Ev
	.section	.gcc_except_table
.LLSDA7947:
	.byte	0xff
	.byte	0xff
	.byte	0x1
	.uleb128 .LLSDACSE7947-.LLSDACSB7947
.LLSDACSB7947:
	.uleb128 .LEHB293-.LFB7947
	.uleb128 .LEHE293-.LEHB293
	.uleb128 .L1760-.LFB7947
	.uleb128 0x0
	.uleb128 .LEHB294-.LFB7947
	.uleb128 .LEHE294-.LEHB294
	.uleb128 .L1761-.LFB7947
	.uleb128 0x0
	.uleb128 .LEHB295-.LFB7947
	.uleb128 .LEHE295-.LEHB295
	.uleb128 .L1762-.LFB7947
	.uleb128 0x0
	.uleb128 .LEHB296-.LFB7947
	.uleb128 .LEHE296-.LEHB296
	.uleb128 .L1763-.LFB7947
	.uleb128 0x0
	.uleb128 .LEHB297-.LFB7947
	.uleb128 .LEHE297-.LEHB297
	.uleb128 .L1764-.LFB7947
	.uleb128 0x0
	.uleb128 .LEHB298-.LFB7947
	.uleb128 .LEHE298-.LEHB298
	.uleb128 0x0
	.uleb128 0x0
	.uleb128 .LEHB299-.LFB7947
	.uleb128 .LEHE299-.LEHB299
	.uleb128 0x0
	.uleb128 0x0
.LLSDACSE7947:
	.text
	.align 2
.globl _ZN10AppPreviewD2Ev
	.type	_ZN10AppPreviewD2Ev, @function
_ZN10AppPreviewD2Ev:
.LFB7925:
	pushq	%rbp
.LCFI1235:
	movq	%rsp, %rbp
.LCFI1236:
	pushq	%rbx
.LCFI1237:
	subq	$40, %rsp
.LCFI1238:
	movq	%rdi, -16(%rbp)
	movl	$_ZTV10AppPreview+16, %eax
	movq	-16(%rbp), %rdx
	movq	%rax, (%rdx)
	movq	-16(%rbp), %rdi
	addq	$1288, %rdi
.LEHB300:
	call	_ZN3Upp6VectorIN10AppPreview4LineEED1Ev
.LEHE300:
	movq	-16(%rbp), %rax
	addq	$152, %rax
	movq	%rax, -32(%rbp)
	movq	-32(%rbp), %rdi
.LEHB301:
	call	_ZN3Upp9ScrollBarD1Ev
.LEHE301:
	jmp	.L1766
.L1773:
	movq	%rax, -40(%rbp)
.L1767:
	movq	-40(%rbp), %rbx
	movq	-16(%rbp), %rax
	addq	$152, %rax
	movq	%rax, -32(%rbp)
	movq	-32(%rbp), %rdi
	call	_ZN3Upp9ScrollBarD1Ev
	movq	%rbx, -40(%rbp)
	jmp	.L1769
.L1766:
	movq	-16(%rbp), %rax
	movq	%rax, -24(%rbp)
	movq	-24(%rbp), %rdi
.LEHB302:
	call	_ZN3Upp4CtrlD2Ev
.LEHE302:
	jmp	.L1768
.L1774:
	movq	%rax, -40(%rbp)
.L1769:
	movq	-40(%rbp), %rbx
	movq	-16(%rbp), %rax
	movq	%rax, -24(%rbp)
	movq	-24(%rbp), %rdi
	call	_ZN3Upp4CtrlD2Ev
	movq	%rbx, -40(%rbp)
	movq	-40(%rbp), %rdi
.LEHB303:
	call	_Unwind_Resume
.LEHE303:
.L1768:
	movl	$0, %eax
	testb	%al, %al
	je	.L1772
	movq	-16(%rbp), %rdi
	call	_ZdlPv
.L1772:
	addq	$40, %rsp
	popq	%rbx
	leave
	ret
.LFE7925:
	.size	_ZN10AppPreviewD2Ev, .-_ZN10AppPreviewD2Ev
	.section	.gcc_except_table
.LLSDA7925:
	.byte	0xff
	.byte	0xff
	.byte	0x1
	.uleb128 .LLSDACSE7925-.LLSDACSB7925
.LLSDACSB7925:
	.uleb128 .LEHB300-.LFB7925
	.uleb128 .LEHE300-.LEHB300
	.uleb128 .L1773-.LFB7925
	.uleb128 0x0
	.uleb128 .LEHB301-.LFB7925
	.uleb128 .LEHE301-.LEHB301
	.uleb128 .L1774-.LFB7925
	.uleb128 0x0
	.uleb128 .LEHB302-.LFB7925
	.uleb128 .LEHE302-.LEHB302
	.uleb128 0x0
	.uleb128 0x0
	.uleb128 .LEHB303-.LFB7925
	.uleb128 .LEHE303-.LEHB303
	.uleb128 0x0
	.uleb128 0x0
.LLSDACSE7925:
	.text
	.section	.text._ZN3Upp4Ctrl8SetFrameERNS_9CtrlFrameE,"axG",@progbits,_ZN3Upp4Ctrl8SetFrameERNS_9CtrlFrameE,comdat
	.align 2
	.weak	_ZN3Upp4Ctrl8SetFrameERNS_9CtrlFrameE
	.type	_ZN3Upp4Ctrl8SetFrameERNS_9CtrlFrameE, @function
_ZN3Upp4Ctrl8SetFrameERNS_9CtrlFrameE:
.LFB4651:
	pushq	%rbp
.LCFI1239:
	movq	%rsp, %rbp
.LCFI1240:
	subq	$16, %rsp
.LCFI1241:
	movq	%rdi, -8(%rbp)
	movq	%rsi, -16(%rbp)
	movq	-16(%rbp), %rdx
	movq	-8(%rbp), %rdi
	movl	$0, %esi
	call	_ZN3Upp4Ctrl8SetFrameEiRNS_9CtrlFrameE
	leave
	ret
.LFE4651:
	.size	_ZN3Upp4Ctrl8SetFrameERNS_9CtrlFrameE, .-_ZN3Upp4Ctrl8SetFrameERNS_9CtrlFrameE
	.text
	.align 2
.globl _ZN10AppPreviewC1Ev
	.type	_ZN10AppPreviewC1Ev, @function
_ZN10AppPreviewC1Ev:
.LFB7923:
	pushq	%rbp
.LCFI1242:
	movq	%rsp, %rbp
.LCFI1243:
	pushq	%rbx
.LCFI1244:
	subq	$72, %rsp
.LCFI1245:
	movq	%rdi, -72(%rbp)
	movq	-72(%rbp), %rdi
.LEHB304:
	call	_ZN3Upp4CtrlC2Ev
.LEHE304:
	movl	$_ZTV10AppPreview+16, %edx
	movq	-72(%rbp), %rax
	movq	%rdx, (%rax)
	movq	-72(%rbp), %rdi
	addq	$152, %rdi
.LEHB305:
	call	_ZN3Upp9ScrollBarC1Ev
.LEHE305:
	movq	-72(%rbp), %rdi
	addq	$1288, %rdi
	call	_ZN3Upp6VectorIN10AppPreview4LineEEC1Ev
.LEHB306:
	call	_ZN3Upp9ViewFrameEv
	movq	%rax, %rsi
	movq	-72(%rbp), %rdi
	call	_ZN3Upp4Ctrl8SetFrameERNS_9CtrlFrameE
	movq	-72(%rbp), %rsi
	addq	$304, %rsi
	movq	-72(%rbp), %rdi
	call	_ZN3Upp4Ctrl8AddFrameERNS_9CtrlFrameE
	movq	$_ZN10AppPreview6ScrollEv, -64(%rbp)
	movq	$0, -56(%rbp)
	leaq	-32(%rbp), %rdi
	movq	-64(%rbp), %rdx
	movq	-56(%rbp), %rcx
	movq	-72(%rbp), %rsi
	call	_ZN3Upp8callbackI10AppPreviewS1_EENS_8CallbackEPT_MT0_FvvE
.LEHE306:
	movq	-72(%rbp), %rsi
	addq	$152, %rsi
	leaq	-48(%rbp), %rdi
	leaq	-32(%rbp), %rdx
.LEHB307:
	call	_ZN3Upp4CtrllSENS_8CallbackE
	leaq	-48(%rbp), %rdi
	call	_ZN3Upp8CallbackD1Ev
.LEHE307:
	leaq	-32(%rbp), %rdi
.LEHB308:
	call	_ZN3Upp8CallbackD1Ev
.LEHE308:
	jmp	.L1778
.L1784:
	movq	%rax, -80(%rbp)
.L1779:
	movq	-80(%rbp), %rbx
	leaq	-32(%rbp), %rdi
	call	_ZN3Upp8CallbackD1Ev
	movq	%rbx, -80(%rbp)
	jmp	.L1780
.L1778:
	movq	-72(%rbp), %rdi
	call	_ZN3Upp4Ctrl11NoWantFocusEv
	jmp	.L1783
.L1785:
	movq	%rax, -80(%rbp)
.L1780:
	movq	-80(%rbp), %rbx
	movq	-72(%rbp), %rdi
	addq	$1288, %rdi
	call	_ZN3Upp6VectorIN10AppPreview4LineEED1Ev
	movq	%rbx, -80(%rbp)
.L1786:
.L1781:
	movq	-80(%rbp), %rbx
	movq	-72(%rbp), %rdi
	addq	$152, %rdi
	call	_ZN3Upp9ScrollBarD1Ev
	movq	%rbx, -80(%rbp)
	jmp	.L1782
.L1787:
	movq	%rax, -80(%rbp)
.L1782:
	movq	-80(%rbp), %rbx
	movq	-72(%rbp), %rdi
	call	_ZN3Upp4CtrlD2Ev
	movq	%rbx, -80(%rbp)
	movq	-80(%rbp), %rdi
.LEHB309:
	call	_Unwind_Resume
.LEHE309:
.L1783:
	addq	$72, %rsp
	popq	%rbx
	leave
	ret
.LFE7923:
	.size	_ZN10AppPreviewC1Ev, .-_ZN10AppPreviewC1Ev
	.section	.gcc_except_table
.LLSDA7923:
	.byte	0xff
	.byte	0xff
	.byte	0x1
	.uleb128 .LLSDACSE7923-.LLSDACSB7923
.LLSDACSB7923:
	.uleb128 .LEHB304-.LFB7923
	.uleb128 .LEHE304-.LEHB304
	.uleb128 0x0
	.uleb128 0x0
	.uleb128 .LEHB305-.LFB7923
	.uleb128 .LEHE305-.LEHB305
	.uleb128 .L1787-.LFB7923
	.uleb128 0x0
	.uleb128 .LEHB306-.LFB7923
	.uleb128 .LEHE306-.LEHB306
	.uleb128 .L1785-.LFB7923
	.uleb128 0x0
	.uleb128 .LEHB307-.LFB7923
	.uleb128 .LEHE307-.LEHB307
	.uleb128 .L1784-.LFB7923
	.uleb128 0x0
	.uleb128 .LEHB308-.LFB7923
	.uleb128 .LEHE308-.LEHB308
	.uleb128 .L1785-.LFB7923
	.uleb128 0x0
	.uleb128 .LEHB309-.LFB7923
	.uleb128 .LEHE309-.LEHB309
	.uleb128 0x0
	.uleb128 0x0
.LLSDACSE7923:
	.text
	.section	.rodata
.LC23:
	.string	"Create new package"
.LC24:
	.string	"Template"
	.text
	.align 2
.globl _ZN11TemplateDlgC1Ev
	.type	_ZN11TemplateDlgC1Ev, @function
_ZN11TemplateDlgC1Ev:
.LFB7945:
	pushq	%rbp
.LCFI1246:
	movq	%rsp, %rbp
.LCFI1247:
	pushq	%rbx
.LCFI1248:
	subq	$200, %rsp
.LCFI1249:
	movq	%rdi, -200(%rbp)
	movq	-200(%rbp), %rdi
.LEHB310:
	call	_ZN20WithNewPackageLayoutIN3Upp9TopWindowEEC2Ev
.LEHE310:
	movl	$_ZTV11TemplateDlg+16, %edx
	movq	-200(%rbp), %rax
	movq	%rdx, (%rax)
	movq	-200(%rbp), %rdi
	addq	$10096, %rdi
.LEHB311:
	call	_ZN10AppPreviewC1Ev
.LEHE311:
	movq	-200(%rbp), %rdi
	addq	$11400, %rdi
	call	_ZN3Upp5ArrayI15PackageTemplateEC1Ev
	movq	-200(%rbp), %rdi
	addq	$11424, %rdi
	call	_ZN3Upp5ArrayINS_5LabelEEC1Ev
	movq	-200(%rbp), %rdi
	addq	$11448, %rdi
	call	_ZN3Upp5ArrayINS_4CtrlEEC1Ev
	movq	-200(%rbp), %rdi
	addq	$11472, %rdi
.LEHB312:
	call	_ZN3Upp13DelayCallbackC1Ev
.LEHE312:
	movq	-200(%rbp), %rdi
	movl	$.LC23, %esi
.LEHB313:
	call	_ZN3Upp18CtrlLayoutOKCancelI11TemplateDlgEEvRT_PKc
	movq	-200(%rbp), %rdi
	movl	$1, %esi
	call	_ZN3Upp9TopWindow8SizeableEb
	movq	%rax, %rdi
	movl	$1, %esi
	call	_ZN3Upp9TopWindow8ZoomableEb
	movq	$_ZN11TemplateDlg7PreviewEv, -192(%rbp)
	movq	$0, -184(%rbp)
	leaq	-112(%rbp), %rdi
	movq	-192(%rbp), %rdx
	movq	-184(%rbp), %rcx
	movq	-200(%rbp), %rsi
	call	_ZN3Upp8callbackI11TemplateDlgS1_EENS_8CallbackEPT_MT0_FvvE
.LEHE313:
	movq	-200(%rbp), %rsi
	addq	$9280, %rsi
	leaq	-128(%rbp), %rdi
	leaq	-112(%rbp), %rdx
.LEHB314:
	call	_ZN3Upp4CtrllSENS_8CallbackE
	leaq	-128(%rbp), %rdi
	call	_ZN3Upp8CallbackD1Ev
.LEHE314:
	leaq	-112(%rbp), %rdi
.LEHB315:
	call	_ZN3Upp8CallbackD1Ev
.LEHE315:
	jmp	.L1789
.L1810:
	movq	%rax, -208(%rbp)
.L1790:
	movq	-208(%rbp), %rbx
	leaq	-112(%rbp), %rdi
	call	_ZN3Upp8CallbackD1Ev
	movq	%rbx, -208(%rbp)
	jmp	.L1799
.L1789:
	movq	$_ZN11TemplateDlg7PreviewEv, -176(%rbp)
	movq	$0, -168(%rbp)
	leaq	-96(%rbp), %rdi
	movq	-176(%rbp), %rdx
	movq	-168(%rbp), %rcx
	movq	-200(%rbp), %rsi
.LEHB316:
	call	_ZN3Upp8callbackI11TemplateDlgS1_EENS_8CallbackEPT_MT0_FvvE
.LEHE316:
	movq	-200(%rbp), %rdi
	addq	$11472, %rdi
	leaq	-96(%rbp), %rsi
.LEHB317:
	call	_ZN3Upp13DelayCallbacklSENS_8CallbackE
.LEHE317:
	leaq	-96(%rbp), %rdi
.LEHB318:
	call	_ZN3Upp8CallbackD1Ev
.LEHE318:
	jmp	.L1791
.L1809:
	movq	%rax, -208(%rbp)
.L1792:
	movq	-208(%rbp), %rbx
	leaq	-96(%rbp), %rdi
	call	_ZN3Upp8CallbackD1Ev
	movq	%rbx, -208(%rbp)
	jmp	.L1799
.L1791:
	movq	-200(%rbp), %rdi
	addq	$11472, %rdi
	movl	$300, %esi
	call	_ZN3Upp13DelayCallback8SetDelayEi
	movq	-200(%rbp), %rdi
	addq	$5368, %rdi
	movl	$0, %edx
	movl	$.LC24, %esi
.LEHB319:
	call	_ZN3Upp9ArrayCtrl9AddColumnEPKci
	movq	$_ZN11TemplateDlg13EnterTemplateEv, -160(%rbp)
	movq	$0, -152(%rbp)
	leaq	-80(%rbp), %rdi
	movq	-160(%rbp), %rdx
	movq	-152(%rbp), %rcx
	movq	-200(%rbp), %rsi
	call	_ZN3Upp8callbackI11TemplateDlgS1_EENS_8CallbackEPT_MT0_FvvE
.LEHE319:
	movq	-200(%rbp), %rdi
	addq	$8968, %rdi
	leaq	-80(%rbp), %rsi
.LEHB320:
	call	_ZN3Upp8CallbackaSERKS0_
.LEHE320:
	leaq	-80(%rbp), %rdi
.LEHB321:
	call	_ZN3Upp8CallbackD1Ev
.LEHE321:
	jmp	.L1793
.L1808:
	movq	%rax, -208(%rbp)
.L1794:
	movq	-208(%rbp), %rbx
	leaq	-80(%rbp), %rdi
	call	_ZN3Upp8CallbackD1Ev
	movq	%rbx, -208(%rbp)
	jmp	.L1799
.L1793:
	movq	-200(%rbp), %rdi
	addq	$9872, %rdi
.LEHB322:
	call	_ZN3Upp4Ctrl7DisableEv
	movq	$_ZN11TemplateDlg12EnableCreateEv, -144(%rbp)
	movq	$0, -136(%rbp)
	leaq	-48(%rbp), %rdi
	movq	-144(%rbp), %rdx
	movq	-136(%rbp), %rcx
	movq	-200(%rbp), %rsi
	call	_ZN3Upp8callbackI11TemplateDlgS1_EENS_8CallbackEPT_MT0_FvvE
.LEHE322:
	movq	-200(%rbp), %rsi
	addq	$656, %rsi
	leaq	-64(%rbp), %rdi
	leaq	-48(%rbp), %rdx
.LEHB323:
	call	_ZN3Upp4CtrllSENS_8CallbackE
	leaq	-64(%rbp), %rdi
	call	_ZN3Upp8CallbackD1Ev
.LEHE323:
	leaq	-48(%rbp), %rdi
.LEHB324:
	call	_ZN3Upp8CallbackD1Ev
.LEHE324:
	jmp	.L1795
.L1807:
	movq	%rax, -208(%rbp)
.L1796:
	movq	-208(%rbp), %rbx
	leaq	-48(%rbp), %rdi
	call	_ZN3Upp8CallbackD1Ev
	movq	%rbx, -208(%rbp)
	jmp	.L1799
.L1795:
	movq	-200(%rbp), %rdi
	addq	$656, %rdi
	movl	$_Z17FilterPackageNamei, %esi
	call	_ZN3Upp9EditField9SetFilterEPFiiE
	leaq	-32(%rbp), %rdi
.LEHB325:
	call	_ZN6IdeImg13CreatePackageEv
.LEHE325:
	movq	-200(%rbp), %rdi
	leaq	-32(%rbp), %rsi
.LEHB326:
	call	_ZN3Upp9TopWindow4IconERKNS_5ImageE
.LEHE326:
	leaq	-32(%rbp), %rdi
.LEHB327:
	call	_ZN3Upp5ImageD1Ev
.LEHE327:
	jmp	.L1805
.L1806:
	movq	%rax, -208(%rbp)
.L1798:
	movq	-208(%rbp), %rbx
	leaq	-32(%rbp), %rdi
	call	_ZN3Upp5ImageD1Ev
	movq	%rbx, -208(%rbp)
	jmp	.L1799
.L1811:
	movq	%rax, -208(%rbp)
.L1799:
	movq	-208(%rbp), %rbx
	movq	-200(%rbp), %rdi
	addq	$11472, %rdi
	call	_ZN3Upp13DelayCallbackD1Ev
	movq	%rbx, -208(%rbp)
	jmp	.L1800
.L1812:
	movq	%rax, -208(%rbp)
.L1800:
	movq	-208(%rbp), %rbx
	movq	-200(%rbp), %rdi
	addq	$11448, %rdi
	call	_ZN3Upp5ArrayINS_4CtrlEED1Ev
	movq	%rbx, -208(%rbp)
.L1813:
.L1801:
	movq	-208(%rbp), %rbx
	movq	-200(%rbp), %rdi
	addq	$11424, %rdi
	call	_ZN3Upp5ArrayINS_5LabelEED1Ev
	movq	%rbx, -208(%rbp)
.L1814:
.L1802:
	movq	-208(%rbp), %rbx
	movq	-200(%rbp), %rdi
	addq	$11400, %rdi
	call	_ZN3Upp5ArrayI15PackageTemplateED1Ev
	movq	%rbx, -208(%rbp)
.L1815:
.L1803:
	movq	-208(%rbp), %rbx
	movq	-200(%rbp), %rdi
	addq	$10096, %rdi
	call	_ZN10AppPreviewD1Ev
	movq	%rbx, -208(%rbp)
	jmp	.L1804
.L1816:
	movq	%rax, -208(%rbp)
.L1804:
	movq	-208(%rbp), %rbx
	movq	-200(%rbp), %rdi
	call	_ZN20WithNewPackageLayoutIN3Upp9TopWindowEED2Ev
	movq	%rbx, -208(%rbp)
	movq	-208(%rbp), %rdi
.LEHB328:
	call	_Unwind_Resume
.LEHE328:
.L1805:
	addq	$200, %rsp
	popq	%rbx
	leave
	ret
.LFE7945:
	.size	_ZN11TemplateDlgC1Ev, .-_ZN11TemplateDlgC1Ev
	.section	.gcc_except_table
.LLSDA7945:
	.byte	0xff
	.byte	0xff
	.byte	0x1
	.uleb128 .LLSDACSE7945-.LLSDACSB7945
.LLSDACSB7945:
	.uleb128 .LEHB310-.LFB7945
	.uleb128 .LEHE310-.LEHB310
	.uleb128 0x0
	.uleb128 0x0
	.uleb128 .LEHB311-.LFB7945
	.uleb128 .LEHE311-.LEHB311
	.uleb128 .L1816-.LFB7945
	.uleb128 0x0
	.uleb128 .LEHB312-.LFB7945
	.uleb128 .LEHE312-.LEHB312
	.uleb128 .L1812-.LFB7945
	.uleb128 0x0
	.uleb128 .LEHB313-.LFB7945
	.uleb128 .LEHE313-.LEHB313
	.uleb128 .L1811-.LFB7945
	.uleb128 0x0
	.uleb128 .LEHB314-.LFB7945
	.uleb128 .LEHE314-.LEHB314
	.uleb128 .L1810-.LFB7945
	.uleb128 0x0
	.uleb128 .LEHB315-.LFB7945
	.uleb128 .LEHE315-.LEHB315
	.uleb128 .L1811-.LFB7945
	.uleb128 0x0
	.uleb128 .LEHB316-.LFB7945
	.uleb128 .LEHE316-.LEHB316
	.uleb128 .L1811-.LFB7945
	.uleb128 0x0
	.uleb128 .LEHB317-.LFB7945
	.uleb128 .LEHE317-.LEHB317
	.uleb128 .L1809-.LFB7945
	.uleb128 0x0
	.uleb128 .LEHB318-.LFB7945
	.uleb128 .LEHE318-.LEHB318
	.uleb128 .L1811-.LFB7945
	.uleb128 0x0
	.uleb128 .LEHB319-.LFB7945
	.uleb128 .LEHE319-.LEHB319
	.uleb128 .L1811-.LFB7945
	.uleb128 0x0
	.uleb128 .LEHB320-.LFB7945
	.uleb128 .LEHE320-.LEHB320
	.uleb128 .L1808-.LFB7945
	.uleb128 0x0
	.uleb128 .LEHB321-.LFB7945
	.uleb128 .LEHE321-.LEHB321
	.uleb128 .L1811-.LFB7945
	.uleb128 0x0
	.uleb128 .LEHB322-.LFB7945
	.uleb128 .LEHE322-.LEHB322
	.uleb128 .L1811-.LFB7945
	.uleb128 0x0
	.uleb128 .LEHB323-.LFB7945
	.uleb128 .LEHE323-.LEHB323
	.uleb128 .L1807-.LFB7945
	.uleb128 0x0
	.uleb128 .LEHB324-.LFB7945
	.uleb128 .LEHE324-.LEHB324
	.uleb128 .L1811-.LFB7945
	.uleb128 0x0
	.uleb128 .LEHB325-.LFB7945
	.uleb128 .LEHE325-.LEHB325
	.uleb128 .L1811-.LFB7945
	.uleb128 0x0
	.uleb128 .LEHB326-.LFB7945
	.uleb128 .LEHE326-.LEHB326
	.uleb128 .L1806-.LFB7945
	.uleb128 0x0
	.uleb128 .LEHB327-.LFB7945
	.uleb128 .LEHE327-.LEHB327
	.uleb128 .L1811-.LFB7945
	.uleb128 0x0
	.uleb128 .LEHB328-.LFB7945
	.uleb128 .LEHE328-.LEHB328
	.uleb128 0x0
	.uleb128 0x0
.LLSDACSE7945:
	.text
	.align 2
.globl _ZN11TemplateDlgC2Ev
	.type	_ZN11TemplateDlgC2Ev, @function
_ZN11TemplateDlgC2Ev:
.LFB7944:
	pushq	%rbp
.LCFI1250:
	movq	%rsp, %rbp
.LCFI1251:
	pushq	%rbx
.LCFI1252:
	subq	$200, %rsp
.LCFI1253:
	movq	%rdi, -200(%rbp)
	movq	-200(%rbp), %rdi
.LEHB329:
	call	_ZN20WithNewPackageLayoutIN3Upp9TopWindowEEC2Ev
.LEHE329:
	movl	$_ZTV11TemplateDlg+16, %edx
	movq	-200(%rbp), %rax
	movq	%rdx, (%rax)
	movq	-200(%rbp), %rdi
	addq	$10096, %rdi
.LEHB330:
	call	_ZN10AppPreviewC1Ev
.LEHE330:
	movq	-200(%rbp), %rdi
	addq	$11400, %rdi
	call	_ZN3Upp5ArrayI15PackageTemplateEC1Ev
	movq	-200(%rbp), %rdi
	addq	$11424, %rdi
	call	_ZN3Upp5ArrayINS_5LabelEEC1Ev
	movq	-200(%rbp), %rdi
	addq	$11448, %rdi
	call	_ZN3Upp5ArrayINS_4CtrlEEC1Ev
	movq	-200(%rbp), %rdi
	addq	$11472, %rdi
.LEHB331:
	call	_ZN3Upp13DelayCallbackC1Ev
.LEHE331:
	movq	-200(%rbp), %rdi
	movl	$.LC23, %esi
.LEHB332:
	call	_ZN3Upp18CtrlLayoutOKCancelI11TemplateDlgEEvRT_PKc
	movq	-200(%rbp), %rdi
	movl	$1, %esi
	call	_ZN3Upp9TopWindow8SizeableEb
	movq	%rax, %rdi
	movl	$1, %esi
	call	_ZN3Upp9TopWindow8ZoomableEb
	movq	$_ZN11TemplateDlg7PreviewEv, -192(%rbp)
	movq	$0, -184(%rbp)
	leaq	-112(%rbp), %rdi
	movq	-192(%rbp), %rdx
	movq	-184(%rbp), %rcx
	movq	-200(%rbp), %rsi
	call	_ZN3Upp8callbackI11TemplateDlgS1_EENS_8CallbackEPT_MT0_FvvE
.LEHE332:
	movq	-200(%rbp), %rsi
	addq	$9280, %rsi
	leaq	-128(%rbp), %rdi
	leaq	-112(%rbp), %rdx
.LEHB333:
	call	_ZN3Upp4CtrllSENS_8CallbackE
	leaq	-128(%rbp), %rdi
	call	_ZN3Upp8CallbackD1Ev
.LEHE333:
	leaq	-112(%rbp), %rdi
.LEHB334:
	call	_ZN3Upp8CallbackD1Ev
.LEHE334:
	jmp	.L1818
.L1839:
	movq	%rax, -208(%rbp)
.L1819:
	movq	-208(%rbp), %rbx
	leaq	-112(%rbp), %rdi
	call	_ZN3Upp8CallbackD1Ev
	movq	%rbx, -208(%rbp)
	jmp	.L1828
.L1818:
	movq	$_ZN11TemplateDlg7PreviewEv, -176(%rbp)
	movq	$0, -168(%rbp)
	leaq	-96(%rbp), %rdi
	movq	-176(%rbp), %rdx
	movq	-168(%rbp), %rcx
	movq	-200(%rbp), %rsi
.LEHB335:
	call	_ZN3Upp8callbackI11TemplateDlgS1_EENS_8CallbackEPT_MT0_FvvE
.LEHE335:
	movq	-200(%rbp), %rdi
	addq	$11472, %rdi
	leaq	-96(%rbp), %rsi
.LEHB336:
	call	_ZN3Upp13DelayCallbacklSENS_8CallbackE
.LEHE336:
	leaq	-96(%rbp), %rdi
.LEHB337:
	call	_ZN3Upp8CallbackD1Ev
.LEHE337:
	jmp	.L1820
.L1838:
	movq	%rax, -208(%rbp)
.L1821:
	movq	-208(%rbp), %rbx
	leaq	-96(%rbp), %rdi
	call	_ZN3Upp8CallbackD1Ev
	movq	%rbx, -208(%rbp)
	jmp	.L1828
.L1820:
	movq	-200(%rbp), %rdi
	addq	$11472, %rdi
	movl	$300, %esi
	call	_ZN3Upp13DelayCallback8SetDelayEi
	movq	-200(%rbp), %rdi
	addq	$5368, %rdi
	movl	$0, %edx
	movl	$.LC24, %esi
.LEHB338:
	call	_ZN3Upp9ArrayCtrl9AddColumnEPKci
	movq	$_ZN11TemplateDlg13EnterTemplateEv, -160(%rbp)
	movq	$0, -152(%rbp)
	leaq	-80(%rbp), %rdi
	movq	-160(%rbp), %rdx
	movq	-152(%rbp), %rcx
	movq	-200(%rbp), %rsi
	call	_ZN3Upp8callbackI11TemplateDlgS1_EENS_8CallbackEPT_MT0_FvvE
.LEHE338:
	movq	-200(%rbp), %rdi
	addq	$8968, %rdi
	leaq	-80(%rbp), %rsi
.LEHB339:
	call	_ZN3Upp8CallbackaSERKS0_
.LEHE339:
	leaq	-80(%rbp), %rdi
.LEHB340:
	call	_ZN3Upp8CallbackD1Ev
.LEHE340:
	jmp	.L1822
.L1837:
	movq	%rax, -208(%rbp)
.L1823:
	movq	-208(%rbp), %rbx
	leaq	-80(%rbp), %rdi
	call	_ZN3Upp8CallbackD1Ev
	movq	%rbx, -208(%rbp)
	jmp	.L1828
.L1822:
	movq	-200(%rbp), %rdi
	addq	$9872, %rdi
.LEHB341:
	call	_ZN3Upp4Ctrl7DisableEv
	movq	$_ZN11TemplateDlg12EnableCreateEv, -144(%rbp)
	movq	$0, -136(%rbp)
	leaq	-48(%rbp), %rdi
	movq	-144(%rbp), %rdx
	movq	-136(%rbp), %rcx
	movq	-200(%rbp), %rsi
	call	_ZN3Upp8callbackI11TemplateDlgS1_EENS_8CallbackEPT_MT0_FvvE
.LEHE341:
	movq	-200(%rbp), %rsi
	addq	$656, %rsi
	leaq	-64(%rbp), %rdi
	leaq	-48(%rbp), %rdx
.LEHB342:
	call	_ZN3Upp4CtrllSENS_8CallbackE
	leaq	-64(%rbp), %rdi
	call	_ZN3Upp8CallbackD1Ev
.LEHE342:
	leaq	-48(%rbp), %rdi
.LEHB343:
	call	_ZN3Upp8CallbackD1Ev
.LEHE343:
	jmp	.L1824
.L1836:
	movq	%rax, -208(%rbp)
.L1825:
	movq	-208(%rbp), %rbx
	leaq	-48(%rbp), %rdi
	call	_ZN3Upp8CallbackD1Ev
	movq	%rbx, -208(%rbp)
	jmp	.L1828
.L1824:
	movq	-200(%rbp), %rdi
	addq	$656, %rdi
	movl	$_Z17FilterPackageNamei, %esi
	call	_ZN3Upp9EditField9SetFilterEPFiiE
	leaq	-32(%rbp), %rdi
.LEHB344:
	call	_ZN6IdeImg13CreatePackageEv
.LEHE344:
	movq	-200(%rbp), %rdi
	leaq	-32(%rbp), %rsi
.LEHB345:
	call	_ZN3Upp9TopWindow4IconERKNS_5ImageE
.LEHE345:
	leaq	-32(%rbp), %rdi
.LEHB346:
	call	_ZN3Upp5ImageD1Ev
.LEHE346:
	jmp	.L1834
.L1835:
	movq	%rax, -208(%rbp)
.L1827:
	movq	-208(%rbp), %rbx
	leaq	-32(%rbp), %rdi
	call	_ZN3Upp5ImageD1Ev
	movq	%rbx, -208(%rbp)
	jmp	.L1828
.L1840:
	movq	%rax, -208(%rbp)
.L1828:
	movq	-208(%rbp), %rbx
	movq	-200(%rbp), %rdi
	addq	$11472, %rdi
	call	_ZN3Upp13DelayCallbackD1Ev
	movq	%rbx, -208(%rbp)
	jmp	.L1829
.L1841:
	movq	%rax, -208(%rbp)
.L1829:
	movq	-208(%rbp), %rbx
	movq	-200(%rbp), %rdi
	addq	$11448, %rdi
	call	_ZN3Upp5ArrayINS_4CtrlEED1Ev
	movq	%rbx, -208(%rbp)
.L1842:
.L1830:
	movq	-208(%rbp), %rbx
	movq	-200(%rbp), %rdi
	addq	$11424, %rdi
	call	_ZN3Upp5ArrayINS_5LabelEED1Ev
	movq	%rbx, -208(%rbp)
.L1843:
.L1831:
	movq	-208(%rbp), %rbx
	movq	-200(%rbp), %rdi
	addq	$11400, %rdi
	call	_ZN3Upp5ArrayI15PackageTemplateED1Ev
	movq	%rbx, -208(%rbp)
.L1844:
.L1832:
	movq	-208(%rbp), %rbx
	movq	-200(%rbp), %rdi
	addq	$10096, %rdi
	call	_ZN10AppPreviewD1Ev
	movq	%rbx, -208(%rbp)
	jmp	.L1833
.L1845:
	movq	%rax, -208(%rbp)
.L1833:
	movq	-208(%rbp), %rbx
	movq	-200(%rbp), %rdi
	call	_ZN20WithNewPackageLayoutIN3Upp9TopWindowEED2Ev
	movq	%rbx, -208(%rbp)
	movq	-208(%rbp), %rdi
.LEHB347:
	call	_Unwind_Resume
.LEHE347:
.L1834:
	addq	$200, %rsp
	popq	%rbx
	leave
	ret
.LFE7944:
	.size	_ZN11TemplateDlgC2Ev, .-_ZN11TemplateDlgC2Ev
	.section	.gcc_except_table
.LLSDA7944:
	.byte	0xff
	.byte	0xff
	.byte	0x1
	.uleb128 .LLSDACSE7944-.LLSDACSB7944
.LLSDACSB7944:
	.uleb128 .LEHB329-.LFB7944
	.uleb128 .LEHE329-.LEHB329
	.uleb128 0x0
	.uleb128 0x0
	.uleb128 .LEHB330-.LFB7944
	.uleb128 .LEHE330-.LEHB330
	.uleb128 .L1845-.LFB7944
	.uleb128 0x0
	.uleb128 .LEHB331-.LFB7944
	.uleb128 .LEHE331-.LEHB331
	.uleb128 .L1841-.LFB7944
	.uleb128 0x0
	.uleb128 .LEHB332-.LFB7944
	.uleb128 .LEHE332-.LEHB332
	.uleb128 .L1840-.LFB7944
	.uleb128 0x0
	.uleb128 .LEHB333-.LFB7944
	.uleb128 .LEHE333-.LEHB333
	.uleb128 .L1839-.LFB7944
	.uleb128 0x0
	.uleb128 .LEHB334-.LFB7944
	.uleb128 .LEHE334-.LEHB334
	.uleb128 .L1840-.LFB7944
	.uleb128 0x0
	.uleb128 .LEHB335-.LFB7944
	.uleb128 .LEHE335-.LEHB335
	.uleb128 .L1840-.LFB7944
	.uleb128 0x0
	.uleb128 .LEHB336-.LFB7944
	.uleb128 .LEHE336-.LEHB336
	.uleb128 .L1838-.LFB7944
	.uleb128 0x0
	.uleb128 .LEHB337-.LFB7944
	.uleb128 .LEHE337-.LEHB337
	.uleb128 .L1840-.LFB7944
	.uleb128 0x0
	.uleb128 .LEHB338-.LFB7944
	.uleb128 .LEHE338-.LEHB338
	.uleb128 .L1840-.LFB7944
	.uleb128 0x0
	.uleb128 .LEHB339-.LFB7944
	.uleb128 .LEHE339-.LEHB339
	.uleb128 .L1837-.LFB7944
	.uleb128 0x0
	.uleb128 .LEHB340-.LFB7944
	.uleb128 .LEHE340-.LEHB340
	.uleb128 .L1840-.LFB7944
	.uleb128 0x0
	.uleb128 .LEHB341-.LFB7944
	.uleb128 .LEHE341-.LEHB341
	.uleb128 .L1840-.LFB7944
	.uleb128 0x0
	.uleb128 .LEHB342-.LFB7944
	.uleb128 .LEHE342-.LEHB342
	.uleb128 .L1836-.LFB7944
	.uleb128 0x0
	.uleb128 .LEHB343-.LFB7944
	.uleb128 .LEHE343-.LEHB343
	.uleb128 .L1840-.LFB7944
	.uleb128 0x0
	.uleb128 .LEHB344-.LFB7944
	.uleb128 .LEHE344-.LEHB344
	.uleb128 .L1840-.LFB7944
	.uleb128 0x0
	.uleb128 .LEHB345-.LFB7944
	.uleb128 .LEHE345-.LEHB345
	.uleb128 .L1835-.LFB7944
	.uleb128 0x0
	.uleb128 .LEHB346-.LFB7944
	.uleb128 .LEHE346-.LEHB346
	.uleb128 .L1840-.LFB7944
	.uleb128 0x0
	.uleb128 .LEHB347-.LFB7944
	.uleb128 .LEHE347-.LEHB347
	.uleb128 0x0
	.uleb128 0x0
.LLSDACSE7944:
	.text
	.align 2
.globl _ZN10AppPreviewC2Ev
	.type	_ZN10AppPreviewC2Ev, @function
_ZN10AppPreviewC2Ev:
.LFB7922:
	pushq	%rbp
.LCFI1254:
	movq	%rsp, %rbp
.LCFI1255:
	pushq	%rbx
.LCFI1256:
	subq	$72, %rsp
.LCFI1257:
	movq	%rdi, -72(%rbp)
	movq	-72(%rbp), %rdi
.LEHB348:
	call	_ZN3Upp4CtrlC2Ev
.LEHE348:
	movl	$_ZTV10AppPreview+16, %edx
	movq	-72(%rbp), %rax
	movq	%rdx, (%rax)
	movq	-72(%rbp), %rdi
	addq	$152, %rdi
.LEHB349:
	call	_ZN3Upp9ScrollBarC1Ev
.LEHE349:
	movq	-72(%rbp), %rdi
	addq	$1288, %rdi
	call	_ZN3Upp6VectorIN10AppPreview4LineEEC1Ev
.LEHB350:
	call	_ZN3Upp9ViewFrameEv
	movq	%rax, %rsi
	movq	-72(%rbp), %rdi
	call	_ZN3Upp4Ctrl8SetFrameERNS_9CtrlFrameE
	movq	-72(%rbp), %rsi
	addq	$304, %rsi
	movq	-72(%rbp), %rdi
	call	_ZN3Upp4Ctrl8AddFrameERNS_9CtrlFrameE
	movq	$_ZN10AppPreview6ScrollEv, -64(%rbp)
	movq	$0, -56(%rbp)
	leaq	-32(%rbp), %rdi
	movq	-64(%rbp), %rdx
	movq	-56(%rbp), %rcx
	movq	-72(%rbp), %rsi
	call	_ZN3Upp8callbackI10AppPreviewS1_EENS_8CallbackEPT_MT0_FvvE
.LEHE350:
	movq	-72(%rbp), %rsi
	addq	$152, %rsi
	leaq	-48(%rbp), %rdi
	leaq	-32(%rbp), %rdx
.LEHB351:
	call	_ZN3Upp4CtrllSENS_8CallbackE
	leaq	-48(%rbp), %rdi
	call	_ZN3Upp8CallbackD1Ev
.LEHE351:
	leaq	-32(%rbp), %rdi
.LEHB352:
	call	_ZN3Upp8CallbackD1Ev
.LEHE352:
	jmp	.L1847
.L1853:
	movq	%rax, -80(%rbp)
.L1848:
	movq	-80(%rbp), %rbx
	leaq	-32(%rbp), %rdi
	call	_ZN3Upp8CallbackD1Ev
	movq	%rbx, -80(%rbp)
	jmp	.L1849
.L1847:
	movq	-72(%rbp), %rdi
	call	_ZN3Upp4Ctrl11NoWantFocusEv
	jmp	.L1852
.L1854:
	movq	%rax, -80(%rbp)
.L1849:
	movq	-80(%rbp), %rbx
	movq	-72(%rbp), %rdi
	addq	$1288, %rdi
	call	_ZN3Upp6VectorIN10AppPreview4LineEED1Ev
	movq	%rbx, -80(%rbp)
.L1855:
.L1850:
	movq	-80(%rbp), %rbx
	movq	-72(%rbp), %rdi
	addq	$152, %rdi
	call	_ZN3Upp9ScrollBarD1Ev
	movq	%rbx, -80(%rbp)
	jmp	.L1851
.L1856:
	movq	%rax, -80(%rbp)
.L1851:
	movq	-80(%rbp), %rbx
	movq	-72(%rbp), %rdi
	call	_ZN3Upp4CtrlD2Ev
	movq	%rbx, -80(%rbp)
	movq	-80(%rbp), %rdi
.LEHB353:
	call	_Unwind_Resume
.LEHE353:
.L1852:
	addq	$72, %rsp
	popq	%rbx
	leave
	ret
.LFE7922:
	.size	_ZN10AppPreviewC2Ev, .-_ZN10AppPreviewC2Ev
	.section	.gcc_except_table
.LLSDA7922:
	.byte	0xff
	.byte	0xff
	.byte	0x1
	.uleb128 .LLSDACSE7922-.LLSDACSB7922
.LLSDACSB7922:
	.uleb128 .LEHB348-.LFB7922
	.uleb128 .LEHE348-.LEHB348
	.uleb128 0x0
	.uleb128 0x0
	.uleb128 .LEHB349-.LFB7922
	.uleb128 .LEHE349-.LEHB349
	.uleb128 .L1856-.LFB7922
	.uleb128 0x0
	.uleb128 .LEHB350-.LFB7922
	.uleb128 .LEHE350-.LEHB350
	.uleb128 .L1854-.LFB7922
	.uleb128 0x0
	.uleb128 .LEHB351-.LFB7922
	.uleb128 .LEHE351-.LEHB351
	.uleb128 .L1853-.LFB7922
	.uleb128 0x0
	.uleb128 .LEHB352-.LFB7922
	.uleb128 .LEHE352-.LEHB352
	.uleb128 .L1854-.LFB7922
	.uleb128 0x0
	.uleb128 .LEHB353-.LFB7922
	.uleb128 .LEHE353-.LEHB353
	.uleb128 0x0
	.uleb128 0x0
.LLSDACSE7922:
	.text
	.section	.text._ZN3Upp6FileInD0Ev,"axG",@progbits,_ZN3Upp6FileInD0Ev,comdat
	.align 2
	.weak	_ZN3Upp6FileInD0Ev
	.type	_ZN3Upp6FileInD0Ev, @function
_ZN3Upp6FileInD0Ev:
.LFB7916:
	pushq	%rbp
.LCFI1258:
	movq	%rsp, %rbp
.LCFI1259:
	subq	$16, %rsp
.LCFI1260:
	movq	%rdi, -8(%rbp)
	movl	$_ZTVN3Upp6FileInE+16, %edx
	movq	-8(%rbp), %rax
	movq	%rdx, (%rax)
	movq	-8(%rbp), %rdi
	call	_ZN3Upp10FileStreamD2Ev
	movl	$1, %eax
	testb	%al, %al
	je	.L1861
	movq	-8(%rbp), %rdi
	call	_ZdlPv
.L1861:
	leave
	ret
.LFE7916:
	.size	_ZN3Upp6FileInD0Ev, .-_ZN3Upp6FileInD0Ev
	.section	.text._ZN3Upp6FileInD1Ev,"axG",@progbits,_ZN3Upp6FileInD1Ev,comdat
	.align 2
	.weak	_ZN3Upp6FileInD1Ev
	.type	_ZN3Upp6FileInD1Ev, @function
_ZN3Upp6FileInD1Ev:
.LFB7915:
	pushq	%rbp
.LCFI1261:
	movq	%rsp, %rbp
.LCFI1262:
	subq	$16, %rsp
.LCFI1263:
	movq	%rdi, -8(%rbp)
	movl	$_ZTVN3Upp6FileInE+16, %edx
	movq	-8(%rbp), %rax
	movq	%rdx, (%rax)
	movq	-8(%rbp), %rdi
	call	_ZN3Upp10FileStreamD2Ev
	movl	$0, %eax
	testb	%al, %al
	je	.L1866
	movq	-8(%rbp), %rdi
	call	_ZdlPv
.L1866:
	leave
	ret
.LFE7915:
	.size	_ZN3Upp6FileInD1Ev, .-_ZN3Upp6FileInD1Ev
	.section	.text._ZN3Upp6FileIn4OpenEPKc,"axG",@progbits,_ZN3Upp6FileIn4OpenEPKc,comdat
	.align 2
	.weak	_ZN3Upp6FileIn4OpenEPKc
	.type	_ZN3Upp6FileIn4OpenEPKc, @function
_ZN3Upp6FileIn4OpenEPKc:
.LFB1711:
	pushq	%rbp
.LCFI1264:
	movq	%rsp, %rbp
.LCFI1265:
	subq	$16, %rsp
.LCFI1266:
	movq	%rdi, -8(%rbp)
	movq	%rsi, -16(%rbp)
	movq	-8(%rbp), %rdi
	movq	-16(%rbp), %rsi
	movl	$420, %ecx
	movl	$0, %edx
	call	_ZN3Upp10FileStream4OpenEPKcjj
	movzbl	%al, %eax
	leave
	ret
.LFE1711:
	.size	_ZN3Upp6FileIn4OpenEPKc, .-_ZN3Upp6FileIn4OpenEPKc
	.section	.text._ZN3Upp6FileInC1EPKc,"axG",@progbits,_ZN3Upp6FileInC1EPKc,comdat
	.align 2
	.weak	_ZN3Upp6FileInC1EPKc
	.type	_ZN3Upp6FileInC1EPKc, @function
_ZN3Upp6FileInC1EPKc:
.LFB1714:
	pushq	%rbp
.LCFI1267:
	movq	%rsp, %rbp
.LCFI1268:
	pushq	%rbx
.LCFI1269:
	subq	$24, %rsp
.LCFI1270:
	movq	%rdi, -16(%rbp)
	movq	%rsi, -24(%rbp)
	movq	-16(%rbp), %rdi
.LEHB354:
	call	_ZN3Upp10FileStreamC2Ev
.LEHE354:
	movl	$_ZTVN3Upp6FileInE+16, %edx
	movq	-16(%rbp), %rax
	movq	%rdx, (%rax)
	movq	-24(%rbp), %rsi
	movq	-16(%rbp), %rdi
.LEHB355:
	call	_ZN3Upp6FileIn4OpenEPKc
.LEHE355:
	jmp	.L1871
.L1872:
	movq	%rax, -32(%rbp)
.L1870:
	movq	-32(%rbp), %rbx
	movq	-16(%rbp), %rdi
	call	_ZN3Upp10FileStreamD2Ev
	movq	%rbx, -32(%rbp)
	movq	-32(%rbp), %rdi
.LEHB356:
	call	_Unwind_Resume
.LEHE356:
.L1871:
	addq	$24, %rsp
	popq	%rbx
	leave
	ret
.LFE1714:
	.size	_ZN3Upp6FileInC1EPKc, .-_ZN3Upp6FileInC1EPKc
	.section	.gcc_except_table
.LLSDA1714:
	.byte	0xff
	.byte	0xff
	.byte	0x1
	.uleb128 .LLSDACSE1714-.LLSDACSB1714
.LLSDACSB1714:
	.uleb128 .LEHB354-.LFB1714
	.uleb128 .LEHE354-.LEHB354
	.uleb128 0x0
	.uleb128 0x0
	.uleb128 .LEHB355-.LFB1714
	.uleb128 .LEHE355-.LEHB355
	.uleb128 .L1872-.LFB1714
	.uleb128 0x0
	.uleb128 .LEHB356-.LFB1714
	.uleb128 .LEHE356-.LEHB356
	.uleb128 0x0
	.uleb128 0x0
.LLSDACSE1714:
	.section	.text._ZN3Upp6FileInC1EPKc,"axG",@progbits,_ZN3Upp6FileInC1EPKc,comdat
	.section	.text._ZN3Upp7CParser2IdEPKc,"axG",@progbits,_ZN3Upp7CParser2IdEPKc,comdat
	.align 2
	.weak	_ZN3Upp7CParser2IdEPKc
	.type	_ZN3Upp7CParser2IdEPKc, @function
_ZN3Upp7CParser2IdEPKc:
.LFB3980:
	pushq	%rbp
.LCFI1271:
	movq	%rsp, %rbp
.LCFI1272:
	subq	$32, %rsp
.LCFI1273:
	movq	%rdi, -8(%rbp)
	movq	%rsi, -16(%rbp)
	movq	-8(%rbp), %rax
	movq	(%rax), %rax
	movzbl	(%rax), %edx
	movq	-16(%rbp), %rax
	movzbl	(%rax), %eax
	cmpb	%al, %dl
	jne	.L1874
	movq	-16(%rbp), %rax
	addq	$1, %rax
	movzbl	(%rax), %eax
	testb	%al, %al
	je	.L1876
	movq	-8(%rbp), %rax
	movq	(%rax), %rax
	addq	$1, %rax
	movzbl	(%rax), %edx
	movq	-16(%rbp), %rax
	addq	$1, %rax
	movzbl	(%rax), %eax
	cmpb	%al, %dl
	jne	.L1874
.L1876:
	movq	-16(%rbp), %rsi
	movq	-8(%rbp), %rdi
	call	_ZN3Upp7CParser3Id0EPKc
	xorl	$1, %eax
	testb	%al, %al
	jne	.L1874
	movb	$1, -17(%rbp)
	jmp	.L1879
.L1874:
	movb	$0, -17(%rbp)
.L1879:
	movzbl	-17(%rbp), %eax
	leave
	ret
.LFE3980:
	.size	_ZN3Upp7CParser2IdEPKc, .-_ZN3Upp7CParser2IdEPKc
	.section	.rodata
.LC25:
	.string	"Unknown type"
	.text
	.align 2
.globl _Z16ReadTemplateTypeRN3Upp7CParserE
	.type	_Z16ReadTemplateTypeRN3Upp7CParserE, @function
_Z16ReadTemplateTypeRN3Upp7CParserE:
.LFB7905:
	pushq	%rbp
.LCFI1274:
	movq	%rsp, %rbp
.LCFI1275:
	subq	$32, %rsp
.LCFI1276:
	movq	%rdi, -24(%rbp)
	movl	$0, -4(%rbp)
	jmp	.L1882
.L1883:
	movl	-4(%rbp), %eax
	cltq
	movq	_ZZ16ReadTemplateTypeRN3Upp7CParserEE2nm(,%rax,8), %rsi
	movq	-24(%rbp), %rdi
	call	_ZN3Upp7CParser2IdEPKc
	testb	%al, %al
	je	.L1884
	movl	-4(%rbp), %eax
	movl	%eax, -28(%rbp)
	jmp	.L1886
.L1884:
	addl	$1, -4(%rbp)
.L1882:
	cmpl	$4, -4(%rbp)
	jle	.L1883
	movq	-24(%rbp), %rdi
	movl	$.LC25, %esi
	call	_ZN3Upp7CParser10ThrowErrorEPKc
	movl	$0, -28(%rbp)
.L1886:
	movl	-28(%rbp), %eax
	leave
	ret
.LFE7905:
	.size	_Z16ReadTemplateTypeRN3Upp7CParserE, .-_Z16ReadTemplateTypeRN3Upp7CParserE
	.section	.text._ZN3Upp7CParser6SpacesEv,"axG",@progbits,_ZN3Upp7CParser6SpacesEv,comdat
	.align 2
	.weak	_ZN3Upp7CParser6SpacesEv
	.type	_ZN3Upp7CParser6SpacesEv, @function
_ZN3Upp7CParser6SpacesEv:
.LFB3975:
	pushq	%rbp
.LCFI1277:
	movq	%rsp, %rbp
.LCFI1278:
	subq	$16, %rsp
.LCFI1279:
	movq	%rdi, -8(%rbp)
	movq	-8(%rbp), %rax
	movq	(%rax), %rax
	movzbl	(%rax), %eax
	cmpb	$32, %al
	jbe	.L1890
	movq	-8(%rbp), %rax
	movq	(%rax), %rax
	movzbl	(%rax), %eax
	cmpb	$47, %al
	jne	.L1892
.L1890:
	movq	-8(%rbp), %rdi
	call	_ZN3Upp7CParser7Spaces0Ev
	movzbl	%al, %eax
	movl	%eax, -12(%rbp)
	jmp	.L1893
.L1892:
	movl	$0, -12(%rbp)
.L1893:
	movl	-12(%rbp), %eax
	leave
	ret
.LFE3975:
	.size	_ZN3Upp7CParser6SpacesEv, .-_ZN3Upp7CParser6SpacesEv
	.section	.text._ZN3Upp7CParser8DoSpacesEv,"axG",@progbits,_ZN3Upp7CParser8DoSpacesEv,comdat
	.align 2
	.weak	_ZN3Upp7CParser8DoSpacesEv
	.type	_ZN3Upp7CParser8DoSpacesEv, @function
_ZN3Upp7CParser8DoSpacesEv:
.LFB3966:
	pushq	%rbp
.LCFI1280:
	movq	%rsp, %rbp
.LCFI1281:
	subq	$16, %rsp
.LCFI1282:
	movq	%rdi, -8(%rbp)
	movq	-8(%rbp), %rax
	movzbl	32(%rax), %eax
	testb	%al, %al
	je	.L1898
	movq	-8(%rbp), %rdi
	call	_ZN3Upp7CParser6SpacesEv
.L1898:
	leave
	ret
.LFE3966:
	.size	_ZN3Upp7CParser8DoSpacesEv, .-_ZN3Upp7CParser8DoSpacesEv
	.section	.text._ZN3Upp7CParser4CharEc,"axG",@progbits,_ZN3Upp7CParser4CharEc,comdat
	.align 2
	.weak	_ZN3Upp7CParser4CharEc
	.type	_ZN3Upp7CParser4CharEc, @function
_ZN3Upp7CParser4CharEc:
.LFB3993:
	pushq	%rbp
.LCFI1283:
	movq	%rsp, %rbp
.LCFI1284:
	subq	$16, %rsp
.LCFI1285:
	movq	%rdi, -8(%rbp)
	movb	%sil, -12(%rbp)
	movsbl	-12(%rbp),%esi
	movq	-8(%rbp), %rdi
	call	_ZN3Upp7CParser6IsCharEc
	testb	%al, %al
	je	.L1900
	movq	-8(%rbp), %rax
	movq	(%rax), %rax
	leaq	1(%rax), %rdx
	movq	-8(%rbp), %rax
	movq	%rdx, (%rax)
	movq	-8(%rbp), %rdi
	call	_ZN3Upp7CParser8DoSpacesEv
	movl	$1, -16(%rbp)
	jmp	.L1902
.L1900:
	movl	$0, -16(%rbp)
.L1902:
	movl	-16(%rbp), %eax
	leave
	ret
.LFE3993:
	.size	_ZN3Upp7CParser4CharEc, .-_ZN3Upp7CParser4CharEc
	.section	.text._ZNK3Upp6Stream5IsEofEv,"axG",@progbits,_ZNK3Upp6Stream5IsEofEv,comdat
	.align 2
	.weak	_ZNK3Upp6Stream5IsEofEv
	.type	_ZNK3Upp6Stream5IsEofEv, @function
_ZNK3Upp6Stream5IsEofEv:
.LFB1635:
	pushq	%rbp
.LCFI1286:
	movq	%rsp, %rbp
.LCFI1287:
	subq	$16, %rsp
.LCFI1288:
	movq	%rdi, -8(%rbp)
	movq	-8(%rbp), %rax
	movq	24(%rax), %rdx
	movq	-8(%rbp), %rax
	movq	32(%rax), %rax
	cmpq	%rax, %rdx
	jb	.L1905
	movq	-8(%rbp), %rdi
	call	_ZNK3Upp6Stream6_IsEofEv
	xorl	$1, %eax
	testb	%al, %al
	jne	.L1905
	movb	$1, -9(%rbp)
	jmp	.L1908
.L1905:
	movb	$0, -9(%rbp)
.L1908:
	movzbl	-9(%rbp), %eax
	leave
	ret
.LFE1635:
	.size	_ZNK3Upp6Stream5IsEofEv, .-_ZNK3Upp6Stream5IsEofEv
	.section	.rodata
.LC26:
	.string	"template"
.LC27:
	.string	"main"
.LC28:
	.string	"sub"
.LC29:
	.string	"unexpected end of file"
.LC30:
	.string	"\r\n"
	.text
	.align 2
.globl _Z12ReadTemplatePKc
	.type	_Z12ReadTemplatePKc, @function
_Z12ReadTemplatePKc:
.LFB7906:
	pushq	%rbp
.LCFI1289:
	movq	%rsp, %rbp
.LCFI1290:
	pushq	%rbx
.LCFI1291:
	subq	$488, %rsp
.LCFI1292:
	movq	%rdi, -488(%rbp)
	movq	%rsi, -472(%rbp)
	movq	%fs:40, %rax
	movq	%rax, -24(%rbp)
	xorl	%eax, %eax
	movq	-488(%rbp), %rdi
	call	_ZN15PackageTemplateC1Ev
	movq	-472(%rbp), %rsi
	leaq	-464(%rbp), %rdi
.LEHB357:
	call	_ZN3Upp6FileInC1EPKc
.LEHE357:
	leaq	-192(%rbp), %rdi
	call	_ZN3Upp6StringC1Ev
	leaq	-208(%rbp), %rdi
	call	_ZN3Upp6StringC1Ev
.L1911:
	leaq	-464(%rbp), %rdi
.LEHB358:
	call	_ZNK3Upp6Stream5IsEofEv
	testb	%al, %al
	jne	.L1912
	leaq	-176(%rbp), %rdi
	leaq	-464(%rbp), %rsi
	call	_ZN3Upp6Stream7GetLineEv
.LEHE358:
	leaq	-176(%rbp), %rsi
	leaq	-208(%rbp), %rdi
.LEHB359:
	call	_ZN3Upp6StringaSERKS0_
.LEHE359:
	leaq	-176(%rbp), %rdi
	call	_ZN3Upp6StringD1Ev
	leaq	-208(%rbp), %rdi
	movl	$0, %esi
	call	_ZNK3Upp7AStringINS_7String0EEixEi
	cmpl	$64, %eax
	jne	.L1914
	jmp	.L1915
.L1984:
	movq	%rax, -496(%rbp)
.L1916:
	movq	-496(%rbp), %rbx
	leaq	-176(%rbp), %rdi
	call	_ZN3Upp6StringD1Ev
	movq	%rbx, -496(%rbp)
	jmp	.L1969
.L1915:
	leaq	-208(%rbp), %rdi
	movl	$1, %esi
	call	_ZNK3Upp7AStringINS_7String0EEixEi
	cmpl	$64, %eax
	jne	.L1914
	movb	$1, -477(%rbp)
	jmp	.L1918
.L1914:
	movb	$0, -477(%rbp)
.L1918:
	movzbl	-477(%rbp), %eax
	testb	%al, %al
	jne	.L1912
	leaq	-208(%rbp), %rsi
	leaq	-192(%rbp), %rdi
.LEHB360:
	call	_ZN3UpplsERNS_6StringERKS0_
	movq	%rax, %rdi
	movl	$10, %esi
	call	_ZN3UpplsERNS_6StringEc
	jmp	.L1911
.L1912:
	leaq	-192(%rbp), %rdi
	call	_ZNK3Upp7AStringINS_7String0EEcvPKcEv
	movq	%rax, %rsi
	movq	-472(%rbp), %rdx
	leaq	-256(%rbp), %rdi
	movl	$1, %ecx
	call	_ZN3Upp7CParserC1EPKcS2_i
.LEHE360:
	leaq	-256(%rbp), %rdi
	movl	$.LC26, %esi
.LEHB361:
	call	_ZN3Upp7CParser6PassIdEPKc
	leaq	-160(%rbp), %rdi
	leaq	-256(%rbp), %rsi
	movl	$0, %edx
	call	_ZN3Upp7CParser10ReadStringEb
.LEHE361:
	movq	-488(%rbp), %rax
	movq	%rax, %rdi
	leaq	-160(%rbp), %rsi
.LEHB362:
	call	_ZN3Upp6StringaSERKS0_
.LEHE362:
	leaq	-160(%rbp), %rdi
	call	_ZN3Upp6StringD1Ev
	movq	-488(%rbp), %rdx
	movq	-488(%rbp), %rax
	movb	$0, 17(%rax)
	movzbl	17(%rax), %eax
	movb	%al, 16(%rdx)
	jmp	.L1989
.L1982:
	movq	%rax, -496(%rbp)
.L1921:
	movq	-496(%rbp), %rbx
	leaq	-160(%rbp), %rdi
	call	_ZN3Upp6StringD1Ev
	movq	%rbx, -496(%rbp)
	jmp	.L1967
.L1920:
.L1989:
	leaq	-256(%rbp), %rdi
	movl	$.LC27, %esi
.LEHB363:
	call	_ZN3Upp7CParser2IdEPKc
	testb	%al, %al
	je	.L1922
	movq	-488(%rbp), %rax
	movb	$1, 16(%rax)
	jmp	.L1920
.L1922:
	leaq	-256(%rbp), %rdi
	movl	$.LC28, %esi
	call	_ZN3Upp7CParser2IdEPKc
	testb	%al, %al
	je	.L1925
	movq	-488(%rbp), %rax
	movb	$1, 17(%rax)
	jmp	.L1920
.L1925:
	leaq	-256(%rbp), %rdi
	movl	$59, %esi
	call	_ZN3Upp7CParser8PassCharEc
	jmp	.L1927
.L1928:
	leaq	-256(%rbp), %rdi
	call	_Z16ReadTemplateTypeRN3Upp7CParserE
	movl	%eax, -340(%rbp)
	movq	-488(%rbp), %rax
	leaq	24(%rax), %rdi
	call	_ZN3Upp5ArrayI12TemplateItemE3AddEv
	movq	%rax, -360(%rbp)
	movq	-360(%rbp), %rdx
	movl	-340(%rbp), %eax
	movl	%eax, 16(%rdx)
	cmpl	$3, -340(%rbp)
	jne	.L1929
	leaq	-256(%rbp), %rdi
	movl	$40, %esi
	call	_ZN3Upp7CParser8PassCharEc
.L1931:
	leaq	-144(%rbp), %rdi
	leaq	-256(%rbp), %rsi
	movl	$0, %edx
	call	_ZN3Upp7CParser10ReadStringEb
.LEHE363:
	movq	-360(%rbp), %rdi
	addq	$40, %rdi
	leaq	-144(%rbp), %rsi
.LEHB364:
	call	_ZN3Upp6VectorINS_6StringEE3AddERKS1_
.LEHE364:
	leaq	-144(%rbp), %rdi
	call	_ZN3Upp6StringD1Ev
	leaq	-256(%rbp), %rdi
	movl	$44, %esi
.LEHB365:
	call	_ZN3Upp7CParser4CharEc
	movb	%al, -476(%rbp)
	jmp	.L1932
.L1981:
	movq	%rax, -496(%rbp)
.L1933:
	movq	-496(%rbp), %rbx
	leaq	-144(%rbp), %rdi
	call	_ZN3Upp6StringD1Ev
	movq	%rbx, -496(%rbp)
	jmp	.L1967
.L1932:
	movzbl	-476(%rbp), %eax
	testb	%al, %al
	jne	.L1931
	leaq	-256(%rbp), %rdi
	movl	$41, %esi
	call	_ZN3Upp7CParser8PassCharEc
.L1929:
	leaq	-128(%rbp), %rdi
	leaq	-256(%rbp), %rsi
	movl	$0, %edx
	call	_ZN3Upp7CParser10ReadStringEb
.LEHE365:
	movq	-360(%rbp), %rdi
	leaq	-128(%rbp), %rsi
.LEHB366:
	call	_ZN3Upp6StringaSERKS0_
.LEHE366:
	leaq	-128(%rbp), %rdi
	call	_ZN3Upp6StringD1Ev
	leaq	-112(%rbp), %rdi
	leaq	-256(%rbp), %rsi
.LEHB367:
	call	_ZN3Upp7CParser6ReadIdEv
.LEHE367:
	jmp	.L1935
.L1980:
	movq	%rax, -496(%rbp)
.L1936:
	movq	-496(%rbp), %rbx
	leaq	-128(%rbp), %rdi
	call	_ZN3Upp6StringD1Ev
	movq	%rbx, -496(%rbp)
	jmp	.L1967
.L1935:
	movq	-360(%rbp), %rdi
	addq	$24, %rdi
	leaq	-112(%rbp), %rsi
.LEHB368:
	call	_ZN3Upp6StringaSERKS0_
.LEHE368:
	leaq	-112(%rbp), %rdi
	call	_ZN3Upp6StringD1Ev
	leaq	-256(%rbp), %rdi
	movl	$61, %esi
.LEHB369:
	call	_ZN3Upp7CParser4CharEc
	movb	%al, -475(%rbp)
	jmp	.L1937
.L1979:
	movq	%rax, -496(%rbp)
.L1938:
	movq	-496(%rbp), %rbx
	leaq	-112(%rbp), %rdi
	call	_ZN3Upp6StringD1Ev
	movq	%rbx, -496(%rbp)
	jmp	.L1967
.L1937:
	movzbl	-475(%rbp), %eax
	testb	%al, %al
	je	.L1939
	leaq	-256(%rbp), %rdi
	call	_ZN3Upp7CParser6GetPtrEv
	movq	%rax, -352(%rbp)
	jmp	.L1941
.L1942:
	leaq	-256(%rbp), %rdi
	call	_ZNK3Upp7CParser5IsEofEv
	testb	%al, %al
	je	.L1943
	leaq	-256(%rbp), %rdi
	movl	$.LC29, %esi
	call	_ZN3Upp7CParser10ThrowErrorEPKc
.L1943:
	leaq	-256(%rbp), %rdi
	call	_ZN3Upp7CParser8SkipTermEv
.L1941:
	leaq	-256(%rbp), %rdi
	movl	$59, %esi
	call	_ZN3Upp7CParser6IsCharEc
	xorl	$1, %eax
	testb	%al, %al
	jne	.L1942
	leaq	-256(%rbp), %rdi
	call	_ZN3Upp7CParser6GetPtrEv
	movq	-352(%rbp), %rsi
	leaq	-96(%rbp), %rdi
	movq	%rax, %rdx
	call	_ZN3Upp6StringC1EPKcS2_
.LEHE369:
	movq	-360(%rbp), %rdi
	addq	$56, %rdi
	leaq	-96(%rbp), %rsi
.LEHB370:
	call	_ZN3Upp6StringaSERKS0_
.LEHE370:
	leaq	-96(%rbp), %rdi
	call	_ZN3Upp6StringD1Ev
	jmp	.L1939
.L1978:
	movq	%rax, -496(%rbp)
.L1946:
	movq	-496(%rbp), %rbx
	leaq	-96(%rbp), %rdi
	call	_ZN3Upp6StringD1Ev
	movq	%rbx, -496(%rbp)
	jmp	.L1967
.L1939:
	leaq	-256(%rbp), %rdi
	movl	$59, %esi
.LEHB371:
	call	_ZN3Upp7CParser8PassCharEc
.L1927:
	leaq	-256(%rbp), %rdi
	call	_ZNK3Upp7CParser5IsEofEv
	xorl	$1, %eax
	testb	%al, %al
	jne	.L1928
.L1947:
	movq	-488(%rbp), %rax
	leaq	48(%rax), %rdi
	call	_ZN3Upp5ArrayI12FileTemplateE3AddEv
	leaq	-80(%rbp), %rdi
	leaq	-208(%rbp), %rsi
	movl	$2, %edx
	call	_ZNK3Upp7AStringINS_7String0EE3MidEi
.LEHE371:
	movq	-488(%rbp), %rax
	leaq	48(%rax), %rdi
	call	_ZN3Upp5ArrayI12FileTemplateE3TopEv
	movq	%rax, %rdi
	leaq	-80(%rbp), %rsi
.LEHB372:
	call	_ZN3Upp6StringaSERKS0_
.LEHE372:
	leaq	-80(%rbp), %rdi
	call	_ZN3Upp6StringD1Ev
	jmp	.L1990
.L1977:
	movq	%rax, -496(%rbp)
.L1949:
	movq	-496(%rbp), %rbx
	leaq	-80(%rbp), %rdi
	call	_ZN3Upp6StringD1Ev
	movq	%rbx, -496(%rbp)
	jmp	.L1967
.L1948:
.L1990:
	leaq	-464(%rbp), %rdi
.LEHB373:
	call	_ZNK3Upp6Stream5IsEofEv
	testb	%al, %al
	jne	.L1950
	leaq	-64(%rbp), %rdi
	leaq	-464(%rbp), %rsi
	call	_ZN3Upp6Stream7GetLineEv
.LEHE373:
	leaq	-64(%rbp), %rsi
	leaq	-208(%rbp), %rdi
.LEHB374:
	call	_ZN3Upp6StringaSERKS0_
.LEHE374:
	leaq	-64(%rbp), %rdi
	call	_ZN3Upp6StringD1Ev
	leaq	-208(%rbp), %rdi
	movl	$0, %esi
	call	_ZNK3Upp7AStringINS_7String0EEixEi
	cmpl	$64, %eax
	jne	.L1952
	jmp	.L1953
.L1976:
	movq	%rax, -496(%rbp)
.L1954:
	movq	-496(%rbp), %rbx
	leaq	-64(%rbp), %rdi
	call	_ZN3Upp6StringD1Ev
	movq	%rbx, -496(%rbp)
	jmp	.L1967
.L1953:
	leaq	-208(%rbp), %rdi
	movl	$1, %esi
	call	_ZNK3Upp7AStringINS_7String0EEixEi
	cmpl	$64, %eax
	jne	.L1952
	movb	$1, -474(%rbp)
	jmp	.L1956
.L1952:
	movb	$0, -474(%rbp)
.L1956:
	movzbl	-474(%rbp), %eax
	testb	%al, %al
	jne	.L1947
	leaq	-208(%rbp), %rdi
	movl	$0, %esi
	call	_ZNK3Upp7AStringINS_7String0EEixEi
	cmpl	$63, %eax
	jne	.L1959
	leaq	-208(%rbp), %rdi
	movl	$1, %esi
	call	_ZNK3Upp7AStringINS_7String0EEixEi
	cmpl	$63, %eax
	jne	.L1959
	movb	$1, -473(%rbp)
	jmp	.L1962
.L1959:
	movb	$0, -473(%rbp)
.L1962:
	movzbl	-473(%rbp), %eax
	testb	%al, %al
	je	.L1963
	leaq	-48(%rbp), %rdi
	leaq	-208(%rbp), %rsi
	movl	$2, %edx
.LEHB375:
	call	_ZNK3Upp7AStringINS_7String0EE3MidEi
.LEHE375:
	movq	-488(%rbp), %rax
	leaq	48(%rax), %rdi
	call	_ZN3Upp5ArrayI12FileTemplateE3TopEv
	leaq	16(%rax), %rdi
	leaq	-48(%rbp), %rsi
.LEHB376:
	call	_ZN3Upp6StringaSERKS0_
.LEHE376:
	leaq	-48(%rbp), %rdi
	call	_ZN3Upp6StringD1Ev
	jmp	.L1948
.L1975:
	movq	%rax, -496(%rbp)
.L1966:
	movq	-496(%rbp), %rbx
	leaq	-48(%rbp), %rdi
	call	_ZN3Upp6StringD1Ev
	movq	%rbx, -496(%rbp)
	jmp	.L1967
.L1963:
	movq	-488(%rbp), %rax
	leaq	48(%rax), %rdi
	call	_ZN3Upp5ArrayI12FileTemplateE3TopEv
	leaq	32(%rax), %rdi
	leaq	-208(%rbp), %rsi
.LEHB377:
	call	_ZN3UpplsERNS_6StringERKS0_
	movq	%rax, %rdi
	movl	$.LC30, %esi
	call	_ZN3UpplsERNS_6StringEPKc
.LEHE377:
	jmp	.L1948
.L1983:
	movq	%rax, -496(%rbp)
.L1967:
	movq	-496(%rbp), %rbx
	leaq	-256(%rbp), %rdi
	call	_ZN3Upp7CParserD1Ev
	movq	%rbx, -496(%rbp)
	jmp	.L1969
.L1950:
	leaq	-256(%rbp), %rdi
	call	_ZN3Upp7CParserD1Ev
	leaq	-208(%rbp), %rdi
	call	_ZN3Upp6StringD1Ev
	leaq	-192(%rbp), %rdi
	call	_ZN3Upp6StringD1Ev
	leaq	-464(%rbp), %rdi
.LEHB378:
	call	_ZN3Upp6FileInD1Ev
.LEHE378:
	jmp	.L1910
.L1985:
	movq	%rax, -496(%rbp)
.L1969:
	movq	-496(%rbp), %rbx
	leaq	-208(%rbp), %rdi
	call	_ZN3Upp6StringD1Ev
	movq	%rbx, -496(%rbp)
.L1986:
.L1970:
	movq	-496(%rbp), %rbx
	leaq	-192(%rbp), %rdi
	call	_ZN3Upp6StringD1Ev
	movq	%rbx, -496(%rbp)
.L1987:
.L1971:
	movq	-496(%rbp), %rbx
	leaq	-464(%rbp), %rdi
	call	_ZN3Upp6FileInD1Ev
	movq	%rbx, -496(%rbp)
	jmp	.L1972
.L1988:
	movq	%rax, -496(%rbp)
.L1972:
	movq	-496(%rbp), %rbx
	movq	-488(%rbp), %rdi
	call	_ZN15PackageTemplateD1Ev
	movq	%rbx, -496(%rbp)
	movq	-496(%rbp), %rdi
.LEHB379:
	call	_Unwind_Resume
.LEHE379:
.L1910:
	movq	-488(%rbp), %rax
	movq	-24(%rbp), %rdx
	xorq	%fs:40, %rdx
	je	.L1974
	call	__stack_chk_fail
.L1974:
	addq	$488, %rsp
	popq	%rbx
	leave
	ret
.LFE7906:
	.size	_Z12ReadTemplatePKc, .-_Z12ReadTemplatePKc
	.section	.gcc_except_table
.LLSDA7906:
	.byte	0xff
	.byte	0xff
	.byte	0x1
	.uleb128 .LLSDACSE7906-.LLSDACSB7906
.LLSDACSB7906:
	.uleb128 .LEHB357-.LFB7906
	.uleb128 .LEHE357-.LEHB357
	.uleb128 .L1988-.LFB7906
	.uleb128 0x0
	.uleb128 .LEHB358-.LFB7906
	.uleb128 .LEHE358-.LEHB358
	.uleb128 .L1985-.LFB7906
	.uleb128 0x0
	.uleb128 .LEHB359-.LFB7906
	.uleb128 .LEHE359-.LEHB359
	.uleb128 .L1984-.LFB7906
	.uleb128 0x0
	.uleb128 .LEHB360-.LFB7906
	.uleb128 .LEHE360-.LEHB360
	.uleb128 .L1985-.LFB7906
	.uleb128 0x0
	.uleb128 .LEHB361-.LFB7906
	.uleb128 .LEHE361-.LEHB361
	.uleb128 .L1983-.LFB7906
	.uleb128 0x0
	.uleb128 .LEHB362-.LFB7906
	.uleb128 .LEHE362-.LEHB362
	.uleb128 .L1982-.LFB7906
	.uleb128 0x0
	.uleb128 .LEHB363-.LFB7906
	.uleb128 .LEHE363-.LEHB363
	.uleb128 .L1983-.LFB7906
	.uleb128 0x0
	.uleb128 .LEHB364-.LFB7906
	.uleb128 .LEHE364-.LEHB364
	.uleb128 .L1981-.LFB7906
	.uleb128 0x0
	.uleb128 .LEHB365-.LFB7906
	.uleb128 .LEHE365-.LEHB365
	.uleb128 .L1983-.LFB7906
	.uleb128 0x0
	.uleb128 .LEHB366-.LFB7906
	.uleb128 .LEHE366-.LEHB366
	.uleb128 .L1980-.LFB7906
	.uleb128 0x0
	.uleb128 .LEHB367-.LFB7906
	.uleb128 .LEHE367-.LEHB367
	.uleb128 .L1983-.LFB7906
	.uleb128 0x0
	.uleb128 .LEHB368-.LFB7906
	.uleb128 .LEHE368-.LEHB368
	.uleb128 .L1979-.LFB7906
	.uleb128 0x0
	.uleb128 .LEHB369-.LFB7906
	.uleb128 .LEHE369-.LEHB369
	.uleb128 .L1983-.LFB7906
	.uleb128 0x0
	.uleb128 .LEHB370-.LFB7906
	.uleb128 .LEHE370-.LEHB370
	.uleb128 .L1978-.LFB7906
	.uleb128 0x0
	.uleb128 .LEHB371-.LFB7906
	.uleb128 .LEHE371-.LEHB371
	.uleb128 .L1983-.LFB7906
	.uleb128 0x0
	.uleb128 .LEHB372-.LFB7906
	.uleb128 .LEHE372-.LEHB372
	.uleb128 .L1977-.LFB7906
	.uleb128 0x0
	.uleb128 .LEHB373-.LFB7906
	.uleb128 .LEHE373-.LEHB373
	.uleb128 .L1983-.LFB7906
	.uleb128 0x0
	.uleb128 .LEHB374-.LFB7906
	.uleb128 .LEHE374-.LEHB374
	.uleb128 .L1976-.LFB7906
	.uleb128 0x0
	.uleb128 .LEHB375-.LFB7906
	.uleb128 .LEHE375-.LEHB375
	.uleb128 .L1983-.LFB7906
	.uleb128 0x0
	.uleb128 .LEHB376-.LFB7906
	.uleb128 .LEHE376-.LEHB376
	.uleb128 .L1975-.LFB7906
	.uleb128 0x0
	.uleb128 .LEHB377-.LFB7906
	.uleb128 .LEHE377-.LEHB377
	.uleb128 .L1983-.LFB7906
	.uleb128 0x0
	.uleb128 .LEHB378-.LFB7906
	.uleb128 .LEHE378-.LEHB378
	.uleb128 .L1988-.LFB7906
	.uleb128 0x0
	.uleb128 .LEHB379-.LFB7906
	.uleb128 .LEHE379-.LEHB379
	.uleb128 0x0
	.uleb128 0x0
.LLSDACSE7906:
	.text
	.section	.rodata
.LC31:
	.string	"*.*"
.LC32:
	.string	".upt"
.LC33:
	.string	"Package template [* "
.LC34:
	.string	"] is invalid&[* "
	.text
	.align 2
.globl _ZN11TemplateDlg8LoadNestEPKcbb
	.type	_ZN11TemplateDlg8LoadNestEPKcbb, @function
_ZN11TemplateDlg8LoadNestEPKcbb:
.LFB7967:
	pushq	%rbp
.LCFI1293:
	movq	%rsp, %rbp
.LCFI1294:
	pushq	%r12
.LCFI1295:
	pushq	%rbx
.LCFI1296:
	subq	$592, %rsp
.LCFI1297:
	movq	%rdi, -552(%rbp)
	movq	%rsi, -560(%rbp)
	movb	%dl, -564(%rbp)
	movb	%cl, -568(%rbp)
	movq	%fs:40, %rax
	movq	%rax, -24(%rbp)
	xorl	%eax, %eax
	movq	-560(%rbp), %rsi
	leaq	-192(%rbp), %rdi
.LEHB380:
	call	_ZN3Upp6StringC1EPKc
.LEHE380:
	leaq	-208(%rbp), %rdi
	leaq	-192(%rbp), %rsi
	movl	$.LC31, %edx
.LEHB381:
	call	_ZN3Upp14AppendFileNameERKNS_6StringEPKc
.LEHE381:
	leaq	-208(%rbp), %rdi
	call	_ZNK3Upp7AStringINS_7String0EEcvPKcEv
	movq	%rax, %rsi
	leaq	-544(%rbp), %rdi
.LEHB382:
	call	_ZN3Upp8FindFileC1EPKc
.LEHE382:
	leaq	-208(%rbp), %rdi
	call	_ZN3Upp6StringD1Ev
	leaq	-192(%rbp), %rdi
	call	_ZN3Upp6StringD1Ev
	jmp	.L1992
.L2046:
	movq	%rax, -600(%rbp)
.L1993:
	movq	-600(%rbp), %rbx
	leaq	-208(%rbp), %rdi
	call	_ZN3Upp6StringD1Ev
	movq	%rbx, -600(%rbp)
	jmp	.L1994
.L2047:
	movq	%rax, -600(%rbp)
.L1994:
	movq	-600(%rbp), %rbx
	leaq	-192(%rbp), %rdi
	call	_ZN3Upp6StringD1Ev
	movq	%rbx, -600(%rbp)
	movq	-600(%rbp), %rdi
.LEHB383:
	call	_Unwind_Resume
.LEHE383:
.L1995:
	leaq	-176(%rbp), %rdi
	leaq	-544(%rbp), %rsi
.LEHB384:
	call	_ZNK3Upp8FindFile7GetNameEv
.LEHE384:
	leaq	-176(%rbp), %rdi
	call	_ZNK3Upp7AStringINS_7String0EEcvPKcEv
	movq	%rax, -584(%rbp)
	movq	-560(%rbp), %rsi
	leaq	-160(%rbp), %rdi
.LEHB385:
	call	_ZN3Upp6StringC1EPKc
.LEHE385:
	leaq	-224(%rbp), %rdi
	leaq	-160(%rbp), %rsi
	movq	-584(%rbp), %rdx
.LEHB386:
	call	_ZN3Upp14AppendFileNameERKNS_6StringEPKc
.LEHE386:
	leaq	-160(%rbp), %rdi
	call	_ZN3Upp6StringD1Ev
	leaq	-176(%rbp), %rdi
	call	_ZN3Upp6StringD1Ev
	leaq	-544(%rbp), %rdi
.LEHB387:
	call	_ZNK3Upp8FindFile8IsFolderEv
	movb	%al, -569(%rbp)
	jmp	.L1996
.L2043:
	movq	%rax, -600(%rbp)
.L1997:
	movq	-600(%rbp), %rbx
	leaq	-160(%rbp), %rdi
	call	_ZN3Upp6StringD1Ev
	movq	%rbx, -600(%rbp)
	jmp	.L1998
.L2044:
	movq	%rax, -600(%rbp)
.L1998:
	movq	-600(%rbp), %rbx
	leaq	-176(%rbp), %rdi
	call	_ZN3Upp6StringD1Ev
	movq	%rbx, -600(%rbp)
	jmp	.L2026
.L1996:
	movzbl	-569(%rbp), %eax
	testb	%al, %al
	je	.L1999
	cmpb	$0, -568(%rbp)
	je	.L2003
	movzbl	-564(%rbp), %ebx
	leaq	-224(%rbp), %rdi
	call	_ZNK3Upp7AStringINS_7String0EEcvPKcEv
	movq	%rax, %rsi
	movq	-552(%rbp), %rdi
	movl	$1, %ecx
	movl	%ebx, %edx
	call	_ZN11TemplateDlg8LoadNestEPKcbb
	jmp	.L2003
.L1999:
	leaq	-112(%rbp), %rdi
	leaq	-544(%rbp), %rsi
	call	_ZNK3Upp8FindFile7GetNameEv
.LEHE387:
	leaq	-112(%rbp), %rdi
	call	_ZNK3Upp7AStringINS_7String0EEcvPKcEv
	movq	%rax, %rsi
	leaq	-128(%rbp), %rdi
.LEHB388:
	call	_ZN3Upp10GetFileExtEPKc
.LEHE388:
	leaq	-144(%rbp), %rdi
	leaq	-128(%rbp), %rsi
	movl	$0, %edx
.LEHB389:
	call	_ZN3Upp7ToLowerERKNS_6StringEh
.LEHE389:
	leaq	-144(%rbp), %rdi
	movl	$.LC32, %esi
	call	_ZN3UppeqERKNS_6StringEPKc
	movl	%eax, %ebx
	leaq	-144(%rbp), %rdi
	call	_ZN3Upp6StringD1Ev
	leaq	-128(%rbp), %rdi
	call	_ZN3Upp6StringD1Ev
	leaq	-112(%rbp), %rdi
	call	_ZN3Upp6StringD1Ev
	testb	%bl, %bl
	jne	.L2004
	jmp	.L2003
.L2040:
	movq	%rax, -600(%rbp)
.L2005:
	movq	-600(%rbp), %rbx
	leaq	-128(%rbp), %rdi
	call	_ZN3Upp6StringD1Ev
	movq	%rbx, -600(%rbp)
	jmp	.L2006
.L2041:
	movq	%rax, -600(%rbp)
.L2006:
	movq	-600(%rbp), %rbx
	leaq	-112(%rbp), %rdi
	call	_ZN3Upp6StringD1Ev
	movq	%rbx, -600(%rbp)
	jmp	.L2024
.L2004:
	leaq	-224(%rbp), %rdi
	call	_ZNK3Upp7AStringINS_7String0EEcvPKcEv
	movq	%rax, %rsi
	leaq	-320(%rbp), %rdi
.LEHB390:
	call	_Z12ReadTemplatePKc
.LEHE390:
	movzbl	-564(%rbp), %eax
	xorl	$1, %eax
	testb	%al, %al
	jne	.L2007
	movzbl	-304(%rbp), %eax
	testb	%al, %al
	jne	.L2009
.L2007:
	movzbl	-564(%rbp), %eax
	xorl	$1, %eax
	xorl	$1, %eax
	testb	%al, %al
	jne	.L2010
	movzbl	-303(%rbp), %eax
	testb	%al, %al
	je	.L2010
.L2009:
	movq	-552(%rbp), %rdi
	addq	$11400, %rdi
.LEHB391:
	call	_ZN3Upp5ArrayI15PackageTemplateE3AddEv
	movq	%rax, %rdi
	leaq	-320(%rbp), %rsi
	call	_ZN15PackageTemplateaSERKS_
.LEHE391:
.L2010:
	leaq	-320(%rbp), %rdi
.LEHB392:
	call	_ZN15PackageTemplateD1Ev
.LEHE392:
	jmp	.L2003
.L2038:
	movq	%rax, -600(%rbp)
	movq	%rdx, -592(%rbp)
.L2013:
	movl	-592(%rbp), %r12d
	movq	-600(%rbp), %rbx
	leaq	-320(%rbp), %rdi
	call	_ZN15PackageTemplateD1Ev
	movq	%rbx, -600(%rbp)
	movslq	%r12d,%r12
	movq	%r12, -592(%rbp)
	jmp	.L2030
.L2039:
	movq	%rax, -600(%rbp)
	movq	%rdx, -592(%rbp)
.L2030:
	cmpq	$1, -592(%rbp)
	je	.L2014
	jmp	.L2024
.L2014:
	movq	-600(%rbp), %rdi
	call	__cxa_get_exception_ptr
	movq	%rax, %rsi
	leaq	-240(%rbp), %rdi
.LEHB393:
	call	_ZN3Upp7CParser5ErrorC1ERKS1_
.LEHE393:
	movq	-600(%rbp), %rdi
	call	__cxa_begin_catch
	leaq	-224(%rbp), %rdi
	call	_ZNK3Upp7AStringINS_7String0EEcvPKcEv
	movq	%rax, %rsi
	leaq	-48(%rbp), %rdi
.LEHB394:
	call	_ZN3Upp5DeQtfEPKc
.LEHE394:
	jmp	.L2015
.L2036:
	movq	%rax, -600(%rbp)
	movq	%rdx, -592(%rbp)
	cmpq	$-1, -592(%rbp)
	je	.L2016
	jmp	.L2023
.L2016:
	call	_ZSt9terminatev
.L2015:
	leaq	-64(%rbp), %rdi
	leaq	-48(%rbp), %rdx
	movl	$.LC33, %esi
.LEHB395:
	call	_ZN3UppplEPKcRKNS_6StringE
.LEHE395:
	leaq	-80(%rbp), %rdi
	leaq	-64(%rbp), %rsi
	movl	$.LC34, %edx
.LEHB396:
	call	_ZN3UppplERKNS_6StringEPKc
.LEHE396:
	leaq	-96(%rbp), %rdi
	leaq	-240(%rbp), %rdx
	leaq	-80(%rbp), %rsi
.LEHB397:
	call	_ZN3UppplERKNS_6StringES2_
.LEHE397:
	leaq	-96(%rbp), %rdi
	call	_ZNK3Upp7AStringINS_7String0EEcvPKcEv
	movq	%rax, %rdi
.LEHB398:
	call	_ZN3Upp11ExclamationEPKc
.LEHE398:
	leaq	-96(%rbp), %rdi
	call	_ZN3Upp6StringD1Ev
	leaq	-80(%rbp), %rdi
	call	_ZN3Upp6StringD1Ev
	leaq	-64(%rbp), %rdi
	call	_ZN3Upp6StringD1Ev
	leaq	-48(%rbp), %rdi
	call	_ZN3Upp6StringD1Ev
	leaq	-240(%rbp), %rdi
	call	_ZN3Upp7CParser5ErrorD1Ev
.LEHB399:
	call	__cxa_end_catch
.LEHE399:
	jmp	.L2003
.L2031:
	movq	%rax, -600(%rbp)
.L2018:
	movq	-600(%rbp), %rbx
	leaq	-96(%rbp), %rdi
	call	_ZN3Upp6StringD1Ev
	movq	%rbx, -600(%rbp)
	jmp	.L2019
.L2032:
	movq	%rax, -600(%rbp)
.L2019:
	movq	-600(%rbp), %rbx
	leaq	-80(%rbp), %rdi
	call	_ZN3Upp6StringD1Ev
	movq	%rbx, -600(%rbp)
	jmp	.L2020
.L2033:
	movq	%rax, -600(%rbp)
.L2020:
	movq	-600(%rbp), %rbx
	leaq	-64(%rbp), %rdi
	call	_ZN3Upp6StringD1Ev
	movq	%rbx, -600(%rbp)
	jmp	.L2021
.L2034:
	movq	%rax, -600(%rbp)
.L2021:
	movq	-600(%rbp), %rbx
	leaq	-48(%rbp), %rdi
	call	_ZN3Upp6StringD1Ev
	movq	%rbx, -600(%rbp)
	jmp	.L2022
.L2035:
	movq	%rax, -600(%rbp)
.L2022:
	movq	-600(%rbp), %rbx
	leaq	-240(%rbp), %rdi
	call	_ZN3Upp7CParser5ErrorD1Ev
	movq	%rbx, -600(%rbp)
.L2037:
.L2023:
	movq	-600(%rbp), %rbx
	call	__cxa_end_catch
	movq	%rbx, -600(%rbp)
	jmp	.L2024
.L2003:
	leaq	-544(%rbp), %rdi
.LEHB400:
	call	_ZN3Upp8FindFile4NextEv
.LEHE400:
	leaq	-224(%rbp), %rdi
	call	_ZN3Upp6StringD1Ev
	jmp	.L1992
.L2042:
	movq	%rax, -600(%rbp)
.L2024:
	movq	-600(%rbp), %rbx
	leaq	-224(%rbp), %rdi
	call	_ZN3Upp6StringD1Ev
	movq	%rbx, -600(%rbp)
	jmp	.L2026
.L1992:
	leaq	-544(%rbp), %rdi
	call	_ZNK3Upp8FindFilecvbEv
	testb	%al, %al
	jne	.L1995
	leaq	-544(%rbp), %rdi
.LEHB401:
	call	_ZN3Upp8FindFileD1Ev
.LEHE401:
	jmp	.L2027
.L2045:
	movq	%rax, -600(%rbp)
.L2026:
	movq	-600(%rbp), %rbx
	leaq	-544(%rbp), %rdi
	call	_ZN3Upp8FindFileD1Ev
	movq	%rbx, -600(%rbp)
	movq	-600(%rbp), %rdi
.LEHB402:
	call	_Unwind_Resume
.LEHE402:
.L2027:
	movq	-24(%rbp), %rax
	xorq	%fs:40, %rax
	je	.L2028
	call	__stack_chk_fail
.L2028:
	addq	$592, %rsp
	popq	%rbx
	popq	%r12
	leave
	ret
.LFE7967:
	.size	_ZN11TemplateDlg8LoadNestEPKcbb, .-_ZN11TemplateDlg8LoadNestEPKcbb
	.section	.gcc_except_table
	.align 4
.LLSDA7967:
	.byte	0xff
	.byte	0x3
	.uleb128 .LLSDATT7967-.LLSDATTD7967
.LLSDATTD7967:
	.byte	0x1
	.uleb128 .LLSDACSE7967-.LLSDACSB7967
.LLSDACSB7967:
	.uleb128 .LEHB380-.LFB7967
	.uleb128 .LEHE380-.LEHB380
	.uleb128 0x0
	.uleb128 0x0
	.uleb128 .LEHB381-.LFB7967
	.uleb128 .LEHE381-.LEHB381
	.uleb128 .L2047-.LFB7967
	.uleb128 0x0
	.uleb128 .LEHB382-.LFB7967
	.uleb128 .LEHE382-.LEHB382
	.uleb128 .L2046-.LFB7967
	.uleb128 0x0
	.uleb128 .LEHB383-.LFB7967
	.uleb128 .LEHE383-.LEHB383
	.uleb128 0x0
	.uleb128 0x0
	.uleb128 .LEHB384-.LFB7967
	.uleb128 .LEHE384-.LEHB384
	.uleb128 .L2045-.LFB7967
	.uleb128 0x0
	.uleb128 .LEHB385-.LFB7967
	.uleb128 .LEHE385-.LEHB385
	.uleb128 .L2044-.LFB7967
	.uleb128 0x0
	.uleb128 .LEHB386-.LFB7967
	.uleb128 .LEHE386-.LEHB386
	.uleb128 .L2043-.LFB7967
	.uleb128 0x0
	.uleb128 .LEHB387-.LFB7967
	.uleb128 .LEHE387-.LEHB387
	.uleb128 .L2042-.LFB7967
	.uleb128 0x0
	.uleb128 .LEHB388-.LFB7967
	.uleb128 .LEHE388-.LEHB388
	.uleb128 .L2041-.LFB7967
	.uleb128 0x0
	.uleb128 .LEHB389-.LFB7967
	.uleb128 .LEHE389-.LEHB389
	.uleb128 .L2040-.LFB7967
	.uleb128 0x0
	.uleb128 .LEHB390-.LFB7967
	.uleb128 .LEHE390-.LEHB390
	.uleb128 .L2039-.LFB7967
	.uleb128 0x3
	.uleb128 .LEHB391-.LFB7967
	.uleb128 .LEHE391-.LEHB391
	.uleb128 .L2038-.LFB7967
	.uleb128 0x3
	.uleb128 .LEHB392-.LFB7967
	.uleb128 .LEHE392-.LEHB392
	.uleb128 .L2039-.LFB7967
	.uleb128 0x3
	.uleb128 .LEHB393-.LFB7967
	.uleb128 .LEHE393-.LEHB393
	.uleb128 .L2036-.LFB7967
	.uleb128 0x5
	.uleb128 .LEHB394-.LFB7967
	.uleb128 .LEHE394-.LEHB394
	.uleb128 .L2035-.LFB7967
	.uleb128 0x0
	.uleb128 .LEHB395-.LFB7967
	.uleb128 .LEHE395-.LEHB395
	.uleb128 .L2034-.LFB7967
	.uleb128 0x0
	.uleb128 .LEHB396-.LFB7967
	.uleb128 .LEHE396-.LEHB396
	.uleb128 .L2033-.LFB7967
	.uleb128 0x0
	.uleb128 .LEHB397-.LFB7967
	.uleb128 .LEHE397-.LEHB397
	.uleb128 .L2032-.LFB7967
	.uleb128 0x0
	.uleb128 .LEHB398-.LFB7967
	.uleb128 .LEHE398-.LEHB398
	.uleb128 .L2031-.LFB7967
	.uleb128 0x0
	.uleb128 .LEHB399-.LFB7967
	.uleb128 .LEHE399-.LEHB399
	.uleb128 .L2042-.LFB7967
	.uleb128 0x0
	.uleb128 .LEHB400-.LFB7967
	.uleb128 .LEHE400-.LEHB400
	.uleb128 .L2042-.LFB7967
	.uleb128 0x0
	.uleb128 .LEHB401-.LFB7967
	.uleb128 .LEHE401-.LEHB401
	.uleb128 0x0
	.uleb128 0x0
	.uleb128 .LEHB402-.LFB7967
	.uleb128 .LEHE402-.LEHB402
	.uleb128 0x0
	.uleb128 0x0
.LLSDACSE7967:
	.byte	0x0
	.byte	0x0
	.byte	0x1
	.byte	0x7d
	.byte	0x7f
	.byte	0x7b
	.align 4
	.long	_ZTIN3Upp7CParser5ErrorE
.LLSDATT7967:
	.byte	0x0
	.text
	.section	.rodata
.LC35:
	.string	"x"
.LC36:
	.string	"<empty>"
	.text
	.align 2
.globl _ZN11TemplateDlg4LoadERKN3Upp6VectorINS0_6StringEEEb
	.type	_ZN11TemplateDlg4LoadERKN3Upp6VectorINS0_6StringEEEb, @function
_ZN11TemplateDlg4LoadERKN3Upp6VectorINS0_6StringEEEb:
.LFB7978:
	pushq	%rbp
.LCFI1298:
	movq	%rsp, %rbp
.LCFI1299:
	pushq	%rbx
.LCFI1300:
	subq	$216, %rsp
.LCFI1301:
	movq	%rdi, -168(%rbp)
	movq	%rsi, -176(%rbp)
	movb	%dl, -180(%rbp)
	movq	%fs:40, %rax
	movq	%rax, -24(%rbp)
	xorl	%eax, %eax
	movq	-168(%rbp), %rdi
	addq	$11400, %rdi
.LEHB403:
	call	_ZN3Upp5ArrayI15PackageTemplateE5ClearEv
	movl	$0, -92(%rbp)
	jmp	.L2049
.L2050:
	movzbl	-180(%rbp), %ebx
	movl	-92(%rbp), %esi
	movq	-176(%rbp), %rdi
	call	_ZNK3Upp6VectorINS_6StringEEixEi
	movq	%rax, %rdi
	call	_ZNK3Upp7AStringINS_7String0EEcvPKcEv
	movq	%rax, %rsi
	movq	-168(%rbp), %rdi
	movl	$1, %ecx
	movl	%ebx, %edx
	call	_ZN11TemplateDlg8LoadNestEPKcbb
	movl	-92(%rbp), %esi
	movq	-176(%rbp), %rdi
	call	_ZNK3Upp6VectorINS_6StringEEixEi
	movq	%rax, %rsi
	leaq	-144(%rbp), %rdi
	call	_ZN3Upp5ValueC1ERKNS_6StringE
.LEHE403:
	movq	-168(%rbp), %rdi
	addq	$1304, %rdi
	leaq	-144(%rbp), %rsi
.LEHB404:
	call	_ZN3Upp8DropList3AddERKNS_5ValueE
.LEHE404:
	leaq	-144(%rbp), %rdi
.LEHB405:
	call	_ZN3Upp5ValueD1Ev
.LEHE405:
	addl	$1, -92(%rbp)
	jmp	.L2049
.L2072:
	movq	%rax, -224(%rbp)
.L2051:
	movq	-224(%rbp), %rbx
	leaq	-144(%rbp), %rdi
	call	_ZN3Upp5ValueD1Ev
	movq	%rbx, -224(%rbp)
	movq	-224(%rbp), %rdi
.LEHB406:
	call	_Unwind_Resume
.L2049:
	movq	-176(%rbp), %rdi
	call	_ZNK3Upp6VectorINS_6StringEE8GetCountEv
	cmpl	-92(%rbp), %eax
	setg	%al
	testb	%al, %al
	jne	.L2050
	movzbl	-180(%rbp), %ebx
	leaq	-80(%rbp), %rdi
	call	_Z11GetLocalDirv
.LEHE406:
	leaq	-80(%rbp), %rdi
	call	_ZNK3Upp7AStringINS_7String0EEcvPKcEv
	movq	%rax, %rsi
	movq	-168(%rbp), %rdi
	movl	$1, %ecx
	movl	%ebx, %edx
.LEHB407:
	call	_ZN11TemplateDlg8LoadNestEPKcbb
.LEHE407:
	leaq	-80(%rbp), %rdi
	call	_ZN3Upp6StringD1Ev
	movzbl	-180(%rbp), %eax
	movl	%eax, -212(%rbp)
	leaq	-48(%rbp), %rdi
	movl	$.LC35, %esi
.LEHB408:
	call	_ZN3Upp10ConfigFileEPKc
.LEHE408:
	leaq	-48(%rbp), %rdi
	call	_ZNK3Upp7AStringINS_7String0EEcvPKcEv
	movq	%rax, %rsi
	leaq	-64(%rbp), %rdi
.LEHB409:
	call	_ZN3Upp13GetFileFolderEPKc
.LEHE409:
	jmp	.L2053
.L2071:
	movq	%rax, -224(%rbp)
.L2054:
	movq	-224(%rbp), %rbx
	leaq	-80(%rbp), %rdi
	call	_ZN3Upp6StringD1Ev
	movq	%rbx, -224(%rbp)
	movq	-224(%rbp), %rdi
.LEHB410:
	call	_Unwind_Resume
.LEHE410:
.L2053:
	leaq	-64(%rbp), %rdi
	call	_ZNK3Upp7AStringINS_7String0EEcvPKcEv
	movq	%rax, %rsi
	movq	-168(%rbp), %rdi
	movl	$0, %ecx
	movl	-212(%rbp), %edx
.LEHB411:
	call	_ZN11TemplateDlg8LoadNestEPKcbb
.LEHE411:
	leaq	-64(%rbp), %rdi
	call	_ZN3Upp6StringD1Ev
	leaq	-48(%rbp), %rdi
	call	_ZN3Upp6StringD1Ev
	movl	$0, %edi
	leaq	-81(%rbp), %rsi
	call	_ZN3Upp13FieldRelationINS_6StringE15PackageTemplateNS_7StdLessIS1_EEEENS_16FieldRelationClsIT_T0_T1_EEMS7_S6_RKS8_
	movq	%rax, -208(%rbp)
	movq	%rdx, -200(%rbp)
	movq	-208(%rbp), %rax
	movq	%rax, -160(%rbp)
	movq	-200(%rbp), %rax
	movq	%rax, -152(%rbp)
	movq	-168(%rbp), %rdi
	addq	$11400, %rdi
	leaq	-160(%rbp), %rsi
.LEHB412:
	call	_ZN3Upp4SortINS_5ArrayI15PackageTemplateEENS_16FieldRelationClsINS_6StringES2_NS_7StdLessIS5_EEEEEEvRT_RKT0_
	movq	-168(%rbp), %rdi
	addq	$5368, %rdi
	call	_ZN3Upp9ArrayCtrl5ClearEv
	leaq	-128(%rbp), %rdi
	movl	$.LC36, %esi
	call	_ZN3Upp5ValueC1EPKc
.LEHE412:
	movq	-168(%rbp), %rdi
	addq	$5368, %rdi
	leaq	-128(%rbp), %rsi
.LEHB413:
	call	_ZN3Upp9ArrayCtrl3AddENS_5ValueE
.LEHE413:
	jmp	.L2055
.L2069:
	movq	%rax, -224(%rbp)
.L2056:
	movq	-224(%rbp), %rbx
	leaq	-64(%rbp), %rdi
	call	_ZN3Upp6StringD1Ev
	movq	%rbx, -224(%rbp)
	jmp	.L2057
.L2070:
	movq	%rax, -224(%rbp)
.L2057:
	movq	-224(%rbp), %rbx
	leaq	-48(%rbp), %rdi
	call	_ZN3Upp6StringD1Ev
	movq	%rbx, -224(%rbp)
	movq	-224(%rbp), %rdi
.LEHB414:
	call	_Unwind_Resume
.L2055:
	leaq	-128(%rbp), %rdi
	call	_ZN3Upp5ValueD1Ev
.LEHE414:
	movl	$0, -88(%rbp)
	jmp	.L2058
.L2068:
	movq	%rax, -224(%rbp)
.L2059:
	movq	-224(%rbp), %rbx
	leaq	-128(%rbp), %rdi
	call	_ZN3Upp5ValueD1Ev
	movq	%rbx, -224(%rbp)
	movq	-224(%rbp), %rdi
.LEHB415:
	call	_Unwind_Resume
.L2060:
	movq	-168(%rbp), %rdi
	addq	$11400, %rdi
	movl	-88(%rbp), %esi
	call	_ZN3Upp5ArrayI15PackageTemplateEixEi
	movq	%rax, %rsi
	leaq	-112(%rbp), %rdi
	call	_ZN3Upp5ValueC1ERKNS_6StringE
.LEHE415:
	movq	-168(%rbp), %rdi
	addq	$5368, %rdi
	leaq	-112(%rbp), %rsi
.LEHB416:
	call	_ZN3Upp9ArrayCtrl3AddENS_5ValueE
.LEHE416:
	leaq	-112(%rbp), %rdi
.LEHB417:
	call	_ZN3Upp5ValueD1Ev
.LEHE417:
	addl	$1, -88(%rbp)
	jmp	.L2058
.L2067:
	movq	%rax, -224(%rbp)
.L2061:
	movq	-224(%rbp), %rbx
	leaq	-112(%rbp), %rdi
	call	_ZN3Upp5ValueD1Ev
	movq	%rbx, -224(%rbp)
	movq	-224(%rbp), %rdi
.LEHB418:
	call	_Unwind_Resume
.L2058:
	movq	-168(%rbp), %rdi
	addq	$11400, %rdi
	call	_ZNK3Upp5ArrayI15PackageTemplateE8GetCountEv
	cmpl	-88(%rbp), %eax
	setg	%al
	testb	%al, %al
	jne	.L2060
	movq	-168(%rbp), %rdi
	addq	$1304, %rdi
	call	_ZNK3Upp8DropList8GetCountEv
	testl	%eax, %eax
	setne	%al
	testb	%al, %al
	je	.L2063
	movq	-168(%rbp), %rdi
	addq	$1304, %rdi
	movl	$0, %esi
	call	_ZN3Upp8DropList8SetIndexEi
.L2063:
	movq	-168(%rbp), %rdi
	addq	$5368, %rdi
	call	_ZN3Upp9ArrayCtrl7GoBeginEv
	movq	-168(%rbp), %rsi
	addq	$656, %rsi
	movq	-168(%rbp), %rdi
	call	_ZN3Upp9TopWindow11ActiveFocusERNS_4CtrlE
.LEHE418:
	movq	-24(%rbp), %rax
	xorq	%fs:40, %rax
	je	.L2066
	call	__stack_chk_fail
.L2066:
	addq	$216, %rsp
	popq	%rbx
	leave
	ret
.LFE7978:
	.size	_ZN11TemplateDlg4LoadERKN3Upp6VectorINS0_6StringEEEb, .-_ZN11TemplateDlg4LoadERKN3Upp6VectorINS0_6StringEEEb
	.section	.gcc_except_table
.LLSDA7978:
	.byte	0xff
	.byte	0xff
	.byte	0x1
	.uleb128 .LLSDACSE7978-.LLSDACSB7978
.LLSDACSB7978:
	.uleb128 .LEHB403-.LFB7978
	.uleb128 .LEHE403-.LEHB403
	.uleb128 0x0
	.uleb128 0x0
	.uleb128 .LEHB404-.LFB7978
	.uleb128 .LEHE404-.LEHB404
	.uleb128 .L2072-.LFB7978
	.uleb128 0x0
	.uleb128 .LEHB405-.LFB7978
	.uleb128 .LEHE405-.LEHB405
	.uleb128 0x0
	.uleb128 0x0
	.uleb128 .LEHB406-.LFB7978
	.uleb128 .LEHE406-.LEHB406
	.uleb128 0x0
	.uleb128 0x0
	.uleb128 .LEHB407-.LFB7978
	.uleb128 .LEHE407-.LEHB407
	.uleb128 .L2071-.LFB7978
	.uleb128 0x0
	.uleb128 .LEHB408-.LFB7978
	.uleb128 .LEHE408-.LEHB408
	.uleb128 0x0
	.uleb128 0x0
	.uleb128 .LEHB409-.LFB7978
	.uleb128 .LEHE409-.LEHB409
	.uleb128 .L2070-.LFB7978
	.uleb128 0x0
	.uleb128 .LEHB410-.LFB7978
	.uleb128 .LEHE410-.LEHB410
	.uleb128 0x0
	.uleb128 0x0
	.uleb128 .LEHB411-.LFB7978
	.uleb128 .LEHE411-.LEHB411
	.uleb128 .L2069-.LFB7978
	.uleb128 0x0
	.uleb128 .LEHB412-.LFB7978
	.uleb128 .LEHE412-.LEHB412
	.uleb128 0x0
	.uleb128 0x0
	.uleb128 .LEHB413-.LFB7978
	.uleb128 .LEHE413-.LEHB413
	.uleb128 .L2068-.LFB7978
	.uleb128 0x0
	.uleb128 .LEHB414-.LFB7978
	.uleb128 .LEHE414-.LEHB414
	.uleb128 0x0
	.uleb128 0x0
	.uleb128 .LEHB415-.LFB7978
	.uleb128 .LEHE415-.LEHB415
	.uleb128 0x0
	.uleb128 0x0
	.uleb128 .LEHB416-.LFB7978
	.uleb128 .LEHE416-.LEHB416
	.uleb128 .L2067-.LFB7978
	.uleb128 0x0
	.uleb128 .LEHB417-.LFB7978
	.uleb128 .LEHE417-.LEHB417
	.uleb128 0x0
	.uleb128 0x0
	.uleb128 .LEHB418-.LFB7978
	.uleb128 .LEHE418-.LEHB418
	.uleb128 0x0
	.uleb128 0x0
.LLSDACSE7978:
	.text
	.weak	_ZGVZN3Upp9RichValueINS_5ColorEE7GetNullEvE1x
	.section	.bss._ZGVZN3Upp9RichValueINS_5ColorEE7GetNullEvE1x,"awG",@nobits,_ZGVZN3Upp9RichValueINS_5ColorEE7GetNullEvE1x,comdat
	.align 8
	.type	_ZGVZN3Upp9RichValueINS_5ColorEE7GetNullEvE1x, @object
	.size	_ZGVZN3Upp9RichValueINS_5ColorEE7GetNullEvE1x, 8
_ZGVZN3Upp9RichValueINS_5ColorEE7GetNullEvE1x:
	.zero	8
	.weak	_ZGVZN3Upp9RichValueINS_4UuidEE7GetNullEvE1x
	.section	.bss._ZGVZN3Upp9RichValueINS_4UuidEE7GetNullEvE1x,"awG",@nobits,_ZGVZN3Upp9RichValueINS_4UuidEE7GetNullEvE1x,comdat
	.align 8
	.type	_ZGVZN3Upp9RichValueINS_4UuidEE7GetNullEvE1x, @object
	.size	_ZGVZN3Upp9RichValueINS_4UuidEE7GetNullEvE1x, 8
_ZGVZN3Upp9RichValueINS_4UuidEE7GetNullEvE1x:
	.zero	8
	.weak	_ZGVZN3Upp9RichValueINS_4FontEE7GetNullEvE1x
	.section	.bss._ZGVZN3Upp9RichValueINS_4FontEE7GetNullEvE1x,"awG",@nobits,_ZGVZN3Upp9RichValueINS_4FontEE7GetNullEvE1x,comdat
	.align 8
	.type	_ZGVZN3Upp9RichValueINS_4FontEE7GetNullEvE1x, @object
	.size	_ZGVZN3Upp9RichValueINS_4FontEE7GetNullEvE1x, 8
_ZGVZN3Upp9RichValueINS_4FontEE7GetNullEvE1x:
	.zero	8
	.weak	_ZTV11TemplateDlg
	.section	.rodata._ZTV11TemplateDlg,"aG",@progbits,_ZTV11TemplateDlg,comdat
	.align 32
	.type	_ZTV11TemplateDlg, @object
	.size	_ZTV11TemplateDlg, 640
_ZTV11TemplateDlg:
	.quad	0
	.quad	_ZTI11TemplateDlg
	.quad	_ZN3Upp9TopWindow9EventProcERNS_4Ctrl7XWindowEP7_XEvent
	.quad	_ZN3Upp4Ctrl8HookProcEP7_XEvent
	.quad	_ZN3Upp9TopWindow6AcceptEv
	.quad	_ZN3Upp9TopWindow6RejectEv
	.quad	_ZN3Upp4Ctrl7SetDataERKNS_5ValueE
	.quad	_ZNK3Upp4Ctrl7GetDataEv
	.quad	_ZN11TemplateDlg9SerializeERN3Upp6StreamE
	.quad	_ZN3Upp4Ctrl9SetModifyEv
	.quad	_ZN3Upp4Ctrl11ClearModifyEv
	.quad	_ZNK3Upp4Ctrl10IsModifiedEv
	.quad	_ZN3Upp9TopWindow5PaintERNS_4DrawE
	.quad	_ZNK3Upp4Ctrl9OverPaintEv
	.quad	_ZN3Upp4Ctrl10CancelModeEv
	.quad	_ZN3Upp9TopWindow8ActivateEv
	.quad	_ZN3Upp9TopWindow10DeactivateEv
	.quad	_ZN3Upp4Ctrl15FrameMouseEventEiNS_6Point_IiEEij
	.quad	_ZN3Upp4Ctrl10MouseEventEiNS_6Point_IiEEij
	.quad	_ZN3Upp4Ctrl10MouseEnterENS_6Point_IiEEj
	.quad	_ZN3Upp4Ctrl9MouseMoveENS_6Point_IiEEj
	.quad	_ZN3Upp4Ctrl8LeftDownENS_6Point_IiEEj
	.quad	_ZN3Upp4Ctrl10LeftDoubleENS_6Point_IiEEj
	.quad	_ZN3Upp4Ctrl10LeftTripleENS_6Point_IiEEj
	.quad	_ZN3Upp4Ctrl10LeftRepeatENS_6Point_IiEEj
	.quad	_ZN3Upp4Ctrl8LeftDragENS_6Point_IiEEj
	.quad	_ZN3Upp4Ctrl8LeftHoldENS_6Point_IiEEj
	.quad	_ZN3Upp4Ctrl6LeftUpENS_6Point_IiEEj
	.quad	_ZN3Upp4Ctrl9RightDownENS_6Point_IiEEj
	.quad	_ZN3Upp4Ctrl11RightDoubleENS_6Point_IiEEj
	.quad	_ZN3Upp4Ctrl11RightTripleENS_6Point_IiEEj
	.quad	_ZN3Upp4Ctrl11RightRepeatENS_6Point_IiEEj
	.quad	_ZN3Upp4Ctrl9RightDragENS_6Point_IiEEj
	.quad	_ZN3Upp4Ctrl9RightHoldENS_6Point_IiEEj
	.quad	_ZN3Upp4Ctrl7RightUpENS_6Point_IiEEj
	.quad	_ZN3Upp4Ctrl10MiddleDownENS_6Point_IiEEj
	.quad	_ZN3Upp4Ctrl12MiddleDoubleENS_6Point_IiEEj
	.quad	_ZN3Upp4Ctrl12MiddleTripleENS_6Point_IiEEj
	.quad	_ZN3Upp4Ctrl12MiddleRepeatENS_6Point_IiEEj
	.quad	_ZN3Upp4Ctrl10MiddleDragENS_6Point_IiEEj
	.quad	_ZN3Upp4Ctrl10MiddleHoldENS_6Point_IiEEj
	.quad	_ZN3Upp4Ctrl8MiddleUpENS_6Point_IiEEj
	.quad	_ZN3Upp4Ctrl10MouseWheelENS_6Point_IiEEij
	.quad	_ZN3Upp4Ctrl10MouseLeaveEv
	.quad	_ZN3Upp4Ctrl11DragAndDropENS_6Point_IiEERNS_9PasteClipE
	.quad	_ZN3Upp4Ctrl16FrameDragAndDropENS_6Point_IiEERNS_9PasteClipE
	.quad	_ZN3Upp4Ctrl10DragRepeatENS_6Point_IiEE
	.quad	_ZN3Upp4Ctrl9DragEnterEv
	.quad	_ZN3Upp4Ctrl9DragLeaveEv
	.quad	_ZNK3Upp4Ctrl11GetDropDataERKNS_6StringE
	.quad	_ZNK3Upp4Ctrl16GetSelectionDataERKNS_6StringE
	.quad	_ZN3Upp4Ctrl11CursorImageENS_6Point_IiEEj
	.quad	_ZN3Upp9TopWindow3KeyEji
	.quad	_ZN3Upp4Ctrl8GotFocusEv
	.quad	_ZN3Upp4Ctrl9LostFocusEv
	.quad	_ZN3Upp4Ctrl6HotKeyEj
	.quad	_ZNK3Upp4Ctrl13GetAccessKeysEv
	.quad	_ZN3Upp4Ctrl16AssignAccessKeysEj
	.quad	_ZN3Upp4Ctrl9PostInputEv
	.quad	_ZN3Upp4Ctrl20ChildFrameMouseEventEPS0_iNS_6Point_IiEEij
	.quad	_ZN3Upp4Ctrl15ChildMouseEventEPS0_iNS_6Point_IiEEij
	.quad	_ZN3Upp9TopWindow13ChildGotFocusEv
	.quad	_ZN3Upp4Ctrl14ChildLostFocusEv
	.quad	_ZN3Upp4Ctrl10ChildAddedEPS0_
	.quad	_ZN3Upp4Ctrl12ChildRemovedEPS0_
	.quad	_ZN3Upp4Ctrl12ParentChangeEv
	.quad	_ZN3Upp4Ctrl5StateEi
	.quad	_ZN3Upp4Ctrl6LayoutEv
	.quad	_ZNK3Upp9TopWindow10GetMinSizeEv
	.quad	_ZNK3Upp9TopWindow10GetStdSizeEv
	.quad	_ZNK3Upp4Ctrl10GetMaxSizeEv
	.quad	_ZNK3Upp9TopWindow13IsShowEnabledEv
	.quad	_ZN3Upp4Ctrl13GetOpaqueRectEv
	.quad	_ZN3Upp4Ctrl11GetVoidRectEv
	.quad	_ZN3Upp4Ctrl7UpdatedEv
	.quad	_ZN3Upp9TopWindow5CloseEv
	.quad	_ZN3Upp4Ctrl10IsOcxChildEv
	.quad	_ZNK3Upp9TopWindow7GetDescEv
	.quad	_ZN11TemplateDlgD1Ev
	.quad	_ZN11TemplateDlgD0Ev
	.weak	_ZTV10AppPreview
	.section	.rodata._ZTV10AppPreview,"aG",@progbits,_ZTV10AppPreview,comdat
	.align 32
	.type	_ZTV10AppPreview, @object
	.size	_ZTV10AppPreview, 640
_ZTV10AppPreview:
	.quad	0
	.quad	_ZTI10AppPreview
	.quad	_ZN3Upp4Ctrl9EventProcERNS0_7XWindowEP7_XEvent
	.quad	_ZN3Upp4Ctrl8HookProcEP7_XEvent
	.quad	_ZN3Upp4Ctrl6AcceptEv
	.quad	_ZN3Upp4Ctrl6RejectEv
	.quad	_ZN3Upp4Ctrl7SetDataERKNS_5ValueE
	.quad	_ZNK3Upp4Ctrl7GetDataEv
	.quad	_ZN3Upp4Ctrl9SerializeERNS_6StreamE
	.quad	_ZN3Upp4Ctrl9SetModifyEv
	.quad	_ZN3Upp4Ctrl11ClearModifyEv
	.quad	_ZNK3Upp4Ctrl10IsModifiedEv
	.quad	_ZN10AppPreview5PaintERN3Upp4DrawE
	.quad	_ZNK3Upp4Ctrl9OverPaintEv
	.quad	_ZN3Upp4Ctrl10CancelModeEv
	.quad	_ZN3Upp4Ctrl8ActivateEv
	.quad	_ZN3Upp4Ctrl10DeactivateEv
	.quad	_ZN3Upp4Ctrl15FrameMouseEventEiNS_6Point_IiEEij
	.quad	_ZN3Upp4Ctrl10MouseEventEiNS_6Point_IiEEij
	.quad	_ZN3Upp4Ctrl10MouseEnterENS_6Point_IiEEj
	.quad	_ZN3Upp4Ctrl9MouseMoveENS_6Point_IiEEj
	.quad	_ZN3Upp4Ctrl8LeftDownENS_6Point_IiEEj
	.quad	_ZN3Upp4Ctrl10LeftDoubleENS_6Point_IiEEj
	.quad	_ZN3Upp4Ctrl10LeftTripleENS_6Point_IiEEj
	.quad	_ZN3Upp4Ctrl10LeftRepeatENS_6Point_IiEEj
	.quad	_ZN3Upp4Ctrl8LeftDragENS_6Point_IiEEj
	.quad	_ZN3Upp4Ctrl8LeftHoldENS_6Point_IiEEj
	.quad	_ZN3Upp4Ctrl6LeftUpENS_6Point_IiEEj
	.quad	_ZN3Upp4Ctrl9RightDownENS_6Point_IiEEj
	.quad	_ZN3Upp4Ctrl11RightDoubleENS_6Point_IiEEj
	.quad	_ZN3Upp4Ctrl11RightTripleENS_6Point_IiEEj
	.quad	_ZN3Upp4Ctrl11RightRepeatENS_6Point_IiEEj
	.quad	_ZN3Upp4Ctrl9RightDragENS_6Point_IiEEj
	.quad	_ZN3Upp4Ctrl9RightHoldENS_6Point_IiEEj
	.quad	_ZN3Upp4Ctrl7RightUpENS_6Point_IiEEj
	.quad	_ZN3Upp4Ctrl10MiddleDownENS_6Point_IiEEj
	.quad	_ZN3Upp4Ctrl12MiddleDoubleENS_6Point_IiEEj
	.quad	_ZN3Upp4Ctrl12MiddleTripleENS_6Point_IiEEj
	.quad	_ZN3Upp4Ctrl12MiddleRepeatENS_6Point_IiEEj
	.quad	_ZN3Upp4Ctrl10MiddleDragENS_6Point_IiEEj
	.quad	_ZN3Upp4Ctrl10MiddleHoldENS_6Point_IiEEj
	.quad	_ZN3Upp4Ctrl8MiddleUpENS_6Point_IiEEj
	.quad	_ZN10AppPreview10MouseWheelEN3Upp6Point_IiEEij
	.quad	_ZN3Upp4Ctrl10MouseLeaveEv
	.quad	_ZN3Upp4Ctrl11DragAndDropENS_6Point_IiEERNS_9PasteClipE
	.quad	_ZN3Upp4Ctrl16FrameDragAndDropENS_6Point_IiEERNS_9PasteClipE
	.quad	_ZN3Upp4Ctrl10DragRepeatENS_6Point_IiEE
	.quad	_ZN3Upp4Ctrl9DragEnterEv
	.quad	_ZN3Upp4Ctrl9DragLeaveEv
	.quad	_ZNK3Upp4Ctrl11GetDropDataERKNS_6StringE
	.quad	_ZNK3Upp4Ctrl16GetSelectionDataERKNS_6StringE
	.quad	_ZN3Upp4Ctrl11CursorImageENS_6Point_IiEEj
	.quad	_ZN3Upp4Ctrl3KeyEji
	.quad	_ZN3Upp4Ctrl8GotFocusEv
	.quad	_ZN3Upp4Ctrl9LostFocusEv
	.quad	_ZN3Upp4Ctrl6HotKeyEj
	.quad	_ZNK3Upp4Ctrl13GetAccessKeysEv
	.quad	_ZN3Upp4Ctrl16AssignAccessKeysEj
	.quad	_ZN3Upp4Ctrl9PostInputEv
	.quad	_ZN3Upp4Ctrl20ChildFrameMouseEventEPS0_iNS_6Point_IiEEij
	.quad	_ZN3Upp4Ctrl15ChildMouseEventEPS0_iNS_6Point_IiEEij
	.quad	_ZN3Upp4Ctrl13ChildGotFocusEv
	.quad	_ZN3Upp4Ctrl14ChildLostFocusEv
	.quad	_ZN3Upp4Ctrl10ChildAddedEPS0_
	.quad	_ZN3Upp4Ctrl12ChildRemovedEPS0_
	.quad	_ZN3Upp4Ctrl12ParentChangeEv
	.quad	_ZN3Upp4Ctrl5StateEi
	.quad	_ZN10AppPreview6LayoutEv
	.quad	_ZNK3Upp4Ctrl10GetMinSizeEv
	.quad	_ZNK3Upp4Ctrl10GetStdSizeEv
	.quad	_ZNK3Upp4Ctrl10GetMaxSizeEv
	.quad	_ZNK3Upp4Ctrl13IsShowEnabledEv
	.quad	_ZN3Upp4Ctrl13GetOpaqueRectEv
	.quad	_ZN3Upp4Ctrl11GetVoidRectEv
	.quad	_ZN3Upp4Ctrl7UpdatedEv
	.quad	_ZN3Upp4Ctrl5CloseEv
	.quad	_ZN3Upp4Ctrl10IsOcxChildEv
	.quad	_ZNK3Upp4Ctrl7GetDescEv
	.quad	_ZN10AppPreviewD1Ev
	.quad	_ZN10AppPreviewD0Ev
	.weak	_ZTS11TemplateDlg
	.section	.rodata._ZTS11TemplateDlg,"aG",@progbits,_ZTS11TemplateDlg,comdat
	.type	_ZTS11TemplateDlg, @object
	.size	_ZTS11TemplateDlg, 14
_ZTS11TemplateDlg:
	.string	"11TemplateDlg"
	.weak	_ZTI11TemplateDlg
	.section	.rodata._ZTI11TemplateDlg,"aG",@progbits,_ZTI11TemplateDlg,comdat
	.align 16
	.type	_ZTI11TemplateDlg, @object
	.size	_ZTI11TemplateDlg, 24
_ZTI11TemplateDlg:
	.quad	_ZTVN10__cxxabiv120__si_class_type_infoE+16
	.quad	_ZTS11TemplateDlg
	.quad	_ZTI20WithNewPackageLayoutIN3Upp9TopWindowEE
	.weak	_ZTS10AppPreview
	.section	.rodata._ZTS10AppPreview,"aG",@progbits,_ZTS10AppPreview,comdat
	.type	_ZTS10AppPreview, @object
	.size	_ZTS10AppPreview, 13
_ZTS10AppPreview:
	.string	"10AppPreview"
	.weak	_ZTI10AppPreview
	.section	.rodata._ZTI10AppPreview,"aG",@progbits,_ZTI10AppPreview,comdat
	.align 16
	.type	_ZTI10AppPreview, @object
	.size	_ZTI10AppPreview, 24
_ZTI10AppPreview:
	.quad	_ZTVN10__cxxabiv120__si_class_type_infoE+16
	.quad	_ZTS10AppPreview
	.quad	_ZTIN3Upp4CtrlE
	.weak	_ZTI20WithNewPackageLayoutIN3Upp9TopWindowEE
	.section	.rodata._ZTI20WithNewPackageLayoutIN3Upp9TopWindowEE,"aG",@progbits,_ZTI20WithNewPackageLayoutIN3Upp9TopWindowEE,comdat
	.align 32
	.type	_ZTI20WithNewPackageLayoutIN3Upp9TopWindowEE, @object
	.size	_ZTI20WithNewPackageLayoutIN3Upp9TopWindowEE, 56
_ZTI20WithNewPackageLayoutIN3Upp9TopWindowEE:
	.quad	_ZTVN10__cxxabiv121__vmi_class_type_infoE+16
	.quad	_ZTS20WithNewPackageLayoutIN3Upp9TopWindowEE
	.long	0
	.long	2
	.quad	_ZTIN3Upp9TopWindowE
	.quad	2
	.quad	_ZTI23NewPackageLayout__layid
	.quad	2
	.weak	_ZTS20WithNewPackageLayoutIN3Upp9TopWindowEE
	.section	.rodata._ZTS20WithNewPackageLayoutIN3Upp9TopWindowEE,"aG",@progbits,_ZTS20WithNewPackageLayoutIN3Upp9TopWindowEE,comdat
	.align 32
	.type	_ZTS20WithNewPackageLayoutIN3Upp9TopWindowEE, @object
	.size	_ZTS20WithNewPackageLayoutIN3Upp9TopWindowEE, 41
_ZTS20WithNewPackageLayoutIN3Upp9TopWindowEE:
	.string	"20WithNewPackageLayoutIN3Upp9TopWindowEE"
	.weak	_ZTI23NewPackageLayout__layid
	.section	.rodata._ZTI23NewPackageLayout__layid,"aG",@progbits,_ZTI23NewPackageLayout__layid,comdat
	.align 16
	.type	_ZTI23NewPackageLayout__layid, @object
	.size	_ZTI23NewPackageLayout__layid, 16
_ZTI23NewPackageLayout__layid:
	.quad	_ZTVN10__cxxabiv117__class_type_infoE+16
	.quad	_ZTS23NewPackageLayout__layid
	.weak	_ZTS23NewPackageLayout__layid
	.section	.rodata._ZTS23NewPackageLayout__layid,"aG",@progbits,_ZTS23NewPackageLayout__layid,comdat
	.align 16
	.type	_ZTS23NewPackageLayout__layid, @object
	.size	_ZTS23NewPackageLayout__layid, 26
_ZTS23NewPackageLayout__layid:
	.string	"23NewPackageLayout__layid"
	.weak	_ZTVN3Upp20CallbackMethodActionINS_13DelayCallbackEMS1_FvvEEE
	.section	.rodata._ZTVN3Upp20CallbackMethodActionINS_13DelayCallbackEMS1_FvvEEE,"aG",@progbits,_ZTVN3Upp20CallbackMethodActionINS_13DelayCallbackEMS1_FvvEEE,comdat
	.align 32
	.type	_ZTVN3Upp20CallbackMethodActionINS_13DelayCallbackEMS1_FvvEEE, @object
	.size	_ZTVN3Upp20CallbackMethodActionINS_13DelayCallbackEMS1_FvvEEE, 48
_ZTVN3Upp20CallbackMethodActionINS_13DelayCallbackEMS1_FvvEEE:
	.quad	0
	.quad	_ZTIN3Upp20CallbackMethodActionINS_13DelayCallbackEMS1_FvvEEE
	.quad	_ZN3Upp20CallbackMethodActionINS_13DelayCallbackEMS1_FvvEE7ExecuteEv
	.quad	_ZNK3Upp14CallbackAction7IsValidEv
	.quad	_ZN3Upp20CallbackMethodActionINS_13DelayCallbackEMS1_FvvEED1Ev
	.quad	_ZN3Upp20CallbackMethodActionINS_13DelayCallbackEMS1_FvvEED0Ev
	.weak	_ZTIN3Upp20CallbackMethodActionINS_13DelayCallbackEMS1_FvvEEE
	.section	.rodata._ZTIN3Upp20CallbackMethodActionINS_13DelayCallbackEMS1_FvvEEE,"aG",@progbits,_ZTIN3Upp20CallbackMethodActionINS_13DelayCallbackEMS1_FvvEEE,comdat
	.align 16
	.type	_ZTIN3Upp20CallbackMethodActionINS_13DelayCallbackEMS1_FvvEEE, @object
	.size	_ZTIN3Upp20CallbackMethodActionINS_13DelayCallbackEMS1_FvvEEE, 24
_ZTIN3Upp20CallbackMethodActionINS_13DelayCallbackEMS1_FvvEEE:
	.quad	_ZTVN10__cxxabiv120__si_class_type_infoE+16
	.quad	_ZTSN3Upp20CallbackMethodActionINS_13DelayCallbackEMS1_FvvEEE
	.quad	_ZTIN3Upp14CallbackActionE
	.weak	_ZTSN3Upp20CallbackMethodActionINS_13DelayCallbackEMS1_FvvEEE
	.section	.rodata._ZTSN3Upp20CallbackMethodActionINS_13DelayCallbackEMS1_FvvEEE,"aG",@progbits,_ZTSN3Upp20CallbackMethodActionINS_13DelayCallbackEMS1_FvvEEE,comdat
	.align 32
	.type	_ZTSN3Upp20CallbackMethodActionINS_13DelayCallbackEMS1_FvvEEE, @object
	.size	_ZTSN3Upp20CallbackMethodActionINS_13DelayCallbackEMS1_FvvEEE, 58
_ZTSN3Upp20CallbackMethodActionINS_13DelayCallbackEMS1_FvvEEE:
	.string	"N3Upp20CallbackMethodActionINS_13DelayCallbackEMS1_FvvEEE"
	.weak	_ZTIN3Upp14CallbackActionE
	.section	.rodata._ZTIN3Upp14CallbackActionE,"aG",@progbits,_ZTIN3Upp14CallbackActionE,comdat
	.align 16
	.type	_ZTIN3Upp14CallbackActionE, @object
	.size	_ZTIN3Upp14CallbackActionE, 16
_ZTIN3Upp14CallbackActionE:
	.quad	_ZTVN10__cxxabiv117__class_type_infoE+16
	.quad	_ZTSN3Upp14CallbackActionE
	.weak	_ZTSN3Upp14CallbackActionE
	.section	.rodata._ZTSN3Upp14CallbackActionE,"aG",@progbits,_ZTSN3Upp14CallbackActionE,comdat
	.align 16
	.type	_ZTSN3Upp14CallbackActionE, @object
	.size	_ZTSN3Upp14CallbackActionE, 23
_ZTSN3Upp14CallbackActionE:
	.string	"N3Upp14CallbackActionE"
	.weak	_ZTVN3Upp14CallbackActionE
	.section	.rodata._ZTVN3Upp14CallbackActionE,"aG",@progbits,_ZTVN3Upp14CallbackActionE,comdat
	.align 32
	.type	_ZTVN3Upp14CallbackActionE, @object
	.size	_ZTVN3Upp14CallbackActionE, 48
_ZTVN3Upp14CallbackActionE:
	.quad	0
	.quad	_ZTIN3Upp14CallbackActionE
	.quad	__cxa_pure_virtual
	.quad	_ZNK3Upp14CallbackAction7IsValidEv
	.quad	_ZN3Upp14CallbackActionD1Ev
	.quad	_ZN3Upp14CallbackActionD0Ev
	.local	_ZGVZN11TemplateDlg14ActualTemplateEvE1t
	.comm	_ZGVZN11TemplateDlg14ActualTemplateEvE1t,8,8
	.local	_ZZN11TemplateDlg14ActualTemplateEvE1t
	.comm	_ZZN11TemplateDlg14ActualTemplateEvE1t,72,32
	.weak	_ZTV20WithNewPackageLayoutIN3Upp9TopWindowEE
	.section	.rodata._ZTV20WithNewPackageLayoutIN3Upp9TopWindowEE,"aG",@progbits,_ZTV20WithNewPackageLayoutIN3Upp9TopWindowEE,comdat
	.align 32
	.type	_ZTV20WithNewPackageLayoutIN3Upp9TopWindowEE, @object
	.size	_ZTV20WithNewPackageLayoutIN3Upp9TopWindowEE, 640
_ZTV20WithNewPackageLayoutIN3Upp9TopWindowEE:
	.quad	0
	.quad	_ZTI20WithNewPackageLayoutIN3Upp9TopWindowEE
	.quad	_ZN3Upp9TopWindow9EventProcERNS_4Ctrl7XWindowEP7_XEvent
	.quad	_ZN3Upp4Ctrl8HookProcEP7_XEvent
	.quad	_ZN3Upp9TopWindow6AcceptEv
	.quad	_ZN3Upp9TopWindow6RejectEv
	.quad	_ZN3Upp4Ctrl7SetDataERKNS_5ValueE
	.quad	_ZNK3Upp4Ctrl7GetDataEv
	.quad	_ZN3Upp4Ctrl9SerializeERNS_6StreamE
	.quad	_ZN3Upp4Ctrl9SetModifyEv
	.quad	_ZN3Upp4Ctrl11ClearModifyEv
	.quad	_ZNK3Upp4Ctrl10IsModifiedEv
	.quad	_ZN3Upp9TopWindow5PaintERNS_4DrawE
	.quad	_ZNK3Upp4Ctrl9OverPaintEv
	.quad	_ZN3Upp4Ctrl10CancelModeEv
	.quad	_ZN3Upp9TopWindow8ActivateEv
	.quad	_ZN3Upp9TopWindow10DeactivateEv
	.quad	_ZN3Upp4Ctrl15FrameMouseEventEiNS_6Point_IiEEij
	.quad	_ZN3Upp4Ctrl10MouseEventEiNS_6Point_IiEEij
	.quad	_ZN3Upp4Ctrl10MouseEnterENS_6Point_IiEEj
	.quad	_ZN3Upp4Ctrl9MouseMoveENS_6Point_IiEEj
	.quad	_ZN3Upp4Ctrl8LeftDownENS_6Point_IiEEj
	.quad	_ZN3Upp4Ctrl10LeftDoubleENS_6Point_IiEEj
	.quad	_ZN3Upp4Ctrl10LeftTripleENS_6Point_IiEEj
	.quad	_ZN3Upp4Ctrl10LeftRepeatENS_6Point_IiEEj
	.quad	_ZN3Upp4Ctrl8LeftDragENS_6Point_IiEEj
	.quad	_ZN3Upp4Ctrl8LeftHoldENS_6Point_IiEEj
	.quad	_ZN3Upp4Ctrl6LeftUpENS_6Point_IiEEj
	.quad	_ZN3Upp4Ctrl9RightDownENS_6Point_IiEEj
	.quad	_ZN3Upp4Ctrl11RightDoubleENS_6Point_IiEEj
	.quad	_ZN3Upp4Ctrl11RightTripleENS_6Point_IiEEj
	.quad	_ZN3Upp4Ctrl11RightRepeatENS_6Point_IiEEj
	.quad	_ZN3Upp4Ctrl9RightDragENS_6Point_IiEEj
	.quad	_ZN3Upp4Ctrl9RightHoldENS_6Point_IiEEj
	.quad	_ZN3Upp4Ctrl7RightUpENS_6Point_IiEEj
	.quad	_ZN3Upp4Ctrl10MiddleDownENS_6Point_IiEEj
	.quad	_ZN3Upp4Ctrl12MiddleDoubleENS_6Point_IiEEj
	.quad	_ZN3Upp4Ctrl12MiddleTripleENS_6Point_IiEEj
	.quad	_ZN3Upp4Ctrl12MiddleRepeatENS_6Point_IiEEj
	.quad	_ZN3Upp4Ctrl10MiddleDragENS_6Point_IiEEj
	.quad	_ZN3Upp4Ctrl10MiddleHoldENS_6Point_IiEEj
	.quad	_ZN3Upp4Ctrl8MiddleUpENS_6Point_IiEEj
	.quad	_ZN3Upp4Ctrl10MouseWheelENS_6Point_IiEEij
	.quad	_ZN3Upp4Ctrl10MouseLeaveEv
	.quad	_ZN3Upp4Ctrl11DragAndDropENS_6Point_IiEERNS_9PasteClipE
	.quad	_ZN3Upp4Ctrl16FrameDragAndDropENS_6Point_IiEERNS_9PasteClipE
	.quad	_ZN3Upp4Ctrl10DragRepeatENS_6Point_IiEE
	.quad	_ZN3Upp4Ctrl9DragEnterEv
	.quad	_ZN3Upp4Ctrl9DragLeaveEv
	.quad	_ZNK3Upp4Ctrl11GetDropDataERKNS_6StringE
	.quad	_ZNK3Upp4Ctrl16GetSelectionDataERKNS_6StringE
	.quad	_ZN3Upp4Ctrl11CursorImageENS_6Point_IiEEj
	.quad	_ZN3Upp9TopWindow3KeyEji
	.quad	_ZN3Upp4Ctrl8GotFocusEv
	.quad	_ZN3Upp4Ctrl9LostFocusEv
	.quad	_ZN3Upp4Ctrl6HotKeyEj
	.quad	_ZNK3Upp4Ctrl13GetAccessKeysEv
	.quad	_ZN3Upp4Ctrl16AssignAccessKeysEj
	.quad	_ZN3Upp4Ctrl9PostInputEv
	.quad	_ZN3Upp4Ctrl20ChildFrameMouseEventEPS0_iNS_6Point_IiEEij
	.quad	_ZN3Upp4Ctrl15ChildMouseEventEPS0_iNS_6Point_IiEEij
	.quad	_ZN3Upp9TopWindow13ChildGotFocusEv
	.quad	_ZN3Upp4Ctrl14ChildLostFocusEv
	.quad	_ZN3Upp4Ctrl10ChildAddedEPS0_
	.quad	_ZN3Upp4Ctrl12ChildRemovedEPS0_
	.quad	_ZN3Upp4Ctrl12ParentChangeEv
	.quad	_ZN3Upp4Ctrl5StateEi
	.quad	_ZN3Upp4Ctrl6LayoutEv
	.quad	_ZNK3Upp9TopWindow10GetMinSizeEv
	.quad	_ZNK3Upp9TopWindow10GetStdSizeEv
	.quad	_ZNK3Upp4Ctrl10GetMaxSizeEv
	.quad	_ZNK3Upp9TopWindow13IsShowEnabledEv
	.quad	_ZN3Upp4Ctrl13GetOpaqueRectEv
	.quad	_ZN3Upp4Ctrl11GetVoidRectEv
	.quad	_ZN3Upp4Ctrl7UpdatedEv
	.quad	_ZN3Upp9TopWindow5CloseEv
	.quad	_ZN3Upp4Ctrl10IsOcxChildEv
	.quad	_ZNK3Upp9TopWindow7GetDescEv
	.quad	_ZN20WithNewPackageLayoutIN3Upp9TopWindowEED1Ev
	.quad	_ZN20WithNewPackageLayoutIN3Upp9TopWindowEED0Ev
	.weak	_ZTVN3Upp10EditStringE
	.section	.rodata._ZTVN3Upp10EditStringE,"aG",@progbits,_ZTVN3Upp10EditStringE,comdat
	.align 32
	.type	_ZTVN3Upp10EditStringE, @object
	.size	_ZTVN3Upp10EditStringE, 760
_ZTVN3Upp10EditStringE:
	.quad	0
	.quad	_ZTIN3Upp10EditStringE
	.quad	_ZN3Upp4Ctrl9EventProcERNS0_7XWindowEP7_XEvent
	.quad	_ZN3Upp4Ctrl8HookProcEP7_XEvent
	.quad	_ZN3Upp4Ctrl6AcceptEv
	.quad	_ZN3Upp4Ctrl6RejectEv
	.quad	_ZN3Upp9EditField7SetDataERKNS_5ValueE
	.quad	_ZNK3Upp9EditField7GetDataEv
	.quad	_ZN3Upp4Ctrl9SerializeERNS_6StreamE
	.quad	_ZN3Upp4Ctrl9SetModifyEv
	.quad	_ZN3Upp4Ctrl11ClearModifyEv
	.quad	_ZNK3Upp4Ctrl10IsModifiedEv
	.quad	_ZN3Upp9EditField5PaintERNS_4DrawE
	.quad	_ZNK3Upp4Ctrl9OverPaintEv
	.quad	_ZN3Upp9EditField10CancelModeEv
	.quad	_ZN3Upp4Ctrl8ActivateEv
	.quad	_ZN3Upp4Ctrl10DeactivateEv
	.quad	_ZN3Upp4Ctrl15FrameMouseEventEiNS_6Point_IiEEij
	.quad	_ZN3Upp4Ctrl10MouseEventEiNS_6Point_IiEEij
	.quad	_ZN3Upp9EditField10MouseEnterENS_6Point_IiEEj
	.quad	_ZN3Upp9EditField9MouseMoveENS_6Point_IiEEj
	.quad	_ZN3Upp9EditField8LeftDownENS_6Point_IiEEj
	.quad	_ZN3Upp9EditField10LeftDoubleENS_6Point_IiEEj
	.quad	_ZN3Upp9EditField10LeftTripleENS_6Point_IiEEj
	.quad	_ZN3Upp4Ctrl10LeftRepeatENS_6Point_IiEEj
	.quad	_ZN3Upp9EditField8LeftDragENS_6Point_IiEEj
	.quad	_ZN3Upp4Ctrl8LeftHoldENS_6Point_IiEEj
	.quad	_ZN3Upp9EditField6LeftUpENS_6Point_IiEEj
	.quad	_ZN3Upp9EditField9RightDownENS_6Point_IiEEj
	.quad	_ZN3Upp4Ctrl11RightDoubleENS_6Point_IiEEj
	.quad	_ZN3Upp4Ctrl11RightTripleENS_6Point_IiEEj
	.quad	_ZN3Upp4Ctrl11RightRepeatENS_6Point_IiEEj
	.quad	_ZN3Upp4Ctrl9RightDragENS_6Point_IiEEj
	.quad	_ZN3Upp4Ctrl9RightHoldENS_6Point_IiEEj
	.quad	_ZN3Upp4Ctrl7RightUpENS_6Point_IiEEj
	.quad	_ZN3Upp9EditField10MiddleDownENS_6Point_IiEEj
	.quad	_ZN3Upp4Ctrl12MiddleDoubleENS_6Point_IiEEj
	.quad	_ZN3Upp4Ctrl12MiddleTripleENS_6Point_IiEEj
	.quad	_ZN3Upp4Ctrl12MiddleRepeatENS_6Point_IiEEj
	.quad	_ZN3Upp4Ctrl10MiddleDragENS_6Point_IiEEj
	.quad	_ZN3Upp4Ctrl10MiddleHoldENS_6Point_IiEEj
	.quad	_ZN3Upp4Ctrl8MiddleUpENS_6Point_IiEEj
	.quad	_ZN3Upp4Ctrl10MouseWheelENS_6Point_IiEEij
	.quad	_ZN3Upp9EditField10MouseLeaveEv
	.quad	_ZN3Upp9EditField11DragAndDropENS_6Point_IiEERNS_9PasteClipE
	.quad	_ZN3Upp4Ctrl16FrameDragAndDropENS_6Point_IiEERNS_9PasteClipE
	.quad	_ZN3Upp9EditField10DragRepeatENS_6Point_IiEE
	.quad	_ZN3Upp4Ctrl9DragEnterEv
	.quad	_ZN3Upp9EditField9DragLeaveEv
	.quad	_ZNK3Upp4Ctrl11GetDropDataERKNS_6StringE
	.quad	_ZNK3Upp9EditField16GetSelectionDataERKNS_6StringE
	.quad	_ZN3Upp9EditField11CursorImageENS_6Point_IiEEj
	.quad	_ZN3Upp9EditField3KeyEji
	.quad	_ZN3Upp9EditField8GotFocusEv
	.quad	_ZN3Upp9EditField9LostFocusEv
	.quad	_ZN3Upp4Ctrl6HotKeyEj
	.quad	_ZNK3Upp4Ctrl13GetAccessKeysEv
	.quad	_ZN3Upp4Ctrl16AssignAccessKeysEj
	.quad	_ZN3Upp4Ctrl9PostInputEv
	.quad	_ZN3Upp4Ctrl20ChildFrameMouseEventEPS0_iNS_6Point_IiEEij
	.quad	_ZN3Upp4Ctrl15ChildMouseEventEPS0_iNS_6Point_IiEEij
	.quad	_ZN3Upp4Ctrl13ChildGotFocusEv
	.quad	_ZN3Upp4Ctrl14ChildLostFocusEv
	.quad	_ZN3Upp4Ctrl10ChildAddedEPS0_
	.quad	_ZN3Upp4Ctrl12ChildRemovedEPS0_
	.quad	_ZN3Upp4Ctrl12ParentChangeEv
	.quad	_ZN3Upp4Ctrl5StateEi
	.quad	_ZN3Upp9EditField6LayoutEv
	.quad	_ZNK3Upp9EditField10GetMinSizeEv
	.quad	_ZNK3Upp4Ctrl10GetStdSizeEv
	.quad	_ZNK3Upp4Ctrl10GetMaxSizeEv
	.quad	_ZNK3Upp4Ctrl13IsShowEnabledEv
	.quad	_ZN3Upp4Ctrl13GetOpaqueRectEv
	.quad	_ZN3Upp4Ctrl11GetVoidRectEv
	.quad	_ZN3Upp4Ctrl7UpdatedEv
	.quad	_ZN3Upp4Ctrl5CloseEv
	.quad	_ZN3Upp4Ctrl10IsOcxChildEv
	.quad	_ZNK3Upp4Ctrl7GetDescEv
	.quad	_ZN3Upp10EditStringD1Ev
	.quad	_ZN3Upp10EditStringD0Ev
	.quad	_ZNK3Upp9EditField9GetLengthEv
	.quad	_ZNK3Upp9EditField7GetCharEi
	.quad	-152
	.quad	_ZTIN3Upp10EditStringE
	.quad	_ZThn152_NK3Upp9EditField9GetLengthEv
	.quad	_ZThn152_NK3Upp9EditField7GetCharEi
	.quad	_ZThn152_N3Upp10EditStringD1Ev
	.quad	_ZThn152_N3Upp10EditStringD0Ev
	.quad	-352
	.quad	_ZTIN3Upp10EditStringE
	.quad	_ZThn352_N3Upp10EditStringD1Ev
	.quad	_ZThn352_N3Upp10EditStringD0Ev
	.quad	_ZNK3Upp7Convert6FormatERKNS_5ValueE
	.quad	_ZNK3Upp13ConvertString4ScanERKNS_5ValueE
	.quad	_ZNK3Upp7Convert6FilterEi
	.weak	_ZTIN3Upp10EditStringE
	.section	.rodata._ZTIN3Upp10EditStringE,"aG",@progbits,_ZTIN3Upp10EditStringE,comdat
	.align 16
	.type	_ZTIN3Upp10EditStringE, @object
	.size	_ZTIN3Upp10EditStringE, 24
_ZTIN3Upp10EditStringE:
	.quad	_ZTVN10__cxxabiv120__si_class_type_infoE+16
	.quad	_ZTSN3Upp10EditStringE
	.quad	_ZTIN3Upp9EditValueINS_7WStringENS_13ConvertStringEEE
	.weak	_ZTSN3Upp10EditStringE
	.section	.rodata._ZTSN3Upp10EditStringE,"aG",@progbits,_ZTSN3Upp10EditStringE,comdat
	.align 16
	.type	_ZTSN3Upp10EditStringE, @object
	.size	_ZTSN3Upp10EditStringE, 19
_ZTSN3Upp10EditStringE:
	.string	"N3Upp10EditStringE"
	.weak	_ZTIN3Upp9EditValueINS_7WStringENS_13ConvertStringEEE
	.section	.rodata._ZTIN3Upp9EditValueINS_7WStringENS_13ConvertStringEEE,"aG",@progbits,_ZTIN3Upp9EditValueINS_7WStringENS_13ConvertStringEEE,comdat
	.align 32
	.type	_ZTIN3Upp9EditValueINS_7WStringENS_13ConvertStringEEE, @object
	.size	_ZTIN3Upp9EditValueINS_7WStringENS_13ConvertStringEEE, 56
_ZTIN3Upp9EditValueINS_7WStringENS_13ConvertStringEEE:
	.quad	_ZTVN10__cxxabiv121__vmi_class_type_infoE+16
	.quad	_ZTSN3Upp9EditValueINS_7WStringENS_13ConvertStringEEE
	.long	0
	.long	2
	.quad	_ZTIN3Upp9EditFieldE
	.quad	2
	.quad	_ZTIN3Upp13ConvertStringE
	.quad	90114
	.weak	_ZTSN3Upp9EditValueINS_7WStringENS_13ConvertStringEEE
	.section	.rodata._ZTSN3Upp9EditValueINS_7WStringENS_13ConvertStringEEE,"aG",@progbits,_ZTSN3Upp9EditValueINS_7WStringENS_13ConvertStringEEE,comdat
	.align 32
	.type	_ZTSN3Upp9EditValueINS_7WStringENS_13ConvertStringEEE, @object
	.size	_ZTSN3Upp9EditValueINS_7WStringENS_13ConvertStringEEE, 50
_ZTSN3Upp9EditValueINS_7WStringENS_13ConvertStringEEE:
	.string	"N3Upp9EditValueINS_7WStringENS_13ConvertStringEEE"
	.weak	_ZTVN3Upp9EditValueINS_7WStringENS_13ConvertStringEEE
	.section	.rodata._ZTVN3Upp9EditValueINS_7WStringENS_13ConvertStringEEE,"aG",@progbits,_ZTVN3Upp9EditValueINS_7WStringENS_13ConvertStringEEE,comdat
	.align 32
	.type	_ZTVN3Upp9EditValueINS_7WStringENS_13ConvertStringEEE, @object
	.size	_ZTVN3Upp9EditValueINS_7WStringENS_13ConvertStringEEE, 760
_ZTVN3Upp9EditValueINS_7WStringENS_13ConvertStringEEE:
	.quad	0
	.quad	_ZTIN3Upp9EditValueINS_7WStringENS_13ConvertStringEEE
	.quad	_ZN3Upp4Ctrl9EventProcERNS0_7XWindowEP7_XEvent
	.quad	_ZN3Upp4Ctrl8HookProcEP7_XEvent
	.quad	_ZN3Upp4Ctrl6AcceptEv
	.quad	_ZN3Upp4Ctrl6RejectEv
	.quad	_ZN3Upp9EditField7SetDataERKNS_5ValueE
	.quad	_ZNK3Upp9EditField7GetDataEv
	.quad	_ZN3Upp4Ctrl9SerializeERNS_6StreamE
	.quad	_ZN3Upp4Ctrl9SetModifyEv
	.quad	_ZN3Upp4Ctrl11ClearModifyEv
	.quad	_ZNK3Upp4Ctrl10IsModifiedEv
	.quad	_ZN3Upp9EditField5PaintERNS_4DrawE
	.quad	_ZNK3Upp4Ctrl9OverPaintEv
	.quad	_ZN3Upp9EditField10CancelModeEv
	.quad	_ZN3Upp4Ctrl8ActivateEv
	.quad	_ZN3Upp4Ctrl10DeactivateEv
	.quad	_ZN3Upp4Ctrl15FrameMouseEventEiNS_6Point_IiEEij
	.quad	_ZN3Upp4Ctrl10MouseEventEiNS_6Point_IiEEij
	.quad	_ZN3Upp9EditField10MouseEnterENS_6Point_IiEEj
	.quad	_ZN3Upp9EditField9MouseMoveENS_6Point_IiEEj
	.quad	_ZN3Upp9EditField8LeftDownENS_6Point_IiEEj
	.quad	_ZN3Upp9EditField10LeftDoubleENS_6Point_IiEEj
	.quad	_ZN3Upp9EditField10LeftTripleENS_6Point_IiEEj
	.quad	_ZN3Upp4Ctrl10LeftRepeatENS_6Point_IiEEj
	.quad	_ZN3Upp9EditField8LeftDragENS_6Point_IiEEj
	.quad	_ZN3Upp4Ctrl8LeftHoldENS_6Point_IiEEj
	.quad	_ZN3Upp9EditField6LeftUpENS_6Point_IiEEj
	.quad	_ZN3Upp9EditField9RightDownENS_6Point_IiEEj
	.quad	_ZN3Upp4Ctrl11RightDoubleENS_6Point_IiEEj
	.quad	_ZN3Upp4Ctrl11RightTripleENS_6Point_IiEEj
	.quad	_ZN3Upp4Ctrl11RightRepeatENS_6Point_IiEEj
	.quad	_ZN3Upp4Ctrl9RightDragENS_6Point_IiEEj
	.quad	_ZN3Upp4Ctrl9RightHoldENS_6Point_IiEEj
	.quad	_ZN3Upp4Ctrl7RightUpENS_6Point_IiEEj
	.quad	_ZN3Upp9EditField10MiddleDownENS_6Point_IiEEj
	.quad	_ZN3Upp4Ctrl12MiddleDoubleENS_6Point_IiEEj
	.quad	_ZN3Upp4Ctrl12MiddleTripleENS_6Point_IiEEj
	.quad	_ZN3Upp4Ctrl12MiddleRepeatENS_6Point_IiEEj
	.quad	_ZN3Upp4Ctrl10MiddleDragENS_6Point_IiEEj
	.quad	_ZN3Upp4Ctrl10MiddleHoldENS_6Point_IiEEj
	.quad	_ZN3Upp4Ctrl8MiddleUpENS_6Point_IiEEj
	.quad	_ZN3Upp4Ctrl10MouseWheelENS_6Point_IiEEij
	.quad	_ZN3Upp9EditField10MouseLeaveEv
	.quad	_ZN3Upp9EditField11DragAndDropENS_6Point_IiEERNS_9PasteClipE
	.quad	_ZN3Upp4Ctrl16FrameDragAndDropENS_6Point_IiEERNS_9PasteClipE
	.quad	_ZN3Upp9EditField10DragRepeatENS_6Point_IiEE
	.quad	_ZN3Upp4Ctrl9DragEnterEv
	.quad	_ZN3Upp9EditField9DragLeaveEv
	.quad	_ZNK3Upp4Ctrl11GetDropDataERKNS_6StringE
	.quad	_ZNK3Upp9EditField16GetSelectionDataERKNS_6StringE
	.quad	_ZN3Upp9EditField11CursorImageENS_6Point_IiEEj
	.quad	_ZN3Upp9EditField3KeyEji
	.quad	_ZN3Upp9EditField8GotFocusEv
	.quad	_ZN3Upp9EditField9LostFocusEv
	.quad	_ZN3Upp4Ctrl6HotKeyEj
	.quad	_ZNK3Upp4Ctrl13GetAccessKeysEv
	.quad	_ZN3Upp4Ctrl16AssignAccessKeysEj
	.quad	_ZN3Upp4Ctrl9PostInputEv
	.quad	_ZN3Upp4Ctrl20ChildFrameMouseEventEPS0_iNS_6Point_IiEEij
	.quad	_ZN3Upp4Ctrl15ChildMouseEventEPS0_iNS_6Point_IiEEij
	.quad	_ZN3Upp4Ctrl13ChildGotFocusEv
	.quad	_ZN3Upp4Ctrl14ChildLostFocusEv
	.quad	_ZN3Upp4Ctrl10ChildAddedEPS0_
	.quad	_ZN3Upp4Ctrl12ChildRemovedEPS0_
	.quad	_ZN3Upp4Ctrl12ParentChangeEv
	.quad	_ZN3Upp4Ctrl5StateEi
	.quad	_ZN3Upp9EditField6LayoutEv
	.quad	_ZNK3Upp9EditField10GetMinSizeEv
	.quad	_ZNK3Upp4Ctrl10GetStdSizeEv
	.quad	_ZNK3Upp4Ctrl10GetMaxSizeEv
	.quad	_ZNK3Upp4Ctrl13IsShowEnabledEv
	.quad	_ZN3Upp4Ctrl13GetOpaqueRectEv
	.quad	_ZN3Upp4Ctrl11GetVoidRectEv
	.quad	_ZN3Upp4Ctrl7UpdatedEv
	.quad	_ZN3Upp4Ctrl5CloseEv
	.quad	_ZN3Upp4Ctrl10IsOcxChildEv
	.quad	_ZNK3Upp4Ctrl7GetDescEv
	.quad	_ZN3Upp9EditValueINS_7WStringENS_13ConvertStringEED1Ev
	.quad	_ZN3Upp9EditValueINS_7WStringENS_13ConvertStringEED0Ev
	.quad	_ZNK3Upp9EditField9GetLengthEv
	.quad	_ZNK3Upp9EditField7GetCharEi
	.quad	-152
	.quad	_ZTIN3Upp9EditValueINS_7WStringENS_13ConvertStringEEE
	.quad	_ZThn152_NK3Upp9EditField9GetLengthEv
	.quad	_ZThn152_NK3Upp9EditField7GetCharEi
	.quad	_ZThn152_N3Upp9EditValueINS_7WStringENS_13ConvertStringEED1Ev
	.quad	_ZThn152_N3Upp9EditValueINS_7WStringENS_13ConvertStringEED0Ev
	.quad	-352
	.quad	_ZTIN3Upp9EditValueINS_7WStringENS_13ConvertStringEEE
	.quad	_ZThn352_N3Upp9EditValueINS_7WStringENS_13ConvertStringEED1Ev
	.quad	_ZThn352_N3Upp9EditValueINS_7WStringENS_13ConvertStringEED0Ev
	.quad	_ZNK3Upp7Convert6FormatERKNS_5ValueE
	.quad	_ZNK3Upp13ConvertString4ScanERKNS_5ValueE
	.quad	_ZNK3Upp7Convert6FilterEi
	.weak	_ZTVN3Upp20CallbackMethodActionI11TemplateDlgMS1_FvvEEE
	.section	.rodata._ZTVN3Upp20CallbackMethodActionI11TemplateDlgMS1_FvvEEE,"aG",@progbits,_ZTVN3Upp20CallbackMethodActionI11TemplateDlgMS1_FvvEEE,comdat
	.align 32
	.type	_ZTVN3Upp20CallbackMethodActionI11TemplateDlgMS1_FvvEEE, @object
	.size	_ZTVN3Upp20CallbackMethodActionI11TemplateDlgMS1_FvvEEE, 48
_ZTVN3Upp20CallbackMethodActionI11TemplateDlgMS1_FvvEEE:
	.quad	0
	.quad	_ZTIN3Upp20CallbackMethodActionI11TemplateDlgMS1_FvvEEE
	.quad	_ZN3Upp20CallbackMethodActionI11TemplateDlgMS1_FvvEE7ExecuteEv
	.quad	_ZNK3Upp14CallbackAction7IsValidEv
	.quad	_ZN3Upp20CallbackMethodActionI11TemplateDlgMS1_FvvEED1Ev
	.quad	_ZN3Upp20CallbackMethodActionI11TemplateDlgMS1_FvvEED0Ev
	.weak	_ZTIN3Upp20CallbackMethodActionI11TemplateDlgMS1_FvvEEE
	.section	.rodata._ZTIN3Upp20CallbackMethodActionI11TemplateDlgMS1_FvvEEE,"aG",@progbits,_ZTIN3Upp20CallbackMethodActionI11TemplateDlgMS1_FvvEEE,comdat
	.align 16
	.type	_ZTIN3Upp20CallbackMethodActionI11TemplateDlgMS1_FvvEEE, @object
	.size	_ZTIN3Upp20CallbackMethodActionI11TemplateDlgMS1_FvvEEE, 24
_ZTIN3Upp20CallbackMethodActionI11TemplateDlgMS1_FvvEEE:
	.quad	_ZTVN10__cxxabiv120__si_class_type_infoE+16
	.quad	_ZTSN3Upp20CallbackMethodActionI11TemplateDlgMS1_FvvEEE
	.quad	_ZTIN3Upp14CallbackActionE
	.weak	_ZTSN3Upp20CallbackMethodActionI11TemplateDlgMS1_FvvEEE
	.section	.rodata._ZTSN3Upp20CallbackMethodActionI11TemplateDlgMS1_FvvEEE,"aG",@progbits,_ZTSN3Upp20CallbackMethodActionI11TemplateDlgMS1_FvvEEE,comdat
	.align 32
	.type	_ZTSN3Upp20CallbackMethodActionI11TemplateDlgMS1_FvvEEE, @object
	.size	_ZTSN3Upp20CallbackMethodActionI11TemplateDlgMS1_FvvEEE, 52
_ZTSN3Upp20CallbackMethodActionI11TemplateDlgMS1_FvvEEE:
	.string	"N3Upp20CallbackMethodActionI11TemplateDlgMS1_FvvEEE"
	.weak	_ZTVN3Upp20CallbackMethodActionI10AppPreviewMS1_FvvEEE
	.section	.rodata._ZTVN3Upp20CallbackMethodActionI10AppPreviewMS1_FvvEEE,"aG",@progbits,_ZTVN3Upp20CallbackMethodActionI10AppPreviewMS1_FvvEEE,comdat
	.align 32
	.type	_ZTVN3Upp20CallbackMethodActionI10AppPreviewMS1_FvvEEE, @object
	.size	_ZTVN3Upp20CallbackMethodActionI10AppPreviewMS1_FvvEEE, 48
_ZTVN3Upp20CallbackMethodActionI10AppPreviewMS1_FvvEEE:
	.quad	0
	.quad	_ZTIN3Upp20CallbackMethodActionI10AppPreviewMS1_FvvEEE
	.quad	_ZN3Upp20CallbackMethodActionI10AppPreviewMS1_FvvEE7ExecuteEv
	.quad	_ZNK3Upp14CallbackAction7IsValidEv
	.quad	_ZN3Upp20CallbackMethodActionI10AppPreviewMS1_FvvEED1Ev
	.quad	_ZN3Upp20CallbackMethodActionI10AppPreviewMS1_FvvEED0Ev
	.weak	_ZTIN3Upp20CallbackMethodActionI10AppPreviewMS1_FvvEEE
	.section	.rodata._ZTIN3Upp20CallbackMethodActionI10AppPreviewMS1_FvvEEE,"aG",@progbits,_ZTIN3Upp20CallbackMethodActionI10AppPreviewMS1_FvvEEE,comdat
	.align 16
	.type	_ZTIN3Upp20CallbackMethodActionI10AppPreviewMS1_FvvEEE, @object
	.size	_ZTIN3Upp20CallbackMethodActionI10AppPreviewMS1_FvvEEE, 24
_ZTIN3Upp20CallbackMethodActionI10AppPreviewMS1_FvvEEE:
	.quad	_ZTVN10__cxxabiv120__si_class_type_infoE+16
	.quad	_ZTSN3Upp20CallbackMethodActionI10AppPreviewMS1_FvvEEE
	.quad	_ZTIN3Upp14CallbackActionE
	.weak	_ZTSN3Upp20CallbackMethodActionI10AppPreviewMS1_FvvEEE
	.section	.rodata._ZTSN3Upp20CallbackMethodActionI10AppPreviewMS1_FvvEEE,"aG",@progbits,_ZTSN3Upp20CallbackMethodActionI10AppPreviewMS1_FvvEEE,comdat
	.align 32
	.type	_ZTSN3Upp20CallbackMethodActionI10AppPreviewMS1_FvvEEE, @object
	.size	_ZTSN3Upp20CallbackMethodActionI10AppPreviewMS1_FvvEEE, 51
_ZTSN3Upp20CallbackMethodActionI10AppPreviewMS1_FvvEEE:
	.string	"N3Upp20CallbackMethodActionI10AppPreviewMS1_FvvEEE"
	.weak	_ZTVN3Upp6FileInE
	.section	.rodata._ZTVN3Upp6FileInE,"aG",@progbits,_ZTVN3Upp6FileInE,comdat
	.align 32
	.type	_ZTVN3Upp6FileInE, @object
	.size	_ZTVN3Upp6FileInE, 144
_ZTVN3Upp6FileInE:
	.quad	0
	.quad	_ZTIN3Upp6FileInE
	.quad	_ZN3Upp11BlockStream4_PutEi
	.quad	_ZN3Upp11BlockStream5_TermEv
	.quad	_ZN3Upp11BlockStream4_GetEv
	.quad	_ZN3Upp11BlockStream4_PutEPKvj
	.quad	_ZN3Upp11BlockStream4_GetEPvj
	.quad	_ZN3Upp11BlockStream4SeekEx
	.quad	_ZNK3Upp11BlockStream7GetSizeEv
	.quad	_ZN3Upp11BlockStream7SetSizeEx
	.quad	_ZN3Upp11BlockStream5FlushEv
	.quad	_ZN3Upp10FileStream5CloseEv
	.quad	_ZNK3Upp10FileStream6IsOpenEv
	.quad	_ZN3Upp6FileInD1Ev
	.quad	_ZN3Upp6FileInD0Ev
	.quad	_ZN3Upp10FileStream4ReadExPvj
	.quad	_ZN3Upp10FileStream5WriteExPKvj
	.quad	_ZN3Upp10FileStream13SetStreamSizeEx
	.weak	_ZTIN3Upp6FileInE
	.section	.rodata._ZTIN3Upp6FileInE,"aG",@progbits,_ZTIN3Upp6FileInE,comdat
	.align 16
	.type	_ZTIN3Upp6FileInE, @object
	.size	_ZTIN3Upp6FileInE, 24
_ZTIN3Upp6FileInE:
	.quad	_ZTVN10__cxxabiv120__si_class_type_infoE+16
	.quad	_ZTSN3Upp6FileInE
	.quad	_ZTIN3Upp10FileStreamE
	.weak	_ZTSN3Upp6FileInE
	.section	.rodata._ZTSN3Upp6FileInE,"aG",@progbits,_ZTSN3Upp6FileInE,comdat
	.type	_ZTSN3Upp6FileInE, @object
	.size	_ZTSN3Upp6FileInE, 14
_ZTSN3Upp6FileInE:
	.string	"N3Upp6FileInE"
	.section	.rodata
.LC37:
	.string	"id"
.LC38:
	.string	"filename"
.LC39:
	.string	"option"
.LC40:
	.string	"select"
.LC41:
	.string	"text"
	.data
	.align 32
	.type	_ZZ16ReadTemplateTypeRN3Upp7CParserEE2nm, @object
	.size	_ZZ16ReadTemplateTypeRN3Upp7CParserEE2nm, 40
_ZZ16ReadTemplateTypeRN3Upp7CParserEE2nm:
	.quad	.LC37
	.quad	.LC38
	.quad	.LC39
	.quad	.LC40
	.quad	.LC41
	.weak	_ZTIN3Upp7CParser5ErrorE
	.section	.rodata._ZTIN3Upp7CParser5ErrorE,"aG",@progbits,_ZTIN3Upp7CParser5ErrorE,comdat
	.align 16
	.type	_ZTIN3Upp7CParser5ErrorE, @object
	.size	_ZTIN3Upp7CParser5ErrorE, 24
_ZTIN3Upp7CParser5ErrorE:
	.quad	_ZTVN10__cxxabiv120__si_class_type_infoE+16
	.quad	_ZTSN3Upp7CParser5ErrorE
	.quad	_ZTIN3Upp3ExcE
	.weak	_ZTSN3Upp7CParser5ErrorE
	.section	.rodata._ZTSN3Upp7CParser5ErrorE,"aG",@progbits,_ZTSN3Upp7CParser5ErrorE,comdat
	.align 16
	.type	_ZTSN3Upp7CParser5ErrorE, @object
	.size	_ZTSN3Upp7CParser5ErrorE, 21
_ZTSN3Upp7CParser5ErrorE:
	.string	"N3Upp7CParser5ErrorE"
	.weak	_ZTIN3Upp3ExcE
	.section	.rodata._ZTIN3Upp3ExcE,"aG",@progbits,_ZTIN3Upp3ExcE,comdat
	.align 16
	.type	_ZTIN3Upp3ExcE, @object
	.size	_ZTIN3Upp3ExcE, 24
_ZTIN3Upp3ExcE:
	.quad	_ZTVN10__cxxabiv120__si_class_type_infoE+16
	.quad	_ZTSN3Upp3ExcE
	.quad	_ZTIN3Upp6StringE
	.weak	_ZTSN3Upp3ExcE
	.section	.rodata._ZTSN3Upp3ExcE,"aG",@progbits,_ZTSN3Upp3ExcE,comdat
	.type	_ZTSN3Upp3ExcE, @object
	.size	_ZTSN3Upp3ExcE, 11
_ZTSN3Upp3ExcE:
	.string	"N3Upp3ExcE"
	.weak	_ZTIN3Upp6StringE
	.section	.rodata._ZTIN3Upp6StringE,"aG",@progbits,_ZTIN3Upp6StringE,comdat
	.align 16
	.type	_ZTIN3Upp6StringE, @object
	.size	_ZTIN3Upp6StringE, 24
_ZTIN3Upp6StringE:
	.quad	_ZTVN10__cxxabiv120__si_class_type_infoE+16
	.quad	_ZTSN3Upp6StringE
	.quad	_ZTIN3Upp8MoveableINS_6StringENS_7AStringINS_7String0EEEEE
	.weak	_ZTSN3Upp6StringE
	.section	.rodata._ZTSN3Upp6StringE,"aG",@progbits,_ZTSN3Upp6StringE,comdat
	.type	_ZTSN3Upp6StringE, @object
	.size	_ZTSN3Upp6StringE, 14
_ZTSN3Upp6StringE:
	.string	"N3Upp6StringE"
	.weak	_ZTIN3Upp8MoveableINS_6StringENS_7AStringINS_7String0EEEEE
	.section	.rodata._ZTIN3Upp8MoveableINS_6StringENS_7AStringINS_7String0EEEEE,"aG",@progbits,_ZTIN3Upp8MoveableINS_6StringENS_7AStringINS_7String0EEEEE,comdat
	.align 16
