	.file	"UppWspc.cpp"
	.section	.text._ZnwmPv,"axG",@progbits,_ZnwmPv,comdat
	.align 2
	.weak	_ZnwmPv
	.type	_ZnwmPv, @function
_ZnwmPv:
.LFB214:
	pushq	%rbp
.LCFI0:
	movq	%rsp, %rbp
.LCFI1:
	movq	%rdi, -8(%rbp)
	movq	%rsi, -16(%rbp)
	movq	-16(%rbp), %rax
	leave
	ret
.LFE214:
	.size	_ZnwmPv, .-_ZnwmPv
.globl __gxx_personality_v0
	.section	.text._ZdlPvS_,"axG",@progbits,_ZdlPvS_,comdat
	.align 2
	.weak	_ZdlPvS_
	.type	_ZdlPvS_, @function
_ZdlPvS_:
.LFB216:
	pushq	%rbp
.LCFI2:
	movq	%rsp, %rbp
.LCFI3:
	movq	%rdi, -8(%rbp)
	movq	%rsi, -16(%rbp)
	leave
	ret
.LFE216:
	.size	_ZdlPvS_, .-_ZdlPvS_
	.section	.text._ZN3Upp9AtomicIncERVi,"axG",@progbits,_ZN3Upp9AtomicIncERVi,comdat
	.align 2
	.weak	_ZN3Upp9AtomicIncERVi
	.type	_ZN3Upp9AtomicIncERVi, @function
_ZN3Upp9AtomicIncERVi:
.LFB943:
	pushq	%rbp
.LCFI4:
	movq	%rsp, %rbp
.LCFI5:
	movq	%rdi, -8(%rbp)
	movq	-8(%rbp), %rax
	movl	(%rax), %eax
	leal	1(%rax), %edx
	movq	-8(%rbp), %rax
	movl	%edx, (%rax)
	movq	-8(%rbp), %rax
	movl	(%rax), %eax
	leave
	ret
.LFE943:
	.size	_ZN3Upp9AtomicIncERVi, .-_ZN3Upp9AtomicIncERVi
	.section	.text._ZN3Upp9AtomicDecERVi,"axG",@progbits,_ZN3Upp9AtomicDecERVi,comdat
	.align 2
	.weak	_ZN3Upp9AtomicDecERVi
	.type	_ZN3Upp9AtomicDecERVi, @function
_ZN3Upp9AtomicDecERVi:
.LFB944:
	pushq	%rbp
.LCFI6:
	movq	%rsp, %rbp
.LCFI7:
	movq	%rdi, -8(%rbp)
	movq	-8(%rbp), %rax
	movl	(%rax), %eax
	leal	-1(%rax), %edx
	movq	-8(%rbp), %rax
	movl	%edx, (%rax)
	movq	-8(%rbp), %rax
	movl	(%rax), %eax
	leave
	ret
.LFE944:
	.size	_ZN3Upp9AtomicDecERVi, .-_ZN3Upp9AtomicDecERVi
	.section	.text._ZN3Upp11CombineHash3PutEj,"axG",@progbits,_ZN3Upp11CombineHash3PutEj,comdat
	.align 2
	.weak	_ZN3Upp11CombineHash3PutEj
	.type	_ZN3Upp11CombineHash3PutEj, @function
_ZN3Upp11CombineHash3PutEj:
.LFB1116:
	pushq	%rbp
.LCFI8:
	movq	%rsp, %rbp
.LCFI9:
	movq	%rdi, -8(%rbp)
	movl	%esi, -12(%rbp)
	movq	-8(%rbp), %rax
	movl	(%rax), %eax
	movl	%eax, %edx
	sall	$4, %edx
	movq	-8(%rbp), %rax
	movl	(%rax), %eax
	leal	(%rdx,%rax), %eax
	movl	%eax, %edx
	xorl	-12(%rbp), %edx
	movq	-8(%rbp), %rax
	movl	%edx, (%rax)
	movq	-8(%rbp), %rax
	leave
	ret
.LFE1116:
	.size	_ZN3Upp11CombineHash3PutEj, .-_ZN3Upp11CombineHash3PutEj
	.section	.text._ZNK3Upp11CombineHashcvjEv,"axG",@progbits,_ZNK3Upp11CombineHashcvjEv,comdat
	.align 2
	.weak	_ZNK3Upp11CombineHashcvjEv
	.type	_ZNK3Upp11CombineHashcvjEv, @function
_ZNK3Upp11CombineHashcvjEv:
.LFB1117:
	pushq	%rbp
.LCFI10:
	movq	%rsp, %rbp
.LCFI11:
	movq	%rdi, -8(%rbp)
	movq	-8(%rbp), %rax
	movl	(%rax), %eax
	leave
	ret
.LFE1117:
	.size	_ZNK3Upp11CombineHashcvjEv, .-_ZNK3Upp11CombineHashcvjEv
	.section	.text._ZN3Upp12GetHashValueIjEEjRKT_,"axG",@progbits,_ZN3Upp12GetHashValueIjEEjRKT_,comdat
	.align 2
	.weak	_ZN3Upp12GetHashValueIjEEjRKT_
	.type	_ZN3Upp12GetHashValueIjEEjRKT_, @function
_ZN3Upp12GetHashValueIjEEjRKT_:
.LFB1132:
	pushq	%rbp
.LCFI12:
	movq	%rsp, %rbp
.LCFI13:
	movq	%rdi, -8(%rbp)
	movq	-8(%rbp), %rax
	movl	(%rax), %eax
	leave
	ret
.LFE1132:
	.size	_ZN3Upp12GetHashValueIjEEjRKT_, .-_ZN3Upp12GetHashValueIjEEjRKT_
	.section	.text._ZN3Upp8cmpval__Ec,"axG",@progbits,_ZN3Upp8cmpval__Ec,comdat
	.align 2
	.weak	_ZN3Upp8cmpval__Ec
	.type	_ZN3Upp8cmpval__Ec, @function
_ZN3Upp8cmpval__Ec:
.LFB1161:
	pushq	%rbp
.LCFI14:
	movq	%rsp, %rbp
.LCFI15:
	movb	%dil, -4(%rbp)
	movzbl	-4(%rbp), %eax
	movzbl	%al, %eax
	leave
	ret
.LFE1161:
	.size	_ZN3Upp8cmpval__Ec, .-_ZN3Upp8cmpval__Ec
	.section	.text._ZN3Upp7String04DsynEv,"axG",@progbits,_ZN3Upp7String04DsynEv,comdat
	.align 2
	.weak	_ZN3Upp7String04DsynEv
	.type	_ZN3Upp7String04DsynEv, @function
_ZN3Upp7String04DsynEv:
.LFB1225:
	pushq	%rbp
.LCFI16:
	movq	%rsp, %rbp
.LCFI17:
	movq	%rdi, -8(%rbp)
	leave
	ret
.LFE1225:
	.size	_ZN3Upp7String04DsynEv, .-_ZN3Upp7String04DsynEv
	.section	.text._ZN3Upp7String04SLenEv,"axG",@progbits,_ZN3Upp7String04SLenEv,comdat
	.align 2
	.weak	_ZN3Upp7String04SLenEv
	.type	_ZN3Upp7String04SLenEv, @function
_ZN3Upp7String04SLenEv:
.LFB1226:
	pushq	%rbp
.LCFI18:
	movq	%rsp, %rbp
.LCFI19:
	movq	%rdi, -8(%rbp)
	movq	-8(%rbp), %rax
	addq	$15, %rax
	leave
	ret
.LFE1226:
	.size	_ZN3Upp7String04SLenEv, .-_ZN3Upp7String04SLenEv
	.section	.text._ZNK3Upp7String07IsSmallEv,"axG",@progbits,_ZNK3Upp7String07IsSmallEv,comdat
	.align 2
	.weak	_ZNK3Upp7String07IsSmallEv
	.type	_ZNK3Upp7String07IsSmallEv, @function
_ZNK3Upp7String07IsSmallEv:
.LFB1230:
	pushq	%rbp
.LCFI20:
	movq	%rsp, %rbp
.LCFI21:
	movq	%rdi, -8(%rbp)
	movq	-8(%rbp), %rax
	movzbl	14(%rax), %eax
	testb	%al, %al
	sete	%al
	movzbl	%al, %eax
	leave
	ret
.LFE1230:
	.size	_ZNK3Upp7String07IsSmallEv, .-_ZNK3Upp7String07IsSmallEv
	.section	.text._ZNK3Upp7String07IsLargeEv,"axG",@progbits,_ZNK3Upp7String07IsLargeEv,comdat
	.align 2
	.weak	_ZNK3Upp7String07IsLargeEv
	.type	_ZNK3Upp7String07IsLargeEv, @function
_ZNK3Upp7String07IsLargeEv:
.LFB1231:
	pushq	%rbp
.LCFI22:
	movq	%rsp, %rbp
.LCFI23:
	movq	%rdi, -8(%rbp)
	movq	-8(%rbp), %rax
	movzbl	14(%rax), %eax
	testb	%al, %al
	setne	%al
	movzbl	%al, %eax
	leave
	ret
.LFE1231:
	.size	_ZNK3Upp7String07IsLargeEv, .-_ZNK3Upp7String07IsLargeEv
	.section	.text._ZN3Upp7String04ZeroEv,"axG",@progbits,_ZN3Upp7String04ZeroEv,comdat
	.align 2
	.weak	_ZN3Upp7String04ZeroEv
	.type	_ZN3Upp7String04ZeroEv, @function
_ZN3Upp7String04ZeroEv:
.LFB1240:
	pushq	%rbp
.LCFI24:
	movq	%rsp, %rbp
.LCFI25:
	subq	$16, %rsp
.LCFI26:
	movq	%rdi, -8(%rbp)
	movq	-8(%rbp), %rax
	movq	$0, 8(%rax)
	movq	-8(%rbp), %rax
	movq	8(%rax), %rdx
	movq	-8(%rbp), %rax
	movq	%rdx, (%rax)
	movq	-8(%rbp), %rdi
	call	_ZN3Upp7String04DsynEv
	leave
	ret
.LFE1240:
	.size	_ZN3Upp7String04ZeroEv, .-_ZN3Upp7String04ZeroEv
	.section	.text._ZNK3Upp7String05BeginEv,"axG",@progbits,_ZNK3Upp7String05BeginEv,comdat
	.align 2
	.weak	_ZNK3Upp7String05BeginEv
	.type	_ZNK3Upp7String05BeginEv, @function
_ZNK3Upp7String05BeginEv:
.LFB1247:
	pushq	%rbp
.LCFI27:
	movq	%rsp, %rbp
.LCFI28:
	subq	$16, %rsp
.LCFI29:
	movq	%rdi, -8(%rbp)
	movq	-8(%rbp), %rdi
	call	_ZNK3Upp7String07IsSmallEv
	testb	%al, %al
	je	.L28
	movq	-8(%rbp), %rax
	movq	%rax, -16(%rbp)
	jmp	.L30
.L28:
	movq	-8(%rbp), %rax
	movq	(%rax), %rax
	movq	%rax, -16(%rbp)
.L30:
	movq	-16(%rbp), %rax
	leave
	ret
.LFE1247:
	.size	_ZNK3Upp7String05BeginEv, .-_ZNK3Upp7String05BeginEv
	.section	.text._ZNK3Upp7String08GetCountEv,"axG",@progbits,_ZNK3Upp7String08GetCountEv,comdat
	.align 2
	.weak	_ZNK3Upp7String08GetCountEv
	.type	_ZNK3Upp7String08GetCountEv, @function
_ZNK3Upp7String08GetCountEv:
.LFB1253:
	pushq	%rbp
.LCFI30:
	movq	%rsp, %rbp
.LCFI31:
	subq	$16, %rsp
.LCFI32:
	movq	%rdi, -8(%rbp)
	movq	-8(%rbp), %rdi
	call	_ZNK3Upp7String07IsSmallEv
	testb	%al, %al
	je	.L33
	movq	-8(%rbp), %rax
	movzbl	15(%rax), %eax
	movsbl	%al,%eax
	movl	%eax, -12(%rbp)
	jmp	.L35
.L33:
	movq	-8(%rbp), %rax
	movl	8(%rax), %eax
	movl	%eax, -12(%rbp)
.L35:
	movl	-12(%rbp), %eax
	leave
	ret
.LFE1253:
	.size	_ZNK3Upp7String08GetCountEv, .-_ZNK3Upp7String08GetCountEv
	.section	.text._ZN3Upp8MoveableINS_7String0ENS_10EmptyClassEEC2Ev,"axG",@progbits,_ZN3Upp8MoveableINS_7String0ENS_10EmptyClassEEC2Ev,comdat
	.align 2
	.weak	_ZN3Upp8MoveableINS_7String0ENS_10EmptyClassEEC2Ev
	.type	_ZN3Upp8MoveableINS_7String0ENS_10EmptyClassEEC2Ev, @function
_ZN3Upp8MoveableINS_7String0ENS_10EmptyClassEEC2Ev:
.LFB1259:
	pushq	%rbp
.LCFI33:
	movq	%rsp, %rbp
.LCFI34:
	movq	%rdi, -8(%rbp)
	leave
	ret
.LFE1259:
	.size	_ZN3Upp8MoveableINS_7String0ENS_10EmptyClassEEC2Ev, .-_ZN3Upp8MoveableINS_7String0ENS_10EmptyClassEEC2Ev
	.section	.text._ZN3Upp7String0C2Ev,"axG",@progbits,_ZN3Upp7String0C2Ev,comdat
	.align 2
	.weak	_ZN3Upp7String0C2Ev
	.type	_ZN3Upp7String0C2Ev, @function
_ZN3Upp7String0C2Ev:
.LFB1261:
	pushq	%rbp
.LCFI35:
	movq	%rsp, %rbp
.LCFI36:
	subq	$16, %rsp
.LCFI37:
	movq	%rdi, -8(%rbp)
	movq	-8(%rbp), %rdi
	call	_ZN3Upp8MoveableINS_7String0ENS_10EmptyClassEEC2Ev
	movq	-8(%rbp), %rdi
	call	_ZN3Upp7String04ZeroEv
	leave
	ret
.LFE1261:
	.size	_ZN3Upp7String0C2Ev, .-_ZN3Upp7String0C2Ev
	.section	.text._ZN3Upp7AStringINS_7String0EEC2Ev,"axG",@progbits,_ZN3Upp7AStringINS_7String0EEC2Ev,comdat
	.align 2
	.weak	_ZN3Upp7AStringINS_7String0EEC2Ev
	.type	_ZN3Upp7AStringINS_7String0EEC2Ev, @function
_ZN3Upp7AStringINS_7String0EEC2Ev:
.LFB1286:
	pushq	%rbp
.LCFI38:
	movq	%rsp, %rbp
.LCFI39:
	subq	$16, %rsp
.LCFI40:
	movq	%rdi, -8(%rbp)
	movq	-8(%rbp), %rdi
	call	_ZN3Upp7String0C2Ev
	leave
	ret
.LFE1286:
	.size	_ZN3Upp7AStringINS_7String0EEC2Ev, .-_ZN3Upp7AStringINS_7String0EEC2Ev
	.section	.text._ZN3Upp8MoveableINS_6StringENS_7AStringINS_7String0EEEEC2Ev,"axG",@progbits,_ZN3Upp8MoveableINS_6StringENS_7AStringINS_7String0EEEEC2Ev,comdat
	.align 2
	.weak	_ZN3Upp8MoveableINS_6StringENS_7AStringINS_7String0EEEEC2Ev
	.type	_ZN3Upp8MoveableINS_6StringENS_7AStringINS_7String0EEEEC2Ev, @function
_ZN3Upp8MoveableINS_6StringENS_7AStringINS_7String0EEEEC2Ev:
.LFB1288:
	pushq	%rbp
.LCFI41:
	movq	%rsp, %rbp
.LCFI42:
	subq	$16, %rsp
.LCFI43:
	movq	%rdi, -8(%rbp)
	movq	-8(%rbp), %rdi
	call	_ZN3Upp7AStringINS_7String0EEC2Ev
	leave
	ret
.LFE1288:
	.size	_ZN3Upp8MoveableINS_6StringENS_7AStringINS_7String0EEEEC2Ev, .-_ZN3Upp8MoveableINS_6StringENS_7AStringINS_7String0EEEEC2Ev
	.section	.text._ZN3Upp6StringC2Ev,"axG",@progbits,_ZN3Upp6StringC2Ev,comdat
	.align 2
	.weak	_ZN3Upp6StringC2Ev
	.type	_ZN3Upp6StringC2Ev, @function
_ZN3Upp6StringC2Ev:
.LFB1290:
	pushq	%rbp
.LCFI44:
	movq	%rsp, %rbp
.LCFI45:
	subq	$16, %rsp
.LCFI46:
	movq	%rdi, -8(%rbp)
	movq	-8(%rbp), %rdi
	call	_ZN3Upp8MoveableINS_6StringENS_7AStringINS_7String0EEEEC2Ev
	leave
	ret
.LFE1290:
	.size	_ZN3Upp6StringC2Ev, .-_ZN3Upp6StringC2Ev
	.section	.text._ZN3Upp6StringC1Ev,"axG",@progbits,_ZN3Upp6StringC1Ev,comdat
	.align 2
	.weak	_ZN3Upp6StringC1Ev
	.type	_ZN3Upp6StringC1Ev, @function
_ZN3Upp6StringC1Ev:
.LFB1291:
	pushq	%rbp
.LCFI47:
	movq	%rsp, %rbp
.LCFI48:
	subq	$16, %rsp
.LCFI49:
	movq	%rdi, -8(%rbp)
	movq	-8(%rbp), %rdi
	call	_ZN3Upp8MoveableINS_6StringENS_7AStringINS_7String0EEEEC2Ev
	leave
	ret
.LFE1291:
	.size	_ZN3Upp6StringC1Ev, .-_ZN3Upp6StringC1Ev
	.section	.text._ZN3Upp6StringC1ERKNS_6NullerE,"axG",@progbits,_ZN3Upp6StringC1ERKNS_6NullerE,comdat
	.align 2
	.weak	_ZN3Upp6StringC1ERKNS_6NullerE
	.type	_ZN3Upp6StringC1ERKNS_6NullerE, @function
_ZN3Upp6StringC1ERKNS_6NullerE:
.LFB1294:
	pushq	%rbp
.LCFI50:
	movq	%rsp, %rbp
.LCFI51:
	subq	$16, %rsp
.LCFI52:
	movq	%rdi, -8(%rbp)
	movq	%rsi, -16(%rbp)
	movq	-8(%rbp), %rdi
	call	_ZN3Upp8MoveableINS_6StringENS_7AStringINS_7String0EEEEC2Ev
	leave
	ret
.LFE1294:
	.size	_ZN3Upp6StringC1ERKNS_6NullerE, .-_ZN3Upp6StringC1ERKNS_6NullerE
	.section	.text._ZNK3Upp8WString05BeginEv,"axG",@progbits,_ZNK3Upp8WString05BeginEv,comdat
	.align 2
	.weak	_ZNK3Upp8WString05BeginEv
	.type	_ZNK3Upp8WString05BeginEv, @function
_ZNK3Upp8WString05BeginEv:
.LFB1386:
	pushq	%rbp
.LCFI53:
	movq	%rsp, %rbp
.LCFI54:
	movq	%rdi, -8(%rbp)
	movq	-8(%rbp), %rax
	movq	(%rax), %rax
	leave
	ret
.LFE1386:
	.size	_ZNK3Upp8WString05BeginEv, .-_ZNK3Upp8WString05BeginEv
	.section	.text._ZNK3Upp8WString08GetCountEv,"axG",@progbits,_ZNK3Upp8WString08GetCountEv,comdat
	.align 2
	.weak	_ZNK3Upp8WString08GetCountEv
	.type	_ZNK3Upp8WString08GetCountEv, @function
_ZNK3Upp8WString08GetCountEv:
.LFB1392:
	pushq	%rbp
.LCFI55:
	movq	%rsp, %rbp
.LCFI56:
	movq	%rdi, -8(%rbp)
	movq	-8(%rbp), %rax
	movl	8(%rax), %eax
	leave
	ret
.LFE1392:
	.size	_ZNK3Upp8WString08GetCountEv, .-_ZNK3Upp8WString08GetCountEv
	.section	.text._ZN3Upp6RelOpsINS_4DateENS_8MoveableIS1_NS_10EmptyClassEEEEC2Ev,"axG",@progbits,_ZN3Upp6RelOpsINS_4DateENS_8MoveableIS1_NS_10EmptyClassEEEEC2Ev,comdat
	.align 2
	.weak	_ZN3Upp6RelOpsINS_4DateENS_8MoveableIS1_NS_10EmptyClassEEEEC2Ev
	.type	_ZN3Upp6RelOpsINS_4DateENS_8MoveableIS1_NS_10EmptyClassEEEEC2Ev, @function
_ZN3Upp6RelOpsINS_4DateENS_8MoveableIS1_NS_10EmptyClassEEEEC2Ev:
.LFB1547:
	pushq	%rbp
.LCFI57:
	movq	%rsp, %rbp
.LCFI58:
	movq	%rdi, -8(%rbp)
	leave
	ret
.LFE1547:
	.size	_ZN3Upp6RelOpsINS_4DateENS_8MoveableIS1_NS_10EmptyClassEEEEC2Ev, .-_ZN3Upp6RelOpsINS_4DateENS_8MoveableIS1_NS_10EmptyClassEEEEC2Ev
	.section	.text._ZN3Upp4DateC2Ev,"axG",@progbits,_ZN3Upp4DateC2Ev,comdat
	.align 2
	.weak	_ZN3Upp4DateC2Ev
	.type	_ZN3Upp4DateC2Ev, @function
_ZN3Upp4DateC2Ev:
.LFB1549:
	pushq	%rbp
.LCFI59:
	movq	%rsp, %rbp
.LCFI60:
	subq	$16, %rsp
.LCFI61:
	movq	%rdi, -8(%rbp)
	movq	-8(%rbp), %rdi
	call	_ZN3Upp6RelOpsINS_4DateENS_8MoveableIS1_NS_10EmptyClassEEEEC2Ev
	movq	-8(%rbp), %rax
	movw	$-32768, 2(%rax)
	movq	-8(%rbp), %rax
	movb	$0, 1(%rax)
	movq	-8(%rbp), %rax
	movzbl	1(%rax), %edx
	movq	-8(%rbp), %rax
	movb	%dl, (%rax)
	leave
	ret
.LFE1549:
	.size	_ZN3Upp4DateC2Ev, .-_ZN3Upp4DateC2Ev
	.section	.text._ZN3Upp6RelOpsINS_4TimeENS_8MoveableIS1_NS_10EmptyClassEEEEC2Ev,"axG",@progbits,_ZN3Upp6RelOpsINS_4TimeENS_8MoveableIS1_NS_10EmptyClassEEEEC2Ev,comdat
	.align 2
	.weak	_ZN3Upp6RelOpsINS_4TimeENS_8MoveableIS1_NS_10EmptyClassEEEEC2Ev
	.type	_ZN3Upp6RelOpsINS_4TimeENS_8MoveableIS1_NS_10EmptyClassEEEEC2Ev, @function
_ZN3Upp6RelOpsINS_4TimeENS_8MoveableIS1_NS_10EmptyClassEEEEC2Ev:
.LFB1564:
	pushq	%rbp
.LCFI62:
	movq	%rsp, %rbp
.LCFI63:
	movq	%rdi, -8(%rbp)
	leave
	ret
.LFE1564:
	.size	_ZN3Upp6RelOpsINS_4TimeENS_8MoveableIS1_NS_10EmptyClassEEEEC2Ev, .-_ZN3Upp6RelOpsINS_4TimeENS_8MoveableIS1_NS_10EmptyClassEEEEC2Ev
	.section	.text._ZN3Upp4TimeC1ERKNS_6NullerE,"axG",@progbits,_ZN3Upp4TimeC1ERKNS_6NullerE,comdat
	.align 2
	.weak	_ZN3Upp4TimeC1ERKNS_6NullerE
	.type	_ZN3Upp4TimeC1ERKNS_6NullerE, @function
_ZN3Upp4TimeC1ERKNS_6NullerE:
.LFB1570:
	pushq	%rbp
.LCFI64:
	movq	%rsp, %rbp
.LCFI65:
	subq	$16, %rsp
.LCFI66:
	movq	%rdi, -8(%rbp)
	movq	%rsi, -16(%rbp)
	movq	-8(%rbp), %rdi
	call	_ZN3Upp4DateC2Ev
	movq	-8(%rbp), %rax
	leaq	4(%rax), %rdi
	call	_ZN3Upp6RelOpsINS_4TimeENS_8MoveableIS1_NS_10EmptyClassEEEEC2Ev
	movq	-8(%rbp), %rax
	movb	$0, 6(%rax)
	movq	-8(%rbp), %rax
	movzbl	6(%rax), %edx
	movq	-8(%rbp), %rax
	movb	%dl, 5(%rax)
	movq	-8(%rbp), %rax
	movzbl	5(%rax), %edx
	movq	-8(%rbp), %rax
	movb	%dl, 4(%rax)
	leave
	ret
.LFE1570:
	.size	_ZN3Upp4TimeC1ERKNS_6NullerE, .-_ZN3Upp4TimeC1ERKNS_6NullerE
	.section	.text._ZN3Upp13CompareRelOpsIRKNS_8FileTimeEXadL_ZNS_16Compare_FileTimeES3_S3_EENS_10EmptyClassEEC2Ev,"axG",@progbits,_ZN3Upp13CompareRelOpsIRKNS_8FileTimeEXadL_ZNS_16Compare_FileTimeES3_S3_EENS_10EmptyClassEEC2Ev,comdat
	.align 2
	.weak	_ZN3Upp13CompareRelOpsIRKNS_8FileTimeEXadL_ZNS_16Compare_FileTimeES3_S3_EENS_10EmptyClassEEC2Ev
	.type	_ZN3Upp13CompareRelOpsIRKNS_8FileTimeEXadL_ZNS_16Compare_FileTimeES3_S3_EENS_10EmptyClassEEC2Ev, @function
_ZN3Upp13CompareRelOpsIRKNS_8FileTimeEXadL_ZNS_16Compare_FileTimeES3_S3_EENS_10EmptyClassEEC2Ev:
.LFB1589:
	pushq	%rbp
.LCFI67:
	movq	%rsp, %rbp
.LCFI68:
	movq	%rdi, -8(%rbp)
	leave
	ret
.LFE1589:
	.size	_ZN3Upp13CompareRelOpsIRKNS_8FileTimeEXadL_ZNS_16Compare_FileTimeES3_S3_EENS_10EmptyClassEEC2Ev, .-_ZN3Upp13CompareRelOpsIRKNS_8FileTimeEXadL_ZNS_16Compare_FileTimeES3_S3_EENS_10EmptyClassEEC2Ev
	.section	.text._ZN3Upp8FileTimeC1Ev,"axG",@progbits,_ZN3Upp8FileTimeC1Ev,comdat
	.align 2
	.weak	_ZN3Upp8FileTimeC1Ev
	.type	_ZN3Upp8FileTimeC1Ev, @function
_ZN3Upp8FileTimeC1Ev:
.LFB1592:
	pushq	%rbp
.LCFI69:
	movq	%rsp, %rbp
.LCFI70:
	subq	$16, %rsp
.LCFI71:
	movq	%rdi, -8(%rbp)
	movq	-8(%rbp), %rdi
	call	_ZN3Upp13CompareRelOpsIRKNS_8FileTimeEXadL_ZNS_16Compare_FileTimeES3_S3_EENS_10EmptyClassEEC2Ev
	leave
	ret
.LFE1592:
	.size	_ZN3Upp8FileTimeC1Ev, .-_ZN3Upp8FileTimeC1Ev
	.section	.text._ZN3Upp8FileTimeC1El,"axG",@progbits,_ZN3Upp8FileTimeC1El,comdat
	.align 2
	.weak	_ZN3Upp8FileTimeC1El
	.type	_ZN3Upp8FileTimeC1El, @function
_ZN3Upp8FileTimeC1El:
.LFB1595:
	pushq	%rbp
.LCFI72:
	movq	%rsp, %rbp
.LCFI73:
	subq	$16, %rsp
.LCFI74:
	movq	%rdi, -8(%rbp)
	movq	%rsi, -16(%rbp)
	movq	-8(%rbp), %rdi
	call	_ZN3Upp13CompareRelOpsIRKNS_8FileTimeEXadL_ZNS_16Compare_FileTimeES3_S3_EENS_10EmptyClassEEC2Ev
	movq	-8(%rbp), %rdx
	movq	-16(%rbp), %rax
	movq	%rax, (%rdx)
	leave
	ret
.LFE1595:
	.size	_ZN3Upp8FileTimeC1El, .-_ZN3Upp8FileTimeC1El
	.section	.text._ZNK3Upp8FindFilecvbEv,"axG",@progbits,_ZNK3Upp8FindFilecvbEv,comdat
	.align 2
	.weak	_ZNK3Upp8FindFilecvbEv
	.type	_ZNK3Upp8FindFilecvbEv, @function
_ZNK3Upp8FindFilecvbEv:
.LFB1608:
	pushq	%rbp
.LCFI75:
	movq	%rsp, %rbp
.LCFI76:
	movq	%rdi, -8(%rbp)
	movq	-8(%rbp), %rax
	movzbl	(%rax), %eax
	movzbl	%al, %eax
	leave
	ret
.LFE1608:
	.size	_ZNK3Upp8FindFilecvbEv, .-_ZNK3Upp8FindFilecvbEv
	.section	.text._ZN3Upp6Stream9IsLoadingEv,"axG",@progbits,_ZN3Upp6Stream9IsLoadingEv,comdat
	.align 2
	.weak	_ZN3Upp6Stream9IsLoadingEv
	.type	_ZN3Upp6Stream9IsLoadingEv, @function
_ZN3Upp6Stream9IsLoadingEv:
.LFB1668:
	pushq	%rbp
.LCFI77:
	movq	%rsp, %rbp
.LCFI78:
	movq	%rdi, -8(%rbp)
	movq	-8(%rbp), %rax
	movzbl	48(%rax), %eax
	andl	$63, %eax
	andl	$2, %eax
	testl	%eax, %eax
	setne	%al
	movzbl	%al, %eax
	leave
	ret
.LFE1668:
	.size	_ZN3Upp6Stream9IsLoadingEv, .-_ZN3Upp6Stream9IsLoadingEv
	.section	.text._ZNK3Upp8HashBase4MaphEj,"axG",@progbits,_ZNK3Upp8HashBase4MaphEj,comdat
	.align 2
	.weak	_ZNK3Upp8HashBase4MaphEj
	.type	_ZNK3Upp8HashBase4MaphEj, @function
_ZNK3Upp8HashBase4MaphEj:
.LFB2648:
	pushq	%rbp
.LCFI79:
	movq	%rsp, %rbp
.LCFI80:
	pushq	%rbx
.LCFI81:
	movq	%rdi, -32(%rbp)
	movl	%esi, -36(%rbp)
	movl	-36(%rbp), %eax
	andl	$2147483647, %eax
	movl	%eax, -12(%rbp)
	movq	-32(%rbp), %rax
	movq	40(%rax), %rsi
	movq	-32(%rbp), %rax
	movl	48(%rax), %eax
	subl	$1, %eax
	movl	%eax, %ecx
	movl	-12(%rbp), %eax
	movl	%eax, %edx
	shrl	$23, %edx
	movl	-12(%rbp), %eax
	shrl	$15, %eax
	subl	%eax, %edx
	movl	-12(%rbp), %eax
	shrl	$7, %eax
	movl	%edx, %ebx
	subl	%eax, %ebx
	movl	%ebx, %eax
	subl	-12(%rbp), %eax
	andl	%ecx, %eax
	mov	%eax, %eax
	salq	$2, %rax
	leaq	(%rsi,%rax), %rax
	popq	%rbx
	leave
	ret
.LFE2648:
	.size	_ZNK3Upp8HashBase4MaphEj, .-_ZNK3Upp8HashBase4MaphEj
	.section	.text._ZNK3Upp6NullercviEv,"axG",@progbits,_ZNK3Upp6NullercviEv,comdat
	.align 2
	.weak	_ZNK3Upp6NullercviEv
	.type	_ZNK3Upp6NullercviEv, @function
_ZNK3Upp6NullercviEv:
.LFB2734:
	pushq	%rbp
.LCFI82:
	movq	%rsp, %rbp
.LCFI83:
	movq	%rdi, -8(%rbp)
	movl	$-2147483648, %eax
	leave
	ret
.LFE2734:
	.size	_ZNK3Upp6NullercviEv, .-_ZNK3Upp6NullercviEv
	.section	.text._ZNK3Upp5Value6IsNullEv,"axG",@progbits,_ZNK3Upp5Value6IsNullEv,comdat
	.align 2
	.weak	_ZNK3Upp5Value6IsNullEv
	.type	_ZNK3Upp5Value6IsNullEv, @function
_ZNK3Upp5Value6IsNullEv:
.LFB2775:
	pushq	%rbp
.LCFI84:
	movq	%rsp, %rbp
.LCFI85:
	subq	$16, %rsp
.LCFI86:
	movq	%rdi, -8(%rbp)
	movq	-8(%rbp), %rax
	movq	(%rax), %rax
	movq	(%rax), %rax
	addq	$8, %rax
	movq	(%rax), %rdx
	movq	-8(%rbp), %rax
	movq	(%rax), %rdi
	call	*%rdx
	movzbl	%al, %eax
	leave
	ret
.LFE2775:
	.size	_ZNK3Upp5Value6IsNullEv, .-_ZNK3Upp5Value6IsNullEv
	.section	.text._ZN3Upp6IsNullERKNS_5ValueE,"axG",@progbits,_ZN3Upp6IsNullERKNS_5ValueE,comdat
	.align 2
	.weak	_ZN3Upp6IsNullERKNS_5ValueE
	.type	_ZN3Upp6IsNullERKNS_5ValueE, @function
_ZN3Upp6IsNullERKNS_5ValueE:
.LFB2899:
	pushq	%rbp
.LCFI87:
	movq	%rsp, %rbp
.LCFI88:
	subq	$16, %rsp
.LCFI89:
	movq	%rdi, -8(%rbp)
	movq	-8(%rbp), %rdi
	call	_ZNK3Upp5Value6IsNullEv
	movzbl	%al, %eax
	leave
	ret
.LFE2899:
	.size	_ZN3Upp6IsNullERKNS_5ValueE, .-_ZN3Upp6IsNullERKNS_5ValueE
	.section	.text._ZN3Upp3RGBEhhh,"axG",@progbits,_ZN3Upp3RGBEhhh,comdat
	.align 2
	.weak	_ZN3Upp3RGBEhhh
	.type	_ZN3Upp3RGBEhhh, @function
_ZN3Upp3RGBEhhh:
.LFB3269:
	pushq	%rbp
.LCFI90:
	movq	%rsp, %rbp
.LCFI91:
	movb	%dil, -4(%rbp)
	movb	%sil, -8(%rbp)
	movb	%dl, -12(%rbp)
	movzbl	-4(%rbp), %edx
	movzbl	-8(%rbp), %eax
	sall	$8, %eax
	orl	%eax, %edx
	movzbl	-12(%rbp), %eax
	sall	$16, %eax
	orl	%edx, %eax
	leave
	ret
.LFE3269:
	.size	_ZN3Upp3RGBEhhh, .-_ZN3Upp3RGBEhhh
	.section	.text._ZN3Upp17AssignValueTypeNoINS_5ColorELj39ENS_8MoveableIS1_NS_10EmptyClassEEEEC2Ev,"axG",@progbits,_ZN3Upp17AssignValueTypeNoINS_5ColorELj39ENS_8MoveableIS1_NS_10EmptyClassEEEEC2Ev,comdat
	.align 2
	.weak	_ZN3Upp17AssignValueTypeNoINS_5ColorELj39ENS_8MoveableIS1_NS_10EmptyClassEEEEC2Ev
	.type	_ZN3Upp17AssignValueTypeNoINS_5ColorELj39ENS_8MoveableIS1_NS_10EmptyClassEEEEC2Ev, @function
_ZN3Upp17AssignValueTypeNoINS_5ColorELj39ENS_8MoveableIS1_NS_10EmptyClassEEEEC2Ev:
.LFB3281:
	pushq	%rbp
.LCFI92:
	movq	%rsp, %rbp
.LCFI93:
	movq	%rdi, -8(%rbp)
	leave
	ret
.LFE3281:
	.size	_ZN3Upp17AssignValueTypeNoINS_5ColorELj39ENS_8MoveableIS1_NS_10EmptyClassEEEEC2Ev, .-_ZN3Upp17AssignValueTypeNoINS_5ColorELj39ENS_8MoveableIS1_NS_10EmptyClassEEEEC2Ev
	.section	.text._ZN3Upp5ColorC1Eiii,"axG",@progbits,_ZN3Upp5ColorC1Eiii,comdat
	.align 2
	.weak	_ZN3Upp5ColorC1Eiii
	.type	_ZN3Upp5ColorC1Eiii, @function
_ZN3Upp5ColorC1Eiii:
.LFB3287:
	pushq	%rbp
.LCFI94:
	movq	%rsp, %rbp
.LCFI95:
	subq	$32, %rsp
.LCFI96:
	movq	%rdi, -8(%rbp)
	movl	%esi, -12(%rbp)
	movl	%edx, -16(%rbp)
	movl	%ecx, -20(%rbp)
	movq	-8(%rbp), %rdi
	call	_ZN3Upp17AssignValueTypeNoINS_5ColorELj39ENS_8MoveableIS1_NS_10EmptyClassEEEEC2Ev
	movl	-20(%rbp), %eax
	movzbl	%al, %edx
	movl	-16(%rbp), %eax
	movzbl	%al, %esi
	movl	-12(%rbp), %eax
	movzbl	%al, %edi
	call	_ZN3Upp3RGBEhhh
	movl	%eax, %edx
	movq	-8(%rbp), %rax
	movl	%edx, (%rax)
	leave
	ret
.LFE3287:
	.size	_ZN3Upp5ColorC1Eiii, .-_ZN3Upp5ColorC1Eiii
	.section	.text._ZN3Upp5ColorC1ERKNS_6NullerE,"axG",@progbits,_ZN3Upp5ColorC1ERKNS_6NullerE,comdat
	.align 2
	.weak	_ZN3Upp5ColorC1ERKNS_6NullerE
	.type	_ZN3Upp5ColorC1ERKNS_6NullerE, @function
_ZN3Upp5ColorC1ERKNS_6NullerE:
.LFB3293:
	pushq	%rbp
.LCFI97:
	movq	%rsp, %rbp
.LCFI98:
	subq	$16, %rsp
.LCFI99:
	movq	%rdi, -8(%rbp)
	movq	%rsi, -16(%rbp)
	movq	-8(%rbp), %rdi
	call	_ZN3Upp17AssignValueTypeNoINS_5ColorELj39ENS_8MoveableIS1_NS_10EmptyClassEEEEC2Ev
	movq	-8(%rbp), %rax
	movl	$-1, (%rax)
	leave
	ret
.LFE3293:
	.size	_ZN3Upp5ColorC1ERKNS_6NullerE, .-_ZN3Upp5ColorC1ERKNS_6NullerE
	.section	.text._ZN3Upp5ColorC1EPFS0_vE,"axG",@progbits,_ZN3Upp5ColorC1EPFS0_vE,comdat
	.align 2
	.weak	_ZN3Upp5ColorC1EPFS0_vE
	.type	_ZN3Upp5ColorC1EPFS0_vE, @function
_ZN3Upp5ColorC1EPFS0_vE:
.LFB3306:
	pushq	%rbp
.LCFI100:
	movq	%rsp, %rbp
.LCFI101:
	subq	$16, %rsp
.LCFI102:
	movq	%rdi, -8(%rbp)
	movq	%rsi, -16(%rbp)
	movq	-8(%rbp), %rdi
	call	_ZN3Upp17AssignValueTypeNoINS_5ColorELj39ENS_8MoveableIS1_NS_10EmptyClassEEEEC2Ev
	movq	-16(%rbp), %rax
	call	*%rax
	movl	%eax, %edx
	movq	-8(%rbp), %rax
	movl	%edx, (%rax)
	leave
	ret
.LFE3306:
	.size	_ZN3Upp5ColorC1EPFS0_vE, .-_ZN3Upp5ColorC1EPFS0_vE
	.section	.text._ZN3Upp3RedEv,"axG",@progbits,_ZN3Upp3RedEv,comdat
	.align 2
	.weak	_ZN3Upp3RedEv
	.type	_ZN3Upp3RedEv, @function
_ZN3Upp3RedEv:
.LFB3318:
	pushq	%rbp
.LCFI103:
	movq	%rsp, %rbp
.LCFI104:
	subq	$16, %rsp
.LCFI105:
	leaq	-16(%rbp), %rdi
	movl	$0, %ecx
	movl	$0, %edx
	movl	$128, %esi
	call	_ZN3Upp5ColorC1Eiii
	movl	-16(%rbp), %eax
	leave
	ret
.LFE3318:
	.size	_ZN3Upp3RedEv, .-_ZN3Upp3RedEv
	.section	.text._ZN3Upp7MagentaEv,"axG",@progbits,_ZN3Upp7MagentaEv,comdat
	.align 2
	.weak	_ZN3Upp7MagentaEv
	.type	_ZN3Upp7MagentaEv, @function
_ZN3Upp7MagentaEv:
.LFB3322:
	pushq	%rbp
.LCFI106:
	movq	%rsp, %rbp
.LCFI107:
	subq	$16, %rsp
.LCFI108:
	leaq	-16(%rbp), %rdi
	movl	$255, %ecx
	movl	$0, %edx
	movl	$128, %esi
	call	_ZN3Upp5ColorC1Eiii
	movl	-16(%rbp), %eax
	leave
	ret
.LFE3322:
	.size	_ZN3Upp7MagentaEv, .-_ZN3Upp7MagentaEv
	.section	.text._ZNK3Upp14CallbackAction7IsValidEv,"axG",@progbits,_ZNK3Upp14CallbackAction7IsValidEv,comdat
	.align 2
	.weak	_ZNK3Upp14CallbackAction7IsValidEv
	.type	_ZNK3Upp14CallbackAction7IsValidEv, @function
_ZNK3Upp14CallbackAction7IsValidEv:
.LFB3392:
	pushq	%rbp
.LCFI109:
	movq	%rsp, %rbp
.LCFI110:
	movq	%rdi, -8(%rbp)
	movl	$1, %eax
	leave
	ret
.LFE3392:
	.size	_ZNK3Upp14CallbackAction7IsValidEv, .-_ZNK3Upp14CallbackAction7IsValidEv
	.section	.text._ZN3Upp14CallbackActionC2Ev,"axG",@progbits,_ZN3Upp14CallbackActionC2Ev,comdat
	.align 2
	.weak	_ZN3Upp14CallbackActionC2Ev
	.type	_ZN3Upp14CallbackActionC2Ev, @function
_ZN3Upp14CallbackActionC2Ev:
.LFB3394:
	pushq	%rbp
.LCFI111:
	movq	%rsp, %rbp
.LCFI112:
	movq	%rdi, -8(%rbp)
	movl	$_ZTVN3Upp14CallbackActionE+16, %eax
	movq	-8(%rbp), %rdx
	movq	%rax, (%rdx)
	movq	-8(%rbp), %rax
	movl	$1, 8(%rax)
	leave
	ret
.LFE3394:
	.size	_ZN3Upp14CallbackActionC2Ev, .-_ZN3Upp14CallbackActionC2Ev
	.section	.text._ZN3Upp8MoveableINS_8CallbackENS_10EmptyClassEEC2Ev,"axG",@progbits,_ZN3Upp8MoveableINS_8CallbackENS_10EmptyClassEEC2Ev,comdat
	.align 2
	.weak	_ZN3Upp8MoveableINS_8CallbackENS_10EmptyClassEEC2Ev
	.type	_ZN3Upp8MoveableINS_8CallbackENS_10EmptyClassEEC2Ev, @function
_ZN3Upp8MoveableINS_8CallbackENS_10EmptyClassEEC2Ev:
.LFB3416:
	pushq	%rbp
.LCFI113:
	movq	%rsp, %rbp
.LCFI114:
	movq	%rdi, -8(%rbp)
	leave
	ret
.LFE3416:
	.size	_ZN3Upp8MoveableINS_8CallbackENS_10EmptyClassEEC2Ev, .-_ZN3Upp8MoveableINS_8CallbackENS_10EmptyClassEEC2Ev
	.section	.text._ZN3Upp8CallbackC1EPNS_14CallbackActionE,"axG",@progbits,_ZN3Upp8CallbackC1EPNS_14CallbackActionE,comdat
	.align 2
	.weak	_ZN3Upp8CallbackC1EPNS_14CallbackActionE
	.type	_ZN3Upp8CallbackC1EPNS_14CallbackActionE, @function
_ZN3Upp8CallbackC1EPNS_14CallbackActionE:
.LFB3419:
	pushq	%rbp
.LCFI115:
	movq	%rsp, %rbp
.LCFI116:
	subq	$16, %rsp
.LCFI117:
	movq	%rdi, -8(%rbp)
	movq	%rsi, -16(%rbp)
	movq	-8(%rbp), %rdi
	call	_ZN3Upp8MoveableINS_8CallbackENS_10EmptyClassEEC2Ev
	movq	-8(%rbp), %rdx
	movq	-16(%rbp), %rax
	movq	%rax, (%rdx)
	leave
	ret
.LFE3419:
	.size	_ZN3Upp8CallbackC1EPNS_14CallbackActionE, .-_ZN3Upp8CallbackC1EPNS_14CallbackActionE
	.section	.text._ZN3Upp7ConvertC2Ev,"axG",@progbits,_ZN3Upp7ConvertC2Ev,comdat
	.align 2
	.weak	_ZN3Upp7ConvertC2Ev
	.type	_ZN3Upp7ConvertC2Ev, @function
_ZN3Upp7ConvertC2Ev:
.LFB3890:
	pushq	%rbp
.LCFI118:
	movq	%rsp, %rbp
.LCFI119:
	movq	%rdi, -8(%rbp)
	movl	$_ZTVN3Upp7ConvertE+16, %edx
	movq	-8(%rbp), %rax
	movq	%rdx, (%rax)
	leave
	ret
.LFE3890:
	.size	_ZN3Upp7ConvertC2Ev, .-_ZN3Upp7ConvertC2Ev
	.section	.text._ZN3Upp13ConvertStringC2Eib,"axG",@progbits,_ZN3Upp13ConvertStringC2Eib,comdat
	.align 2
	.weak	_ZN3Upp13ConvertStringC2Eib
	.type	_ZN3Upp13ConvertStringC2Eib, @function
_ZN3Upp13ConvertStringC2Eib:
.LFB3937:
	pushq	%rbp
.LCFI120:
	movq	%rsp, %rbp
.LCFI121:
	subq	$16, %rsp
.LCFI122:
	movq	%rdi, -8(%rbp)
	movl	%esi, -12(%rbp)
	movb	%dl, -16(%rbp)
	movq	-8(%rbp), %rdi
	call	_ZN3Upp7ConvertC2Ev
	movl	$_ZTVN3Upp13ConvertStringE+16, %edx
	movq	-8(%rbp), %rax
	movq	%rdx, (%rax)
	movq	-8(%rbp), %rdx
	movl	-12(%rbp), %eax
	movl	%eax, 8(%rdx)
	movq	-8(%rbp), %rdx
	movzbl	-16(%rbp), %eax
	movb	%al, 12(%rdx)
	leave
	ret
.LFE3937:
	.size	_ZN3Upp13ConvertStringC2Eib, .-_ZN3Upp13ConvertStringC2Eib
	.section	.text._ZN3Upp4Font4BoldEv,"axG",@progbits,_ZN3Upp4Font4BoldEv,comdat
	.align 2
	.weak	_ZN3Upp4Font4BoldEv
	.type	_ZN3Upp4Font4BoldEv, @function
_ZN3Upp4Font4BoldEv:
.LFB4309:
	pushq	%rbp
.LCFI123:
	movq	%rsp, %rbp
.LCFI124:
	movq	%rdi, -8(%rbp)
	movq	-8(%rbp), %rax
	movzwl	2(%rax), %eax
	movl	%eax, %edx
	orw	$-32768, %dx
	movq	-8(%rbp), %rax
	movw	%dx, 2(%rax)
	movq	-8(%rbp), %rax
	leave
	ret
.LFE4309:
	.size	_ZN3Upp4Font4BoldEv, .-_ZN3Upp4Font4BoldEv
	.section	.text._ZN3Upp17AssignValueTypeNoINS_4FontELj40ENS_8MoveableIS1_NS_10EmptyClassEEEEC2Ev,"axG",@progbits,_ZN3Upp17AssignValueTypeNoINS_4FontELj40ENS_8MoveableIS1_NS_10EmptyClassEEEEC2Ev,comdat
	.align 2
	.weak	_ZN3Upp17AssignValueTypeNoINS_4FontELj40ENS_8MoveableIS1_NS_10EmptyClassEEEEC2Ev
	.type	_ZN3Upp17AssignValueTypeNoINS_4FontELj40ENS_8MoveableIS1_NS_10EmptyClassEEEEC2Ev, @function
_ZN3Upp17AssignValueTypeNoINS_4FontELj40ENS_8MoveableIS1_NS_10EmptyClassEEEEC2Ev:
.LFB4335:
	pushq	%rbp
.LCFI125:
	movq	%rsp, %rbp
.LCFI126:
	movq	%rdi, -8(%rbp)
	leave
	ret
.LFE4335:
	.size	_ZN3Upp17AssignValueTypeNoINS_4FontELj40ENS_8MoveableIS1_NS_10EmptyClassEEEEC2Ev, .-_ZN3Upp17AssignValueTypeNoINS_4FontELj40ENS_8MoveableIS1_NS_10EmptyClassEEEEC2Ev
	.section	.text._ZN3Upp4FontC1ERKNS_6NullerE,"axG",@progbits,_ZN3Upp4FontC1ERKNS_6NullerE,comdat
	.align 2
	.weak	_ZN3Upp4FontC1ERKNS_6NullerE
	.type	_ZN3Upp4FontC1ERKNS_6NullerE, @function
_ZN3Upp4FontC1ERKNS_6NullerE:
.LFB4344:
	pushq	%rbp
.LCFI127:
	movq	%rsp, %rbp
.LCFI128:
	subq	$16, %rsp
.LCFI129:
	movq	%rdi, -8(%rbp)
	movq	%rsi, -16(%rbp)
	movq	-8(%rbp), %rdi
	call	_ZN3Upp17AssignValueTypeNoINS_4FontELj40ENS_8MoveableIS1_NS_10EmptyClassEEEEC2Ev
	movq	-8(%rbp), %rax
	movw	$-1, (%rax)
	movq	-8(%rbp), %rax
	movw	$0, 6(%rax)
	movq	-8(%rbp), %rax
	movzwl	6(%rax), %edx
	movq	-8(%rbp), %rax
	movw	%dx, 4(%rax)
	movq	-8(%rbp), %rax
	movw	$0, 2(%rax)
	leave
	ret
.LFE4344:
	.size	_ZN3Upp4FontC1ERKNS_6NullerE, .-_ZN3Upp4FontC1ERKNS_6NullerE
	.section	.text._ZNK3Upp4CtrlcoEv,"axG",@progbits,_ZNK3Upp4CtrlcoEv,comdat
	.align 2
	.weak	_ZNK3Upp4CtrlcoEv
	.type	_ZNK3Upp4CtrlcoEv, @function
_ZNK3Upp4CtrlcoEv:
.LFB4702:
	pushq	%rbp
.LCFI130:
	movq	%rsp, %rbp
.LCFI131:
	pushq	%rbx
.LCFI132:
	subq	$8, %rsp
.LCFI133:
	movq	%rdi, %rbx
	movq	%rsi, -16(%rbp)
	movq	%rbx, %rdi
	movq	-16(%rbp), %rax
	movq	(%rax), %rax
	addq	$40, %rax
	movq	(%rax), %rax
	movq	-16(%rbp), %rsi
	call	*%rax
	movq	%rbx, %rax
	addq	$8, %rsp
	popq	%rbx
	leave
	ret
.LFE4702:
	.size	_ZNK3Upp4CtrlcoEv, .-_ZNK3Upp4CtrlcoEv
	.section	.text._ZN3Upp4CtrllSERKNS_5ValueE,"axG",@progbits,_ZN3Upp4CtrllSERKNS_5ValueE,comdat
	.align 2
	.weak	_ZN3Upp4CtrllSERKNS_5ValueE
	.type	_ZN3Upp4CtrllSERKNS_5ValueE, @function
_ZN3Upp4CtrllSERKNS_5ValueE:
.LFB4703:
	pushq	%rbp
.LCFI134:
	movq	%rsp, %rbp
.LCFI135:
	subq	$16, %rsp
.LCFI136:
	movq	%rdi, -8(%rbp)
	movq	%rsi, -16(%rbp)
	movq	-8(%rbp), %rax
	movq	(%rax), %rax
	addq	$32, %rax
	movq	(%rax), %rax
	movq	-16(%rbp), %rsi
	movq	-8(%rbp), %rdi
	call	*%rax
	movq	-16(%rbp), %rax
	leave
	ret
.LFE4703:
	.size	_ZN3Upp4CtrllSERKNS_5ValueE, .-_ZN3Upp4CtrllSERKNS_5ValueE
	.section	.text._ZN3Upp9TopWindow10SetMinSizeENS_5Size_IiEE,"axG",@progbits,_ZN3Upp9TopWindow10SetMinSizeENS_5Size_IiEE,comdat
	.align 2
	.weak	_ZN3Upp9TopWindow10SetMinSizeENS_5Size_IiEE
	.type	_ZN3Upp9TopWindow10SetMinSizeENS_5Size_IiEE, @function
_ZN3Upp9TopWindow10SetMinSizeENS_5Size_IiEE:
.LFB4779:
	pushq	%rbp
.LCFI137:
	movq	%rsp, %rbp
.LCFI138:
	movq	%rdi, -8(%rbp)
	movq	%rsi, -16(%rbp)
	movq	-8(%rbp), %rax
	movq	-16(%rbp), %rdx
	movq	(%rdx), %rdx
	movq	%rdx, 272(%rax)
	leave
	ret
.LFE4779:
	.size	_ZN3Upp9TopWindow10SetMinSizeENS_5Size_IiEE, .-_ZN3Upp9TopWindow10SetMinSizeENS_5Size_IiEE
	.section	.text._ZNK3Upp6OptioncviEv,"axG",@progbits,_ZNK3Upp6OptioncviEv,comdat
	.align 2
	.weak	_ZNK3Upp6OptioncviEv
	.type	_ZNK3Upp6OptioncviEv, @function
_ZNK3Upp6OptioncviEv:
.LFB5448:
	pushq	%rbp
.LCFI139:
	movq	%rsp, %rbp
.LCFI140:
	movq	%rdi, -8(%rbp)
	movq	-8(%rbp), %rax
	movl	216(%rax), %eax
	leave
	ret
.LFE5448:
	.size	_ZNK3Upp6OptioncviEv, .-_ZNK3Upp6OptioncviEv
	.section	.text._ZNK3Upp9ScrollBarcviEv,"axG",@progbits,_ZNK3Upp9ScrollBarcviEv,comdat
	.align 2
	.weak	_ZNK3Upp9ScrollBarcviEv
	.type	_ZNK3Upp9ScrollBarcviEv, @function
_ZNK3Upp9ScrollBarcviEv:
.LFB5514:
	pushq	%rbp
.LCFI141:
	movq	%rsp, %rbp
.LCFI142:
	movq	%rdi, -8(%rbp)
	movq	-8(%rbp), %rax
	movl	1080(%rax), %eax
	leave
	ret
.LFE5514:
	.size	_ZNK3Upp9ScrollBarcviEv, .-_ZNK3Upp9ScrollBarcviEv
	.section	.text._ZN3Upp9EditField9SetFilterEPFiiE,"axG",@progbits,_ZN3Upp9EditField9SetFilterEPFiiE,comdat
	.align 2
	.weak	_ZN3Upp9EditField9SetFilterEPFiiE
	.type	_ZN3Upp9EditField9SetFilterEPFiiE, @function
_ZN3Upp9EditField9SetFilterEPFiiE:
.LFB5634:
	pushq	%rbp
.LCFI143:
	movq	%rsp, %rbp
.LCFI144:
	movq	%rdi, -8(%rbp)
	movq	%rsi, -16(%rbp)
	movq	-8(%rbp), %rdx
	movq	-16(%rbp), %rax
	movq	%rax, 256(%rdx)
	movq	-8(%rbp), %rax
	leave
	ret
.LFE5634:
	.size	_ZN3Upp9EditField9SetFilterEPFiiE, .-_ZN3Upp9EditField9SetFilterEPFiiE
	.section	.text._ZN3Upp9EditField10SetConvertERKNS_7ConvertE,"axG",@progbits,_ZN3Upp9EditField10SetConvertERKNS_7ConvertE,comdat
	.align 2
	.weak	_ZN3Upp9EditField10SetConvertERKNS_7ConvertE
	.type	_ZN3Upp9EditField10SetConvertERKNS_7ConvertE, @function
_ZN3Upp9EditField10SetConvertERKNS_7ConvertE:
.LFB5635:
	pushq	%rbp
.LCFI145:
	movq	%rsp, %rbp
.LCFI146:
	movq	%rdi, -8(%rbp)
	movq	%rsi, -16(%rbp)
	movq	-8(%rbp), %rdx
	movq	-16(%rbp), %rax
	movq	%rax, 264(%rdx)
	movq	-8(%rbp), %rax
	leave
	ret
.LFE5635:
	.size	_ZN3Upp9EditField10SetConvertERKNS_7ConvertE, .-_ZN3Upp9EditField10SetConvertERKNS_7ConvertE
	.section	.text._ZNK3Upp9ArrayCtrl8IsCursorEv,"axG",@progbits,_ZNK3Upp9ArrayCtrl8IsCursorEv,comdat
	.align 2
	.weak	_ZNK3Upp9ArrayCtrl8IsCursorEv
	.type	_ZNK3Upp9ArrayCtrl8IsCursorEv, @function
_ZNK3Upp9ArrayCtrl8IsCursorEv:
.LFB5965:
	pushq	%rbp
.LCFI147:
	movq	%rsp, %rbp
.LCFI148:
	movq	%rdi, -8(%rbp)
	movq	-8(%rbp), %rax
	movl	3380(%rax), %eax
	notl	%eax
	shrl	$31, %eax
	leave
	ret
.LFE5965:
	.size	_ZNK3Upp9ArrayCtrl8IsCursorEv, .-_ZNK3Upp9ArrayCtrl8IsCursorEv
	.section	.text._ZNK3Upp10ColumnList9GetCursorEv,"axG",@progbits,_ZNK3Upp10ColumnList9GetCursorEv,comdat
	.align 2
	.weak	_ZNK3Upp10ColumnList9GetCursorEv
	.type	_ZNK3Upp10ColumnList9GetCursorEv, @function
_ZNK3Upp10ColumnList9GetCursorEv:
.LFB6308:
	pushq	%rbp
.LCFI149:
	movq	%rsp, %rbp
.LCFI150:
	movq	%rdi, -8(%rbp)
	movq	-8(%rbp), %rax
	movl	168(%rax), %eax
	leave
	ret
.LFE6308:
	.size	_ZNK3Upp10ColumnList9GetCursorEv, .-_ZNK3Upp10ColumnList9GetCursorEv
	.section	.text._ZNK3Upp10ColumnList8IsCursorEv,"axG",@progbits,_ZNK3Upp10ColumnList8IsCursorEv,comdat
	.align 2
	.weak	_ZNK3Upp10ColumnList8IsCursorEv
	.type	_ZNK3Upp10ColumnList8IsCursorEv, @function
_ZNK3Upp10ColumnList8IsCursorEv:
.LFB6309:
	pushq	%rbp
.LCFI151:
	movq	%rsp, %rbp
.LCFI152:
	movq	%rdi, -8(%rbp)
	movq	-8(%rbp), %rax
	movl	168(%rax), %eax
	notl	%eax
	shrl	$31, %eax
	leave
	ret
.LFE6309:
	.size	_ZNK3Upp10ColumnList8IsCursorEv, .-_ZNK3Upp10ColumnList8IsCursorEv
	.section	.text._ZNK3Upp10ColumnList8GetSbPosEv,"axG",@progbits,_ZNK3Upp10ColumnList8GetSbPosEv,comdat
	.align 2
	.weak	_ZNK3Upp10ColumnList8GetSbPosEv
	.type	_ZNK3Upp10ColumnList8GetSbPosEv, @function
_ZNK3Upp10ColumnList8GetSbPosEv:
.LFB6310:
	pushq	%rbp
.LCFI153:
	movq	%rsp, %rbp
.LCFI154:
	subq	$16, %rsp
.LCFI155:
	movq	%rdi, -8(%rbp)
	movq	-8(%rbp), %rdi
	addq	$192, %rdi
	call	_ZNK3Upp9ScrollBarcviEv
	leave
	ret
.LFE6310:
	.size	_ZNK3Upp10ColumnList8GetSbPosEv, .-_ZNK3Upp10ColumnList8GetSbPosEv
	.section	.text._ZNK3Upp8FileList12GetIconWidthEv,"axG",@progbits,_ZNK3Upp8FileList12GetIconWidthEv,comdat
	.align 2
	.weak	_ZNK3Upp8FileList12GetIconWidthEv
	.type	_ZNK3Upp8FileList12GetIconWidthEv, @function
_ZNK3Upp8FileList12GetIconWidthEv:
.LFB6439:
	pushq	%rbp
.LCFI156:
	movq	%rsp, %rbp
.LCFI157:
	movq	%rdi, -8(%rbp)
	movq	-8(%rbp), %rax
	movl	1736(%rax), %eax
	leave
	ret
.LFE6439:
	.size	_ZNK3Upp8FileList12GetIconWidthEv, .-_ZNK3Upp8FileList12GetIconWidthEv
	.section	.text._ZNK3Upp7FileSel11GetReadOnlyEv,"axG",@progbits,_ZNK3Upp7FileSel11GetReadOnlyEv,comdat
	.align 2
	.weak	_ZNK3Upp7FileSel11GetReadOnlyEv
	.type	_ZNK3Upp7FileSel11GetReadOnlyEv, @function
_ZNK3Upp7FileSel11GetReadOnlyEv:
.LFB6454:
	pushq	%rbp
.LCFI158:
	movq	%rsp, %rbp
.LCFI159:
	subq	$16, %rsp
.LCFI160:
	movq	%rdi, -8(%rbp)
	movq	-8(%rbp), %rdi
	addq	$11656, %rdi
	call	_ZNK3Upp6OptioncviEv
	testl	%eax, %eax
	setne	%al
	movzbl	%al, %eax
	leave
	ret
.LFE6454:
	.size	_ZNK3Upp7FileSel11GetReadOnlyEv, .-_ZNK3Upp7FileSel11GetReadOnlyEv
	.section	.text._ZN7Package4File4InitEv,"axG",@progbits,_ZN7Package4File4InitEv,comdat
	.align 2
	.weak	_ZN7Package4File4InitEv
	.type	_ZN7Package4File4InitEv, @function
_ZN7Package4File4InitEv:
.LFB6970:
	pushq	%rbp
.LCFI161:
	movq	%rsp, %rbp
.LCFI162:
	subq	$16, %rsp
.LCFI163:
	movq	%rdi, -8(%rbp)
	movq	-8(%rbp), %rax
	movb	$0, 65(%rax)
	movq	-8(%rbp), %rax
	movzbl	65(%rax), %edx
	movq	-8(%rbp), %rax
	movb	%dl, 64(%rax)
	movl	$_ZN3Upp4NullE, %edi
	call	_ZNK3Upp6NullercviEv
	movl	%eax, %edx
	movq	-8(%rbp), %rax
	movl	%edx, 68(%rax)
	movq	-8(%rbp), %rax
	movb	$0, 72(%rax)
	movq	-8(%rbp), %rax
	movl	$0, 76(%rax)
	movq	-8(%rbp), %rax
	movl	$0, 96(%rax)
	leave
	ret
.LFE6970:
	.size	_ZN7Package4File4InitEv, .-_ZN7Package4File4InitEv
	.section	.text._ZN3Upp8MoveableIN13WorkspaceWork5SepfoENS_10EmptyClassEEC2Ev,"axG",@progbits,_ZN3Upp8MoveableIN13WorkspaceWork5SepfoENS_10EmptyClassEEC2Ev,comdat
	.align 2
	.weak	_ZN3Upp8MoveableIN13WorkspaceWork5SepfoENS_10EmptyClassEEC2Ev
	.type	_ZN3Upp8MoveableIN13WorkspaceWork5SepfoENS_10EmptyClassEEC2Ev, @function
_ZN3Upp8MoveableIN13WorkspaceWork5SepfoENS_10EmptyClassEEC2Ev:
.LFB7776:
	pushq	%rbp
.LCFI164:
	movq	%rsp, %rbp
.LCFI165:
	movq	%rdi, -8(%rbp)
	leave
	ret
.LFE7776:
	.size	_ZN3Upp8MoveableIN13WorkspaceWork5SepfoENS_10EmptyClassEEC2Ev, .-_ZN3Upp8MoveableIN13WorkspaceWork5SepfoENS_10EmptyClassEEC2Ev
	.section	.text._ZN13WorkspaceWork16BuildPackageMenuERN3Upp3BarE,"axG",@progbits,_ZN13WorkspaceWork16BuildPackageMenuERN3Upp3BarE,comdat
	.align 2
	.weak	_ZN13WorkspaceWork16BuildPackageMenuERN3Upp3BarE
	.type	_ZN13WorkspaceWork16BuildPackageMenuERN3Upp3BarE, @function
_ZN13WorkspaceWork16BuildPackageMenuERN3Upp3BarE:
.LFB7783:
	pushq	%rbp
.LCFI166:
	movq	%rsp, %rbp
.LCFI167:
	movq	%rdi, -8(%rbp)
	movq	%rsi, -16(%rbp)
	leave
	ret
.LFE7783:
	.size	_ZN13WorkspaceWork16BuildPackageMenuERN3Upp3BarE, .-_ZN13WorkspaceWork16BuildPackageMenuERN3Upp3BarE
	.section	.text._ZN13WorkspaceWork13BuildFileMenuERN3Upp3BarE,"axG",@progbits,_ZN13WorkspaceWork13BuildFileMenuERN3Upp3BarE,comdat
	.align 2
	.weak	_ZN13WorkspaceWork13BuildFileMenuERN3Upp3BarE
	.type	_ZN13WorkspaceWork13BuildFileMenuERN3Upp3BarE, @function
_ZN13WorkspaceWork13BuildFileMenuERN3Upp3BarE:
.LFB7784:
	pushq	%rbp
.LCFI168:
	movq	%rsp, %rbp
.LCFI169:
	movq	%rdi, -8(%rbp)
	movq	%rsi, -16(%rbp)
	leave
	ret
.LFE7784:
	.size	_ZN13WorkspaceWork13BuildFileMenuERN3Upp3BarE, .-_ZN13WorkspaceWork13BuildFileMenuERN3Upp3BarE
	.section	.text._ZN13WorkspaceWork18FilePropertiesMenuERN3Upp3BarE,"axG",@progbits,_ZN13WorkspaceWork18FilePropertiesMenuERN3Upp3BarE,comdat
	.align 2
	.weak	_ZN13WorkspaceWork18FilePropertiesMenuERN3Upp3BarE
	.type	_ZN13WorkspaceWork18FilePropertiesMenuERN3Upp3BarE, @function
_ZN13WorkspaceWork18FilePropertiesMenuERN3Upp3BarE:
.LFB7785:
	pushq	%rbp
.LCFI170:
	movq	%rsp, %rbp
.LCFI171:
	movq	%rdi, -8(%rbp)
	movq	%rsi, -16(%rbp)
	leave
	ret
.LFE7785:
	.size	_ZN13WorkspaceWork18FilePropertiesMenuERN3Upp3BarE, .-_ZN13WorkspaceWork18FilePropertiesMenuERN3Upp3BarE
	.section	.text._ZN13WorkspaceWork12GetOutputDirEv,"axG",@progbits,_ZN13WorkspaceWork12GetOutputDirEv,comdat
	.align 2
	.weak	_ZN13WorkspaceWork12GetOutputDirEv
	.type	_ZN13WorkspaceWork12GetOutputDirEv, @function
_ZN13WorkspaceWork12GetOutputDirEv:
.LFB7786:
	pushq	%rbp
.LCFI172:
	movq	%rsp, %rbp
.LCFI173:
	pushq	%rbx
.LCFI174:
	subq	$8, %rsp
.LCFI175:
	movq	%rdi, %rbx
	movq	%rsi, -16(%rbp)
	movq	%rbx, %rdi
	movl	$_ZN3Upp4NullE, %esi
	call	_ZN3Upp6StringC1ERKNS_6NullerE
	movq	%rbx, %rax
	addq	$8, %rsp
	popq	%rbx
	leave
	ret
.LFE7786:
	.size	_ZN13WorkspaceWork12GetOutputDirEv, .-_ZN13WorkspaceWork12GetOutputDirEv
	.section	.text._ZN13WorkspaceWork13SyncWorkspaceEv,"axG",@progbits,_ZN13WorkspaceWork13SyncWorkspaceEv,comdat
	.align 2
	.weak	_ZN13WorkspaceWork13SyncWorkspaceEv
	.type	_ZN13WorkspaceWork13SyncWorkspaceEv, @function
_ZN13WorkspaceWork13SyncWorkspaceEv:
.LFB7787:
	pushq	%rbp
.LCFI176:
	movq	%rsp, %rbp
.LCFI177:
	movq	%rdi, -8(%rbp)
	leave
	ret
.LFE7787:
	.size	_ZN13WorkspaceWork13SyncWorkspaceEv, .-_ZN13WorkspaceWork13SyncWorkspaceEv
	.section	.text._ZN13WorkspaceWork12FileSelectedEv,"axG",@progbits,_ZN13WorkspaceWork12FileSelectedEv,comdat
	.align 2
	.weak	_ZN13WorkspaceWork12FileSelectedEv
	.type	_ZN13WorkspaceWork12FileSelectedEv, @function
_ZN13WorkspaceWork12FileSelectedEv:
.LFB7788:
	pushq	%rbp
.LCFI178:
	movq	%rsp, %rbp
.LCFI179:
	movq	%rdi, -8(%rbp)
	leave
	ret
.LFE7788:
	.size	_ZN13WorkspaceWork12FileSelectedEv, .-_ZN13WorkspaceWork12FileSelectedEv
	.section	.text._ZN13WorkspaceWork10FileRenameERKN3Upp6StringE,"axG",@progbits,_ZN13WorkspaceWork10FileRenameERKN3Upp6StringE,comdat
	.align 2
	.weak	_ZN13WorkspaceWork10FileRenameERKN3Upp6StringE
	.type	_ZN13WorkspaceWork10FileRenameERKN3Upp6StringE, @function
_ZN13WorkspaceWork10FileRenameERKN3Upp6StringE:
.LFB7789:
	pushq	%rbp
.LCFI180:
	movq	%rsp, %rbp
.LCFI181:
	movq	%rdi, -8(%rbp)
	movq	%rsi, -16(%rbp)
	leave
	ret
.LFE7789:
	.size	_ZN13WorkspaceWork10FileRenameERKN3Upp6StringE, .-_ZN13WorkspaceWork10FileRenameERKN3Upp6StringE
	.section	.text._ZN16TppLayout__layidC2Ev,"axG",@progbits,_ZN16TppLayout__layidC2Ev,comdat
	.align 2
	.weak	_ZN16TppLayout__layidC2Ev
	.type	_ZN16TppLayout__layidC2Ev, @function
_ZN16TppLayout__layidC2Ev:
.LFB7961:
	pushq	%rbp
.LCFI182:
	movq	%rsp, %rbp
.LCFI183:
	movq	%rdi, -8(%rbp)
	leave
	ret
.LFE7961:
	.size	_ZN16TppLayout__layidC2Ev, .-_ZN16TppLayout__layidC2Ev
	.section	.text._ZN3Upp4SwapIyEEvRT_S2_,"axG",@progbits,_ZN3Upp4SwapIyEEvRT_S2_,comdat
	.align 2
	.weak	_ZN3Upp4SwapIyEEvRT_S2_
	.type	_ZN3Upp4SwapIyEEvRT_S2_, @function
_ZN3Upp4SwapIyEEvRT_S2_:
.LFB8023:
	pushq	%rbp
.LCFI184:
	movq	%rsp, %rbp
.LCFI185:
	movq	%rdi, -24(%rbp)
	movq	%rsi, -32(%rbp)
	movq	-24(%rbp), %rax
	movq	(%rax), %rax
	movq	%rax, -8(%rbp)
	movq	-32(%rbp), %rax
	movq	(%rax), %rdx
	movq	-24(%rbp), %rax
	movq	%rdx, (%rax)
	movq	-32(%rbp), %rdx
	movq	-8(%rbp), %rax
	movq	%rax, (%rdx)
	leave
	ret
.LFE8023:
	.size	_ZN3Upp4SwapIyEEvRT_S2_, .-_ZN3Upp4SwapIyEEvRT_S2_
	.section	.text._ZN3Upp7String04SwapERS0_,"axG",@progbits,_ZN3Upp7String04SwapERS0_,comdat
	.align 2
	.weak	_ZN3Upp7String04SwapERS0_
	.type	_ZN3Upp7String04SwapERS0_, @function
_ZN3Upp7String04SwapERS0_:
.LFB1239:
	pushq	%rbp
.LCFI186:
	movq	%rsp, %rbp
.LCFI187:
	subq	$16, %rsp
.LCFI188:
	movq	%rdi, -8(%rbp)
	movq	%rsi, -16(%rbp)
	movq	-16(%rbp), %rsi
	movq	-8(%rbp), %rdi
	call	_ZN3Upp4SwapIyEEvRT_S2_
	movq	-16(%rbp), %rsi
	addq	$8, %rsi
	movq	-8(%rbp), %rdi
	addq	$8, %rdi
	call	_ZN3Upp4SwapIyEEvRT_S2_
	movq	-8(%rbp), %rdi
	call	_ZN3Upp7String04DsynEv
	movq	-16(%rbp), %rdi
	call	_ZN3Upp7String04DsynEv
	leave
	ret
.LFE1239:
	.size	_ZN3Upp7String04SwapERS0_, .-_ZN3Upp7String04SwapERS0_
	.section	.text._ZN3Upp6String4SwapERS0_,"axG",@progbits,_ZN3Upp6String4SwapERS0_,comdat
	.align 2
	.weak	_ZN3Upp6String4SwapERS0_
	.type	_ZN3Upp6String4SwapERS0_, @function
_ZN3Upp6String4SwapERS0_:
.LFB1266:
	pushq	%rbp
.LCFI189:
	movq	%rsp, %rbp
.LCFI190:
	subq	$16, %rsp
.LCFI191:
	movq	%rdi, -8(%rbp)
	movq	%rsi, -16(%rbp)
	movq	-16(%rbp), %rsi
	movq	-8(%rbp), %rdi
	call	_ZN3Upp7String04SwapERS0_
	leave
	ret
.LFE1266:
	.size	_ZN3Upp6String4SwapERS0_, .-_ZN3Upp6String4SwapERS0_
	.section	.text._ZN3Upp4SwapERNS_6StringES1_,"axG",@progbits,_ZN3Upp4SwapERNS_6StringES1_,comdat
	.align 2
	.weak	_ZN3Upp4SwapERNS_6StringES1_
	.type	_ZN3Upp4SwapERNS_6StringES1_, @function
_ZN3Upp4SwapERNS_6StringES1_:
.LFB1317:
	pushq	%rbp
.LCFI192:
	movq	%rsp, %rbp
.LCFI193:
	subq	$16, %rsp
.LCFI194:
	movq	%rdi, -8(%rbp)
	movq	%rsi, -16(%rbp)
	movq	-16(%rbp), %rsi
	movq	-8(%rbp), %rdi
	call	_ZN3Upp6String4SwapERS0_
	leave
	ret
.LFE1317:
	.size	_ZN3Upp4SwapERNS_6StringES1_, .-_ZN3Upp4SwapERNS_6StringES1_
	.section	.text._ZNK3Upp7AStringINS_7String0EEcvPKcEv,"axG",@progbits,_ZNK3Upp7AStringINS_7String0EEcvPKcEv,comdat
	.align 2
	.weak	_ZNK3Upp7AStringINS_7String0EEcvPKcEv
	.type	_ZNK3Upp7AStringINS_7String0EEcvPKcEv, @function
_ZNK3Upp7AStringINS_7String0EEcvPKcEv:
.LFB8030:
	pushq	%rbp
.LCFI195:
	movq	%rsp, %rbp
.LCFI196:
	subq	$16, %rsp
.LCFI197:
	movq	%rdi, -8(%rbp)
	movq	-8(%rbp), %rdi
	call	_ZNK3Upp7String05BeginEv
	leave
	ret
.LFE8030:
	.size	_ZNK3Upp7AStringINS_7String0EEcvPKcEv, .-_ZNK3Upp7AStringINS_7String0EEcvPKcEv
	.section	.text._ZNK3Upp7AStringINS_7String0EE9GetLengthEv,"axG",@progbits,_ZNK3Upp7AStringINS_7String0EE9GetLengthEv,comdat
	.align 2
	.weak	_ZNK3Upp7AStringINS_7String0EE9GetLengthEv
	.type	_ZNK3Upp7AStringINS_7String0EE9GetLengthEv, @function
_ZNK3Upp7AStringINS_7String0EE9GetLengthEv:
.LFB8031:
	pushq	%rbp
.LCFI198:
	movq	%rsp, %rbp
.LCFI199:
	subq	$16, %rsp
.LCFI200:
	movq	%rdi, -8(%rbp)
	movq	-8(%rbp), %rdi
	call	_ZNK3Upp7String08GetCountEv
	leave
	ret
.LFE8031:
	.size	_ZNK3Upp7AStringINS_7String0EE9GetLengthEv, .-_ZNK3Upp7AStringINS_7String0EE9GetLengthEv
	.section	.text._ZNK3Upp7AStringINS_7String0EEcoEv,"axG",@progbits,_ZNK3Upp7AStringINS_7String0EEcoEv,comdat
	.align 2
	.weak	_ZNK3Upp7AStringINS_7String0EEcoEv
	.type	_ZNK3Upp7AStringINS_7String0EEcoEv, @function
_ZNK3Upp7AStringINS_7String0EEcoEv:
.LFB8032:
	pushq	%rbp
.LCFI201:
	movq	%rsp, %rbp
.LCFI202:
	subq	$16, %rsp
.LCFI203:
	movq	%rdi, -8(%rbp)
	movq	-8(%rbp), %rdi
	call	_ZNK3Upp7String05BeginEv
	leave
	ret
.LFE8032:
	.size	_ZNK3Upp7AStringINS_7String0EEcoEv, .-_ZNK3Upp7AStringINS_7String0EEcoEv
	.section	.text._ZNK3Upp7AStringINS_7String0EE3EndEv,"axG",@progbits,_ZNK3Upp7AStringINS_7String0EE3EndEv,comdat
	.align 2
	.weak	_ZNK3Upp7AStringINS_7String0EE3EndEv
	.type	_ZNK3Upp7AStringINS_7String0EE3EndEv, @function
_ZNK3Upp7AStringINS_7String0EE3EndEv:
.LFB8036:
	pushq	%rbp
.LCFI204:
	movq	%rsp, %rbp
.LCFI205:
	pushq	%rbx
.LCFI206:
	subq	$8, %rsp
.LCFI207:
	movq	%rdi, -16(%rbp)
	movq	-16(%rbp), %rdi
	call	_ZNK3Upp7String05BeginEv
	movq	%rax, %rbx
	movq	-16(%rbp), %rdi
	call	_ZNK3Upp7AStringINS_7String0EE9GetLengthEv
	cltq
	leaq	(%rbx,%rax), %rax
	addq	$8, %rsp
	popq	%rbx
	leave
	ret
.LFE8036:
	.size	_ZNK3Upp7AStringINS_7String0EE3EndEv, .-_ZNK3Upp7AStringINS_7String0EE3EndEv
	.section	.text._ZNK3Upp7AStringINS_7String0EE7IsEmptyEv,"axG",@progbits,_ZNK3Upp7AStringINS_7String0EE7IsEmptyEv,comdat
	.align 2
	.weak	_ZNK3Upp7AStringINS_7String0EE7IsEmptyEv
	.type	_ZNK3Upp7AStringINS_7String0EE7IsEmptyEv, @function
_ZNK3Upp7AStringINS_7String0EE7IsEmptyEv:
.LFB8055:
	pushq	%rbp
.LCFI208:
	movq	%rsp, %rbp
.LCFI209:
	subq	$16, %rsp
.LCFI210:
	movq	%rdi, -8(%rbp)
	movq	-8(%rbp), %rdi
	call	_ZNK3Upp7String08GetCountEv
	testl	%eax, %eax
	sete	%al
	movzbl	%al, %eax
	leave
	ret
.LFE8055:
	.size	_ZNK3Upp7AStringINS_7String0EE7IsEmptyEv, .-_ZNK3Upp7AStringINS_7String0EE7IsEmptyEv
	.section	.text._ZN3Upp6IsNullINS_6StringEEEbRKT_,"axG",@progbits,_ZN3Upp6IsNullINS_6StringEEEbRKT_,comdat
	.align 2
	.weak	_ZN3Upp6IsNullINS_6StringEEEbRKT_
	.type	_ZN3Upp6IsNullINS_6StringEEEbRKT_, @function
_ZN3Upp6IsNullINS_6StringEEEbRKT_:
.LFB1364:
	pushq	%rbp
.LCFI211:
	movq	%rsp, %rbp
.LCFI212:
	subq	$16, %rsp
.LCFI213:
	movq	%rdi, -8(%rbp)
	movq	-8(%rbp), %rdi
	call	_ZNK3Upp7AStringINS_7String0EE7IsEmptyEv
	movzbl	%al, %eax
	leave
	ret
.LFE1364:
	.size	_ZN3Upp6IsNullINS_6StringEEEbRKT_, .-_ZN3Upp6IsNullINS_6StringEEEbRKT_
	.section	.text._ZNK3Upp7AStringINS_8WString0EE9GetLengthEv,"axG",@progbits,_ZNK3Upp7AStringINS_8WString0EE9GetLengthEv,comdat
	.align 2
	.weak	_ZNK3Upp7AStringINS_8WString0EE9GetLengthEv
	.type	_ZNK3Upp7AStringINS_8WString0EE9GetLengthEv, @function
_ZNK3Upp7AStringINS_8WString0EE9GetLengthEv:
.LFB8062:
	pushq	%rbp
.LCFI214:
	movq	%rsp, %rbp
.LCFI215:
	subq	$16, %rsp
.LCFI216:
	movq	%rdi, -8(%rbp)
	movq	-8(%rbp), %rdi
	call	_ZNK3Upp8WString08GetCountEv
	leave
	ret
.LFE8062:
	.size	_ZNK3Upp7AStringINS_8WString0EE9GetLengthEv, .-_ZNK3Upp7AStringINS_8WString0EE9GetLengthEv
	.section	.text._ZNK3Upp9EditField9GetLengthEv,"axG",@progbits,_ZNK3Upp9EditField9GetLengthEv,comdat
	.align 2
	.weak	_ZThn152_NK3Upp9EditField9GetLengthEv
	.type	_ZThn152_NK3Upp9EditField9GetLengthEv, @function
_ZThn152_NK3Upp9EditField9GetLengthEv:
	addq	$-152, %rdi
	jmp	.LTHUNK0
	.size	_ZThn152_NK3Upp9EditField9GetLengthEv, .-_ZThn152_NK3Upp9EditField9GetLengthEv
	.align 2
	.weak	_ZNK3Upp9EditField9GetLengthEv
	.type	_ZNK3Upp9EditField9GetLengthEv, @function
_ZNK3Upp9EditField9GetLengthEv:
.LFB5631:
	pushq	%rbp
.LCFI217:
	movq	%rsp, %rbp
.LCFI218:
	subq	$16, %rsp
.LCFI219:
	movq	%rdi, -8(%rbp)
	movq	-8(%rbp), %rdi
	addq	$200, %rdi
	call	_ZNK3Upp7AStringINS_8WString0EE9GetLengthEv
	leave
	ret
.LFE5631:
	.size	_ZNK3Upp9EditField9GetLengthEv, .-_ZNK3Upp9EditField9GetLengthEv
	.section	.text._ZN3Upp8MoveableINS_5Rect_IiEENS_10EmptyClassEEC2Ev,"axG",@progbits,_ZN3Upp8MoveableINS_5Rect_IiEENS_10EmptyClassEEC2Ev,comdat
	.align 2
	.weak	_ZN3Upp8MoveableINS_5Rect_IiEENS_10EmptyClassEEC2Ev
	.type	_ZN3Upp8MoveableINS_5Rect_IiEENS_10EmptyClassEEC2Ev, @function
_ZN3Upp8MoveableINS_5Rect_IiEENS_10EmptyClassEEC2Ev:
.LFB8132:
	pushq	%rbp
.LCFI220:
	movq	%rsp, %rbp
.LCFI221:
	movq	%rdi, -8(%rbp)
	leave
	ret
.LFE8132:
	.size	_ZN3Upp8MoveableINS_5Rect_IiEENS_10EmptyClassEEC2Ev, .-_ZN3Upp8MoveableINS_5Rect_IiEENS_10EmptyClassEEC2Ev
	.section	.text._ZN3Upp8MoveableINS_6Point_IiEENS_10EmptyClassEEC2Ev,"axG",@progbits,_ZN3Upp8MoveableINS_6Point_IiEENS_10EmptyClassEEC2Ev,comdat
	.align 2
	.weak	_ZN3Upp8MoveableINS_6Point_IiEENS_10EmptyClassEEC2Ev
	.type	_ZN3Upp8MoveableINS_6Point_IiEENS_10EmptyClassEEC2Ev, @function
_ZN3Upp8MoveableINS_6Point_IiEENS_10EmptyClassEEC2Ev:
.LFB8156:
	pushq	%rbp
.LCFI222:
	movq	%rsp, %rbp
.LCFI223:
	movq	%rdi, -8(%rbp)
	leave
	ret
.LFE8156:
	.size	_ZN3Upp8MoveableINS_6Point_IiEENS_10EmptyClassEEC2Ev, .-_ZN3Upp8MoveableINS_6Point_IiEENS_10EmptyClassEEC2Ev
	.section	.text._ZN3Upp6Point_IiEC1ERKS1_,"axG",@progbits,_ZN3Upp6Point_IiEC1ERKS1_,comdat
	.align 2
	.weak	_ZN3Upp6Point_IiEC1ERKS1_
	.type	_ZN3Upp6Point_IiEC1ERKS1_, @function
_ZN3Upp6Point_IiEC1ERKS1_:
.LFB8159:
	pushq	%rbp
.LCFI224:
	movq	%rsp, %rbp
.LCFI225:
	subq	$16, %rsp
.LCFI226:
	movq	%rdi, -8(%rbp)
	movq	%rsi, -16(%rbp)
	movq	-8(%rbp), %rdi
	call	_ZN3Upp8MoveableINS_6Point_IiEENS_10EmptyClassEEC2Ev
	movq	-16(%rbp), %rax
	movl	(%rax), %edx
	movq	-8(%rbp), %rax
	movl	%edx, (%rax)
	movq	-16(%rbp), %rax
	movl	4(%rax), %edx
	movq	-8(%rbp), %rax
	movl	%edx, 4(%rax)
	leave
	ret
.LFE8159:
	.size	_ZN3Upp6Point_IiEC1ERKS1_, .-_ZN3Upp6Point_IiEC1ERKS1_
	.section	.text._ZN3Upp8MoveableINS_5Size_IiEENS_10EmptyClassEEC2Ev,"axG",@progbits,_ZN3Upp8MoveableINS_5Size_IiEENS_10EmptyClassEEC2Ev,comdat
	.align 2
	.weak	_ZN3Upp8MoveableINS_5Size_IiEENS_10EmptyClassEEC2Ev
	.type	_ZN3Upp8MoveableINS_5Size_IiEENS_10EmptyClassEEC2Ev, @function
_ZN3Upp8MoveableINS_5Size_IiEENS_10EmptyClassEEC2Ev:
.LFB8173:
	pushq	%rbp
.LCFI227:
	movq	%rsp, %rbp
.LCFI228:
	movq	%rdi, -8(%rbp)
	leave
	ret
.LFE8173:
	.size	_ZN3Upp8MoveableINS_5Size_IiEENS_10EmptyClassEEC2Ev, .-_ZN3Upp8MoveableINS_5Size_IiEENS_10EmptyClassEEC2Ev
	.section	.text._ZN3Upp5Size_IiEC1ERKS1_,"axG",@progbits,_ZN3Upp5Size_IiEC1ERKS1_,comdat
	.align 2
	.weak	_ZN3Upp5Size_IiEC1ERKS1_
	.type	_ZN3Upp5Size_IiEC1ERKS1_, @function
_ZN3Upp5Size_IiEC1ERKS1_:
.LFB8176:
	pushq	%rbp
.LCFI229:
	movq	%rsp, %rbp
.LCFI230:
	subq	$16, %rsp
.LCFI231:
	movq	%rdi, -8(%rbp)
	movq	%rsi, -16(%rbp)
	movq	-8(%rbp), %rdi
	call	_ZN3Upp8MoveableINS_5Size_IiEENS_10EmptyClassEEC2Ev
	movq	-16(%rbp), %rax
	movl	(%rax), %edx
	movq	-8(%rbp), %rax
	movl	%edx, (%rax)
	movq	-16(%rbp), %rax
	movl	4(%rax), %edx
	movq	-8(%rbp), %rax
	movl	%edx, 4(%rax)
	leave
	ret
.LFE8176:
	.size	_ZN3Upp5Size_IiEC1ERKS1_, .-_ZN3Upp5Size_IiEC1ERKS1_
	.section	.text._ZN3Upp17AssignValueTypeNoINS_4FontELj40ENS_8MoveableIS1_NS_10EmptyClassEEEEaSERKS5_,"axG",@progbits,_ZN3Upp17AssignValueTypeNoINS_4FontELj40ENS_8MoveableIS1_NS_10EmptyClassEEEEaSERKS5_,comdat
	.align 2
	.weak	_ZN3Upp17AssignValueTypeNoINS_4FontELj40ENS_8MoveableIS1_NS_10EmptyClassEEEEaSERKS5_
	.type	_ZN3Upp17AssignValueTypeNoINS_4FontELj40ENS_8MoveableIS1_NS_10EmptyClassEEEEaSERKS5_, @function
_ZN3Upp17AssignValueTypeNoINS_4FontELj40ENS_8MoveableIS1_NS_10EmptyClassEEEEaSERKS5_:
.LFB8294:
	pushq	%rbp
.LCFI232:
	movq	%rsp, %rbp
.LCFI233:
	movq	%rdi, -8(%rbp)
	movq	%rsi, -16(%rbp)
	leave
	ret
.LFE8294:
	.size	_ZN3Upp17AssignValueTypeNoINS_4FontELj40ENS_8MoveableIS1_NS_10EmptyClassEEEEaSERKS5_, .-_ZN3Upp17AssignValueTypeNoINS_4FontELj40ENS_8MoveableIS1_NS_10EmptyClassEEEEaSERKS5_
	.section	.text._ZN3Upp4FontaSERKS0_,"axG",@progbits,_ZN3Upp4FontaSERKS0_,comdat
	.align 2
	.weak	_ZN3Upp4FontaSERKS0_
	.type	_ZN3Upp4FontaSERKS0_, @function
_ZN3Upp4FontaSERKS0_:
.LFB4353:
	pushq	%rbp
.LCFI234:
	movq	%rsp, %rbp
.LCFI235:
	subq	$16, %rsp
.LCFI236:
	movq	%rdi, -8(%rbp)
	movq	%rsi, -16(%rbp)
	movq	-16(%rbp), %rsi
	movq	-8(%rbp), %rdi
	call	_ZN3Upp17AssignValueTypeNoINS_4FontELj40ENS_8MoveableIS1_NS_10EmptyClassEEEEaSERKS5_
	movq	-16(%rbp), %rax
	movzwl	(%rax), %edx
	movq	-8(%rbp), %rax
	movw	%dx, (%rax)
	movq	-16(%rbp), %rax
	movzwl	2(%rax), %edx
	movq	-8(%rbp), %rax
	movw	%dx, 2(%rax)
	movq	-16(%rbp), %rax
	movzwl	4(%rax), %edx
	movq	-8(%rbp), %rax
	movw	%dx, 4(%rax)
	movq	-16(%rbp), %rax
	movzwl	6(%rax), %edx
	movq	-8(%rbp), %rax
	movw	%dx, 6(%rax)
	movq	-8(%rbp), %rax
	leave
	ret
.LFE4353:
	.size	_ZN3Upp4FontaSERKS0_, .-_ZN3Upp4FontaSERKS0_
	.section	.text._ZN3Upp8AttrText7SetFontENS_4FontE,"axG",@progbits,_ZN3Upp8AttrText7SetFontENS_4FontE,comdat
	.align 2
	.weak	_ZN3Upp8AttrText7SetFontENS_4FontE
	.type	_ZN3Upp8AttrText7SetFontENS_4FontE, @function
_ZN3Upp8AttrText7SetFontENS_4FontE:
.LFB4524:
	pushq	%rbp
.LCFI237:
	movq	%rsp, %rbp
.LCFI238:
	subq	$16, %rsp
.LCFI239:
	movq	%rdi, -8(%rbp)
	movq	%rsi, -16(%rbp)
	movq	-8(%rbp), %rdi
	addq	$16, %rdi
	leaq	-16(%rbp), %rsi
	call	_ZN3Upp4FontaSERKS0_
	movq	-8(%rbp), %rax
	leave
	ret
.LFE4524:
	.size	_ZN3Upp8AttrText7SetFontENS_4FontE, .-_ZN3Upp8AttrText7SetFontENS_4FontE
	.section	.text._ZN3Upp17AssignValueTypeNoINS_5ColorELj39ENS_8MoveableIS1_NS_10EmptyClassEEEEaSERKS5_,"axG",@progbits,_ZN3Upp17AssignValueTypeNoINS_5ColorELj39ENS_8MoveableIS1_NS_10EmptyClassEEEEaSERKS5_,comdat
	.align 2
	.weak	_ZN3Upp17AssignValueTypeNoINS_5ColorELj39ENS_8MoveableIS1_NS_10EmptyClassEEEEaSERKS5_
	.type	_ZN3Upp17AssignValueTypeNoINS_5ColorELj39ENS_8MoveableIS1_NS_10EmptyClassEEEEaSERKS5_, @function
_ZN3Upp17AssignValueTypeNoINS_5ColorELj39ENS_8MoveableIS1_NS_10EmptyClassEEEEaSERKS5_:
.LFB8309:
	pushq	%rbp
.LCFI240:
	movq	%rsp, %rbp
.LCFI241:
	movq	%rdi, -8(%rbp)
	movq	%rsi, -16(%rbp)
	leave
	ret
.LFE8309:
	.size	_ZN3Upp17AssignValueTypeNoINS_5ColorELj39ENS_8MoveableIS1_NS_10EmptyClassEEEEaSERKS5_, .-_ZN3Upp17AssignValueTypeNoINS_5ColorELj39ENS_8MoveableIS1_NS_10EmptyClassEEEEaSERKS5_
	.section	.text._ZN3Upp5ColoraSERKS0_,"axG",@progbits,_ZN3Upp5ColoraSERKS0_,comdat
	.align 2
	.weak	_ZN3Upp5ColoraSERKS0_
	.type	_ZN3Upp5ColoraSERKS0_, @function
_ZN3Upp5ColoraSERKS0_:
.LFB4522:
	pushq	%rbp
.LCFI242:
	movq	%rsp, %rbp
.LCFI243:
	subq	$16, %rsp
.LCFI244:
	movq	%rdi, -8(%rbp)
	movq	%rsi, -16(%rbp)
	movq	-16(%rbp), %rsi
	movq	-8(%rbp), %rdi
	call	_ZN3Upp17AssignValueTypeNoINS_5ColorELj39ENS_8MoveableIS1_NS_10EmptyClassEEEEaSERKS5_
	movq	-16(%rbp), %rax
	movl	(%rax), %edx
	movq	-8(%rbp), %rax
	movl	%edx, (%rax)
	movq	-8(%rbp), %rax
	leave
	ret
.LFE4522:
	.size	_ZN3Upp5ColoraSERKS0_, .-_ZN3Upp5ColoraSERKS0_
	.section	.text._ZN3Upp25MoveableAndDeepCopyOptionINS_6VectorIiEENS_10EmptyClassEEC2Ev,"axG",@progbits,_ZN3Upp25MoveableAndDeepCopyOptionINS_6VectorIiEENS_10EmptyClassEEC2Ev,comdat
	.align 2
	.weak	_ZN3Upp25MoveableAndDeepCopyOptionINS_6VectorIiEENS_10EmptyClassEEC2Ev
	.type	_ZN3Upp25MoveableAndDeepCopyOptionINS_6VectorIiEENS_10EmptyClassEEC2Ev, @function
_ZN3Upp25MoveableAndDeepCopyOptionINS_6VectorIiEENS_10EmptyClassEEC2Ev:
.LFB8368:
	pushq	%rbp
.LCFI245:
	movq	%rsp, %rbp
.LCFI246:
	movq	%rdi, -8(%rbp)
	leave
	ret
.LFE8368:
	.size	_ZN3Upp25MoveableAndDeepCopyOptionINS_6VectorIiEENS_10EmptyClassEEC2Ev, .-_ZN3Upp25MoveableAndDeepCopyOptionINS_6VectorIiEENS_10EmptyClassEEC2Ev
	.section	.text._ZN3Upp6VectorIiEC1Ev,"axG",@progbits,_ZN3Upp6VectorIiEC1Ev,comdat
	.align 2
	.weak	_ZN3Upp6VectorIiEC1Ev
	.type	_ZN3Upp6VectorIiEC1Ev, @function
_ZN3Upp6VectorIiEC1Ev:
.LFB8371:
	pushq	%rbp
.LCFI247:
	movq	%rsp, %rbp
.LCFI248:
	subq	$16, %rsp
.LCFI249:
	movq	%rdi, -8(%rbp)
	movq	-8(%rbp), %rdi
	call	_ZN3Upp25MoveableAndDeepCopyOptionINS_6VectorIiEENS_10EmptyClassEEC2Ev
	movq	-8(%rbp), %rax
	movq	$0, (%rax)
	movq	-8(%rbp), %rax
	movl	$0, 12(%rax)
	movq	-8(%rbp), %rax
	movl	12(%rax), %edx
	movq	-8(%rbp), %rax
	movl	%edx, 8(%rax)
	leave
	ret
.LFE8371:
	.size	_ZN3Upp6VectorIiEC1Ev, .-_ZN3Upp6VectorIiEC1Ev
	.section	.text._ZN3Upp25MoveableAndDeepCopyOptionINS_5IndexINS_6StringENS_7StdHashIS2_EEEENS_10EmptyClassEEC2Ev,"axG",@progbits,_ZN3Upp25MoveableAndDeepCopyOptionINS_5IndexINS_6StringENS_7StdHashIS2_EEEENS_10EmptyClassEEC2Ev,comdat
	.align 2
	.weak	_ZN3Upp25MoveableAndDeepCopyOptionINS_5IndexINS_6StringENS_7StdHashIS2_EEEENS_10EmptyClassEEC2Ev
	.type	_ZN3Upp25MoveableAndDeepCopyOptionINS_5IndexINS_6StringENS_7StdHashIS2_EEEENS_10EmptyClassEEC2Ev, @function
_ZN3Upp25MoveableAndDeepCopyOptionINS_5IndexINS_6StringENS_7StdHashIS2_EEEENS_10EmptyClassEEC2Ev:
.LFB8464:
	pushq	%rbp
.LCFI250:
	movq	%rsp, %rbp
.LCFI251:
	movq	%rdi, -8(%rbp)
	leave
	ret
.LFE8464:
	.size	_ZN3Upp25MoveableAndDeepCopyOptionINS_5IndexINS_6StringENS_7StdHashIS2_EEEENS_10EmptyClassEEC2Ev, .-_ZN3Upp25MoveableAndDeepCopyOptionINS_5IndexINS_6StringENS_7StdHashIS2_EEEENS_10EmptyClassEEC2Ev
	.section	.text._ZN3Upp25MoveableAndDeepCopyOptionINS_6VectorINS_6StringEEENS_10EmptyClassEEC2Ev,"axG",@progbits,_ZN3Upp25MoveableAndDeepCopyOptionINS_6VectorINS_6StringEEENS_10EmptyClassEEC2Ev,comdat
	.align 2
	.weak	_ZN3Upp25MoveableAndDeepCopyOptionINS_6VectorINS_6StringEEENS_10EmptyClassEEC2Ev
	.type	_ZN3Upp25MoveableAndDeepCopyOptionINS_6VectorINS_6StringEEENS_10EmptyClassEEC2Ev, @function
_ZN3Upp25MoveableAndDeepCopyOptionINS_6VectorINS_6StringEEENS_10EmptyClassEEC2Ev:
.LFB8473:
	pushq	%rbp
.LCFI252:
	movq	%rsp, %rbp
.LCFI253:
	movq	%rdi, -8(%rbp)
	leave
	ret
.LFE8473:
	.size	_ZN3Upp25MoveableAndDeepCopyOptionINS_6VectorINS_6StringEEENS_10EmptyClassEEC2Ev, .-_ZN3Upp25MoveableAndDeepCopyOptionINS_6VectorINS_6StringEEENS_10EmptyClassEEC2Ev
	.section	.text._ZNK3Upp7AStringINS_8WString0EEixEi,"axG",@progbits,_ZNK3Upp7AStringINS_8WString0EEixEi,comdat
	.align 2
	.weak	_ZNK3Upp7AStringINS_8WString0EEixEi
	.type	_ZNK3Upp7AStringINS_8WString0EEixEi, @function
_ZNK3Upp7AStringINS_8WString0EEixEi:
.LFB8489:
	pushq	%rbp
.LCFI254:
	movq	%rsp, %rbp
.LCFI255:
	subq	$16, %rsp
.LCFI256:
	movq	%rdi, -8(%rbp)
	movl	%esi, -12(%rbp)
	movq	-8(%rbp), %rdi
	call	_ZNK3Upp8WString05BeginEv
	movq	%rax, %rdx
	movl	-12(%rbp), %eax
	cltq
	addq	%rax, %rax
	leaq	(%rdx,%rax), %rax
	movzwl	(%rax), %eax
	movzwl	%ax, %eax
	leave
	ret
.LFE8489:
	.size	_ZNK3Upp7AStringINS_8WString0EEixEi, .-_ZNK3Upp7AStringINS_8WString0EEixEi
	.section	.text._ZNK3Upp9EditField7GetCharEi,"axG",@progbits,_ZNK3Upp9EditField7GetCharEi,comdat
	.align 2
	.weak	_ZThn152_NK3Upp9EditField7GetCharEi
	.type	_ZThn152_NK3Upp9EditField7GetCharEi, @function
_ZThn152_NK3Upp9EditField7GetCharEi:
	addq	$-152, %rdi
	jmp	.LTHUNK1
	.size	_ZThn152_NK3Upp9EditField7GetCharEi, .-_ZThn152_NK3Upp9EditField7GetCharEi
	.align 2
	.weak	_ZNK3Upp9EditField7GetCharEi
	.type	_ZNK3Upp9EditField7GetCharEi, @function
_ZNK3Upp9EditField7GetCharEi:
.LFB5632:
	pushq	%rbp
.LCFI257:
	movq	%rsp, %rbp
.LCFI258:
	subq	$16, %rsp
.LCFI259:
	movq	%rdi, -8(%rbp)
	movl	%esi, -12(%rbp)
	movq	-8(%rbp), %rdi
	addq	$200, %rdi
	movl	-12(%rbp), %esi
	call	_ZNK3Upp7AStringINS_8WString0EEixEi
	leave
	ret
.LFE5632:
	.size	_ZNK3Upp9EditField7GetCharEi, .-_ZNK3Upp9EditField7GetCharEi
	.section	.text._ZN3Upp8MoveableINS_9Callback1IRNS_3BarEEENS_10EmptyClassEEC2Ev,"axG",@progbits,_ZN3Upp8MoveableINS_9Callback1IRNS_3BarEEENS_10EmptyClassEEC2Ev,comdat
	.align 2
	.weak	_ZN3Upp8MoveableINS_9Callback1IRNS_3BarEEENS_10EmptyClassEEC2Ev
	.type	_ZN3Upp8MoveableINS_9Callback1IRNS_3BarEEENS_10EmptyClassEEC2Ev, @function
_ZN3Upp8MoveableINS_9Callback1IRNS_3BarEEENS_10EmptyClassEEC2Ev:
.LFB8497:
	pushq	%rbp
.LCFI260:
	movq	%rsp, %rbp
.LCFI261:
	movq	%rdi, -8(%rbp)
	leave
	ret
.LFE8497:
	.size	_ZN3Upp8MoveableINS_9Callback1IRNS_3BarEEENS_10EmptyClassEEC2Ev, .-_ZN3Upp8MoveableINS_9Callback1IRNS_3BarEEENS_10EmptyClassEEC2Ev
	.section	.text._ZN3Upp6VectorINS_6StringEEC1Ev,"axG",@progbits,_ZN3Upp6VectorINS_6StringEEC1Ev,comdat
	.align 2
	.weak	_ZN3Upp6VectorINS_6StringEEC1Ev
	.type	_ZN3Upp6VectorINS_6StringEEC1Ev, @function
_ZN3Upp6VectorINS_6StringEEC1Ev:
.LFB8508:
	pushq	%rbp
.LCFI262:
	movq	%rsp, %rbp
.LCFI263:
	subq	$16, %rsp
.LCFI264:
	movq	%rdi, -8(%rbp)
	movq	-8(%rbp), %rdi
	call	_ZN3Upp25MoveableAndDeepCopyOptionINS_6VectorINS_6StringEEENS_10EmptyClassEEC2Ev
	movq	-8(%rbp), %rax
	movq	$0, (%rax)
	movq	-8(%rbp), %rax
	movl	$0, 12(%rax)
	movq	-8(%rbp), %rax
	movl	12(%rax), %edx
	movq	-8(%rbp), %rax
	movl	%edx, 8(%rax)
	leave
	ret
.LFE8508:
	.size	_ZN3Upp6VectorINS_6StringEEC1Ev, .-_ZN3Upp6VectorINS_6StringEEC1Ev
	.section	.text._ZN3Upp25MoveableAndDeepCopyOptionINS_5ArrayI7OptItemEENS_10EmptyClassEEC2Ev,"axG",@progbits,_ZN3Upp25MoveableAndDeepCopyOptionINS_5ArrayI7OptItemEENS_10EmptyClassEEC2Ev,comdat
	.align 2
	.weak	_ZN3Upp25MoveableAndDeepCopyOptionINS_5ArrayI7OptItemEENS_10EmptyClassEEC2Ev
	.type	_ZN3Upp25MoveableAndDeepCopyOptionINS_5ArrayI7OptItemEENS_10EmptyClassEEC2Ev, @function
_ZN3Upp25MoveableAndDeepCopyOptionINS_5ArrayI7OptItemEENS_10EmptyClassEEC2Ev:
.LFB8684:
	pushq	%rbp
.LCFI265:
	movq	%rsp, %rbp
.LCFI266:
	movq	%rdi, -8(%rbp)
	leave
	ret
.LFE8684:
	.size	_ZN3Upp25MoveableAndDeepCopyOptionINS_5ArrayI7OptItemEENS_10EmptyClassEEC2Ev, .-_ZN3Upp25MoveableAndDeepCopyOptionINS_5ArrayI7OptItemEENS_10EmptyClassEEC2Ev
	.section	.text._ZN3Upp25MoveableAndDeepCopyOptionINS_8ArrayMapINS_6StringE7PackageNS_7StdHashIS2_EEEENS_10EmptyClassEEC2Ev,"axG",@progbits,_ZN3Upp25MoveableAndDeepCopyOptionINS_8ArrayMapINS_6StringE7PackageNS_7StdHashIS2_EEEENS_10EmptyClassEEC2Ev,comdat
	.align 2
	.weak	_ZN3Upp25MoveableAndDeepCopyOptionINS_8ArrayMapINS_6StringE7PackageNS_7StdHashIS2_EEEENS_10EmptyClassEEC2Ev
	.type	_ZN3Upp25MoveableAndDeepCopyOptionINS_8ArrayMapINS_6StringE7PackageNS_7StdHashIS2_EEEENS_10EmptyClassEEC2Ev, @function
_ZN3Upp25MoveableAndDeepCopyOptionINS_8ArrayMapINS_6StringE7PackageNS_7StdHashIS2_EEEENS_10EmptyClassEEC2Ev:
.LFB8998:
	pushq	%rbp
.LCFI267:
	movq	%rsp, %rbp
.LCFI268:
	movq	%rdi, -8(%rbp)
	leave
	ret
.LFE8998:
	.size	_ZN3Upp25MoveableAndDeepCopyOptionINS_8ArrayMapINS_6StringE7PackageNS_7StdHashIS2_EEEENS_10EmptyClassEEC2Ev, .-_ZN3Upp25MoveableAndDeepCopyOptionINS_8ArrayMapINS_6StringE7PackageNS_7StdHashIS2_EEEENS_10EmptyClassEEC2Ev
	.section	.text._ZN3Upp25MoveableAndDeepCopyOptionINS_5IndexIN13WorkspaceWork5SepfoENS_7StdHashIS3_EEEENS_10EmptyClassEEC2Ev,"axG",@progbits,_ZN3Upp25MoveableAndDeepCopyOptionINS_5IndexIN13WorkspaceWork5SepfoENS_7StdHashIS3_EEEENS_10EmptyClassEEC2Ev,comdat
	.align 2
	.weak	_ZN3Upp25MoveableAndDeepCopyOptionINS_5IndexIN13WorkspaceWork5SepfoENS_7StdHashIS3_EEEENS_10EmptyClassEEC2Ev
	.type	_ZN3Upp25MoveableAndDeepCopyOptionINS_5IndexIN13WorkspaceWork5SepfoENS_7StdHashIS3_EEEENS_10EmptyClassEEC2Ev, @function
_ZN3Upp25MoveableAndDeepCopyOptionINS_5IndexIN13WorkspaceWork5SepfoENS_7StdHashIS3_EEEENS_10EmptyClassEEC2Ev:
.LFB9051:
	pushq	%rbp
.LCFI269:
	movq	%rsp, %rbp
.LCFI270:
	movq	%rdi, -8(%rbp)
	leave
	ret
.LFE9051:
	.size	_ZN3Upp25MoveableAndDeepCopyOptionINS_5IndexIN13WorkspaceWork5SepfoENS_7StdHashIS3_EEEENS_10EmptyClassEEC2Ev, .-_ZN3Upp25MoveableAndDeepCopyOptionINS_5IndexIN13WorkspaceWork5SepfoENS_7StdHashIS3_EEEENS_10EmptyClassEEC2Ev
	.section	.text._ZN3Upp25MoveableAndDeepCopyOptionINS_8ArrayMapINS_6StringEN13WorkspaceWork6BackupENS_7StdHashIS2_EEEENS_10EmptyClassEEC2Ev,"axG",@progbits,_ZN3Upp25MoveableAndDeepCopyOptionINS_8ArrayMapINS_6StringEN13WorkspaceWork6BackupENS_7StdHashIS2_EEEENS_10EmptyClassEEC2Ev,comdat
	.align 2
	.weak	_ZN3Upp25MoveableAndDeepCopyOptionINS_8ArrayMapINS_6StringEN13WorkspaceWork6BackupENS_7StdHashIS2_EEEENS_10EmptyClassEEC2Ev
	.type	_ZN3Upp25MoveableAndDeepCopyOptionINS_8ArrayMapINS_6StringEN13WorkspaceWork6BackupENS_7StdHashIS2_EEEENS_10EmptyClassEEC2Ev, @function
_ZN3Upp25MoveableAndDeepCopyOptionINS_8ArrayMapINS_6StringEN13WorkspaceWork6BackupENS_7StdHashIS2_EEEENS_10EmptyClassEEC2Ev:
.LFB9057:
	pushq	%rbp
.LCFI271:
	movq	%rsp, %rbp
.LCFI272:
	movq	%rdi, -8(%rbp)
	leave
	ret
.LFE9057:
	.size	_ZN3Upp25MoveableAndDeepCopyOptionINS_8ArrayMapINS_6StringEN13WorkspaceWork6BackupENS_7StdHashIS2_EEEENS_10EmptyClassEEC2Ev, .-_ZN3Upp25MoveableAndDeepCopyOptionINS_8ArrayMapINS_6StringEN13WorkspaceWork6BackupENS_7StdHashIS2_EEEENS_10EmptyClassEEC2Ev
	.section	.text._ZN3Upp8MoveableINS_9Callback1INS_6Point_IiEEEENS_10EmptyClassEEC2Ev,"axG",@progbits,_ZN3Upp8MoveableINS_9Callback1INS_6Point_IiEEEENS_10EmptyClassEEC2Ev,comdat
	.align 2
	.weak	_ZN3Upp8MoveableINS_9Callback1INS_6Point_IiEEEENS_10EmptyClassEEC2Ev
	.type	_ZN3Upp8MoveableINS_9Callback1INS_6Point_IiEEEENS_10EmptyClassEEC2Ev, @function
_ZN3Upp8MoveableINS_9Callback1INS_6Point_IiEEEENS_10EmptyClassEEC2Ev:
.LFB9067:
	pushq	%rbp
.LCFI273:
	movq	%rsp, %rbp
.LCFI274:
	movq	%rdi, -8(%rbp)
	leave
	ret
.LFE9067:
	.size	_ZN3Upp8MoveableINS_9Callback1INS_6Point_IiEEEENS_10EmptyClassEEC2Ev, .-_ZN3Upp8MoveableINS_9Callback1INS_6Point_IiEEEENS_10EmptyClassEEC2Ev
	.section	.text._ZN3Upp25MoveableAndDeepCopyOptionINS_6VectorIN13WorkspaceWork5SepfoEEENS_10EmptyClassEEC2Ev,"axG",@progbits,_ZN3Upp25MoveableAndDeepCopyOptionINS_6VectorIN13WorkspaceWork5SepfoEEENS_10EmptyClassEEC2Ev,comdat
	.align 2
	.weak	_ZN3Upp25MoveableAndDeepCopyOptionINS_6VectorIN13WorkspaceWork5SepfoEEENS_10EmptyClassEEC2Ev
	.type	_ZN3Upp25MoveableAndDeepCopyOptionINS_6VectorIN13WorkspaceWork5SepfoEEENS_10EmptyClassEEC2Ev, @function
_ZN3Upp25MoveableAndDeepCopyOptionINS_6VectorIN13WorkspaceWork5SepfoEEENS_10EmptyClassEEC2Ev:
.LFB9074:
	pushq	%rbp
.LCFI275:
	movq	%rsp, %rbp
.LCFI276:
	movq	%rdi, -8(%rbp)
	leave
	ret
.LFE9074:
	.size	_ZN3Upp25MoveableAndDeepCopyOptionINS_6VectorIN13WorkspaceWork5SepfoEEENS_10EmptyClassEEC2Ev, .-_ZN3Upp25MoveableAndDeepCopyOptionINS_6VectorIN13WorkspaceWork5SepfoEEENS_10EmptyClassEEC2Ev
	.section	.text._ZN3Upp6VectorIN13WorkspaceWork5SepfoEEC1Ev,"axG",@progbits,_ZN3Upp6VectorIN13WorkspaceWork5SepfoEEC1Ev,comdat
	.align 2
	.weak	_ZN3Upp6VectorIN13WorkspaceWork5SepfoEEC1Ev
	.type	_ZN3Upp6VectorIN13WorkspaceWork5SepfoEEC1Ev, @function
_ZN3Upp6VectorIN13WorkspaceWork5SepfoEEC1Ev:
.LFB9077:
	pushq	%rbp
.LCFI277:
	movq	%rsp, %rbp
.LCFI278:
	subq	$16, %rsp
.LCFI279:
	movq	%rdi, -8(%rbp)
	movq	-8(%rbp), %rdi
	call	_ZN3Upp25MoveableAndDeepCopyOptionINS_6VectorIN13WorkspaceWork5SepfoEEENS_10EmptyClassEEC2Ev
	movq	-8(%rbp), %rax
	movq	$0, (%rax)
	movq	-8(%rbp), %rax
	movl	$0, 12(%rax)
	movq	-8(%rbp), %rax
	movl	12(%rax), %edx
	movq	-8(%rbp), %rax
	movl	%edx, 8(%rax)
	leave
	ret
.LFE9077:
	.size	_ZN3Upp6VectorIN13WorkspaceWork5SepfoEEC1Ev, .-_ZN3Upp6VectorIN13WorkspaceWork5SepfoEEC1Ev
	.section	.text._ZN3Upp11CombineHash2DoIjEERS0_RKT_,"axG",@progbits,_ZN3Upp11CombineHash2DoIjEERS0_RKT_,comdat
	.align 2
	.weak	_ZN3Upp11CombineHash2DoIjEERS0_RKT_
	.type	_ZN3Upp11CombineHash2DoIjEERS0_RKT_, @function
_ZN3Upp11CombineHash2DoIjEERS0_RKT_:
.LFB9081:
	pushq	%rbp
.LCFI280:
	movq	%rsp, %rbp
.LCFI281:
	subq	$16, %rsp
.LCFI282:
	movq	%rdi, -8(%rbp)
	movq	%rsi, -16(%rbp)
	movq	-16(%rbp), %rdi
	call	_ZN3Upp12GetHashValueIjEEjRKT_
	movl	%eax, %esi
	movq	-8(%rbp), %rdi
	call	_ZN3Upp11CombineHash3PutEj
	movq	-8(%rbp), %rax
	leave
	ret
.LFE9081:
	.size	_ZN3Upp11CombineHash2DoIjEERS0_RKT_, .-_ZN3Upp11CombineHash2DoIjEERS0_RKT_
	.section	.text._ZN3Upp11CombineHashC1IjjEERKT_RKT0_,"axG",@progbits,_ZN3Upp11CombineHashC1IjjEERKT_RKT0_,comdat
	.align 2
	.weak	_ZN3Upp11CombineHashC1IjjEERKT_RKT0_
	.type	_ZN3Upp11CombineHashC1IjjEERKT_RKT0_, @function
_ZN3Upp11CombineHashC1IjjEERKT_RKT0_:
.LFB8019:
	pushq	%rbp
.LCFI283:
	movq	%rsp, %rbp
.LCFI284:
	subq	$32, %rsp
.LCFI285:
	movq	%rdi, -8(%rbp)
	movq	%rsi, -16(%rbp)
	movq	%rdx, -24(%rbp)
	movq	-8(%rbp), %rax
	movl	$1234567890, (%rax)
	movq	-16(%rbp), %rsi
	movq	-8(%rbp), %rdi
	call	_ZN3Upp11CombineHash2DoIjEERS0_RKT_
	movq	-24(%rbp), %rsi
	movq	-8(%rbp), %rdi
	call	_ZN3Upp11CombineHash2DoIjEERS0_RKT_
	leave
	ret
.LFE8019:
	.size	_ZN3Upp11CombineHashC1IjjEERKT_RKT0_, .-_ZN3Upp11CombineHashC1IjjEERKT_RKT0_
	.section	.text._ZNK3Upp6VectorIjE3GetEi,"axG",@progbits,_ZNK3Upp6VectorIjE3GetEi,comdat
	.align 2
	.weak	_ZNK3Upp6VectorIjE3GetEi
	.type	_ZNK3Upp6VectorIjE3GetEi, @function
_ZNK3Upp6VectorIjE3GetEi:
.LFB9116:
	pushq	%rbp
.LCFI286:
	movq	%rsp, %rbp
.LCFI287:
	movq	%rdi, -8(%rbp)
	movl	%esi, -12(%rbp)
	movq	-8(%rbp), %rax
	movq	(%rax), %rdx
	movl	-12(%rbp), %eax
	cltq
	salq	$2, %rax
	leaq	(%rdx,%rax), %rax
	leave
	ret
.LFE9116:
	.size	_ZNK3Upp6VectorIjE3GetEi, .-_ZNK3Upp6VectorIjE3GetEi
	.section	.text._ZNK3Upp6VectorIjEixEi,"axG",@progbits,_ZNK3Upp6VectorIjEixEi,comdat
	.align 2
	.weak	_ZNK3Upp6VectorIjEixEi
	.type	_ZNK3Upp6VectorIjEixEi, @function
_ZNK3Upp6VectorIjEixEi:
.LFB8086:
	pushq	%rbp
.LCFI288:
	movq	%rsp, %rbp
.LCFI289:
	subq	$16, %rsp
.LCFI290:
	movq	%rdi, -8(%rbp)
	movl	%esi, -12(%rbp)
	movl	-12(%rbp), %esi
	movq	-8(%rbp), %rdi
	call	_ZNK3Upp6VectorIjE3GetEi
	leave
	ret
.LFE8086:
	.size	_ZNK3Upp6VectorIjEixEi, .-_ZNK3Upp6VectorIjEixEi
	.section	.text._ZNK3Upp8HashBase4MapiEi,"axG",@progbits,_ZNK3Upp8HashBase4MapiEi,comdat
	.align 2
	.weak	_ZNK3Upp8HashBase4MapiEi
	.type	_ZNK3Upp8HashBase4MapiEi, @function
_ZNK3Upp8HashBase4MapiEi:
.LFB2647:
	pushq	%rbp
.LCFI291:
	movq	%rsp, %rbp
.LCFI292:
	subq	$16, %rsp
.LCFI293:
	movq	%rdi, -8(%rbp)
	movl	%esi, -12(%rbp)
	movq	-8(%rbp), %rdi
	addq	$8, %rdi
	movl	-12(%rbp), %esi
	call	_ZNK3Upp6VectorIjEixEi
	movl	(%rax), %esi
	movq	-8(%rbp), %rdi
	call	_ZNK3Upp8HashBase4MaphEj
	leave
	ret
.LFE2647:
	.size	_ZNK3Upp8HashBase4MapiEi, .-_ZNK3Upp8HashBase4MapiEi
	.section	.text._ZN3Upp6VectorIjEixEi,"axG",@progbits,_ZN3Upp6VectorIjEixEi,comdat
	.align 2
	.weak	_ZN3Upp6VectorIjEixEi
	.type	_ZN3Upp6VectorIjEixEi, @function
_ZN3Upp6VectorIjEixEi:
.LFB8093:
	pushq	%rbp
.LCFI294:
	movq	%rsp, %rbp
.LCFI295:
	subq	$16, %rsp
.LCFI296:
	movq	%rdi, -8(%rbp)
	movl	%esi, -12(%rbp)
	movl	-12(%rbp), %esi
	movq	-8(%rbp), %rdi
	call	_ZNK3Upp6VectorIjE3GetEi
	leave
	ret
.LFE8093:
	.size	_ZN3Upp6VectorIjEixEi, .-_ZN3Upp6VectorIjEixEi
	.section	.text._ZNK3Upp6VectorIjE3ChkEv,"axG",@progbits,_ZNK3Upp6VectorIjE3ChkEv,comdat
	.align 2
	.weak	_ZNK3Upp6VectorIjE3ChkEv
	.type	_ZNK3Upp6VectorIjE3ChkEv, @function
_ZNK3Upp6VectorIjE3ChkEv:
.LFB9117:
	pushq	%rbp
.LCFI297:
	movq	%rsp, %rbp
.LCFI298:
	movq	%rdi, -8(%rbp)
	leave
	ret
.LFE9117:
	.size	_ZNK3Upp6VectorIjE3ChkEv, .-_ZNK3Upp6VectorIjE3ChkEv
	.section	.text._ZNK3Upp6VectorIjE8GetCountEv,"axG",@progbits,_ZNK3Upp6VectorIjE8GetCountEv,comdat
	.align 2
	.weak	_ZNK3Upp6VectorIjE8GetCountEv
	.type	_ZNK3Upp6VectorIjE8GetCountEv, @function
_ZNK3Upp6VectorIjE8GetCountEv:
.LFB8087:
	pushq	%rbp
.LCFI299:
	movq	%rsp, %rbp
.LCFI300:
	subq	$16, %rsp
.LCFI301:
	movq	%rdi, -8(%rbp)
	movq	-8(%rbp), %rdi
	call	_ZNK3Upp6VectorIjE3ChkEv
	movq	-8(%rbp), %rax
	movl	8(%rax), %eax
	leave
	ret
.LFE8087:
	.size	_ZNK3Upp6VectorIjE8GetCountEv, .-_ZNK3Upp6VectorIjE8GetCountEv
	.section	.text._ZNK3Upp8HashBase4FindEj,"axG",@progbits,_ZNK3Upp8HashBase4FindEj,comdat
	.align 2
	.weak	_ZNK3Upp8HashBase4FindEj
	.type	_ZNK3Upp8HashBase4FindEj, @function
_ZNK3Upp8HashBase4FindEj:
.LFB2650:
	pushq	%rbp
.LCFI302:
	movq	%rsp, %rbp
.LCFI303:
	subq	$16, %rsp
.LCFI304:
	movq	%rdi, -8(%rbp)
	movl	%esi, -12(%rbp)
	movq	-8(%rbp), %rdi
	addq	$8, %rdi
	call	_ZNK3Upp6VectorIjE8GetCountEv
	testl	%eax, %eax
	sete	%al
	testb	%al, %al
	je	.L250
	movl	$-1, -16(%rbp)
	jmp	.L252
.L250:
	movl	-12(%rbp), %esi
	movq	-8(%rbp), %rdi
	call	_ZNK3Upp8HashBase4MaphEj
	movl	(%rax), %eax
	movl	%eax, -16(%rbp)
.L252:
	movl	-16(%rbp), %eax
	leave
	ret
.LFE2650:
	.size	_ZNK3Upp8HashBase4FindEj, .-_ZNK3Upp8HashBase4FindEj
	.section	.text._ZNK3Upp6VectorINS_8HashBase4LinkEE3GetEi,"axG",@progbits,_ZNK3Upp6VectorINS_8HashBase4LinkEE3GetEi,comdat
	.align 2
	.weak	_ZNK3Upp6VectorINS_8HashBase4LinkEE3GetEi
	.type	_ZNK3Upp6VectorINS_8HashBase4LinkEE3GetEi, @function
_ZNK3Upp6VectorINS_8HashBase4LinkEE3GetEi:
.LFB9119:
	pushq	%rbp
.LCFI305:
	movq	%rsp, %rbp
.LCFI306:
	movq	%rdi, -8(%rbp)
	movl	%esi, -12(%rbp)
	movq	-8(%rbp), %rax
	movq	(%rax), %rdx
	movl	-12(%rbp), %eax
	cltq
	salq	$3, %rax
	leaq	(%rdx,%rax), %rax
	leave
	ret
.LFE9119:
	.size	_ZNK3Upp6VectorINS_8HashBase4LinkEE3GetEi, .-_ZNK3Upp6VectorINS_8HashBase4LinkEE3GetEi
	.section	.text._ZNK3Upp6VectorINS_8HashBase4LinkEEixEi,"axG",@progbits,_ZNK3Upp6VectorINS_8HashBase4LinkEEixEi,comdat
	.align 2
	.weak	_ZNK3Upp6VectorINS_8HashBase4LinkEEixEi
	.type	_ZNK3Upp6VectorINS_8HashBase4LinkEEixEi, @function
_ZNK3Upp6VectorINS_8HashBase4LinkEEixEi:
.LFB8094:
	pushq	%rbp
.LCFI307:
	movq	%rsp, %rbp
.LCFI308:
	subq	$16, %rsp
.LCFI309:
	movq	%rdi, -8(%rbp)
	movl	%esi, -12(%rbp)
	movl	-12(%rbp), %esi
	movq	-8(%rbp), %rdi
	call	_ZNK3Upp6VectorINS_8HashBase4LinkEE3GetEi
	leave
	ret
.LFE8094:
	.size	_ZNK3Upp6VectorINS_8HashBase4LinkEEixEi, .-_ZNK3Upp6VectorINS_8HashBase4LinkEEixEi
	.section	.text._ZNK3Upp8HashBase8FindNextEi,"axG",@progbits,_ZNK3Upp8HashBase8FindNextEi,comdat
	.align 2
	.weak	_ZNK3Upp8HashBase8FindNextEi
	.type	_ZNK3Upp8HashBase8FindNextEi, @function
_ZNK3Upp8HashBase8FindNextEi:
.LFB2651:
	pushq	%rbp
.LCFI310:
	movq	%rsp, %rbp
.LCFI311:
	subq	$32, %rsp
.LCFI312:
	movq	%rdi, -24(%rbp)
	movl	%esi, -28(%rbp)
	movq	-24(%rbp), %rdi
	addq	$24, %rdi
	movl	-28(%rbp), %esi
	call	_ZNK3Upp6VectorINS_8HashBase4LinkEEixEi
	movl	(%rax), %eax
	movl	%eax, -4(%rbp)
	movl	-28(%rbp), %esi
	movq	-24(%rbp), %rdi
	call	_ZNK3Upp8HashBase4MapiEi
	movl	(%rax), %eax
	cmpl	-4(%rbp), %eax
	je	.L259
	movl	-4(%rbp), %eax
	movl	%eax, -32(%rbp)
	jmp	.L261
.L259:
	movl	$-1, -32(%rbp)
.L261:
	movl	-32(%rbp), %eax
	leave
	ret
.LFE2651:
	.size	_ZNK3Upp8HashBase8FindNextEi, .-_ZNK3Upp8HashBase8FindNextEi
	.section	.text._ZN3Upp6VectorINS_8HashBase4LinkEEixEi,"axG",@progbits,_ZN3Upp6VectorINS_8HashBase4LinkEEixEi,comdat
	.align 2
	.weak	_ZN3Upp6VectorINS_8HashBase4LinkEEixEi
	.type	_ZN3Upp6VectorINS_8HashBase4LinkEEixEi, @function
_ZN3Upp6VectorINS_8HashBase4LinkEEixEi:
.LFB8092:
	pushq	%rbp
.LCFI313:
	movq	%rsp, %rbp
.LCFI314:
	subq	$16, %rsp
.LCFI315:
	movq	%rdi, -8(%rbp)
	movl	%esi, -12(%rbp)
	movl	-12(%rbp), %esi
	movq	-8(%rbp), %rdi
	call	_ZNK3Upp6VectorINS_8HashBase4LinkEE3GetEi
	leave
	ret
.LFE8092:
	.size	_ZN3Upp6VectorINS_8HashBase4LinkEEixEi, .-_ZN3Upp6VectorINS_8HashBase4LinkEEixEi
	.section	.text._ZN3Upp8HashBase6UnlinkEiRNS0_4LinkERi,"axG",@progbits,_ZN3Upp8HashBase6UnlinkEiRNS0_4LinkERi,comdat
	.align 2
	.weak	_ZN3Upp8HashBase6UnlinkEiRNS0_4LinkERi
	.type	_ZN3Upp8HashBase6UnlinkEiRNS0_4LinkERi, @function
_ZN3Upp8HashBase6UnlinkEiRNS0_4LinkERi:
.LFB2645:
	pushq	%rbp
.LCFI316:
	movq	%rsp, %rbp
.LCFI317:
	subq	$32, %rsp
.LCFI318:
	movq	%rdi, -8(%rbp)
	movl	%esi, -12(%rbp)
	movq	%rdx, -24(%rbp)
	movq	%rcx, -32(%rbp)
	movq	-32(%rbp), %rax
	movl	(%rax), %eax
	cmpl	-12(%rbp), %eax
	jne	.L266
	movq	-24(%rbp), %rax
	movl	(%rax), %eax
	cmpl	-12(%rbp), %eax
	jne	.L268
	movq	-32(%rbp), %rax
	movl	$-1, (%rax)
	jmp	.L271
.L268:
	movq	-24(%rbp), %rax
	movl	(%rax), %edx
	movq	-32(%rbp), %rax
	movl	%edx, (%rax)
.L266:
	movq	-24(%rbp), %rax
	movl	(%rax), %esi
	movq	-8(%rbp), %rdi
	addq	$24, %rdi
	call	_ZN3Upp6VectorINS_8HashBase4LinkEEixEi
	movq	%rax, %rdx
	movq	-24(%rbp), %rax
	movl	4(%rax), %eax
	movl	%eax, 4(%rdx)
	movq	-24(%rbp), %rax
	movl	4(%rax), %esi
	movq	-8(%rbp), %rdi
	addq	$24, %rdi
	call	_ZN3Upp6VectorINS_8HashBase4LinkEEixEi
	movq	%rax, %rdx
	movq	-24(%rbp), %rax
	movl	(%rax), %eax
	movl	%eax, (%rdx)
.L271:
	leave
	ret
.LFE2645:
	.size	_ZN3Upp8HashBase6UnlinkEiRNS0_4LinkERi, .-_ZN3Upp8HashBase6UnlinkEiRNS0_4LinkERi
	.section	.text._ZN3Upp8HashBase6LinkToEiRNS0_4LinkERi,"axG",@progbits,_ZN3Upp8HashBase6LinkToEiRNS0_4LinkERi,comdat
	.align 2
	.weak	_ZN3Upp8HashBase6LinkToEiRNS0_4LinkERi
	.type	_ZN3Upp8HashBase6LinkToEiRNS0_4LinkERi, @function
_ZN3Upp8HashBase6LinkToEiRNS0_4LinkERi:
.LFB2644:
	pushq	%rbp
.LCFI319:
	movq	%rsp, %rbp
.LCFI320:
	subq	$48, %rsp
.LCFI321:
	movq	%rdi, -24(%rbp)
	movl	%esi, -28(%rbp)
	movq	%rdx, -40(%rbp)
	movq	%rcx, -48(%rbp)
	movq	-48(%rbp), %rax
	movl	(%rax), %eax
	testl	%eax, %eax
	js	.L273
	movq	-48(%rbp), %rax
	movl	(%rax), %esi
	movq	-24(%rbp), %rdi
	addq	$24, %rdi
	call	_ZN3Upp6VectorINS_8HashBase4LinkEEixEi
	movq	%rax, -8(%rbp)
	movq	-48(%rbp), %rax
	movl	(%rax), %edx
	movq	-40(%rbp), %rax
	movl	%edx, (%rax)
	movq	-8(%rbp), %rax
	movl	4(%rax), %edx
	movq	-40(%rbp), %rax
	movl	%edx, 4(%rax)
	movq	-8(%rbp), %rdx
	movl	-28(%rbp), %eax
	movl	%eax, 4(%rdx)
	movq	-40(%rbp), %rax
	movl	4(%rax), %esi
	movq	-24(%rbp), %rdi
	addq	$24, %rdi
	call	_ZN3Upp6VectorINS_8HashBase4LinkEEixEi
	movq	%rax, %rdx
	movl	-28(%rbp), %eax
	movl	%eax, (%rdx)
	jmp	.L276
.L273:
	movq	-40(%rbp), %rdx
	movl	-28(%rbp), %eax
	movl	%eax, (%rdx)
	movq	-40(%rbp), %rax
	movl	(%rax), %edx
	movq	-40(%rbp), %rax
	movl	%edx, 4(%rax)
	movq	-40(%rbp), %rax
	movl	4(%rax), %edx
	movq	-48(%rbp), %rax
	movl	%edx, (%rax)
.L276:
	leave
	ret
.LFE2644:
	.size	_ZN3Upp8HashBase6LinkToEiRNS0_4LinkERi, .-_ZN3Upp8HashBase6LinkToEiRNS0_4LinkERi
	.section	.text._ZNK3Upp6VectorINS_8HashBase4LinkEE3ChkEv,"axG",@progbits,_ZNK3Upp6VectorINS_8HashBase4LinkEE3ChkEv,comdat
	.align 2
	.weak	_ZNK3Upp6VectorINS_8HashBase4LinkEE3ChkEv
	.type	_ZNK3Upp6VectorINS_8HashBase4LinkEE3ChkEv, @function
_ZNK3Upp6VectorINS_8HashBase4LinkEE3ChkEv:
.LFB9120:
	pushq	%rbp
.LCFI322:
	movq	%rsp, %rbp
.LCFI323:
	movq	%rdi, -8(%rbp)
	leave
	ret
.LFE9120:
	.size	_ZNK3Upp6VectorINS_8HashBase4LinkEE3ChkEv, .-_ZNK3Upp6VectorINS_8HashBase4LinkEE3ChkEv
	.section	.text._ZNK3Upp6VectorINS_8HashBase4LinkEE8GetCountEv,"axG",@progbits,_ZNK3Upp6VectorINS_8HashBase4LinkEE8GetCountEv,comdat
	.align 2
	.weak	_ZNK3Upp6VectorINS_8HashBase4LinkEE8GetCountEv
	.type	_ZNK3Upp6VectorINS_8HashBase4LinkEE8GetCountEv, @function
_ZNK3Upp6VectorINS_8HashBase4LinkEE8GetCountEv:
.LFB8095:
	pushq	%rbp
.LCFI324:
	movq	%rsp, %rbp
.LCFI325:
	subq	$16, %rsp
.LCFI326:
	movq	%rdi, -8(%rbp)
	movq	-8(%rbp), %rdi
	call	_ZNK3Upp6VectorINS_8HashBase4LinkEE3ChkEv
	movq	-8(%rbp), %rax
	movl	8(%rax), %eax
	leave
	ret
.LFE8095:
	.size	_ZNK3Upp6VectorINS_8HashBase4LinkEE8GetCountEv, .-_ZNK3Upp6VectorINS_8HashBase4LinkEE8GetCountEv
	.section	.text._ZN3Upp8HashBase6UnlinkEi,"axG",@progbits,_ZN3Upp8HashBase6UnlinkEi,comdat
	.align 2
	.weak	_ZN3Upp8HashBase6UnlinkEi
	.type	_ZN3Upp8HashBase6UnlinkEi, @function
_ZN3Upp8HashBase6UnlinkEi:
.LFB2654:
	pushq	%rbp
.LCFI327:
	movq	%rsp, %rbp
.LCFI328:
	subq	$32, %rsp
.LCFI329:
	movq	%rdi, -24(%rbp)
	movl	%esi, -28(%rbp)
	movq	-24(%rbp), %rdi
	addq	$8, %rdi
	movl	-28(%rbp), %esi
	call	_ZN3Upp6VectorIjEixEi
	movq	%rax, %rdx
	movl	(%rdx), %eax
	orl	$-2147483648, %eax
	movl	%eax, (%rdx)
	movq	-24(%rbp), %rdi
	addq	$24, %rdi
	call	_ZNK3Upp6VectorINS_8HashBase4LinkEE8GetCountEv
	cmpl	-28(%rbp), %eax
	setg	%al
	testb	%al, %al
	je	.L284
	movq	-24(%rbp), %rdi
	addq	$24, %rdi
	movl	-28(%rbp), %esi
	call	_ZN3Upp6VectorINS_8HashBase4LinkEEixEi
	movq	%rax, -8(%rbp)
	movl	-28(%rbp), %esi
	movq	-24(%rbp), %rdi
	call	_ZNK3Upp8HashBase4MapiEi
	movq	%rax, %rcx
	movq	-8(%rbp), %rdx
	movl	-28(%rbp), %esi
	movq	-24(%rbp), %rdi
	call	_ZN3Upp8HashBase6UnlinkEiRNS0_4LinkERi
	movq	-24(%rbp), %rcx
	addq	$52, %rcx
	movq	-8(%rbp), %rdx
	movl	-28(%rbp), %esi
	movq	-24(%rbp), %rdi
	call	_ZN3Upp8HashBase6LinkToEiRNS0_4LinkERi
.L284:
	leave
	ret
.LFE2654:
	.size	_ZN3Upp8HashBase6UnlinkEi, .-_ZN3Upp8HashBase6UnlinkEi
	.section	.text._ZN3Upp6AIndexIN13WorkspaceWork5SepfoENS_6VectorIS2_EENS_7StdHashIS2_EEE6UnlinkEi,"axG",@progbits,_ZN3Upp6AIndexIN13WorkspaceWork5SepfoENS_6VectorIS2_EENS_7StdHashIS2_EEE6UnlinkEi,comdat
	.align 2
	.weak	_ZN3Upp6AIndexIN13WorkspaceWork5SepfoENS_6VectorIS2_EENS_7StdHashIS2_EEE6UnlinkEi
	.type	_ZN3Upp6AIndexIN13WorkspaceWork5SepfoENS_6VectorIS2_EENS_7StdHashIS2_EEE6UnlinkEi, @function
_ZN3Upp6AIndexIN13WorkspaceWork5SepfoENS_6VectorIS2_EENS_7StdHashIS2_EEE6UnlinkEi:
.LFB9030:
	pushq	%rbp
.LCFI330:
	movq	%rsp, %rbp
.LCFI331:
	subq	$16, %rsp
.LCFI332:
	movq	%rdi, -8(%rbp)
	movl	%esi, -12(%rbp)
	movq	-8(%rbp), %rdi
	addq	$16, %rdi
	movl	-12(%rbp), %esi
	call	_ZN3Upp8HashBase6UnlinkEi
	leave
	ret
.LFE9030:
	.size	_ZN3Upp6AIndexIN13WorkspaceWork5SepfoENS_6VectorIS2_EENS_7StdHashIS2_EEE6UnlinkEi, .-_ZN3Upp6AIndexIN13WorkspaceWork5SepfoENS_6VectorIS2_EENS_7StdHashIS2_EEE6UnlinkEi
	.section	.text._ZNK3Upp7AStringINS_7String0EE7CompareEPKc,"axG",@progbits,_ZNK3Upp7AStringINS_7String0EE7CompareEPKc,comdat
	.align 2
	.weak	_ZNK3Upp7AStringINS_7String0EE7CompareEPKc
	.type	_ZNK3Upp7AStringINS_7String0EE7CompareEPKc, @function
_ZNK3Upp7AStringINS_7String0EE7CompareEPKc:
.LFB9123:
	pushq	%rbp
.LCFI333:
	movq	%rsp, %rbp
.LCFI334:
	pushq	%rbx
.LCFI335:
	subq	$56, %rsp
.LCFI336:
	movq	%rdi, -48(%rbp)
	movq	%rsi, -56(%rbp)
	movq	-48(%rbp), %rdi
	call	_ZNK3Upp7String05BeginEv
	movq	%rax, -32(%rbp)
	movq	-48(%rbp), %rdi
	call	_ZNK3Upp7AStringINS_7String0EE3EndEv
	movq	%rax, -24(%rbp)
.L288:
	movq	-32(%rbp), %rax
	cmpq	-24(%rbp), %rax
	jb	.L289
	movq	-56(%rbp), %rax
	movzbl	(%rax), %eax
	testb	%al, %al
	jne	.L291
	movl	$0, -60(%rbp)
	jmp	.L293
.L291:
	movl	$-1, -60(%rbp)
.L293:
	movl	-60(%rbp), %eax
	movl	%eax, -64(%rbp)
	jmp	.L294
.L289:
	movq	-56(%rbp), %rax
	movzbl	(%rax), %eax
	testb	%al, %al
	jne	.L295
	movl	$1, -64(%rbp)
	jmp	.L294
.L295:
	movq	-32(%rbp), %rax
	movzbl	(%rax), %eax
	movsbl	%al,%edi
	addq	$1, -32(%rbp)
	call	_ZN3Upp8cmpval__Ec
	movl	%eax, %ebx
	movq	-56(%rbp), %rax
	movzbl	(%rax), %eax
	movsbl	%al,%edi
	addq	$1, -56(%rbp)
	call	_ZN3Upp8cmpval__Ec
	movl	%ebx, %edx
	subl	%eax, %edx
	movl	%edx, %eax
	movl	%eax, -12(%rbp)
	cmpl	$0, -12(%rbp)
	je	.L288
	movl	-12(%rbp), %eax
	movl	%eax, -64(%rbp)
.L294:
	movl	-64(%rbp), %eax
	addq	$56, %rsp
	popq	%rbx
	leave
	ret
.LFE9123:
	.size	_ZNK3Upp7AStringINS_7String0EE7CompareEPKc, .-_ZNK3Upp7AStringINS_7String0EE7CompareEPKc
	.section	.text._ZN3UppeqERKNS_6StringEPKc,"axG",@progbits,_ZN3UppeqERKNS_6StringEPKc,comdat
	.align 2
	.weak	_ZN3UppeqERKNS_6StringEPKc
	.type	_ZN3UppeqERKNS_6StringEPKc, @function
_ZN3UppeqERKNS_6StringEPKc:
.LFB8101:
	pushq	%rbp
.LCFI337:
	movq	%rsp, %rbp
.LCFI338:
	subq	$16, %rsp
.LCFI339:
	movq	%rdi, -8(%rbp)
	movq	%rsi, -16(%rbp)
	movq	-8(%rbp), %rdi
	movq	-16(%rbp), %rsi
	call	_ZNK3Upp7AStringINS_7String0EE7CompareEPKc
	testl	%eax, %eax
	sete	%al
	movzbl	%al, %eax
	leave
	ret
.LFE8101:
	.size	_ZN3UppeqERKNS_6StringEPKc, .-_ZN3UppeqERKNS_6StringEPKc
	.section	.rodata
.LC0:
	.string	"<meta>"
	.text
	.align 2
.globl _ZN13WorkspaceWork5IsAuxEv
	.type	_ZN13WorkspaceWork5IsAuxEv, @function
_ZN13WorkspaceWork5IsAuxEv:
.LFB7987:
	pushq	%rbp
.LCFI340:
	movq	%rsp, %rbp
.LCFI341:
	subq	$16, %rsp
.LCFI342:
	movq	%rdi, -8(%rbp)
	movq	-8(%rbp), %rdi
	addq	$4264, %rdi
	movl	$tempaux, %esi
	call	_ZN3UppeqERKNS_6StringEPKc
	testb	%al, %al
	jne	.L303
	movq	-8(%rbp), %rdi
	addq	$4264, %rdi
	movl	$prjaux, %esi
	call	_ZN3UppeqERKNS_6StringEPKc
	testb	%al, %al
	jne	.L303
	movq	-8(%rbp), %rdi
	addq	$4264, %rdi
	movl	$ideaux, %esi
	call	_ZN3UppeqERKNS_6StringEPKc
	testb	%al, %al
	jne	.L303
	movq	-8(%rbp), %rdi
	addq	$4264, %rdi
	movl	$.LC0, %esi
	call	_ZN3UppeqERKNS_6StringEPKc
	testb	%al, %al
	je	.L307
.L303:
	movb	$1, -9(%rbp)
	jmp	.L308
.L307:
	movb	$0, -9(%rbp)
.L308:
	movzbl	-9(%rbp), %eax
	leave
	ret
.LFE7987:
	.size	_ZN13WorkspaceWork5IsAuxEv, .-_ZN13WorkspaceWork5IsAuxEv
	.section	.text._ZN3UppneERKNS_6StringEPKc,"axG",@progbits,_ZN3UppneERKNS_6StringEPKc,comdat
	.align 2
	.weak	_ZN3UppneERKNS_6StringEPKc
	.type	_ZN3UppneERKNS_6StringEPKc, @function
_ZN3UppneERKNS_6StringEPKc:
.LFB8102:
	pushq	%rbp
.LCFI343:
	movq	%rsp, %rbp
.LCFI344:
	subq	$16, %rsp
.LCFI345:
	movq	%rdi, -8(%rbp)
	movq	%rsi, -16(%rbp)
	movq	-8(%rbp), %rdi
	movq	-16(%rbp), %rsi
	call	_ZNK3Upp7AStringINS_7String0EE7CompareEPKc
	testl	%eax, %eax
	setne	%al
	movzbl	%al, %eax
	leave
	ret
.LFE8102:
	.size	_ZN3UppneERKNS_6StringEPKc, .-_ZN3UppneERKNS_6StringEPKc
	.section	.text._ZN3Upp5Rect_IiE3SetEiiii,"axG",@progbits,_ZN3Upp5Rect_IiE3SetEiiii,comdat
	.align 2
	.weak	_ZN3Upp5Rect_IiE3SetEiiii
	.type	_ZN3Upp5Rect_IiE3SetEiiii, @function
_ZN3Upp5Rect_IiE3SetEiiii:
.LFB9127:
	pushq	%rbp
.LCFI346:
	movq	%rsp, %rbp
.LCFI347:
	movq	%rdi, -8(%rbp)
	movl	%esi, -12(%rbp)
	movl	%edx, -16(%rbp)
	movl	%ecx, -20(%rbp)
	movl	%r8d, -24(%rbp)
	movq	-8(%rbp), %rdx
	movl	-12(%rbp), %eax
	movl	%eax, (%rdx)
	movq	-8(%rbp), %rdx
	movl	-16(%rbp), %eax
	movl	%eax, 4(%rdx)
	movq	-8(%rbp), %rdx
	movl	-20(%rbp), %eax
	movl	%eax, 8(%rdx)
	movq	-8(%rbp), %rdx
	movl	-24(%rbp), %eax
	movl	%eax, 12(%rdx)
	leave
	ret
.LFE9127:
	.size	_ZN3Upp5Rect_IiE3SetEiiii, .-_ZN3Upp5Rect_IiE3SetEiiii
	.section	.text._ZN3Upp25MoveableAndDeepCopyOptionINS_6VectorIPvEENS_10EmptyClassEEC2Ev,"axG",@progbits,_ZN3Upp25MoveableAndDeepCopyOptionINS_6VectorIPvEENS_10EmptyClassEEC2Ev,comdat
	.align 2
	.weak	_ZN3Upp25MoveableAndDeepCopyOptionINS_6VectorIPvEENS_10EmptyClassEEC2Ev
	.type	_ZN3Upp25MoveableAndDeepCopyOptionINS_6VectorIPvEENS_10EmptyClassEEC2Ev, @function
_ZN3Upp25MoveableAndDeepCopyOptionINS_6VectorIPvEENS_10EmptyClassEEC2Ev:
.LFB9193:
	pushq	%rbp
.LCFI348:
	movq	%rsp, %rbp
.LCFI349:
	movq	%rdi, -8(%rbp)
	leave
	ret
.LFE9193:
	.size	_ZN3Upp25MoveableAndDeepCopyOptionINS_6VectorIPvEENS_10EmptyClassEEC2Ev, .-_ZN3Upp25MoveableAndDeepCopyOptionINS_6VectorIPvEENS_10EmptyClassEEC2Ev
	.section	.text._ZN3Upp6VectorIPvEC1Ev,"axG",@progbits,_ZN3Upp6VectorIPvEC1Ev,comdat
	.align 2
	.weak	_ZN3Upp6VectorIPvEC1Ev
	.type	_ZN3Upp6VectorIPvEC1Ev, @function
_ZN3Upp6VectorIPvEC1Ev:
.LFB9196:
	pushq	%rbp
.LCFI350:
	movq	%rsp, %rbp
.LCFI351:
	subq	$16, %rsp
.LCFI352:
	movq	%rdi, -8(%rbp)
	movq	-8(%rbp), %rdi
	call	_ZN3Upp25MoveableAndDeepCopyOptionINS_6VectorIPvEENS_10EmptyClassEEC2Ev
	movq	-8(%rbp), %rax
	movq	$0, (%rax)
	movq	-8(%rbp), %rax
	movl	$0, 12(%rax)
	movq	-8(%rbp), %rax
	movl	12(%rax), %edx
	movq	-8(%rbp), %rax
	movl	%edx, 8(%rax)
	leave
	ret
.LFE9196:
	.size	_ZN3Upp6VectorIPvEC1Ev, .-_ZN3Upp6VectorIPvEC1Ev
	.section	.text._ZN3Upp5ArrayI7OptItemEC1Ev,"axG",@progbits,_ZN3Upp5ArrayI7OptItemEC1Ev,comdat
	.align 2
	.weak	_ZN3Upp5ArrayI7OptItemEC1Ev
	.type	_ZN3Upp5ArrayI7OptItemEC1Ev, @function
_ZN3Upp5ArrayI7OptItemEC1Ev:
.LFB8687:
	pushq	%rbp
.LCFI353:
	movq	%rsp, %rbp
.LCFI354:
	subq	$16, %rsp
.LCFI355:
	movq	%rdi, -8(%rbp)
	movq	-8(%rbp), %rdi
	call	_ZN3Upp25MoveableAndDeepCopyOptionINS_5ArrayI7OptItemEENS_10EmptyClassEEC2Ev
	movq	-8(%rbp), %rdi
	addq	$8, %rdi
	call	_ZN3Upp6VectorIPvEC1Ev
	leave
	ret
.LFE8687:
	.size	_ZN3Upp5ArrayI7OptItemEC1Ev, .-_ZN3Upp5ArrayI7OptItemEC1Ev
	.section	.text._ZNK3Upp6VectorIiE3ChkEv,"axG",@progbits,_ZNK3Upp6VectorIiE3ChkEv,comdat
	.align 2
	.weak	_ZNK3Upp6VectorIiE3ChkEv
	.type	_ZNK3Upp6VectorIiE3ChkEv, @function
_ZNK3Upp6VectorIiE3ChkEv:
.LFB9262:
	pushq	%rbp
.LCFI356:
	movq	%rsp, %rbp
.LCFI357:
	movq	%rdi, -8(%rbp)
	leave
	ret
.LFE9262:
	.size	_ZNK3Upp6VectorIiE3ChkEv, .-_ZNK3Upp6VectorIiE3ChkEv
	.section	.text._ZNK3Upp6VectorIiE8GetCountEv,"axG",@progbits,_ZNK3Upp6VectorIiE8GetCountEv,comdat
	.align 2
	.weak	_ZNK3Upp6VectorIiE8GetCountEv
	.type	_ZNK3Upp6VectorIiE8GetCountEv, @function
_ZNK3Upp6VectorIiE8GetCountEv:
.LFB8401:
	pushq	%rbp
.LCFI358:
	movq	%rsp, %rbp
.LCFI359:
	subq	$16, %rsp
.LCFI360:
	movq	%rdi, -8(%rbp)
	movq	-8(%rbp), %rdi
	call	_ZNK3Upp6VectorIiE3ChkEv
	movq	-8(%rbp), %rax
	movl	8(%rax), %eax
	leave
	ret
.LFE8401:
	.size	_ZNK3Upp6VectorIiE8GetCountEv, .-_ZNK3Upp6VectorIiE8GetCountEv
	.section	.text._ZNK3Upp9Callback1IRNS_3BarEE6RetainEv,"axG",@progbits,_ZNK3Upp9Callback1IRNS_3BarEE6RetainEv,comdat
	.align 2
	.weak	_ZNK3Upp9Callback1IRNS_3BarEE6RetainEv
	.type	_ZNK3Upp9Callback1IRNS_3BarEE6RetainEv, @function
_ZNK3Upp9Callback1IRNS_3BarEE6RetainEv:
.LFB9304:
	pushq	%rbp
.LCFI361:
	movq	%rsp, %rbp
.LCFI362:
	subq	$16, %rsp
.LCFI363:
	movq	%rdi, -8(%rbp)
	movq	-8(%rbp), %rax
	movq	(%rax), %rax
	testq	%rax, %rax
	je	.L327
	movq	-8(%rbp), %rax
	movq	(%rax), %rax
	addq	$8, %rax
	movq	%rax, %rdi
	call	_ZN3Upp9AtomicIncERVi
.L327:
	leave
	ret
.LFE9304:
	.size	_ZNK3Upp9Callback1IRNS_3BarEE6RetainEv, .-_ZNK3Upp9Callback1IRNS_3BarEE6RetainEv
	.section	.text._ZN3Upp9Callback1IRNS_3BarEE7ReleaseEv,"axG",@progbits,_ZN3Upp9Callback1IRNS_3BarEE7ReleaseEv,comdat
	.align 2
	.weak	_ZN3Upp9Callback1IRNS_3BarEE7ReleaseEv
	.type	_ZN3Upp9Callback1IRNS_3BarEE7ReleaseEv, @function
_ZN3Upp9Callback1IRNS_3BarEE7ReleaseEv:
.LFB9305:
	pushq	%rbp
.LCFI364:
	movq	%rsp, %rbp
.LCFI365:
	subq	$16, %rsp
.LCFI366:
	movq	%rdi, -8(%rbp)
	movq	-8(%rbp), %rax
	movq	(%rax), %rax
	testq	%rax, %rax
	je	.L329
	movq	-8(%rbp), %rax
	movq	(%rax), %rax
	addq	$8, %rax
	movq	%rax, %rdi
	call	_ZN3Upp9AtomicDecERVi
	testl	%eax, %eax
	jne	.L329
	movb	$1, -9(%rbp)
	jmp	.L332
.L329:
	movb	$0, -9(%rbp)
.L332:
	movzbl	-9(%rbp), %eax
	testb	%al, %al
	je	.L336
	movq	-8(%rbp), %rax
	movq	(%rax), %rax
	testq	%rax, %rax
	je	.L336
	movq	-8(%rbp), %rax
	movq	(%rax), %rax
	movq	(%rax), %rax
	addq	$24, %rax
	movq	(%rax), %rdx
	movq	-8(%rbp), %rax
	movq	(%rax), %rdi
	call	*%rdx
.L336:
	leave
	ret
.LFE9305:
	.size	_ZN3Upp9Callback1IRNS_3BarEE7ReleaseEv, .-_ZN3Upp9Callback1IRNS_3BarEE7ReleaseEv
	.section	.text._ZN3Upp9Callback1IRNS_3BarEEaSERKS3_,"axG",@progbits,_ZN3Upp9Callback1IRNS_3BarEEaSERKS3_,comdat
	.align 2
	.weak	_ZN3Upp9Callback1IRNS_3BarEEaSERKS3_
	.type	_ZN3Upp9Callback1IRNS_3BarEEaSERKS3_, @function
_ZN3Upp9Callback1IRNS_3BarEEaSERKS3_:
.LFB9024:
	pushq	%rbp
.LCFI367:
	movq	%rsp, %rbp
.LCFI368:
	subq	$16, %rsp
.LCFI369:
	movq	%rdi, -8(%rbp)
	movq	%rsi, -16(%rbp)
	movq	-16(%rbp), %rdi
	call	_ZNK3Upp9Callback1IRNS_3BarEE6RetainEv
	movq	-8(%rbp), %rdi
	call	_ZN3Upp9Callback1IRNS_3BarEE7ReleaseEv
	movq	-16(%rbp), %rax
	movq	(%rax), %rdx
	movq	-8(%rbp), %rax
	movq	%rdx, (%rax)
	movq	-8(%rbp), %rax
	leave
	ret
.LFE9024:
	.size	_ZN3Upp9Callback1IRNS_3BarEEaSERKS3_, .-_ZN3Upp9Callback1IRNS_3BarEEaSERKS3_
	.section	.text._ZN3Upp9Callback1IRNS_3BarEED1Ev,"axG",@progbits,_ZN3Upp9Callback1IRNS_3BarEED1Ev,comdat
	.align 2
	.weak	_ZN3Upp9Callback1IRNS_3BarEED1Ev
	.type	_ZN3Upp9Callback1IRNS_3BarEED1Ev, @function
_ZN3Upp9Callback1IRNS_3BarEED1Ev:
.LFB8503:
	pushq	%rbp
.LCFI370:
	movq	%rsp, %rbp
.LCFI371:
	subq	$16, %rsp
.LCFI372:
	movq	%rdi, -8(%rbp)
	movq	-8(%rbp), %rdi
	call	_ZN3Upp9Callback1IRNS_3BarEE7ReleaseEv
	leave
	ret
.LFE8503:
	.size	_ZN3Upp9Callback1IRNS_3BarEED1Ev, .-_ZN3Upp9Callback1IRNS_3BarEED1Ev
	.section	.text._ZN3Upp9Callback1IRNS_3BarEE5ClearEv,"axG",@progbits,_ZN3Upp9Callback1IRNS_3BarEE5ClearEv,comdat
	.align 2
	.weak	_ZN3Upp9Callback1IRNS_3BarEE5ClearEv
	.type	_ZN3Upp9Callback1IRNS_3BarEE5ClearEv, @function
_ZN3Upp9Callback1IRNS_3BarEE5ClearEv:
.LFB9019:
	pushq	%rbp
.LCFI373:
	movq	%rsp, %rbp
.LCFI374:
	subq	$16, %rsp
.LCFI375:
	movq	%rdi, -8(%rbp)
	movq	-8(%rbp), %rdi
	call	_ZN3Upp9Callback1IRNS_3BarEE7ReleaseEv
	movq	-8(%rbp), %rax
	movq	$0, (%rax)
	leave
	ret
.LFE9019:
	.size	_ZN3Upp9Callback1IRNS_3BarEE5ClearEv, .-_ZN3Upp9Callback1IRNS_3BarEE5ClearEv
	.section	.text._ZNK3Upp6VectorINS_6StringEE3ChkEv,"axG",@progbits,_ZNK3Upp6VectorINS_6StringEE3ChkEv,comdat
	.align 2
	.weak	_ZNK3Upp6VectorINS_6StringEE3ChkEv
	.type	_ZNK3Upp6VectorINS_6StringEE3ChkEv, @function
_ZNK3Upp6VectorINS_6StringEE3ChkEv:
.LFB9306:
	pushq	%rbp
.LCFI376:
	movq	%rsp, %rbp
.LCFI377:
	movq	%rdi, -8(%rbp)
	leave
	ret
.LFE9306:
	.size	_ZNK3Upp6VectorINS_6StringEE3ChkEv, .-_ZNK3Upp6VectorINS_6StringEE3ChkEv
	.section	.text._ZNK3Upp6VectorINS_6StringEE8GetCountEv,"axG",@progbits,_ZNK3Upp6VectorINS_6StringEE8GetCountEv,comdat
	.align 2
	.weak	_ZNK3Upp6VectorINS_6StringEE8GetCountEv
	.type	_ZNK3Upp6VectorINS_6StringEE8GetCountEv, @function
_ZNK3Upp6VectorINS_6StringEE8GetCountEv:
.LFB8505:
	pushq	%rbp
.LCFI378:
	movq	%rsp, %rbp
.LCFI379:
	subq	$16, %rsp
.LCFI380:
	movq	%rdi, -8(%rbp)
	movq	-8(%rbp), %rdi
	call	_ZNK3Upp6VectorINS_6StringEE3ChkEv
	movq	-8(%rbp), %rax
	movl	8(%rax), %eax
	leave
	ret
.LFE8505:
	.size	_ZNK3Upp6VectorINS_6StringEE8GetCountEv, .-_ZNK3Upp6VectorINS_6StringEE8GetCountEv
	.section	.text._ZNK3Upp7FileSel8GetCountEv,"axG",@progbits,_ZNK3Upp7FileSel8GetCountEv,comdat
	.align 2
	.weak	_ZNK3Upp7FileSel8GetCountEv
	.type	_ZNK3Upp7FileSel8GetCountEv, @function
_ZNK3Upp7FileSel8GetCountEv:
.LFB6451:
	pushq	%rbp
.LCFI381:
	movq	%rsp, %rbp
.LCFI382:
	subq	$16, %rsp
.LCFI383:
	movq	%rdi, -8(%rbp)
	movq	-8(%rbp), %rdi
	addq	$13960, %rdi
	call	_ZNK3Upp6VectorINS_6StringEE8GetCountEv
	leave
	ret
.LFE6451:
	.size	_ZNK3Upp7FileSel8GetCountEv, .-_ZNK3Upp7FileSel8GetCountEv
	.section	.text._ZNK3Upp6VectorIiE3GetEi,"axG",@progbits,_ZNK3Upp6VectorIiE3GetEi,comdat
	.align 2
	.weak	_ZNK3Upp6VectorIiE3GetEi
	.type	_ZNK3Upp6VectorIiE3GetEi, @function
_ZNK3Upp6VectorIiE3GetEi:
.LFB9341:
	pushq	%rbp
.LCFI384:
	movq	%rsp, %rbp
.LCFI385:
	movq	%rdi, -8(%rbp)
	movl	%esi, -12(%rbp)
	movq	-8(%rbp), %rax
	movq	(%rax), %rdx
	movl	-12(%rbp), %eax
	cltq
	salq	$2, %rax
	leaq	(%rdx,%rax), %rax
	leave
	ret
.LFE9341:
	.size	_ZNK3Upp6VectorIiE3GetEi, .-_ZNK3Upp6VectorIiE3GetEi
	.section	.text._ZN3Upp6VectorIiEixEi,"axG",@progbits,_ZN3Upp6VectorIiEixEi,comdat
	.align 2
	.weak	_ZN3Upp6VectorIiEixEi
	.type	_ZN3Upp6VectorIiEixEi, @function
_ZN3Upp6VectorIiEixEi:
.LFB8576:
	pushq	%rbp
.LCFI386:
	movq	%rsp, %rbp
.LCFI387:
	subq	$16, %rsp
.LCFI388:
	movq	%rdi, -8(%rbp)
	movl	%esi, -12(%rbp)
	movl	-12(%rbp), %esi
	movq	-8(%rbp), %rdi
	call	_ZNK3Upp6VectorIiE3GetEi
	leave
	ret
.LFE8576:
	.size	_ZN3Upp6VectorIiEixEi, .-_ZN3Upp6VectorIiEixEi
	.text
	.align 2
.globl _ZN13WorkspaceWork10FileCursorEv
	.type	_ZN13WorkspaceWork10FileCursorEv, @function
_ZN13WorkspaceWork10FileCursorEv:
.LFB7942:
	pushq	%rbp
.LCFI389:
	movq	%rsp, %rbp
.LCFI390:
	subq	$32, %rsp
.LCFI391:
	movq	%rdi, -24(%rbp)
	movq	-24(%rbp), %rdi
	addq	$2120, %rdi
	call	_ZNK3Upp10ColumnList9GetCursorEv
	movl	%eax, -4(%rbp)
	movq	-24(%rbp), %rax
	movl	$-1, 4280(%rax)
	cmpl	$0, -4(%rbp)
	js	.L355
	movq	-24(%rbp), %rdi
	addq	$4232, %rdi
	call	_ZNK3Upp6VectorIiE8GetCountEv
	cmpl	-4(%rbp), %eax
	jle	.L355
	movb	$1, -25(%rbp)
	jmp	.L358
.L355:
	movb	$0, -25(%rbp)
.L358:
	movzbl	-25(%rbp), %eax
	testb	%al, %al
	je	.L361
	movq	-24(%rbp), %rdi
	addq	$4232, %rdi
	movl	-4(%rbp), %esi
	call	_ZN3Upp6VectorIiEixEi
	movl	(%rax), %edx
	movq	-24(%rbp), %rax
	movl	%edx, 4280(%rax)
.L361:
	leave
	ret
.LFE7942:
	.size	_ZN13WorkspaceWork10FileCursorEv, .-_ZN13WorkspaceWork10FileCursorEv
	.section	.text._ZNK3Upp6VectorIiEixEi,"axG",@progbits,_ZNK3Upp6VectorIiEixEi,comdat
	.align 2
	.weak	_ZNK3Upp6VectorIiEixEi
	.type	_ZNK3Upp6VectorIiEixEi, @function
_ZNK3Upp6VectorIiEixEi:
.LFB8566:
	pushq	%rbp
.LCFI392:
	movq	%rsp, %rbp
.LCFI393:
	subq	$16, %rsp
.LCFI394:
	movq	%rdi, -8(%rbp)
	movl	%esi, -12(%rbp)
	movl	-12(%rbp), %esi
	movq	-8(%rbp), %rdi
	call	_ZNK3Upp6VectorIiE3GetEi
	leave
	ret
.LFE8566:
	.size	_ZNK3Upp6VectorIiEixEi, .-_ZNK3Upp6VectorIiEixEi
	.section	.text._ZN3Upp6VectorINS_6StringEE3RddEv,"axG",@progbits,_ZN3Upp6VectorINS_6StringEE3RddEv,comdat
	.align 2
	.weak	_ZN3Upp6VectorINS_6StringEE3RddEv
	.type	_ZN3Upp6VectorINS_6StringEE3RddEv, @function
_ZN3Upp6VectorINS_6StringEE3RddEv:
.LFB9403:
	pushq	%rbp
.LCFI395:
	movq	%rsp, %rbp
.LCFI396:
	movq	%rdi, -8(%rbp)
	movq	-8(%rbp), %rax
	movq	(%rax), %rcx
	movq	-8(%rbp), %rax
	movl	8(%rax), %edx
	movslq	%edx,%rax
	salq	$4, %rax
	addq	%rax, %rcx
	addl	$1, %edx
	movq	-8(%rbp), %rax
	movl	%edx, 8(%rax)
	movq	%rcx, %rax
	leave
	ret
.LFE9403:
	.size	_ZN3Upp6VectorINS_6StringEE3RddEv, .-_ZN3Upp6VectorINS_6StringEE3RddEv
	.section	.text._ZN3Upp6VectorIiE3RddEv,"axG",@progbits,_ZN3Upp6VectorIiE3RddEv,comdat
	.align 2
	.weak	_ZN3Upp6VectorIiE3RddEv
	.type	_ZN3Upp6VectorIiE3RddEv, @function
_ZN3Upp6VectorIiE3RddEv:
.LFB9578:
	pushq	%rbp
.LCFI397:
	movq	%rsp, %rbp
.LCFI398:
	movq	%rdi, -8(%rbp)
	movq	-8(%rbp), %rax
	movq	(%rax), %rcx
	movq	-8(%rbp), %rax
	movl	8(%rax), %edx
	movslq	%edx,%rax
	salq	$2, %rax
	addq	%rax, %rcx
	addl	$1, %edx
	movq	-8(%rbp), %rax
	movl	%edx, 8(%rax)
	movq	%rcx, %rax
	leave
	ret
.LFE9578:
	.size	_ZN3Upp6VectorIiE3RddEv, .-_ZN3Upp6VectorIiE3RddEv
	.section	.text._ZN3Upp17DeepCopyConstructIiEEvPvRKT_,"axG",@progbits,_ZN3Upp17DeepCopyConstructIiEEvPvRKT_,comdat
	.align 2
	.weak	_ZN3Upp17DeepCopyConstructIiEEvPvRKT_
	.type	_ZN3Upp17DeepCopyConstructIiEEvPvRKT_, @function
_ZN3Upp17DeepCopyConstructIiEEvPvRKT_:
.LFB9579:
	pushq	%rbp
.LCFI399:
	movq	%rsp, %rbp
.LCFI400:
	subq	$32, %rsp
.LCFI401:
	movq	%rdi, -8(%rbp)
	movq	%rsi, -16(%rbp)
	movq	-8(%rbp), %rsi
	movl	$4, %edi
	call	_ZnwmPv
	movq	%rax, -24(%rbp)
	cmpq	$0, -24(%rbp)
	je	.L372
	movq	-16(%rbp), %rax
	movl	(%rax), %eax
	movq	-24(%rbp), %rdx
	movl	%eax, (%rdx)
.L372:
	leave
	ret
.LFE9579:
	.size	_ZN3Upp17DeepCopyConstructIiEEvPvRKT_, .-_ZN3Upp17DeepCopyConstructIiEEvPvRKT_
	.section	.text._ZNK3Upp6VectorINS_6StringEE3GetEi,"axG",@progbits,_ZNK3Upp6VectorINS_6StringEE3GetEi,comdat
	.align 2
	.weak	_ZNK3Upp6VectorINS_6StringEE3GetEi
	.type	_ZNK3Upp6VectorINS_6StringEE3GetEi, @function
_ZNK3Upp6VectorINS_6StringEE3GetEi:
.LFB9582:
	pushq	%rbp
.LCFI402:
	movq	%rsp, %rbp
.LCFI403:
	movq	%rdi, -8(%rbp)
	movl	%esi, -12(%rbp)
	movq	-8(%rbp), %rax
	movq	(%rax), %rdx
	movl	-12(%rbp), %eax
	cltq
	salq	$4, %rax
	leaq	(%rdx,%rax), %rax
	leave
	ret
.LFE9582:
	.size	_ZNK3Upp6VectorINS_6StringEE3GetEi, .-_ZNK3Upp6VectorINS_6StringEE3GetEi
	.section	.text._ZNK3Upp6VectorINS_6StringEEixEi,"axG",@progbits,_ZNK3Upp6VectorINS_6StringEEixEi,comdat
	.align 2
	.weak	_ZNK3Upp6VectorINS_6StringEEixEi
	.type	_ZNK3Upp6VectorINS_6StringEEixEi, @function
_ZNK3Upp6VectorINS_6StringEEixEi:
.LFB9175:
	pushq	%rbp
.LCFI404:
	movq	%rsp, %rbp
.LCFI405:
	subq	$16, %rsp
.LCFI406:
	movq	%rdi, -8(%rbp)
	movl	%esi, -12(%rbp)
	movl	-12(%rbp), %esi
	movq	-8(%rbp), %rdi
	call	_ZNK3Upp6VectorINS_6StringEE3GetEi
	leave
	ret
.LFE9175:
	.size	_ZNK3Upp6VectorINS_6StringEEixEi, .-_ZNK3Upp6VectorINS_6StringEEixEi
	.section	.text._ZNK3Upp6AIndexINS_6StringENS_6VectorIS1_EENS_7StdHashIS1_EEEixEi,"axG",@progbits,_ZNK3Upp6AIndexINS_6StringENS_6VectorIS1_EENS_7StdHashIS1_EEEixEi,comdat
	.align 2
	.weak	_ZNK3Upp6AIndexINS_6StringENS_6VectorIS1_EENS_7StdHashIS1_EEEixEi
	.type	_ZNK3Upp6AIndexINS_6StringENS_6VectorIS1_EENS_7StdHashIS1_EEEixEi, @function
_ZNK3Upp6AIndexINS_6StringENS_6VectorIS1_EENS_7StdHashIS1_EEEixEi:
.LFB9174:
	pushq	%rbp
.LCFI407:
	movq	%rsp, %rbp
.LCFI408:
	subq	$16, %rsp
.LCFI409:
	movq	%rdi, -8(%rbp)
	movl	%esi, -12(%rbp)
	movq	-8(%rbp), %rdi
	movl	-12(%rbp), %esi
	call	_ZNK3Upp6VectorINS_6StringEEixEi
	leave
	ret
.LFE9174:
	.size	_ZNK3Upp6AIndexINS_6StringENS_6VectorIS1_EENS_7StdHashIS1_EEEixEi, .-_ZNK3Upp6AIndexINS_6StringENS_6VectorIS1_EENS_7StdHashIS1_EEEixEi
	.section	.text._ZNK3Upp4AMapINS_6StringE7PackageNS_5ArrayIS2_EENS_7StdHashIS1_EEE6GetKeyEi,"axG",@progbits,_ZNK3Upp4AMapINS_6StringE7PackageNS_5ArrayIS2_EENS_7StdHashIS1_EEE6GetKeyEi,comdat
	.align 2
	.weak	_ZNK3Upp4AMapINS_6StringE7PackageNS_5ArrayIS2_EENS_7StdHashIS1_EEE6GetKeyEi
	.type	_ZNK3Upp4AMapINS_6StringE7PackageNS_5ArrayIS2_EENS_7StdHashIS1_EEE6GetKeyEi, @function
_ZNK3Upp4AMapINS_6StringE7PackageNS_5ArrayIS2_EENS_7StdHashIS1_EEE6GetKeyEi:
.LFB8695:
	pushq	%rbp
.LCFI410:
	movq	%rsp, %rbp
.LCFI411:
	subq	$16, %rsp
.LCFI412:
	movq	%rdi, -8(%rbp)
	movl	%esi, -12(%rbp)
	movq	-8(%rbp), %rdi
	addq	$8, %rdi
	movl	-12(%rbp), %esi
	call	_ZNK3Upp6AIndexINS_6StringENS_6VectorIS1_EENS_7StdHashIS1_EEEixEi
	leave
	ret
.LFE8695:
	.size	_ZNK3Upp4AMapINS_6StringE7PackageNS_5ArrayIS2_EENS_7StdHashIS1_EEE6GetKeyEi, .-_ZNK3Upp4AMapINS_6StringE7PackageNS_5ArrayIS2_EENS_7StdHashIS1_EEE6GetKeyEi
	.section	.text._ZNK3Upp4AMapINS_6StringEN13WorkspaceWork6BackupENS_5ArrayIS3_EENS_7StdHashIS1_EEE6GetKeyEi,"axG",@progbits,_ZNK3Upp4AMapINS_6StringEN13WorkspaceWork6BackupENS_5ArrayIS3_EENS_7StdHashIS1_EEE6GetKeyEi,comdat
	.align 2
	.weak	_ZNK3Upp4AMapINS_6StringEN13WorkspaceWork6BackupENS_5ArrayIS3_EENS_7StdHashIS1_EEE6GetKeyEi
	.type	_ZNK3Upp4AMapINS_6StringEN13WorkspaceWork6BackupENS_5ArrayIS3_EENS_7StdHashIS1_EEE6GetKeyEi, @function
_ZNK3Upp4AMapINS_6StringEN13WorkspaceWork6BackupENS_5ArrayIS3_EENS_7StdHashIS1_EEE6GetKeyEi:
.LFB9014:
	pushq	%rbp
.LCFI413:
	movq	%rsp, %rbp
.LCFI414:
	subq	$16, %rsp
.LCFI415:
	movq	%rdi, -8(%rbp)
	movl	%esi, -12(%rbp)
	movq	-8(%rbp), %rdi
	addq	$8, %rdi
	movl	-12(%rbp), %esi
	call	_ZNK3Upp6AIndexINS_6StringENS_6VectorIS1_EENS_7StdHashIS1_EEEixEi
	leave
	ret
.LFE9014:
	.size	_ZNK3Upp4AMapINS_6StringEN13WorkspaceWork6BackupENS_5ArrayIS3_EENS_7StdHashIS1_EEE6GetKeyEi, .-_ZNK3Upp4AMapINS_6StringEN13WorkspaceWork6BackupENS_5ArrayIS3_EENS_7StdHashIS1_EEE6GetKeyEi
	.section	.text._ZN3Upp6VectorINS_6StringEEixEi,"axG",@progbits,_ZN3Upp6VectorINS_6StringEEixEi,comdat
	.align 2
	.weak	_ZN3Upp6VectorINS_6StringEEixEi
	.type	_ZN3Upp6VectorINS_6StringEEixEi, @function
_ZN3Upp6VectorINS_6StringEEixEi:
.LFB9022:
	pushq	%rbp
.LCFI416:
	movq	%rsp, %rbp
.LCFI417:
	subq	$16, %rsp
.LCFI418:
	movq	%rdi, -8(%rbp)
	movl	%esi, -12(%rbp)
	movl	-12(%rbp), %esi
	movq	-8(%rbp), %rdi
	call	_ZNK3Upp6VectorINS_6StringEE3GetEi
	leave
	ret
.LFE9022:
	.size	_ZN3Upp6VectorINS_6StringEEixEi, .-_ZN3Upp6VectorINS_6StringEEixEi
	.section	.text._ZN3Upp9Callback1IRNS_3BarEEC1EPNS_15Callback1ActionIS2_EE,"axG",@progbits,_ZN3Upp9Callback1IRNS_3BarEEC1EPNS_15Callback1ActionIS2_EE,comdat
	.align 2
	.weak	_ZN3Upp9Callback1IRNS_3BarEEC1EPNS_15Callback1ActionIS2_EE
	.type	_ZN3Upp9Callback1IRNS_3BarEEC1EPNS_15Callback1ActionIS2_EE, @function
_ZN3Upp9Callback1IRNS_3BarEEC1EPNS_15Callback1ActionIS2_EE:
.LFB9588:
	pushq	%rbp
.LCFI419:
	movq	%rsp, %rbp
.LCFI420:
	subq	$16, %rsp
.LCFI421:
	movq	%rdi, -8(%rbp)
	movq	%rsi, -16(%rbp)
	movq	-8(%rbp), %rdi
	call	_ZN3Upp8MoveableINS_9Callback1IRNS_3BarEEENS_10EmptyClassEEC2Ev
	movq	-8(%rbp), %rdx
	movq	-16(%rbp), %rax
	movq	%rax, (%rdx)
	leave
	ret
.LFE9588:
	.size	_ZN3Upp9Callback1IRNS_3BarEEC1EPNS_15Callback1ActionIS2_EE, .-_ZN3Upp9Callback1IRNS_3BarEEC1EPNS_15Callback1ActionIS2_EE
	.section	.text._ZN3Upp20CallbackMethodActionI3TppMS1_FvvEEC1EPS1_S3_,"axG",@progbits,_ZN3Upp20CallbackMethodActionI3TppMS1_FvvEEC1EPS1_S3_,comdat
	.align 2
	.weak	_ZN3Upp20CallbackMethodActionI3TppMS1_FvvEEC1EPS1_S3_
	.type	_ZN3Upp20CallbackMethodActionI3TppMS1_FvvEEC1EPS1_S3_, @function
_ZN3Upp20CallbackMethodActionI3TppMS1_FvvEEC1EPS1_S3_:
.LFB9594:
	pushq	%rbp
.LCFI422:
	movq	%rsp, %rbp
.LCFI423:
	subq	$32, %rsp
.LCFI424:
	movq	%rdi, -8(%rbp)
	movq	%rsi, -16(%rbp)
	movq	%rdx, %rax
	movq	%rcx, %rdx
	movq	%rax, -32(%rbp)
	movq	%rdx, -24(%rbp)
	movq	-8(%rbp), %rdi
	call	_ZN3Upp14CallbackActionC2Ev
	movl	$_ZTVN3Upp20CallbackMethodActionI3TppMS1_FvvEEE+16, %edx
	movq	-8(%rbp), %rax
	movq	%rdx, (%rax)
	movq	-8(%rbp), %rdx
	movq	-16(%rbp), %rax
	movq	%rax, 16(%rdx)
	movq	-8(%rbp), %rdx
	movq	-32(%rbp), %rax
	movq	%rax, 24(%rdx)
	movq	-24(%rbp), %rax
	movq	%rax, 32(%rdx)
	leave
	ret
.LFE9594:
	.size	_ZN3Upp20CallbackMethodActionI3TppMS1_FvvEEC1EPS1_S3_, .-_ZN3Upp20CallbackMethodActionI3TppMS1_FvvEEC1EPS1_S3_
	.section	.text._ZN3Upp6VectorIPvE5BeginEv,"axG",@progbits,_ZN3Upp6VectorIPvE5BeginEv,comdat
	.align 2
	.weak	_ZN3Upp6VectorIPvE5BeginEv
	.type	_ZN3Upp6VectorIPvE5BeginEv, @function
_ZN3Upp6VectorIPvE5BeginEv:
.LFB9596:
	pushq	%rbp
.LCFI425:
	movq	%rsp, %rbp
.LCFI426:
	movq	%rdi, -8(%rbp)
	movq	-8(%rbp), %rax
	movq	(%rax), %rax
	leave
	ret
.LFE9596:
	.size	_ZN3Upp6VectorIPvE5BeginEv, .-_ZN3Upp6VectorIPvE5BeginEv
	.section	.text._ZN3Upp23CallbackMethodActionArgI13WorkspaceWorkMS1_FvNS1_7ADDFILEEES2_EC1EPS1_S4_S2_,"axG",@progbits,_ZN3Upp23CallbackMethodActionArgI13WorkspaceWorkMS1_FvNS1_7ADDFILEEES2_EC1EPS1_S4_S2_,comdat
	.align 2
	.weak	_ZN3Upp23CallbackMethodActionArgI13WorkspaceWorkMS1_FvNS1_7ADDFILEEES2_EC1EPS1_S4_S2_
	.type	_ZN3Upp23CallbackMethodActionArgI13WorkspaceWorkMS1_FvNS1_7ADDFILEEES2_EC1EPS1_S4_S2_, @function
_ZN3Upp23CallbackMethodActionArgI13WorkspaceWorkMS1_FvNS1_7ADDFILEEES2_EC1EPS1_S4_S2_:
.LFB9607:
	pushq	%rbp
.LCFI427:
	movq	%rsp, %rbp
.LCFI428:
	subq	$48, %rsp
.LCFI429:
	movq	%rdi, -8(%rbp)
	movq	%rsi, -16(%rbp)
	movl	%r8d, -36(%rbp)
	movq	%rdx, %rax
	movq	%rcx, %rdx
	movq	%rax, -32(%rbp)
	movq	%rdx, -24(%rbp)
	movq	-8(%rbp), %rdi
	call	_ZN3Upp14CallbackActionC2Ev
	movl	$_ZTVN3Upp23CallbackMethodActionArgI13WorkspaceWorkMS1_FvNS1_7ADDFILEEES2_EE+16, %edx
	movq	-8(%rbp), %rax
	movq	%rdx, (%rax)
	movq	-8(%rbp), %rdx
	movq	-16(%rbp), %rax
	movq	%rax, 16(%rdx)
	movq	-8(%rbp), %rdx
	movq	-32(%rbp), %rax
	movq	%rax, 24(%rdx)
	movq	-24(%rbp), %rax
	movq	%rax, 32(%rdx)
	movq	-8(%rbp), %rdx
	movl	-36(%rbp), %eax
	movl	%eax, 40(%rdx)
	leave
	ret
.LFE9607:
	.size	_ZN3Upp23CallbackMethodActionArgI13WorkspaceWorkMS1_FvNS1_7ADDFILEEES2_EC1EPS1_S4_S2_, .-_ZN3Upp23CallbackMethodActionArgI13WorkspaceWorkMS1_FvNS1_7ADDFILEEES2_EC1EPS1_S4_S2_
	.section	.text._ZN3Upp20CallbackMethodActionI13WorkspaceWorkMS1_FvvEEC1EPS1_S3_,"axG",@progbits,_ZN3Upp20CallbackMethodActionI13WorkspaceWorkMS1_FvvEEC1EPS1_S3_,comdat
	.align 2
	.weak	_ZN3Upp20CallbackMethodActionI13WorkspaceWorkMS1_FvvEEC1EPS1_S3_
	.type	_ZN3Upp20CallbackMethodActionI13WorkspaceWorkMS1_FvvEEC1EPS1_S3_, @function
_ZN3Upp20CallbackMethodActionI13WorkspaceWorkMS1_FvvEEC1EPS1_S3_:
.LFB9610:
	pushq	%rbp
.LCFI430:
	movq	%rsp, %rbp
.LCFI431:
	subq	$32, %rsp
.LCFI432:
	movq	%rdi, -8(%rbp)
	movq	%rsi, -16(%rbp)
	movq	%rdx, %rax
	movq	%rcx, %rdx
	movq	%rax, -32(%rbp)
	movq	%rdx, -24(%rbp)
	movq	-8(%rbp), %rdi
	call	_ZN3Upp14CallbackActionC2Ev
	movl	$_ZTVN3Upp20CallbackMethodActionI13WorkspaceWorkMS1_FvvEEE+16, %edx
	movq	-8(%rbp), %rax
	movq	%rdx, (%rax)
	movq	-8(%rbp), %rdx
	movq	-16(%rbp), %rax
	movq	%rax, 16(%rdx)
	movq	-8(%rbp), %rdx
	movq	-32(%rbp), %rax
	movq	%rax, 24(%rdx)
	movq	-24(%rbp), %rax
	movq	%rax, 32(%rdx)
	leave
	ret
.LFE9610:
	.size	_ZN3Upp20CallbackMethodActionI13WorkspaceWorkMS1_FvvEEC1EPS1_S3_, .-_ZN3Upp20CallbackMethodActionI13WorkspaceWorkMS1_FvvEEC1EPS1_S3_
	.section	.text._ZN3Upp23CallbackMethodActionArgI13WorkspaceWorkMS1_FviEiEC1EPS1_S3_i,"axG",@progbits,_ZN3Upp23CallbackMethodActionArgI13WorkspaceWorkMS1_FviEiEC1EPS1_S3_i,comdat
	.align 2
	.weak	_ZN3Upp23CallbackMethodActionArgI13WorkspaceWorkMS1_FviEiEC1EPS1_S3_i
	.type	_ZN3Upp23CallbackMethodActionArgI13WorkspaceWorkMS1_FviEiEC1EPS1_S3_i, @function
_ZN3Upp23CallbackMethodActionArgI13WorkspaceWorkMS1_FviEiEC1EPS1_S3_i:
.LFB9613:
	pushq	%rbp
.LCFI433:
	movq	%rsp, %rbp
.LCFI434:
	subq	$48, %rsp
.LCFI435:
	movq	%rdi, -8(%rbp)
	movq	%rsi, -16(%rbp)
	movl	%r8d, -36(%rbp)
	movq	%rdx, %rax
	movq	%rcx, %rdx
	movq	%rax, -32(%rbp)
	movq	%rdx, -24(%rbp)
	movq	-8(%rbp), %rdi
	call	_ZN3Upp14CallbackActionC2Ev
	movl	$_ZTVN3Upp23CallbackMethodActionArgI13WorkspaceWorkMS1_FviEiEE+16, %edx
	movq	-8(%rbp), %rax
	movq	%rdx, (%rax)
	movq	-8(%rbp), %rdx
	movq	-16(%rbp), %rax
	movq	%rax, 16(%rdx)
	movq	-8(%rbp), %rdx
	movq	-32(%rbp), %rax
	movq	%rax, 24(%rdx)
	movq	-24(%rbp), %rax
	movq	%rax, 32(%rdx)
	movq	-8(%rbp), %rdx
	movl	-36(%rbp), %eax
	movl	%eax, 40(%rdx)
	leave
	ret
.LFE9613:
	.size	_ZN3Upp23CallbackMethodActionArgI13WorkspaceWorkMS1_FviEiEC1EPS1_S3_i, .-_ZN3Upp23CallbackMethodActionArgI13WorkspaceWorkMS1_FviEiEC1EPS1_S3_i
	.section	.text._ZN3Upp9Callback1INS_6Point_IiEEEC1EPNS_15Callback1ActionIS2_EE,"axG",@progbits,_ZN3Upp9Callback1INS_6Point_IiEEEC1EPNS_15Callback1ActionIS2_EE,comdat
	.align 2
	.weak	_ZN3Upp9Callback1INS_6Point_IiEEEC1EPNS_15Callback1ActionIS2_EE
	.type	_ZN3Upp9Callback1INS_6Point_IiEEEC1EPNS_15Callback1ActionIS2_EE, @function
_ZN3Upp9Callback1INS_6Point_IiEEEC1EPNS_15Callback1ActionIS2_EE:
.LFB9629:
	pushq	%rbp
.LCFI436:
	movq	%rsp, %rbp
.LCFI437:
	subq	$16, %rsp
.LCFI438:
	movq	%rdi, -8(%rbp)
	movq	%rsi, -16(%rbp)
	movq	-8(%rbp), %rdi
	call	_ZN3Upp8MoveableINS_9Callback1INS_6Point_IiEEEENS_10EmptyClassEEC2Ev
	movq	-8(%rbp), %rdx
	movq	-16(%rbp), %rax
	movq	%rax, (%rdx)
	leave
	ret
.LFE9629:
	.size	_ZN3Upp9Callback1INS_6Point_IiEEEC1EPNS_15Callback1ActionIS2_EE, .-_ZN3Upp9Callback1INS_6Point_IiEEEC1EPNS_15Callback1ActionIS2_EE
	.section	.text._ZN3Upp9Callback1INS_6Point_IiEEE7ReleaseEv,"axG",@progbits,_ZN3Upp9Callback1INS_6Point_IiEEE7ReleaseEv,comdat
	.align 2
	.weak	_ZN3Upp9Callback1INS_6Point_IiEEE7ReleaseEv
	.type	_ZN3Upp9Callback1INS_6Point_IiEEE7ReleaseEv, @function
_ZN3Upp9Callback1INS_6Point_IiEEE7ReleaseEv:
.LFB9630:
	pushq	%rbp
.LCFI439:
	movq	%rsp, %rbp
.LCFI440:
	subq	$16, %rsp
.LCFI441:
	movq	%rdi, -8(%rbp)
	movq	-8(%rbp), %rax
	movq	(%rax), %rax
	testq	%rax, %rax
	je	.L400
	movq	-8(%rbp), %rax
	movq	(%rax), %rax
	addq	$8, %rax
	movq	%rax, %rdi
	call	_ZN3Upp9AtomicDecERVi
	testl	%eax, %eax
	jne	.L400
	movb	$1, -9(%rbp)
	jmp	.L403
.L400:
	movb	$0, -9(%rbp)
.L403:
	movzbl	-9(%rbp), %eax
	testb	%al, %al
	je	.L407
	movq	-8(%rbp), %rax
	movq	(%rax), %rax
	testq	%rax, %rax
	je	.L407
	movq	-8(%rbp), %rax
	movq	(%rax), %rax
	movq	(%rax), %rax
	addq	$24, %rax
	movq	(%rax), %rdx
	movq	-8(%rbp), %rax
	movq	(%rax), %rdi
	call	*%rdx
.L407:
	leave
	ret
.LFE9630:
	.size	_ZN3Upp9Callback1INS_6Point_IiEEE7ReleaseEv, .-_ZN3Upp9Callback1INS_6Point_IiEEE7ReleaseEv
	.section	.text._ZN3Upp9Callback1INS_6Point_IiEEED1Ev,"axG",@progbits,_ZN3Upp9Callback1INS_6Point_IiEEED1Ev,comdat
	.align 2
	.weak	_ZN3Upp9Callback1INS_6Point_IiEEED1Ev
	.type	_ZN3Upp9Callback1INS_6Point_IiEEED1Ev, @function
_ZN3Upp9Callback1INS_6Point_IiEEED1Ev:
.LFB9064:
	pushq	%rbp
.LCFI442:
	movq	%rsp, %rbp
.LCFI443:
	subq	$16, %rsp
.LCFI444:
	movq	%rdi, -8(%rbp)
	movq	-8(%rbp), %rdi
	call	_ZN3Upp9Callback1INS_6Point_IiEEE7ReleaseEv
	leave
	ret
.LFE9064:
	.size	_ZN3Upp9Callback1INS_6Point_IiEEED1Ev, .-_ZN3Upp9Callback1INS_6Point_IiEEED1Ev
	.section	.text._ZNK3Upp9Callback1INS_6Point_IiEEE6RetainEv,"axG",@progbits,_ZNK3Upp9Callback1INS_6Point_IiEEE6RetainEv,comdat
	.align 2
	.weak	_ZNK3Upp9Callback1INS_6Point_IiEEE6RetainEv
	.type	_ZNK3Upp9Callback1INS_6Point_IiEEE6RetainEv, @function
_ZNK3Upp9Callback1INS_6Point_IiEEE6RetainEv:
.LFB9631:
	pushq	%rbp
.LCFI445:
	movq	%rsp, %rbp
.LCFI446:
	subq	$16, %rsp
.LCFI447:
	movq	%rdi, -8(%rbp)
	movq	-8(%rbp), %rax
	movq	(%rax), %rax
	testq	%rax, %rax
	je	.L414
	movq	-8(%rbp), %rax
	movq	(%rax), %rax
	addq	$8, %rax
	movq	%rax, %rdi
	call	_ZN3Upp9AtomicIncERVi
.L414:
	leave
	ret
.LFE9631:
	.size	_ZNK3Upp9Callback1INS_6Point_IiEEE6RetainEv, .-_ZNK3Upp9Callback1INS_6Point_IiEEE6RetainEv
	.section	.text._ZN3Upp9Callback1INS_6Point_IiEEEaSERKS3_,"axG",@progbits,_ZN3Upp9Callback1INS_6Point_IiEEEaSERKS3_,comdat
	.align 2
	.weak	_ZN3Upp9Callback1INS_6Point_IiEEEaSERKS3_
	.type	_ZN3Upp9Callback1INS_6Point_IiEEEaSERKS3_, @function
_ZN3Upp9Callback1INS_6Point_IiEEEaSERKS3_:
.LFB9071:
	pushq	%rbp
.LCFI448:
	movq	%rsp, %rbp
.LCFI449:
	subq	$16, %rsp
.LCFI450:
	movq	%rdi, -8(%rbp)
	movq	%rsi, -16(%rbp)
	movq	-16(%rbp), %rdi
	call	_ZNK3Upp9Callback1INS_6Point_IiEEE6RetainEv
	movq	-8(%rbp), %rdi
	call	_ZN3Upp9Callback1INS_6Point_IiEEE7ReleaseEv
	movq	-16(%rbp), %rax
	movq	(%rax), %rdx
	movq	-8(%rbp), %rax
	movq	%rdx, (%rax)
	movq	-8(%rbp), %rax
	leave
	ret
.LFE9071:
	.size	_ZN3Upp9Callback1INS_6Point_IiEEEaSERKS3_, .-_ZN3Upp9Callback1INS_6Point_IiEEEaSERKS3_
	.section	.text._ZNK3Upp6VectorIN13WorkspaceWork5SepfoEE3ChkEv,"axG",@progbits,_ZNK3Upp6VectorIN13WorkspaceWork5SepfoEE3ChkEv,comdat
	.align 2
	.weak	_ZNK3Upp6VectorIN13WorkspaceWork5SepfoEE3ChkEv
	.type	_ZNK3Upp6VectorIN13WorkspaceWork5SepfoEE3ChkEv, @function
_ZNK3Upp6VectorIN13WorkspaceWork5SepfoEE3ChkEv:
.LFB9632:
	pushq	%rbp
.LCFI451:
	movq	%rsp, %rbp
.LCFI452:
	movq	%rdi, -8(%rbp)
	leave
	ret
.LFE9632:
	.size	_ZNK3Upp6VectorIN13WorkspaceWork5SepfoEE3ChkEv, .-_ZNK3Upp6VectorIN13WorkspaceWork5SepfoEE3ChkEv
	.section	.text._ZN3Upp6VectorIN13WorkspaceWork5SepfoEE3RddEv,"axG",@progbits,_ZN3Upp6VectorIN13WorkspaceWork5SepfoEE3RddEv,comdat
	.align 2
	.weak	_ZN3Upp6VectorIN13WorkspaceWork5SepfoEE3RddEv
	.type	_ZN3Upp6VectorIN13WorkspaceWork5SepfoEE3RddEv, @function
_ZN3Upp6VectorIN13WorkspaceWork5SepfoEE3RddEv:
.LFB9633:
	pushq	%rbp
.LCFI453:
	movq	%rsp, %rbp
.LCFI454:
	movq	%rdi, -8(%rbp)
	movq	-8(%rbp), %rax
	movq	(%rax), %rcx
	movq	-8(%rbp), %rax
	movl	8(%rax), %esi
	movslq	%esi,%rdx
	movq	%rdx, %rax
	salq	$2, %rax
	addq	%rdx, %rax
	salq	$3, %rax
	addq	%rax, %rcx
	leal	1(%rsi), %edx
	movq	-8(%rbp), %rax
	movl	%edx, 8(%rax)
	movq	%rcx, %rax
	leave
	ret
.LFE9633:
	.size	_ZN3Upp6VectorIN13WorkspaceWork5SepfoEE3RddEv, .-_ZN3Upp6VectorIN13WorkspaceWork5SepfoEE3RddEv
	.section	.text._ZN3Upp14ConstructArrayIjEEvPT_PKS1_,"axG",@progbits,_ZN3Upp14ConstructArrayIjEEvPT_PKS1_,comdat
	.align 2
	.weak	_ZN3Upp14ConstructArrayIjEEvPT_PKS1_
	.type	_ZN3Upp14ConstructArrayIjEEvPT_PKS1_, @function
_ZN3Upp14ConstructArrayIjEEvPT_PKS1_:
.LFB9645:
	pushq	%rbp
.LCFI455:
	movq	%rsp, %rbp
.LCFI456:
	subq	$16, %rsp
.LCFI457:
	movq	%rdi, -8(%rbp)
	movq	%rsi, -16(%rbp)
	jmp	.L422
.L423:
	movq	-8(%rbp), %rsi
	addq	$4, -8(%rbp)
	movl	$4, %edi
	call	_ZnwmPv
.L422:
	movq	-8(%rbp), %rax
	cmpq	-16(%rbp), %rax
	jb	.L423
	leave
	ret
.LFE9645:
	.size	_ZN3Upp14ConstructArrayIjEEvPT_PKS1_, .-_ZN3Upp14ConstructArrayIjEEvPT_PKS1_
	.section	.text._ZNK3Upp6VectorIPvE3ChkEv,"axG",@progbits,_ZNK3Upp6VectorIPvE3ChkEv,comdat
	.align 2
	.weak	_ZNK3Upp6VectorIPvE3ChkEv
	.type	_ZNK3Upp6VectorIPvE3ChkEv, @function
_ZNK3Upp6VectorIPvE3ChkEv:
.LFB9665:
	pushq	%rbp
.LCFI458:
	movq	%rsp, %rbp
.LCFI459:
	movq	%rdi, -8(%rbp)
	leave
	ret
.LFE9665:
	.size	_ZNK3Upp6VectorIPvE3ChkEv, .-_ZNK3Upp6VectorIPvE3ChkEv
	.section	.text._ZNK3Upp6VectorIPvE8GetCountEv,"axG",@progbits,_ZNK3Upp6VectorIPvE8GetCountEv,comdat
	.align 2
	.weak	_ZNK3Upp6VectorIPvE8GetCountEv
	.type	_ZNK3Upp6VectorIPvE8GetCountEv, @function
_ZNK3Upp6VectorIPvE8GetCountEv:
.LFB9181:
	pushq	%rbp
.LCFI460:
	movq	%rsp, %rbp
.LCFI461:
	subq	$16, %rsp
.LCFI462:
	movq	%rdi, -8(%rbp)
	movq	-8(%rbp), %rdi
	call	_ZNK3Upp6VectorIPvE3ChkEv
	movq	-8(%rbp), %rax
	movl	8(%rax), %eax
	leave
	ret
.LFE9181:
	.size	_ZNK3Upp6VectorIPvE8GetCountEv, .-_ZNK3Upp6VectorIPvE8GetCountEv
	.section	.text._ZNK3Upp5ArrayIN7Package4FileEE8GetCountEv,"axG",@progbits,_ZNK3Upp5ArrayIN7Package4FileEE8GetCountEv,comdat
	.align 2
	.weak	_ZNK3Upp5ArrayIN7Package4FileEE8GetCountEv
	.type	_ZNK3Upp5ArrayIN7Package4FileEE8GetCountEv, @function
_ZNK3Upp5ArrayIN7Package4FileEE8GetCountEv:
.LFB8691:
	pushq	%rbp
.LCFI463:
	movq	%rsp, %rbp
.LCFI464:
	subq	$16, %rsp
.LCFI465:
	movq	%rdi, -8(%rbp)
	movq	-8(%rbp), %rdi
	addq	$8, %rdi
	call	_ZNK3Upp6VectorIPvE8GetCountEv
	leave
	ret
.LFE8691:
	.size	_ZNK3Upp5ArrayIN7Package4FileEE8GetCountEv, .-_ZNK3Upp5ArrayIN7Package4FileEE8GetCountEv
	.section	.text._ZNK7Package8GetCountEv,"axG",@progbits,_ZNK7Package8GetCountEv,comdat
	.align 2
	.weak	_ZNK7Package8GetCountEv
	.type	_ZNK7Package8GetCountEv, @function
_ZNK7Package8GetCountEv:
.LFB6977:
	pushq	%rbp
.LCFI466:
	movq	%rsp, %rbp
.LCFI467:
	subq	$16, %rsp
.LCFI468:
	movq	%rdi, -8(%rbp)
	movq	-8(%rbp), %rdi
	addq	$184, %rdi
	call	_ZNK3Upp5ArrayIN7Package4FileEE8GetCountEv
	leave
	ret
.LFE6977:
	.size	_ZNK7Package8GetCountEv, .-_ZNK7Package8GetCountEv
	.text
	.align 2
.globl _ZNK13WorkspaceWork12IsActiveFileEv
	.type	_ZNK13WorkspaceWork12IsActiveFileEv, @function
_ZNK13WorkspaceWork12IsActiveFileEv:
.LFB7947:
	pushq	%rbp
.LCFI469:
	movq	%rsp, %rbp
.LCFI470:
	pushq	%rbx
.LCFI471:
	subq	$40, %rsp
.LCFI472:
	movq	%rdi, -32(%rbp)
	movq	-32(%rbp), %rdi
	addq	$2120, %rdi
	call	_ZNK3Upp10ColumnList9GetCursorEv
	movl	%eax, -12(%rbp)
	cmpl	$0, -12(%rbp)
	js	.L435
	movq	-32(%rbp), %rdi
	addq	$4232, %rdi
	call	_ZNK3Upp6VectorIiE8GetCountEv
	cmpl	-12(%rbp), %eax
	jle	.L435
	movq	-32(%rbp), %rdi
	addq	$4232, %rdi
	movl	-12(%rbp), %esi
	call	_ZNK3Upp6VectorIiEixEi
	movl	(%rax), %ebx
	movq	-32(%rbp), %rdi
	addq	$4472, %rdi
	call	_ZNK3Upp5ArrayIN7Package4FileEE8GetCountEv
	cmpl	%eax, %ebx
	jge	.L435
	movb	$1, -33(%rbp)
	jmp	.L439
.L435:
	movb	$0, -33(%rbp)
.L439:
	movzbl	-33(%rbp), %eax
	addq	$40, %rsp
	popq	%rbx
	leave
	ret
.LFE7947:
	.size	_ZNK13WorkspaceWork12IsActiveFileEv, .-_ZNK13WorkspaceWork12IsActiveFileEv
	.section	.text._ZNK3Upp5ArrayI7PackageE8GetCountEv,"axG",@progbits,_ZNK3Upp5ArrayI7PackageE8GetCountEv,comdat
	.align 2
	.weak	_ZNK3Upp5ArrayI7PackageE8GetCountEv
	.type	_ZNK3Upp5ArrayI7PackageE8GetCountEv, @function
_ZNK3Upp5ArrayI7PackageE8GetCountEv:
.LFB9418:
	pushq	%rbp
.LCFI473:
	movq	%rsp, %rbp
.LCFI474:
	subq	$16, %rsp
.LCFI475:
	movq	%rdi, -8(%rbp)
	movq	-8(%rbp), %rdi
	addq	$8, %rdi
	call	_ZNK3Upp6VectorIPvE8GetCountEv
	leave
	ret
.LFE9418:
	.size	_ZNK3Upp5ArrayI7PackageE8GetCountEv, .-_ZNK3Upp5ArrayI7PackageE8GetCountEv
	.section	.text._ZNK3Upp4AMapINS_6StringE7PackageNS_5ArrayIS2_EENS_7StdHashIS1_EEE8GetCountEv,"axG",@progbits,_ZNK3Upp4AMapINS_6StringE7PackageNS_5ArrayIS2_EENS_7StdHashIS1_EEE8GetCountEv,comdat
	.align 2
	.weak	_ZNK3Upp4AMapINS_6StringE7PackageNS_5ArrayIS2_EENS_7StdHashIS1_EEE8GetCountEv
	.type	_ZNK3Upp4AMapINS_6StringE7PackageNS_5ArrayIS2_EENS_7StdHashIS1_EEE8GetCountEv, @function
_ZNK3Upp4AMapINS_6StringE7PackageNS_5ArrayIS2_EENS_7StdHashIS1_EEE8GetCountEv:
.LFB8698:
	pushq	%rbp
.LCFI476:
	movq	%rsp, %rbp
.LCFI477:
	subq	$16, %rsp
.LCFI478:
	movq	%rdi, -8(%rbp)
	movq	-8(%rbp), %rdi
	addq	$88, %rdi
	call	_ZNK3Upp5ArrayI7PackageE8GetCountEv
	leave
	ret
.LFE8698:
	.size	_ZNK3Upp4AMapINS_6StringE7PackageNS_5ArrayIS2_EENS_7StdHashIS1_EEE8GetCountEv, .-_ZNK3Upp4AMapINS_6StringE7PackageNS_5ArrayIS2_EENS_7StdHashIS1_EEE8GetCountEv
	.section	.text._ZNK9Workspace8GetCountEv,"axG",@progbits,_ZNK9Workspace8GetCountEv,comdat
	.align 2
	.weak	_ZNK9Workspace8GetCountEv
	.type	_ZNK9Workspace8GetCountEv, @function
_ZNK9Workspace8GetCountEv:
.LFB6984:
	pushq	%rbp
.LCFI479:
	movq	%rsp, %rbp
.LCFI480:
	subq	$16, %rsp
.LCFI481:
	movq	%rdi, -8(%rbp)
	movq	-8(%rbp), %rdi
	addq	$8, %rdi
	call	_ZNK3Upp4AMapINS_6StringE7PackageNS_5ArrayIS2_EENS_7StdHashIS1_EEE8GetCountEv
	leave
	ret
.LFE6984:
	.size	_ZNK9Workspace8GetCountEv, .-_ZNK9Workspace8GetCountEv
	.section	.text._ZNK3Upp5ArrayI7OptItemE8GetCountEv,"axG",@progbits,_ZNK3Upp5ArrayI7OptItemE8GetCountEv,comdat
	.align 2
	.weak	_ZNK3Upp5ArrayI7OptItemE8GetCountEv
	.type	_ZNK3Upp5ArrayI7OptItemE8GetCountEv, @function
_ZNK3Upp5ArrayI7OptItemE8GetCountEv:
.LFB9008:
	pushq	%rbp
.LCFI482:
	movq	%rsp, %rbp
.LCFI483:
	subq	$16, %rsp
.LCFI484:
	movq	%rdi, -8(%rbp)
	movq	-8(%rbp), %rdi
	addq	$8, %rdi
	call	_ZNK3Upp6VectorIPvE8GetCountEv
	leave
	ret
.LFE9008:
	.size	_ZNK3Upp5ArrayI7OptItemE8GetCountEv, .-_ZNK3Upp5ArrayI7OptItemE8GetCountEv
	.section	.text._ZNK3Upp5ArrayINS_10ColumnList4ItemEE8GetCountEv,"axG",@progbits,_ZNK3Upp5ArrayINS_10ColumnList4ItemEE8GetCountEv,comdat
	.align 2
	.weak	_ZNK3Upp5ArrayINS_10ColumnList4ItemEE8GetCountEv
	.type	_ZNK3Upp5ArrayINS_10ColumnList4ItemEE8GetCountEv, @function
_ZNK3Upp5ArrayINS_10ColumnList4ItemEE8GetCountEv:
.LFB8577:
	pushq	%rbp
.LCFI485:
	movq	%rsp, %rbp
.LCFI486:
	subq	$16, %rsp
.LCFI487:
	movq	%rdi, -8(%rbp)
	movq	-8(%rbp), %rdi
	addq	$8, %rdi
	call	_ZNK3Upp6VectorIPvE8GetCountEv
	leave
	ret
.LFE8577:
	.size	_ZNK3Upp5ArrayINS_10ColumnList4ItemEE8GetCountEv, .-_ZNK3Upp5ArrayINS_10ColumnList4ItemEE8GetCountEv
	.section	.text._ZNK3Upp10ColumnList8GetCountEv,"axG",@progbits,_ZNK3Upp10ColumnList8GetCountEv,comdat
	.align 2
	.weak	_ZNK3Upp10ColumnList8GetCountEv
	.type	_ZNK3Upp10ColumnList8GetCountEv, @function
_ZNK3Upp10ColumnList8GetCountEv:
.LFB6311:
	pushq	%rbp
.LCFI488:
	movq	%rsp, %rbp
.LCFI489:
	subq	$16, %rsp
.LCFI490:
	movq	%rdi, -8(%rbp)
	movq	-8(%rbp), %rdi
	addq	$1600, %rdi
	call	_ZNK3Upp5ArrayINS_10ColumnList4ItemEE8GetCountEv
	leave
	ret
.LFE6311:
	.size	_ZNK3Upp10ColumnList8GetCountEv, .-_ZNK3Upp10ColumnList8GetCountEv
	.section	.text._ZNK3Upp5ArrayIN13WorkspaceWork6BackupEE8GetCountEv,"axG",@progbits,_ZNK3Upp5ArrayIN13WorkspaceWork6BackupEE8GetCountEv,comdat
	.align 2
	.weak	_ZNK3Upp5ArrayIN13WorkspaceWork6BackupEE8GetCountEv
	.type	_ZNK3Upp5ArrayIN13WorkspaceWork6BackupEE8GetCountEv, @function
_ZNK3Upp5ArrayIN13WorkspaceWork6BackupEE8GetCountEv:
.LFB9573:
	pushq	%rbp
.LCFI491:
	movq	%rsp, %rbp
.LCFI492:
	subq	$16, %rsp
.LCFI493:
	movq	%rdi, -8(%rbp)
	movq	-8(%rbp), %rdi
	addq	$8, %rdi
	call	_ZNK3Upp6VectorIPvE8GetCountEv
	leave
	ret
.LFE9573:
	.size	_ZNK3Upp5ArrayIN13WorkspaceWork6BackupEE8GetCountEv, .-_ZNK3Upp5ArrayIN13WorkspaceWork6BackupEE8GetCountEv
	.section	.text._ZNK3Upp4AMapINS_6StringEN13WorkspaceWork6BackupENS_5ArrayIS3_EENS_7StdHashIS1_EEE8GetCountEv,"axG",@progbits,_ZNK3Upp4AMapINS_6StringEN13WorkspaceWork6BackupENS_5ArrayIS3_EENS_7StdHashIS1_EEE8GetCountEv,comdat
	.align 2
	.weak	_ZNK3Upp4AMapINS_6StringEN13WorkspaceWork6BackupENS_5ArrayIS3_EENS_7StdHashIS1_EEE8GetCountEv
	.type	_ZNK3Upp4AMapINS_6StringEN13WorkspaceWork6BackupENS_5ArrayIS3_EENS_7StdHashIS1_EEE8GetCountEv, @function
_ZNK3Upp4AMapINS_6StringEN13WorkspaceWork6BackupENS_5ArrayIS3_EENS_7StdHashIS1_EEE8GetCountEv:
.LFB9012:
	pushq	%rbp
.LCFI494:
	movq	%rsp, %rbp
.LCFI495:
	subq	$16, %rsp
.LCFI496:
	movq	%rdi, -8(%rbp)
	movq	-8(%rbp), %rdi
	addq	$88, %rdi
	call	_ZNK3Upp5ArrayIN13WorkspaceWork6BackupEE8GetCountEv
	leave
	ret
.LFE9012:
	.size	_ZNK3Upp4AMapINS_6StringEN13WorkspaceWork6BackupENS_5ArrayIS3_EENS_7StdHashIS1_EEE8GetCountEv, .-_ZNK3Upp4AMapINS_6StringEN13WorkspaceWork6BackupENS_5ArrayIS3_EENS_7StdHashIS1_EEE8GetCountEv
	.section	.text._ZN3Upp6VectorIPvE3RddEv,"axG",@progbits,_ZN3Upp6VectorIPvE3RddEv,comdat
	.align 2
	.weak	_ZN3Upp6VectorIPvE3RddEv
	.type	_ZN3Upp6VectorIPvE3RddEv, @function
_ZN3Upp6VectorIPvE3RddEv:
.LFB9671:
	pushq	%rbp
.LCFI497:
	movq	%rsp, %rbp
.LCFI498:
	movq	%rdi, -8(%rbp)
	movq	-8(%rbp), %rax
	movq	(%rax), %rcx
	movq	-8(%rbp), %rax
	movl	8(%rax), %edx
	movslq	%edx,%rax
	salq	$3, %rax
	addq	%rax, %rcx
	addl	$1, %edx
	movq	-8(%rbp), %rax
	movl	%edx, 8(%rax)
	movq	%rcx, %rax
	leave
	ret
.LFE9671:
	.size	_ZN3Upp6VectorIPvE3RddEv, .-_ZN3Upp6VectorIPvE3RddEv
	.section	.text._ZN3Upp17DeepCopyConstructIPvEEvS1_RKT_,"axG",@progbits,_ZN3Upp17DeepCopyConstructIPvEEvS1_RKT_,comdat
	.align 2
	.weak	_ZN3Upp17DeepCopyConstructIPvEEvS1_RKT_
	.type	_ZN3Upp17DeepCopyConstructIPvEEvS1_RKT_, @function
_ZN3Upp17DeepCopyConstructIPvEEvS1_RKT_:
.LFB9672:
	pushq	%rbp
.LCFI499:
	movq	%rsp, %rbp
.LCFI500:
	subq	$32, %rsp
.LCFI501:
	movq	%rdi, -8(%rbp)
	movq	%rsi, -16(%rbp)
	movq	-8(%rbp), %rsi
	movl	$8, %edi
	call	_ZnwmPv
	movq	%rax, -24(%rbp)
	cmpq	$0, -24(%rbp)
	je	.L463
	movq	-16(%rbp), %rax
	movq	(%rax), %rax
	movq	-24(%rbp), %rdx
	movq	%rax, (%rdx)
.L463:
	leave
	ret
.LFE9672:
	.size	_ZN3Upp17DeepCopyConstructIPvEEvS1_RKT_, .-_ZN3Upp17DeepCopyConstructIPvEEvS1_RKT_
	.section	.text._ZN3Upp12DestroyArrayIiEEvPT_PKS1_,"axG",@progbits,_ZN3Upp12DestroyArrayIiEEvPT_PKS1_,comdat
	.align 2
	.weak	_ZN3Upp12DestroyArrayIiEEvPT_PKS1_
	.type	_ZN3Upp12DestroyArrayIiEEvPT_PKS1_, @function
_ZN3Upp12DestroyArrayIiEEvPT_PKS1_:
.LFB9713:
	pushq	%rbp
.LCFI502:
	movq	%rsp, %rbp
.LCFI503:
	movq	%rdi, -8(%rbp)
	movq	%rsi, -16(%rbp)
	jmp	.L465
.L466:
	addq	$4, -8(%rbp)
.L465:
	movq	-8(%rbp), %rax
	cmpq	-16(%rbp), %rax
	jb	.L466
	leave
	ret
.LFE9713:
	.size	_ZN3Upp12DestroyArrayIiEEvPT_PKS1_, .-_ZN3Upp12DestroyArrayIiEEvPT_PKS1_
	.section	.text._ZN3Upp7ntl_maxIiEERKT_S3_S3_,"axG",@progbits,_ZN3Upp7ntl_maxIiEERKT_S3_S3_,comdat
	.align 2
	.weak	_ZN3Upp7ntl_maxIiEERKT_S3_S3_
	.type	_ZN3Upp7ntl_maxIiEERKT_S3_S3_, @function
_ZN3Upp7ntl_maxIiEERKT_S3_S3_:
.LFB9786:
	pushq	%rbp
.LCFI504:
	movq	%rsp, %rbp
.LCFI505:
	movq	%rdi, -8(%rbp)
	movq	%rsi, -16(%rbp)
	movq	-8(%rbp), %rax
	movl	(%rax), %edx
	movq	-16(%rbp), %rax
	movl	(%rax), %eax
	cmpl	%eax, %edx
	jle	.L470
	movq	-8(%rbp), %rax
	movq	%rax, -24(%rbp)
	jmp	.L472
.L470:
	movq	-16(%rbp), %rax
	movq	%rax, -24(%rbp)
.L472:
	movq	-24(%rbp), %rax
	leave
	ret
.LFE9786:
	.size	_ZN3Upp7ntl_maxIiEERKT_S3_S3_, .-_ZN3Upp7ntl_maxIiEERKT_S3_S3_
	.section	.text._ZN3Upp25MoveableAndDeepCopyOptionINS_5ArrayI7PackageEENS_10EmptyClassEEC2Ev,"axG",@progbits,_ZN3Upp25MoveableAndDeepCopyOptionINS_5ArrayI7PackageEENS_10EmptyClassEEC2Ev,comdat
	.align 2
	.weak	_ZN3Upp25MoveableAndDeepCopyOptionINS_5ArrayI7PackageEENS_10EmptyClassEEC2Ev
	.type	_ZN3Upp25MoveableAndDeepCopyOptionINS_5ArrayI7PackageEENS_10EmptyClassEEC2Ev, @function
_ZN3Upp25MoveableAndDeepCopyOptionINS_5ArrayI7PackageEENS_10EmptyClassEEC2Ev:
.LFB9993:
	pushq	%rbp
.LCFI506:
	movq	%rsp, %rbp
.LCFI507:
	movq	%rdi, -8(%rbp)
	leave
	ret
.LFE9993:
	.size	_ZN3Upp25MoveableAndDeepCopyOptionINS_5ArrayI7PackageEENS_10EmptyClassEEC2Ev, .-_ZN3Upp25MoveableAndDeepCopyOptionINS_5ArrayI7PackageEENS_10EmptyClassEEC2Ev
	.section	.text._ZN3Upp5ArrayI7PackageEC1Ev,"axG",@progbits,_ZN3Upp5ArrayI7PackageEC1Ev,comdat
	.align 2
	.weak	_ZN3Upp5ArrayI7PackageEC1Ev
	.type	_ZN3Upp5ArrayI7PackageEC1Ev, @function
_ZN3Upp5ArrayI7PackageEC1Ev:
.LFB9996:
	pushq	%rbp
.LCFI508:
	movq	%rsp, %rbp
.LCFI509:
	subq	$16, %rsp
.LCFI510:
	movq	%rdi, -8(%rbp)
	movq	-8(%rbp), %rdi
	call	_ZN3Upp25MoveableAndDeepCopyOptionINS_5ArrayI7PackageEENS_10EmptyClassEEC2Ev
	movq	-8(%rbp), %rdi
	addq	$8, %rdi
	call	_ZN3Upp6VectorIPvEC1Ev
	leave
	ret
.LFE9996:
	.size	_ZN3Upp5ArrayI7PackageEC1Ev, .-_ZN3Upp5ArrayI7PackageEC1Ev
	.section	.text._ZN13WorkspaceWork6BackupC1Ev,"axG",@progbits,_ZN13WorkspaceWork6BackupC1Ev,comdat
	.align 2
	.weak	_ZN13WorkspaceWork6BackupC1Ev
	.type	_ZN13WorkspaceWork6BackupC1Ev, @function
_ZN13WorkspaceWork6BackupC1Ev:
.LFB10001:
	pushq	%rbp
.LCFI511:
	movq	%rsp, %rbp
.LCFI512:
	subq	$16, %rsp
.LCFI513:
	movq	%rdi, -8(%rbp)
	movq	-8(%rbp), %rdi
	call	_ZN3Upp8FileTimeC1Ev
	movq	-8(%rbp), %rdi
	addq	$8, %rdi
	call	_ZN3Upp6StringC1Ev
	leave
	ret
.LFE10001:
	.size	_ZN13WorkspaceWork6BackupC1Ev, .-_ZN13WorkspaceWork6BackupC1Ev
	.section	.text._ZN3Upp6VectorIiE4TrimEi,"axG",@progbits,_ZN3Upp6VectorIiE4TrimEi,comdat
	.align 2
	.weak	_ZN3Upp6VectorIiE4TrimEi
	.type	_ZN3Upp6VectorIiE4TrimEi, @function
_ZN3Upp6VectorIiE4TrimEi:
.LFB10003:
	pushq	%rbp
.LCFI514:
	movq	%rsp, %rbp
.LCFI515:
	subq	$16, %rsp
.LCFI516:
	movq	%rdi, -8(%rbp)
	movl	%esi, -12(%rbp)
	movq	-8(%rbp), %rax
	movq	(%rax), %rdx
	movq	-8(%rbp), %rax
	movl	8(%rax), %eax
	cltq
	salq	$2, %rax
	leaq	(%rdx,%rax), %rsi
	movq	-8(%rbp), %rax
	movq	(%rax), %rdx
	movl	-12(%rbp), %eax
	cltq
	salq	$2, %rax
	leaq	(%rdx,%rax), %rdi
	call	_ZN3Upp12DestroyArrayIiEEvPT_PKS1_
	movq	-8(%rbp), %rdx
	movl	-12(%rbp), %eax
	movl	%eax, 8(%rdx)
	leave
	ret
.LFE10003:
	.size	_ZN3Upp6VectorIiE4TrimEi, .-_ZN3Upp6VectorIiE4TrimEi
	.section	.text._ZN3Upp14ConstructArrayIiEEvPT_PKS1_,"axG",@progbits,_ZN3Upp14ConstructArrayIiEEvPT_PKS1_,comdat
	.align 2
	.weak	_ZN3Upp14ConstructArrayIiEEvPT_PKS1_
	.type	_ZN3Upp14ConstructArrayIiEEvPT_PKS1_, @function
_ZN3Upp14ConstructArrayIiEEvPT_PKS1_:
.LFB10005:
	pushq	%rbp
.LCFI517:
	movq	%rsp, %rbp
.LCFI518:
	subq	$16, %rsp
.LCFI519:
	movq	%rdi, -8(%rbp)
	movq	%rsi, -16(%rbp)
	jmp	.L483
.L484:
	movq	-8(%rbp), %rsi
	addq	$4, -8(%rbp)
	movl	$4, %edi
	call	_ZnwmPv
.L483:
	movq	-8(%rbp), %rax
	cmpq	-16(%rbp), %rax
	jb	.L484
	leave
	ret
.LFE10005:
	.size	_ZN3Upp14ConstructArrayIiEEvPT_PKS1_, .-_ZN3Upp14ConstructArrayIiEEvPT_PKS1_
	.section	.text._ZN3Upp15Callback1ActionIRNS_3BarEEC2Ev,"axG",@progbits,_ZN3Upp15Callback1ActionIRNS_3BarEEC2Ev,comdat
	.align 2
	.weak	_ZN3Upp15Callback1ActionIRNS_3BarEEC2Ev
	.type	_ZN3Upp15Callback1ActionIRNS_3BarEEC2Ev, @function
_ZN3Upp15Callback1ActionIRNS_3BarEEC2Ev:
.LFB10010:
	pushq	%rbp
.LCFI520:
	movq	%rsp, %rbp
.LCFI521:
	movq	%rdi, -8(%rbp)
	movl	$_ZTVN3Upp15Callback1ActionIRNS_3BarEEE+16, %eax
	movq	-8(%rbp), %rdx
	movq	%rax, (%rdx)
	movq	-8(%rbp), %rax
	movl	$1, 8(%rax)
	leave
	ret
.LFE10010:
	.size	_ZN3Upp15Callback1ActionIRNS_3BarEEC2Ev, .-_ZN3Upp15Callback1ActionIRNS_3BarEEC2Ev
	.section	.text._ZN3Upp21Callback1MethodActionI13WorkspaceWorkMS1_FvRNS_3BarEES3_EC1EPS1_S5_,"axG",@progbits,_ZN3Upp21Callback1MethodActionI13WorkspaceWorkMS1_FvRNS_3BarEES3_EC1EPS1_S5_,comdat
	.align 2
	.weak	_ZN3Upp21Callback1MethodActionI13WorkspaceWorkMS1_FvRNS_3BarEES3_EC1EPS1_S5_
	.type	_ZN3Upp21Callback1MethodActionI13WorkspaceWorkMS1_FvRNS_3BarEES3_EC1EPS1_S5_, @function
_ZN3Upp21Callback1MethodActionI13WorkspaceWorkMS1_FvRNS_3BarEES3_EC1EPS1_S5_:
.LFB9585:
	pushq	%rbp
.LCFI522:
	movq	%rsp, %rbp
.LCFI523:
	subq	$32, %rsp
.LCFI524:
	movq	%rdi, -8(%rbp)
	movq	%rsi, -16(%rbp)
	movq	%rdx, %rax
	movq	%rcx, %rdx
	movq	%rax, -32(%rbp)
	movq	%rdx, -24(%rbp)
	movq	-8(%rbp), %rdi
	call	_ZN3Upp15Callback1ActionIRNS_3BarEEC2Ev
	movl	$_ZTVN3Upp21Callback1MethodActionI13WorkspaceWorkMS1_FvRNS_3BarEES3_EE+16, %edx
	movq	-8(%rbp), %rax
	movq	%rdx, (%rax)
	movq	-8(%rbp), %rdx
	movq	-16(%rbp), %rax
	movq	%rax, 16(%rdx)
	movq	-8(%rbp), %rdx
	movq	-32(%rbp), %rax
	movq	%rax, 24(%rdx)
	movq	-24(%rbp), %rax
	movq	%rax, 32(%rdx)
	leave
	ret
.LFE9585:
	.size	_ZN3Upp21Callback1MethodActionI13WorkspaceWorkMS1_FvRNS_3BarEES3_EC1EPS1_S5_, .-_ZN3Upp21Callback1MethodActionI13WorkspaceWorkMS1_FvRNS_3BarEES3_EC1EPS1_S5_
	.section	.text._ZN3Upp12DestroyArrayIPvEEvPT_PKS2_,"axG",@progbits,_ZN3Upp12DestroyArrayIPvEEvPT_PKS2_,comdat
	.align 2
	.weak	_ZN3Upp12DestroyArrayIPvEEvPT_PKS2_
	.type	_ZN3Upp12DestroyArrayIPvEEvPT_PKS2_, @function
_ZN3Upp12DestroyArrayIPvEEvPT_PKS2_:
.LFB10015:
	pushq	%rbp
.LCFI525:
	movq	%rsp, %rbp
.LCFI526:
	movq	%rdi, -8(%rbp)
	movq	%rsi, -16(%rbp)
	jmp	.L492
.L493:
	addq	$8, -8(%rbp)
.L492:
	movq	-8(%rbp), %rax
	cmpq	-16(%rbp), %rax
	jb	.L493
	leave
	ret
.LFE10015:
	.size	_ZN3Upp12DestroyArrayIPvEEvPT_PKS2_, .-_ZN3Upp12DestroyArrayIPvEEvPT_PKS2_
	.section	.text._ZNK3Upp6VectorIN13WorkspaceWork5SepfoEE8GetCountEv,"axG",@progbits,_ZNK3Upp6VectorIN13WorkspaceWork5SepfoEE8GetCountEv,comdat
	.align 2
	.weak	_ZNK3Upp6VectorIN13WorkspaceWork5SepfoEE8GetCountEv
	.type	_ZNK3Upp6VectorIN13WorkspaceWork5SepfoEE8GetCountEv, @function
_ZNK3Upp6VectorIN13WorkspaceWork5SepfoEE8GetCountEv:
.LFB10018:
	pushq	%rbp
.LCFI527:
	movq	%rsp, %rbp
.LCFI528:
	subq	$16, %rsp
.LCFI529:
	movq	%rdi, -8(%rbp)
	movq	-8(%rbp), %rdi
	call	_ZNK3Upp6VectorIN13WorkspaceWork5SepfoEE3ChkEv
	movq	-8(%rbp), %rax
	movl	8(%rax), %eax
	leave
	ret
.LFE10018:
	.size	_ZNK3Upp6VectorIN13WorkspaceWork5SepfoEE8GetCountEv, .-_ZNK3Upp6VectorIN13WorkspaceWork5SepfoEE8GetCountEv
	.section	.text._ZN3Upp25MoveableAndDeepCopyOptionINS_5ArrayIN13WorkspaceWork6BackupEEENS_10EmptyClassEEC2Ev,"axG",@progbits,_ZN3Upp25MoveableAndDeepCopyOptionINS_5ArrayIN13WorkspaceWork6BackupEEENS_10EmptyClassEEC2Ev,comdat
	.align 2
	.weak	_ZN3Upp25MoveableAndDeepCopyOptionINS_5ArrayIN13WorkspaceWork6BackupEEENS_10EmptyClassEEC2Ev
	.type	_ZN3Upp25MoveableAndDeepCopyOptionINS_5ArrayIN13WorkspaceWork6BackupEEENS_10EmptyClassEEC2Ev, @function
_ZN3Upp25MoveableAndDeepCopyOptionINS_5ArrayIN13WorkspaceWork6BackupEEENS_10EmptyClassEEC2Ev:
.LFB10022:
	pushq	%rbp
.LCFI530:
	movq	%rsp, %rbp
.LCFI531:
	movq	%rdi, -8(%rbp)
	leave
	ret
.LFE10022:
	.size	_ZN3Upp25MoveableAndDeepCopyOptionINS_5ArrayIN13WorkspaceWork6BackupEEENS_10EmptyClassEEC2Ev, .-_ZN3Upp25MoveableAndDeepCopyOptionINS_5ArrayIN13WorkspaceWork6BackupEEENS_10EmptyClassEEC2Ev
	.section	.text._ZN3Upp5ArrayIN13WorkspaceWork6BackupEEC1Ev,"axG",@progbits,_ZN3Upp5ArrayIN13WorkspaceWork6BackupEEC1Ev,comdat
	.align 2
	.weak	_ZN3Upp5ArrayIN13WorkspaceWork6BackupEEC1Ev
	.type	_ZN3Upp5ArrayIN13WorkspaceWork6BackupEEC1Ev, @function
_ZN3Upp5ArrayIN13WorkspaceWork6BackupEEC1Ev:
.LFB10025:
	pushq	%rbp
.LCFI532:
	movq	%rsp, %rbp
.LCFI533:
	subq	$16, %rsp
.LCFI534:
	movq	%rdi, -8(%rbp)
	movq	-8(%rbp), %rdi
	call	_ZN3Upp25MoveableAndDeepCopyOptionINS_5ArrayIN13WorkspaceWork6BackupEEENS_10EmptyClassEEC2Ev
	movq	-8(%rbp), %rdi
	addq	$8, %rdi
	call	_ZN3Upp6VectorIPvEC1Ev
	leave
	ret
.LFE10025:
	.size	_ZN3Upp5ArrayIN13WorkspaceWork6BackupEEC1Ev, .-_ZN3Upp5ArrayIN13WorkspaceWork6BackupEEC1Ev
	.section	.text._ZN3Upp15Callback1ActionINS_6Point_IiEEEC2Ev,"axG",@progbits,_ZN3Upp15Callback1ActionINS_6Point_IiEEEC2Ev,comdat
	.align 2
	.weak	_ZN3Upp15Callback1ActionINS_6Point_IiEEEC2Ev
	.type	_ZN3Upp15Callback1ActionINS_6Point_IiEEEC2Ev, @function
_ZN3Upp15Callback1ActionINS_6Point_IiEEEC2Ev:
.LFB10027:
	pushq	%rbp
.LCFI535:
	movq	%rsp, %rbp
.LCFI536:
	movq	%rdi, -8(%rbp)
	movl	$_ZTVN3Upp15Callback1ActionINS_6Point_IiEEEE+16, %eax
	movq	-8(%rbp), %rdx
	movq	%rax, (%rdx)
	movq	-8(%rbp), %rax
	movl	$1, 8(%rax)
	leave
	ret
.LFE10027:
	.size	_ZN3Upp15Callback1ActionINS_6Point_IiEEEC2Ev, .-_ZN3Upp15Callback1ActionINS_6Point_IiEEEC2Ev
	.section	.text._ZN3Upp21Callback1MethodActionI13WorkspaceWorkMS1_FvNS_6Point_IiEEES3_EC1EPS1_S5_,"axG",@progbits,_ZN3Upp21Callback1MethodActionI13WorkspaceWorkMS1_FvNS_6Point_IiEEES3_EC1EPS1_S5_,comdat
	.align 2
	.weak	_ZN3Upp21Callback1MethodActionI13WorkspaceWorkMS1_FvNS_6Point_IiEEES3_EC1EPS1_S5_
	.type	_ZN3Upp21Callback1MethodActionI13WorkspaceWorkMS1_FvNS_6Point_IiEEES3_EC1EPS1_S5_, @function
_ZN3Upp21Callback1MethodActionI13WorkspaceWorkMS1_FvNS_6Point_IiEEES3_EC1EPS1_S5_:
.LFB9626:
	pushq	%rbp
.LCFI537:
	movq	%rsp, %rbp
.LCFI538:
	subq	$32, %rsp
.LCFI539:
	movq	%rdi, -8(%rbp)
	movq	%rsi, -16(%rbp)
	movq	%rdx, %rax
	movq	%rcx, %rdx
	movq	%rax, -32(%rbp)
	movq	%rdx, -24(%rbp)
	movq	-8(%rbp), %rdi
	call	_ZN3Upp15Callback1ActionINS_6Point_IiEEEC2Ev
	movl	$_ZTVN3Upp21Callback1MethodActionI13WorkspaceWorkMS1_FvNS_6Point_IiEEES3_EE+16, %edx
	movq	-8(%rbp), %rax
	movq	%rdx, (%rax)
	movq	-8(%rbp), %rdx
	movq	-16(%rbp), %rax
	movq	%rax, 16(%rdx)
	movq	-8(%rbp), %rdx
	movq	-32(%rbp), %rax
	movq	%rax, 24(%rdx)
	movq	-24(%rbp), %rax
	movq	%rax, 32(%rdx)
	leave
	ret
.LFE9626:
	.size	_ZN3Upp21Callback1MethodActionI13WorkspaceWorkMS1_FvNS_6Point_IiEEES3_EC1EPS1_S5_, .-_ZN3Upp21Callback1MethodActionI13WorkspaceWorkMS1_FvNS_6Point_IiEEES3_EC1EPS1_S5_
	.section	.text._ZN3Upp12DestroyArrayIjEEvPT_PKS1_,"axG",@progbits,_ZN3Upp12DestroyArrayIjEEvPT_PKS1_,comdat
	.align 2
	.weak	_ZN3Upp12DestroyArrayIjEEvPT_PKS1_
	.type	_ZN3Upp12DestroyArrayIjEEvPT_PKS1_, @function
_ZN3Upp12DestroyArrayIjEEvPT_PKS1_:
.LFB10039:
	pushq	%rbp
.LCFI540:
	movq	%rsp, %rbp
.LCFI541:
	movq	%rdi, -8(%rbp)
	movq	%rsi, -16(%rbp)
	jmp	.L507
.L508:
	addq	$4, -8(%rbp)
.L507:
	movq	-8(%rbp), %rax
	cmpq	-16(%rbp), %rax
	jb	.L508
	leave
	ret
.LFE10039:
	.size	_ZN3Upp12DestroyArrayIjEEvPT_PKS1_, .-_ZN3Upp12DestroyArrayIjEEvPT_PKS1_
	.section	.text._ZN3Upp6VectorIjE4TrimEi,"axG",@progbits,_ZN3Upp6VectorIjE4TrimEi,comdat
	.align 2
	.weak	_ZN3Upp6VectorIjE4TrimEi
	.type	_ZN3Upp6VectorIjE4TrimEi, @function
_ZN3Upp6VectorIjE4TrimEi:
.LFB9643:
	pushq	%rbp
.LCFI542:
	movq	%rsp, %rbp
.LCFI543:
	subq	$16, %rsp
.LCFI544:
	movq	%rdi, -8(%rbp)
	movl	%esi, -12(%rbp)
	movq	-8(%rbp), %rax
	movq	(%rax), %rdx
	movq	-8(%rbp), %rax
	movl	8(%rax), %eax
	cltq
	salq	$2, %rax
	leaq	(%rdx,%rax), %rsi
	movq	-8(%rbp), %rax
	movq	(%rax), %rdx
	movl	-12(%rbp), %eax
	cltq
	salq	$2, %rax
	leaq	(%rdx,%rax), %rdi
	call	_ZN3Upp12DestroyArrayIjEEvPT_PKS1_
	movq	-8(%rbp), %rdx
	movl	-12(%rbp), %eax
	movl	%eax, 8(%rdx)
	leave
	ret
.LFE9643:
	.size	_ZN3Upp6VectorIjE4TrimEi, .-_ZN3Upp6VectorIjE4TrimEi
	.section	.text._ZNK3Upp6VectorIPvE8IsPickedEv,"axG",@progbits,_ZNK3Upp6VectorIPvE8IsPickedEv,comdat
	.align 2
	.weak	_ZNK3Upp6VectorIPvE8IsPickedEv
	.type	_ZNK3Upp6VectorIPvE8IsPickedEv, @function
_ZNK3Upp6VectorIPvE8IsPickedEv:
.LFB10048:
	pushq	%rbp
.LCFI545:
	movq	%rsp, %rbp
.LCFI546:
	movq	%rdi, -8(%rbp)
	movq	-8(%rbp), %rax
	movl	8(%rax), %eax
	shrl	$31, %eax
	leave
	ret
.LFE10048:
	.size	_ZNK3Upp6VectorIPvE8IsPickedEv, .-_ZNK3Upp6VectorIPvE8IsPickedEv
	.section	.text._ZNK3Upp5ArrayIN13WorkspaceWork6BackupEE8IsPickedEv,"axG",@progbits,_ZNK3Upp5ArrayIN13WorkspaceWork6BackupEE8IsPickedEv,comdat
	.align 2
	.weak	_ZNK3Upp5ArrayIN13WorkspaceWork6BackupEE8IsPickedEv
	.type	_ZNK3Upp5ArrayIN13WorkspaceWork6BackupEE8IsPickedEv, @function
_ZNK3Upp5ArrayIN13WorkspaceWork6BackupEE8IsPickedEv:
.LFB9975:
	pushq	%rbp
.LCFI547:
	movq	%rsp, %rbp
.LCFI548:
	subq	$16, %rsp
.LCFI549:
	movq	%rdi, -8(%rbp)
	movq	-8(%rbp), %rdi
	addq	$8, %rdi
	call	_ZNK3Upp6VectorIPvE8IsPickedEv
	movzbl	%al, %eax
	leave
	ret
.LFE9975:
	.size	_ZNK3Upp5ArrayIN13WorkspaceWork6BackupEE8IsPickedEv, .-_ZNK3Upp5ArrayIN13WorkspaceWork6BackupEE8IsPickedEv
	.section	.text._ZNK3Upp5ArrayI10CustomStepE8IsPickedEv,"axG",@progbits,_ZNK3Upp5ArrayI10CustomStepE8IsPickedEv,comdat
	.align 2
	.weak	_ZNK3Upp5ArrayI10CustomStepE8IsPickedEv
	.type	_ZNK3Upp5ArrayI10CustomStepE8IsPickedEv, @function
_ZNK3Upp5ArrayI10CustomStepE8IsPickedEv:
.LFB9971:
	pushq	%rbp
.LCFI550:
	movq	%rsp, %rbp
.LCFI551:
	subq	$16, %rsp
.LCFI552:
	movq	%rdi, -8(%rbp)
	movq	-8(%rbp), %rdi
	addq	$8, %rdi
	call	_ZNK3Upp6VectorIPvE8IsPickedEv
	movzbl	%al, %eax
	leave
	ret
.LFE9971:
	.size	_ZNK3Upp5ArrayI10CustomStepE8IsPickedEv, .-_ZNK3Upp5ArrayI10CustomStepE8IsPickedEv
	.section	.text._ZNK3Upp5ArrayIN7Package6ConfigEE8IsPickedEv,"axG",@progbits,_ZNK3Upp5ArrayIN7Package6ConfigEE8IsPickedEv,comdat
	.align 2
	.weak	_ZNK3Upp5ArrayIN7Package6ConfigEE8IsPickedEv
	.type	_ZNK3Upp5ArrayIN7Package6ConfigEE8IsPickedEv, @function
_ZNK3Upp5ArrayIN7Package6ConfigEE8IsPickedEv:
.LFB9970:
	pushq	%rbp
.LCFI553:
	movq	%rsp, %rbp
.LCFI554:
	subq	$16, %rsp
.LCFI555:
	movq	%rdi, -8(%rbp)
	movq	-8(%rbp), %rdi
	addq	$8, %rdi
	call	_ZNK3Upp6VectorIPvE8IsPickedEv
	movzbl	%al, %eax
	leave
	ret
.LFE9970:
	.size	_ZNK3Upp5ArrayIN7Package6ConfigEE8IsPickedEv, .-_ZNK3Upp5ArrayIN7Package6ConfigEE8IsPickedEv
	.section	.text._ZNK3Upp5ArrayIN7Package4FileEE8IsPickedEv,"axG",@progbits,_ZNK3Upp5ArrayIN7Package4FileEE8IsPickedEv,comdat
	.align 2
	.weak	_ZNK3Upp5ArrayIN7Package4FileEE8IsPickedEv
	.type	_ZNK3Upp5ArrayIN7Package4FileEE8IsPickedEv, @function
_ZNK3Upp5ArrayIN7Package4FileEE8IsPickedEv:
.LFB9969:
	pushq	%rbp
.LCFI556:
	movq	%rsp, %rbp
.LCFI557:
	subq	$16, %rsp
.LCFI558:
	movq	%rdi, -8(%rbp)
	movq	-8(%rbp), %rdi
	addq	$8, %rdi
	call	_ZNK3Upp6VectorIPvE8IsPickedEv
	movzbl	%al, %eax
	leave
	ret
.LFE9969:
	.size	_ZNK3Upp5ArrayIN7Package4FileEE8IsPickedEv, .-_ZNK3Upp5ArrayIN7Package4FileEE8IsPickedEv
	.section	.text._ZNK3Upp5ArrayI7OptItemE8IsPickedEv,"axG",@progbits,_ZNK3Upp5ArrayI7OptItemE8IsPickedEv,comdat
	.align 2
	.weak	_ZNK3Upp5ArrayI7OptItemE8IsPickedEv
	.type	_ZNK3Upp5ArrayI7OptItemE8IsPickedEv, @function
_ZNK3Upp5ArrayI7OptItemE8IsPickedEv:
.LFB9837:
	pushq	%rbp
.LCFI559:
	movq	%rsp, %rbp
.LCFI560:
	subq	$16, %rsp
.LCFI561:
	movq	%rdi, -8(%rbp)
	movq	-8(%rbp), %rdi
	addq	$8, %rdi
	call	_ZNK3Upp6VectorIPvE8IsPickedEv
	movzbl	%al, %eax
	leave
	ret
.LFE9837:
	.size	_ZNK3Upp5ArrayI7OptItemE8IsPickedEv, .-_ZNK3Upp5ArrayI7OptItemE8IsPickedEv
	.section	.text._ZNK3Upp5ArrayI7PackageE8IsPickedEv,"axG",@progbits,_ZNK3Upp5ArrayI7PackageE8IsPickedEv,comdat
	.align 2
	.weak	_ZNK3Upp5ArrayI7PackageE8IsPickedEv
	.type	_ZNK3Upp5ArrayI7PackageE8IsPickedEv, @function
_ZNK3Upp5ArrayI7PackageE8IsPickedEv:
.LFB9997:
	pushq	%rbp
.LCFI562:
	movq	%rsp, %rbp
.LCFI563:
	subq	$16, %rsp
.LCFI564:
	movq	%rdi, -8(%rbp)
	movq	-8(%rbp), %rdi
	addq	$8, %rdi
	call	_ZNK3Upp6VectorIPvE8IsPickedEv
	movzbl	%al, %eax
	leave
	ret
.LFE9997:
	.size	_ZNK3Upp5ArrayI7PackageE8IsPickedEv, .-_ZNK3Upp5ArrayI7PackageE8IsPickedEv
	.section	.text._ZNK3Upp6VectorIPvE3GetEi,"axG",@progbits,_ZNK3Upp6VectorIPvE3GetEi,comdat
	.align 2
	.weak	_ZNK3Upp6VectorIPvE3GetEi
	.type	_ZNK3Upp6VectorIPvE3GetEi, @function
_ZNK3Upp6VectorIPvE3GetEi:
.LFB10049:
	pushq	%rbp
.LCFI565:
	movq	%rsp, %rbp
.LCFI566:
	movq	%rdi, -8(%rbp)
	movl	%esi, -12(%rbp)
	movq	-8(%rbp), %rax
	movq	(%rax), %rdx
	movl	-12(%rbp), %eax
	cltq
	salq	$3, %rax
	leaq	(%rdx,%rax), %rax
	leave
	ret
.LFE10049:
	.size	_ZNK3Upp6VectorIPvE3GetEi, .-_ZNK3Upp6VectorIPvE3GetEi
	.section	.text._ZN3Upp6VectorIPvEixEi,"axG",@progbits,_ZN3Upp6VectorIPvEixEi,comdat
	.align 2
	.weak	_ZN3Upp6VectorIPvEixEi
	.type	_ZN3Upp6VectorIPvEixEi, @function
_ZN3Upp6VectorIPvEixEi:
.LFB9663:
	pushq	%rbp
.LCFI567:
	movq	%rsp, %rbp
.LCFI568:
	subq	$16, %rsp
.LCFI569:
	movq	%rdi, -8(%rbp)
	movl	%esi, -12(%rbp)
	movl	-12(%rbp), %esi
	movq	-8(%rbp), %rdi
	call	_ZNK3Upp6VectorIPvE3GetEi
	leave
	ret
.LFE9663:
	.size	_ZN3Upp6VectorIPvEixEi, .-_ZN3Upp6VectorIPvEixEi
	.section	.text._ZNK3Upp6VectorIPvEixEi,"axG",@progbits,_ZNK3Upp6VectorIPvEixEi,comdat
	.align 2
	.weak	_ZNK3Upp6VectorIPvEixEi
	.type	_ZNK3Upp6VectorIPvEixEi, @function
_ZNK3Upp6VectorIPvEixEi:
.LFB9670:
	pushq	%rbp
.LCFI570:
	movq	%rsp, %rbp
.LCFI571:
	subq	$16, %rsp
.LCFI572:
	movq	%rdi, -8(%rbp)
	movl	%esi, -12(%rbp)
	movl	-12(%rbp), %esi
	movq	-8(%rbp), %rdi
	call	_ZNK3Upp6VectorIPvE3GetEi
	leave
	ret
.LFE9670:
	.size	_ZNK3Upp6VectorIPvEixEi, .-_ZNK3Upp6VectorIPvEixEi
	.section	.text._ZNK3Upp5ArrayI7PackageE3GetEi,"axG",@progbits,_ZNK3Upp5ArrayI7PackageE3GetEi,comdat
	.align 2
	.weak	_ZNK3Upp5ArrayI7PackageE3GetEi
	.type	_ZNK3Upp5ArrayI7PackageE3GetEi, @function
_ZNK3Upp5ArrayI7PackageE3GetEi:
.LFB9838:
	pushq	%rbp
.LCFI573:
	movq	%rsp, %rbp
.LCFI574:
	subq	$16, %rsp
.LCFI575:
	movq	%rdi, -8(%rbp)
	movl	%esi, -12(%rbp)
	movq	-8(%rbp), %rdi
	addq	$8, %rdi
	movl	-12(%rbp), %esi
	call	_ZNK3Upp6VectorIPvEixEi
	movq	(%rax), %rax
	leave
	ret
.LFE9838:
	.size	_ZNK3Upp5ArrayI7PackageE3GetEi, .-_ZNK3Upp5ArrayI7PackageE3GetEi
	.section	.text._ZN3Upp5ArrayI7PackageEixEi,"axG",@progbits,_ZN3Upp5ArrayI7PackageEixEi,comdat
	.align 2
	.weak	_ZN3Upp5ArrayI7PackageEixEi
	.type	_ZN3Upp5ArrayI7PackageEixEi, @function
_ZN3Upp5ArrayI7PackageEixEi:
.LFB9416:
	pushq	%rbp
.LCFI576:
	movq	%rsp, %rbp
.LCFI577:
	subq	$16, %rsp
.LCFI578:
	movq	%rdi, -8(%rbp)
	movl	%esi, -12(%rbp)
	movl	-12(%rbp), %esi
	movq	-8(%rbp), %rdi
	call	_ZNK3Upp5ArrayI7PackageE3GetEi
	leave
	ret
.LFE9416:
	.size	_ZN3Upp5ArrayI7PackageEixEi, .-_ZN3Upp5ArrayI7PackageEixEi
	.section	.text._ZN3Upp4AMapINS_6StringE7PackageNS_5ArrayIS2_EENS_7StdHashIS1_EEEixEi,"axG",@progbits,_ZN3Upp4AMapINS_6StringE7PackageNS_5ArrayIS2_EENS_7StdHashIS1_EEEixEi,comdat
	.align 2
	.weak	_ZN3Upp4AMapINS_6StringE7PackageNS_5ArrayIS2_EENS_7StdHashIS1_EEEixEi
	.type	_ZN3Upp4AMapINS_6StringE7PackageNS_5ArrayIS2_EENS_7StdHashIS1_EEEixEi, @function
_ZN3Upp4AMapINS_6StringE7PackageNS_5ArrayIS2_EENS_7StdHashIS1_EEEixEi:
.LFB8696:
	pushq	%rbp
.LCFI579:
	movq	%rsp, %rbp
.LCFI580:
	subq	$16, %rsp
.LCFI581:
	movq	%rdi, -8(%rbp)
	movl	%esi, -12(%rbp)
	movq	-8(%rbp), %rdi
	addq	$88, %rdi
	movl	-12(%rbp), %esi
	call	_ZN3Upp5ArrayI7PackageEixEi
	leave
	ret
.LFE8696:
	.size	_ZN3Upp4AMapINS_6StringE7PackageNS_5ArrayIS2_EENS_7StdHashIS1_EEEixEi, .-_ZN3Upp4AMapINS_6StringE7PackageNS_5ArrayIS2_EENS_7StdHashIS1_EEEixEi
	.section	.text._ZN9Workspace10GetPackageEi,"axG",@progbits,_ZN9Workspace10GetPackageEi,comdat
	.align 2
	.weak	_ZN9Workspace10GetPackageEi
	.type	_ZN9Workspace10GetPackageEi, @function
_ZN9Workspace10GetPackageEi:
.LFB6982:
	pushq	%rbp
.LCFI582:
	movq	%rsp, %rbp
.LCFI583:
	subq	$16, %rsp
.LCFI584:
	movq	%rdi, -8(%rbp)
	movl	%esi, -12(%rbp)
	movq	-8(%rbp), %rdi
	addq	$8, %rdi
	movl	-12(%rbp), %esi
	call	_ZN3Upp4AMapINS_6StringE7PackageNS_5ArrayIS2_EENS_7StdHashIS1_EEEixEi
	leave
	ret
.LFE6982:
	.size	_ZN9Workspace10GetPackageEi, .-_ZN9Workspace10GetPackageEi
	.section	.text._ZNK3Upp5ArrayIN7Package4FileEE3GetEi,"axG",@progbits,_ZNK3Upp5ArrayIN7Package4FileEE3GetEi,comdat
	.align 2
	.weak	_ZNK3Upp5ArrayIN7Package4FileEE3GetEi
	.type	_ZNK3Upp5ArrayIN7Package4FileEE3GetEi, @function
_ZNK3Upp5ArrayIN7Package4FileEE3GetEi:
.LFB9414:
	pushq	%rbp
.LCFI585:
	movq	%rsp, %rbp
.LCFI586:
	subq	$16, %rsp
.LCFI587:
	movq	%rdi, -8(%rbp)
	movl	%esi, -12(%rbp)
	movq	-8(%rbp), %rdi
	addq	$8, %rdi
	movl	-12(%rbp), %esi
	call	_ZNK3Upp6VectorIPvEixEi
	movq	(%rax), %rax
	leave
	ret
.LFE9414:
	.size	_ZNK3Upp5ArrayIN7Package4FileEE3GetEi, .-_ZNK3Upp5ArrayIN7Package4FileEE3GetEi
	.section	.text._ZNK3Upp5ArrayIN7Package4FileEEixEi,"axG",@progbits,_ZNK3Upp5ArrayIN7Package4FileEEixEi,comdat
	.align 2
	.weak	_ZNK3Upp5ArrayIN7Package4FileEEixEi
	.type	_ZNK3Upp5ArrayIN7Package4FileEEixEi, @function
_ZNK3Upp5ArrayIN7Package4FileEEixEi:
.LFB8693:
	pushq	%rbp
.LCFI588:
	movq	%rsp, %rbp
.LCFI589:
	subq	$16, %rsp
.LCFI590:
	movq	%rdi, -8(%rbp)
	movl	%esi, -12(%rbp)
	movl	-12(%rbp), %esi
	movq	-8(%rbp), %rdi
	call	_ZNK3Upp5ArrayIN7Package4FileEE3GetEi
	leave
	ret
.LFE8693:
	.size	_ZNK3Upp5ArrayIN7Package4FileEEixEi, .-_ZNK3Upp5ArrayIN7Package4FileEEixEi
	.section	.text._ZNK7PackageixEi,"axG",@progbits,_ZNK7PackageixEi,comdat
	.align 2
	.weak	_ZNK7PackageixEi
	.type	_ZNK7PackageixEi, @function
_ZNK7PackageixEi:
.LFB6979:
	pushq	%rbp
.LCFI591:
	movq	%rsp, %rbp
.LCFI592:
	subq	$16, %rsp
.LCFI593:
	movq	%rdi, -8(%rbp)
	movl	%esi, -12(%rbp)
	movq	-8(%rbp), %rdi
	addq	$184, %rdi
	movl	-12(%rbp), %esi
	call	_ZNK3Upp5ArrayIN7Package4FileEEixEi
	leave
	ret
.LFE6979:
	.size	_ZNK7PackageixEi, .-_ZNK7PackageixEi
	.text
	.align 2
.globl _ZNK13WorkspaceWork11IsSeparatorEi
	.type	_ZNK13WorkspaceWork11IsSeparatorEi, @function
_ZNK13WorkspaceWork11IsSeparatorEi:
.LFB7944:
	pushq	%rbp
.LCFI594:
	movq	%rsp, %rbp
.LCFI595:
	subq	$16, %rsp
.LCFI596:
	movq	%rdi, -8(%rbp)
	movl	%esi, -12(%rbp)
	cmpl	$0, -12(%rbp)
	js	.L548
	movq	-8(%rbp), %rdi
	addq	$4232, %rdi
	call	_ZNK3Upp6VectorIiE8GetCountEv
	cmpl	-12(%rbp), %eax
	jle	.L548
	movq	-8(%rbp), %rdi
	addq	$4232, %rdi
	movl	-12(%rbp), %esi
	call	_ZNK3Upp6VectorIiEixEi
	movl	(%rax), %esi
	movq	-8(%rbp), %rdi
	addq	$4472, %rdi
	call	_ZNK3Upp5ArrayIN7Package4FileEEixEi
	movzbl	65(%rax), %eax
	movzbl	%al, %eax
	movl	%eax, -16(%rbp)
	jmp	.L551
.L548:
	movl	$1, -16(%rbp)
.L551:
	movl	-16(%rbp), %eax
	leave
	ret
.LFE7944:
	.size	_ZNK13WorkspaceWork11IsSeparatorEi, .-_ZNK13WorkspaceWork11IsSeparatorEi
	.section	.text._ZN3Upp5ArrayIN7Package4FileEEixEi,"axG",@progbits,_ZN3Upp5ArrayIN7Package4FileEEixEi,comdat
	.align 2
	.weak	_ZN3Upp5ArrayIN7Package4FileEEixEi
	.type	_ZN3Upp5ArrayIN7Package4FileEEixEi, @function
_ZN3Upp5ArrayIN7Package4FileEEixEi:
.LFB8692:
	pushq	%rbp
.LCFI597:
	movq	%rsp, %rbp
.LCFI598:
	subq	$16, %rsp
.LCFI599:
	movq	%rdi, -8(%rbp)
	movl	%esi, -12(%rbp)
	movl	-12(%rbp), %esi
	movq	-8(%rbp), %rdi
	call	_ZNK3Upp5ArrayIN7Package4FileEE3GetEi
	leave
	ret
.LFE8692:
	.size	_ZN3Upp5ArrayIN7Package4FileEEixEi, .-_ZN3Upp5ArrayIN7Package4FileEEixEi
	.text
	.align 2
.globl _ZN13WorkspaceWork10ActiveFileEv
	.type	_ZN13WorkspaceWork10ActiveFileEv, @function
_ZN13WorkspaceWork10ActiveFileEv:
.LFB7948:
	pushq	%rbp
.LCFI600:
	movq	%rsp, %rbp
.LCFI601:
	subq	$16, %rsp
.LCFI602:
	movq	%rdi, -8(%rbp)
	movq	-8(%rbp), %rdi
	addq	$2120, %rdi
	call	_ZNK3Upp10ColumnList9GetCursorEv
	movl	%eax, %esi
	movq	-8(%rbp), %rdi
	addq	$4232, %rdi
	call	_ZN3Upp6VectorIiEixEi
	movl	(%rax), %esi
	movq	-8(%rbp), %rdi
	addq	$4472, %rdi
	call	_ZN3Upp5ArrayIN7Package4FileEEixEi
	leave
	ret
.LFE7948:
	.size	_ZN13WorkspaceWork10ActiveFileEv, .-_ZN13WorkspaceWork10ActiveFileEv
	.section	.text._ZN7PackageixEi,"axG",@progbits,_ZN7PackageixEi,comdat
	.align 2
	.weak	_ZN7PackageixEi
	.type	_ZN7PackageixEi, @function
_ZN7PackageixEi:
.LFB6978:
	pushq	%rbp
.LCFI603:
	movq	%rsp, %rbp
.LCFI604:
	subq	$16, %rsp
.LCFI605:
	movq	%rdi, -8(%rbp)
	movl	%esi, -12(%rbp)
	movq	-8(%rbp), %rdi
	addq	$184, %rdi
	movl	-12(%rbp), %esi
	call	_ZN3Upp5ArrayIN7Package4FileEEixEi
	leave
	ret
.LFE6978:
	.size	_ZN7PackageixEi, .-_ZN7PackageixEi
	.section	.text._ZNK3Upp5ArrayI7OptItemE3GetEi,"axG",@progbits,_ZNK3Upp5ArrayI7OptItemE3GetEi,comdat
	.align 2
	.weak	_ZNK3Upp5ArrayI7OptItemE3GetEi
	.type	_ZNK3Upp5ArrayI7OptItemE3GetEi, @function
_ZNK3Upp5ArrayI7OptItemE3GetEi:
.LFB9572:
	pushq	%rbp
.LCFI606:
	movq	%rsp, %rbp
.LCFI607:
	subq	$16, %rsp
.LCFI608:
	movq	%rdi, -8(%rbp)
	movl	%esi, -12(%rbp)
	movq	-8(%rbp), %rdi
	addq	$8, %rdi
	movl	-12(%rbp), %esi
	call	_ZNK3Upp6VectorIPvEixEi
	movq	(%rax), %rax
	leave
	ret
.LFE9572:
	.size	_ZNK3Upp5ArrayI7OptItemE3GetEi, .-_ZNK3Upp5ArrayI7OptItemE3GetEi
	.section	.text._ZN3Upp5ArrayI7OptItemEixEi,"axG",@progbits,_ZN3Upp5ArrayI7OptItemEixEi,comdat
	.align 2
	.weak	_ZN3Upp5ArrayI7OptItemEixEi
	.type	_ZN3Upp5ArrayI7OptItemEixEi, @function
_ZN3Upp5ArrayI7OptItemEixEi:
.LFB9009:
	pushq	%rbp
.LCFI609:
	movq	%rsp, %rbp
.LCFI610:
	subq	$16, %rsp
.LCFI611:
	movq	%rdi, -8(%rbp)
	movl	%esi, -12(%rbp)
	movl	-12(%rbp), %esi
	movq	-8(%rbp), %rdi
	call	_ZNK3Upp5ArrayI7OptItemE3GetEi
	leave
	ret
.LFE9009:
	.size	_ZN3Upp5ArrayI7OptItemEixEi, .-_ZN3Upp5ArrayI7OptItemEixEi
	.section	.text._ZNK3Upp5ArrayIN13WorkspaceWork6BackupEE3GetEi,"axG",@progbits,_ZNK3Upp5ArrayIN13WorkspaceWork6BackupEE3GetEi,comdat
	.align 2
	.weak	_ZNK3Upp5ArrayIN13WorkspaceWork6BackupEE3GetEi
	.type	_ZNK3Upp5ArrayIN13WorkspaceWork6BackupEE3GetEi, @function
_ZNK3Upp5ArrayIN13WorkspaceWork6BackupEE3GetEi:
.LFB10002:
	pushq	%rbp
.LCFI612:
	movq	%rsp, %rbp
.LCFI613:
	subq	$16, %rsp
.LCFI614:
	movq	%rdi, -8(%rbp)
	movl	%esi, -12(%rbp)
	movq	-8(%rbp), %rdi
	addq	$8, %rdi
	movl	-12(%rbp), %esi
	call	_ZNK3Upp6VectorIPvEixEi
	movq	(%rax), %rax
	leave
	ret
.LFE10002:
	.size	_ZNK3Upp5ArrayIN13WorkspaceWork6BackupEE3GetEi, .-_ZNK3Upp5ArrayIN13WorkspaceWork6BackupEE3GetEi
	.section	.text._ZN3Upp5ArrayIN13WorkspaceWork6BackupEEixEi,"axG",@progbits,_ZN3Upp5ArrayIN13WorkspaceWork6BackupEEixEi,comdat
	.align 2
	.weak	_ZN3Upp5ArrayIN13WorkspaceWork6BackupEEixEi
	.type	_ZN3Upp5ArrayIN13WorkspaceWork6BackupEEixEi, @function
_ZN3Upp5ArrayIN13WorkspaceWork6BackupEEixEi:
.LFB9574:
	pushq	%rbp
.LCFI615:
	movq	%rsp, %rbp
.LCFI616:
	subq	$16, %rsp
.LCFI617:
	movq	%rdi, -8(%rbp)
	movl	%esi, -12(%rbp)
	movl	-12(%rbp), %esi
	movq	-8(%rbp), %rdi
	call	_ZNK3Upp5ArrayIN13WorkspaceWork6BackupEE3GetEi
	leave
	ret
.LFE9574:
	.size	_ZN3Upp5ArrayIN13WorkspaceWork6BackupEEixEi, .-_ZN3Upp5ArrayIN13WorkspaceWork6BackupEEixEi
	.section	.text._ZN3Upp4AMapINS_6StringEN13WorkspaceWork6BackupENS_5ArrayIS3_EENS_7StdHashIS1_EEEixEi,"axG",@progbits,_ZN3Upp4AMapINS_6StringEN13WorkspaceWork6BackupENS_5ArrayIS3_EENS_7StdHashIS1_EEEixEi,comdat
	.align 2
	.weak	_ZN3Upp4AMapINS_6StringEN13WorkspaceWork6BackupENS_5ArrayIS3_EENS_7StdHashIS1_EEEixEi
	.type	_ZN3Upp4AMapINS_6StringEN13WorkspaceWork6BackupENS_5ArrayIS3_EENS_7StdHashIS1_EEEixEi, @function
_ZN3Upp4AMapINS_6StringEN13WorkspaceWork6BackupENS_5ArrayIS3_EENS_7StdHashIS1_EEEixEi:
.LFB9013:
	pushq	%rbp
.LCFI618:
	movq	%rsp, %rbp
.LCFI619:
	subq	$16, %rsp
.LCFI620:
	movq	%rdi, -8(%rbp)
	movl	%esi, -12(%rbp)
	movq	-8(%rbp), %rdi
	addq	$88, %rdi
	movl	-12(%rbp), %esi
	call	_ZN3Upp5ArrayIN13WorkspaceWork6BackupEEixEi
	leave
	ret
.LFE9013:
	.size	_ZN3Upp4AMapINS_6StringEN13WorkspaceWork6BackupENS_5ArrayIS3_EENS_7StdHashIS1_EEEixEi, .-_ZN3Upp4AMapINS_6StringEN13WorkspaceWork6BackupENS_5ArrayIS3_EENS_7StdHashIS1_EEEixEi
	.section	.text._ZN3Upp6VectorIPvE4TrimEi,"axG",@progbits,_ZN3Upp6VectorIPvE4TrimEi,comdat
	.align 2
	.weak	_ZN3Upp6VectorIPvE4TrimEi
	.type	_ZN3Upp6VectorIPvE4TrimEi, @function
_ZN3Upp6VectorIPvE4TrimEi:
.LFB10050:
	pushq	%rbp
.LCFI621:
	movq	%rsp, %rbp
.LCFI622:
	subq	$16, %rsp
.LCFI623:
	movq	%rdi, -8(%rbp)
	movl	%esi, -12(%rbp)
	movq	-8(%rbp), %rax
	movq	(%rax), %rdx
	movq	-8(%rbp), %rax
	movl	8(%rax), %eax
	cltq
	salq	$3, %rax
	leaq	(%rdx,%rax), %rsi
	movq	-8(%rbp), %rax
	movq	(%rax), %rdx
	movl	-12(%rbp), %eax
	cltq
	salq	$3, %rax
	leaq	(%rdx,%rax), %rdi
	call	_ZN3Upp12DestroyArrayIPvEEvPT_PKS2_
	movq	-8(%rbp), %rdx
	movl	-12(%rbp), %eax
	movl	%eax, 8(%rdx)
	leave
	ret
.LFE10050:
	.size	_ZN3Upp6VectorIPvE4TrimEi, .-_ZN3Upp6VectorIPvE4TrimEi
	.section	.text._ZN3Upp14ConstructArrayIPvEEvPT_PKS2_,"axG",@progbits,_ZN3Upp14ConstructArrayIPvEEvPT_PKS2_,comdat
	.align 2
	.weak	_ZN3Upp14ConstructArrayIPvEEvPT_PKS2_
	.type	_ZN3Upp14ConstructArrayIPvEEvPT_PKS2_, @function
_ZN3Upp14ConstructArrayIPvEEvPT_PKS2_:
.LFB10052:
	pushq	%rbp
.LCFI624:
	movq	%rsp, %rbp
.LCFI625:
	subq	$16, %rsp
.LCFI626:
	movq	%rdi, -8(%rbp)
	movq	%rsi, -16(%rbp)
	jmp	.L572
.L573:
	movq	-8(%rbp), %rsi
	addq	$8, -8(%rbp)
	movl	$8, %edi
	call	_ZnwmPv
.L572:
	movq	-8(%rbp), %rax
	cmpq	-16(%rbp), %rax
	jb	.L573
	leave
	ret
.LFE10052:
	.size	_ZN3Upp14ConstructArrayIPvEEvPT_PKS2_, .-_ZN3Upp14ConstructArrayIPvEEvPT_PKS2_
	.section	.text._ZN3Upp6VectorIPvE9SetPickedERKS2_,"axG",@progbits,_ZN3Upp6VectorIPvE9SetPickedERKS2_,comdat
	.align 2
	.weak	_ZN3Upp6VectorIPvE9SetPickedERKS2_
	.type	_ZN3Upp6VectorIPvE9SetPickedERKS2_, @function
_ZN3Upp6VectorIPvE9SetPickedERKS2_:
.LFB10075:
	pushq	%rbp
.LCFI627:
	movq	%rsp, %rbp
.LCFI628:
	movq	%rdi, -24(%rbp)
	movq	-24(%rbp), %rax
	movq	%rax, -8(%rbp)
	movq	-8(%rbp), %rax
	movl	$-1, 8(%rax)
	movq	-8(%rbp), %rax
	movq	$0, (%rax)
	movq	-8(%rbp), %rax
	leave
	ret
.LFE10075:
	.size	_ZN3Upp6VectorIPvE9SetPickedERKS2_, .-_ZN3Upp6VectorIPvE9SetPickedERKS2_
	.section	.text._ZN3Upp6VectorIPvE4PickERKS2_,"axG",@progbits,_ZN3Upp6VectorIPvE4PickERKS2_,comdat
	.align 2
	.weak	_ZN3Upp6VectorIPvE4PickERKS2_
	.type	_ZN3Upp6VectorIPvE4PickERKS2_, @function
_ZN3Upp6VectorIPvE4PickERKS2_:
.LFB9722:
	pushq	%rbp
.LCFI629:
	movq	%rsp, %rbp
.LCFI630:
	subq	$16, %rsp
.LCFI631:
	movq	%rdi, -8(%rbp)
	movq	%rsi, -16(%rbp)
	movq	-16(%rbp), %rax
	movq	(%rax), %rdx
	movq	-8(%rbp), %rax
	movq	%rdx, (%rax)
	movq	-16(%rbp), %rax
	movl	8(%rax), %edx
	movq	-8(%rbp), %rax
	movl	%edx, 8(%rax)
	movq	-16(%rbp), %rax
	movl	12(%rax), %edx
	movq	-8(%rbp), %rax
	movl	%edx, 12(%rax)
	movq	-16(%rbp), %rdi
	call	_ZN3Upp6VectorIPvE9SetPickedERKS2_
	leave
	ret
.LFE9722:
	.size	_ZN3Upp6VectorIPvE4PickERKS2_, .-_ZN3Upp6VectorIPvE4PickERKS2_
	.section	.text._ZN3Upp6VectorIPvEC1ERKS2_,"axG",@progbits,_ZN3Upp6VectorIPvEC1ERKS2_,comdat
	.align 2
	.weak	_ZN3Upp6VectorIPvEC1ERKS2_
	.type	_ZN3Upp6VectorIPvEC1ERKS2_, @function
_ZN3Upp6VectorIPvEC1ERKS2_:
.LFB9282:
	pushq	%rbp
.LCFI632:
	movq	%rsp, %rbp
.LCFI633:
	subq	$16, %rsp
.LCFI634:
	movq	%rdi, -8(%rbp)
	movq	%rsi, -16(%rbp)
	movq	-8(%rbp), %rdi
	call	_ZN3Upp25MoveableAndDeepCopyOptionINS_6VectorIPvEENS_10EmptyClassEEC2Ev
	movq	-16(%rbp), %rsi
	movq	-8(%rbp), %rdi
	call	_ZN3Upp6VectorIPvE4PickERKS2_
	leave
	ret
.LFE9282:
	.size	_ZN3Upp6VectorIPvEC1ERKS2_, .-_ZN3Upp6VectorIPvEC1ERKS2_
	.section	.text._ZN3Upp5ArrayI7OptItemEC1ERKS2_,"axG",@progbits,_ZN3Upp5ArrayI7OptItemEC1ERKS2_,comdat
	.align 2
	.weak	_ZN3Upp5ArrayI7OptItemEC1ERKS2_
	.type	_ZN3Upp5ArrayI7OptItemEC1ERKS2_, @function
_ZN3Upp5ArrayI7OptItemEC1ERKS2_:
.LFB9600:
	pushq	%rbp
.LCFI635:
	movq	%rsp, %rbp
.LCFI636:
	subq	$16, %rsp
.LCFI637:
	movq	%rdi, -8(%rbp)
	movq	%rsi, -16(%rbp)
	movq	-8(%rbp), %rdi
	call	_ZN3Upp25MoveableAndDeepCopyOptionINS_5ArrayI7OptItemEENS_10EmptyClassEEC2Ev
	movq	-16(%rbp), %rsi
	addq	$8, %rsi
	movq	-8(%rbp), %rdi
	addq	$8, %rdi
	call	_ZN3Upp6VectorIPvEC1ERKS2_
	leave
	ret
.LFE9600:
	.size	_ZN3Upp5ArrayI7OptItemEC1ERKS2_, .-_ZN3Upp5ArrayI7OptItemEC1ERKS2_
	.section	.text._ZNK3Upp6VectorIN13WorkspaceWork5SepfoEE3GetEi,"axG",@progbits,_ZNK3Upp6VectorIN13WorkspaceWork5SepfoEE3GetEi,comdat
	.align 2
	.weak	_ZNK3Upp6VectorIN13WorkspaceWork5SepfoEE3GetEi
	.type	_ZNK3Upp6VectorIN13WorkspaceWork5SepfoEE3GetEi, @function
_ZNK3Upp6VectorIN13WorkspaceWork5SepfoEE3GetEi:
.LFB10118:
	pushq	%rbp
.LCFI638:
	movq	%rsp, %rbp
.LCFI639:
	movq	%rdi, -8(%rbp)
	movl	%esi, -12(%rbp)
	movq	-8(%rbp), %rax
	movq	(%rax), %rcx
	movl	-12(%rbp), %eax
	movslq	%eax,%rdx
	movq	%rdx, %rax
	salq	$2, %rax
	addq	%rdx, %rax
	salq	$3, %rax
	leaq	(%rcx,%rax), %rax
	leave
	ret
.LFE10118:
	.size	_ZNK3Upp6VectorIN13WorkspaceWork5SepfoEE3GetEi, .-_ZNK3Upp6VectorIN13WorkspaceWork5SepfoEE3GetEi
	.section	.text._ZNK3Upp6VectorIN13WorkspaceWork5SepfoEEixEi,"axG",@progbits,_ZNK3Upp6VectorIN13WorkspaceWork5SepfoEEixEi,comdat
	.align 2
	.weak	_ZNK3Upp6VectorIN13WorkspaceWork5SepfoEEixEi
	.type	_ZNK3Upp6VectorIN13WorkspaceWork5SepfoEEixEi, @function
_ZNK3Upp6VectorIN13WorkspaceWork5SepfoEEixEi:
.LFB10115:
	pushq	%rbp
.LCFI640:
	movq	%rsp, %rbp
.LCFI641:
	subq	$16, %rsp
.LCFI642:
	movq	%rdi, -8(%rbp)
	movl	%esi, -12(%rbp)
	movl	-12(%rbp), %esi
	movq	-8(%rbp), %rdi
	call	_ZNK3Upp6VectorIN13WorkspaceWork5SepfoEE3GetEi
	leave
	ret
.LFE10115:
	.size	_ZNK3Upp6VectorIN13WorkspaceWork5SepfoEEixEi, .-_ZNK3Upp6VectorIN13WorkspaceWork5SepfoEEixEi
	.section	.text._ZN3Upp6VectorIN13WorkspaceWork5SepfoEEixEi,"axG",@progbits,_ZN3Upp6VectorIN13WorkspaceWork5SepfoEEixEi,comdat
	.align 2
	.weak	_ZN3Upp6VectorIN13WorkspaceWork5SepfoEEixEi
	.type	_ZN3Upp6VectorIN13WorkspaceWork5SepfoEEixEi, @function
_ZN3Upp6VectorIN13WorkspaceWork5SepfoEEixEi:
.LFB10017:
	pushq	%rbp
.LCFI643:
	movq	%rsp, %rbp
.LCFI644:
	subq	$16, %rsp
.LCFI645:
	movq	%rdi, -8(%rbp)
	movl	%esi, -12(%rbp)
	movl	-12(%rbp), %esi
	movq	-8(%rbp), %rdi
	call	_ZNK3Upp6VectorIN13WorkspaceWork5SepfoEE3GetEi
	leave
	ret
.LFE10017:
	.size	_ZN3Upp6VectorIN13WorkspaceWork5SepfoEEixEi, .-_ZN3Upp6VectorIN13WorkspaceWork5SepfoEEixEi
	.section	.text._ZN3Upp6VectorIN13WorkspaceWork5SepfoEE5BeginEv,"axG",@progbits,_ZN3Upp6VectorIN13WorkspaceWork5SepfoEE5BeginEv,comdat
	.align 2
	.weak	_ZN3Upp6VectorIN13WorkspaceWork5SepfoEE5BeginEv
	.type	_ZN3Upp6VectorIN13WorkspaceWork5SepfoEE5BeginEv, @function
_ZN3Upp6VectorIN13WorkspaceWork5SepfoEE5BeginEv:
.LFB10122:
	pushq	%rbp
.LCFI646:
	movq	%rsp, %rbp
.LCFI647:
	movq	%rdi, -8(%rbp)
	movq	-8(%rbp), %rax
	movq	(%rax), %rax
	leave
	ret
.LFE10122:
	.size	_ZN3Upp6VectorIN13WorkspaceWork5SepfoEE5BeginEv, .-_ZN3Upp6VectorIN13WorkspaceWork5SepfoEE5BeginEv
	.section	.text._ZN3Upp5Rect_IiEC1ENS_5Size_IiEE,"axG",@progbits,_ZN3Upp5Rect_IiEC1ENS_5Size_IiEE,comdat
	.align 2
	.weak	_ZN3Upp5Rect_IiEC1ENS_5Size_IiEE
	.type	_ZN3Upp5Rect_IiEC1ENS_5Size_IiEE, @function
_ZN3Upp5Rect_IiEC1ENS_5Size_IiEE:
.LFB10162:
	pushq	%rbp
.LCFI648:
	movq	%rsp, %rbp
.LCFI649:
	subq	$16, %rsp
.LCFI650:
	movq	%rdi, -8(%rbp)
	movq	%rsi, -16(%rbp)
	movq	-8(%rbp), %rdi
	call	_ZN3Upp8MoveableINS_5Rect_IiEENS_10EmptyClassEEC2Ev
	movq	-16(%rbp), %rax
	movl	4(%rax), %edx
	movq	-16(%rbp), %rax
	movl	(%rax), %ecx
	movq	-8(%rbp), %rdi
	movl	%edx, %r8d
	movl	$0, %edx
	movl	$0, %esi
	call	_ZN3Upp5Rect_IiE3SetEiiii
	leave
	ret
.LFE10162:
	.size	_ZN3Upp5Rect_IiEC1ENS_5Size_IiEE, .-_ZN3Upp5Rect_IiEC1ENS_5Size_IiEE
	.section	.text._ZN3Upp6VectorIN13WorkspaceWork5SepfoEE9SetPickedERKS3_,"axG",@progbits,_ZN3Upp6VectorIN13WorkspaceWork5SepfoEE9SetPickedERKS3_,comdat
	.align 2
	.weak	_ZN3Upp6VectorIN13WorkspaceWork5SepfoEE9SetPickedERKS3_
	.type	_ZN3Upp6VectorIN13WorkspaceWork5SepfoEE9SetPickedERKS3_, @function
_ZN3Upp6VectorIN13WorkspaceWork5SepfoEE9SetPickedERKS3_:
.LFB10165:
	pushq	%rbp
.LCFI651:
	movq	%rsp, %rbp
.LCFI652:
	movq	%rdi, -24(%rbp)
	movq	-24(%rbp), %rax
	movq	%rax, -8(%rbp)
	movq	-8(%rbp), %rax
	movl	$-1, 8(%rax)
	movq	-8(%rbp), %rax
	movq	$0, (%rax)
	movq	-8(%rbp), %rax
	leave
	ret
.LFE10165:
	.size	_ZN3Upp6VectorIN13WorkspaceWork5SepfoEE9SetPickedERKS3_, .-_ZN3Upp6VectorIN13WorkspaceWork5SepfoEE9SetPickedERKS3_
	.section	.text._ZN3Upp6VectorIN13WorkspaceWork5SepfoEE4PickERKS3_,"axG",@progbits,_ZN3Upp6VectorIN13WorkspaceWork5SepfoEE4PickERKS3_,comdat
	.align 2
	.weak	_ZN3Upp6VectorIN13WorkspaceWork5SepfoEE4PickERKS3_
	.type	_ZN3Upp6VectorIN13WorkspaceWork5SepfoEE4PickERKS3_, @function
_ZN3Upp6VectorIN13WorkspaceWork5SepfoEE4PickERKS3_:
.LFB10123:
	pushq	%rbp
.LCFI653:
	movq	%rsp, %rbp
.LCFI654:
	subq	$16, %rsp
.LCFI655:
	movq	%rdi, -8(%rbp)
	movq	%rsi, -16(%rbp)
	movq	-16(%rbp), %rax
	movq	(%rax), %rdx
	movq	-8(%rbp), %rax
	movq	%rdx, (%rax)
	movq	-16(%rbp), %rax
	movl	8(%rax), %edx
	movq	-8(%rbp), %rax
	movl	%edx, 8(%rax)
	movq	-16(%rbp), %rax
	movl	12(%rax), %edx
	movq	-8(%rbp), %rax
	movl	%edx, 12(%rax)
	movq	-16(%rbp), %rdi
	call	_ZN3Upp6VectorIN13WorkspaceWork5SepfoEE9SetPickedERKS3_
	leave
	ret
.LFE10123:
	.size	_ZN3Upp6VectorIN13WorkspaceWork5SepfoEE4PickERKS3_, .-_ZN3Upp6VectorIN13WorkspaceWork5SepfoEE4PickERKS3_
	.section	.text._ZN3Upp21Callback1MethodActionI13WorkspaceWorkMS1_FvNS_6Point_IiEEES3_E7ExecuteES3_,"axG",@progbits,_ZN3Upp21Callback1MethodActionI13WorkspaceWorkMS1_FvNS_6Point_IiEEES3_E7ExecuteES3_,comdat
	.align 2
	.weak	_ZN3Upp21Callback1MethodActionI13WorkspaceWorkMS1_FvNS_6Point_IiEEES3_E7ExecuteES3_
	.type	_ZN3Upp21Callback1MethodActionI13WorkspaceWorkMS1_FvNS_6Point_IiEEES3_E7ExecuteES3_, @function
_ZN3Upp21Callback1MethodActionI13WorkspaceWorkMS1_FvNS_6Point_IiEEES3_E7ExecuteES3_:
.LFB10323:
	pushq	%rbp
.LCFI656:
	movq	%rsp, %rbp
.LCFI657:
	subq	$48, %rsp
.LCFI658:
	movq	%rdi, -24(%rbp)
	movq	%rsi, -32(%rbp)
	movq	-24(%rbp), %rax
	movq	24(%rax), %rax
	andl	$1, %eax
	testb	%al, %al
	je	.L599
	movq	-24(%rbp), %rax
	movq	16(%rax), %rdx
	movq	-24(%rbp), %rax
	movq	32(%rax), %rax
	leaq	(%rdx,%rax), %rax
	movq	(%rax), %rdx
	movq	-24(%rbp), %rax
	movq	24(%rax), %rax
	subq	$1, %rax
	leaq	(%rdx,%rax), %rax
	movq	(%rax), %rax
	movq	%rax, -40(%rbp)
	jmp	.L601
.L599:
	movq	-24(%rbp), %rax
	movq	24(%rax), %rax
	movq	%rax, -40(%rbp)
.L601:
	movq	-32(%rbp), %rsi
	leaq	-16(%rbp), %rdi
	call	_ZN3Upp6Point_IiEC1ERKS1_
	movq	-24(%rbp), %rax
	movq	16(%rax), %rdx
	movq	-24(%rbp), %rax
	movq	32(%rax), %rax
	leaq	(%rdx,%rax), %rdi
	leaq	-16(%rbp), %rsi
	call	*-40(%rbp)
	leave
	ret
.LFE10323:
	.size	_ZN3Upp21Callback1MethodActionI13WorkspaceWorkMS1_FvNS_6Point_IiEEES3_E7ExecuteES3_, .-_ZN3Upp21Callback1MethodActionI13WorkspaceWorkMS1_FvNS_6Point_IiEEES3_E7ExecuteES3_
	.section	.text._ZNK3Upp15Callback1ActionINS_6Point_IiEEE7IsValidEv,"axG",@progbits,_ZNK3Upp15Callback1ActionINS_6Point_IiEEE7IsValidEv,comdat
	.align 2
	.weak	_ZNK3Upp15Callback1ActionINS_6Point_IiEEE7IsValidEv
	.type	_ZNK3Upp15Callback1ActionINS_6Point_IiEEE7IsValidEv, @function
_ZNK3Upp15Callback1ActionINS_6Point_IiEEE7IsValidEv:
.LFB10324:
	pushq	%rbp
.LCFI659:
	movq	%rsp, %rbp
.LCFI660:
	movq	%rdi, -8(%rbp)
	movl	$1, %eax
	leave
	ret
.LFE10324:
	.size	_ZNK3Upp15Callback1ActionINS_6Point_IiEEE7IsValidEv, .-_ZNK3Upp15Callback1ActionINS_6Point_IiEEE7IsValidEv
	.section	.text._ZN3Upp23CallbackMethodActionArgI13WorkspaceWorkMS1_FviEiE7ExecuteEv,"axG",@progbits,_ZN3Upp23CallbackMethodActionArgI13WorkspaceWorkMS1_FviEiE7ExecuteEv,comdat
	.align 2
	.weak	_ZN3Upp23CallbackMethodActionArgI13WorkspaceWorkMS1_FviEiE7ExecuteEv
	.type	_ZN3Upp23CallbackMethodActionArgI13WorkspaceWorkMS1_FviEiE7ExecuteEv, @function
_ZN3Upp23CallbackMethodActionArgI13WorkspaceWorkMS1_FviEiE7ExecuteEv:
.LFB10326:
	pushq	%rbp
.LCFI661:
	movq	%rsp, %rbp
.LCFI662:
	subq	$16, %rsp
.LCFI663:
	movq	%rdi, -8(%rbp)
	movq	-8(%rbp), %rax
	movq	24(%rax), %rax
	andl	$1, %eax
	testb	%al, %al
	je	.L606
	movq	-8(%rbp), %rax
	movq	16(%rax), %rdx
	movq	-8(%rbp), %rax
	movq	32(%rax), %rax
	leaq	(%rdx,%rax), %rax
	movq	(%rax), %rdx
	movq	-8(%rbp), %rax
	movq	24(%rax), %rax
	subq	$1, %rax
	leaq	(%rdx,%rax), %rax
	movq	(%rax), %rax
	movq	%rax, -16(%rbp)
	jmp	.L608
.L606:
	movq	-8(%rbp), %rax
	movq	24(%rax), %rax
	movq	%rax, -16(%rbp)
.L608:
	movq	-8(%rbp), %rax
	movl	40(%rax), %esi
	movq	-8(%rbp), %rax
	movq	16(%rax), %rdx
	movq	-8(%rbp), %rax
	movq	32(%rax), %rax
	leaq	(%rdx,%rax), %rdi
	call	*-16(%rbp)
	leave
	ret
.LFE10326:
	.size	_ZN3Upp23CallbackMethodActionArgI13WorkspaceWorkMS1_FviEiE7ExecuteEv, .-_ZN3Upp23CallbackMethodActionArgI13WorkspaceWorkMS1_FviEiE7ExecuteEv
	.section	.text._ZN3Upp20CallbackMethodActionI13WorkspaceWorkMS1_FvvEE7ExecuteEv,"axG",@progbits,_ZN3Upp20CallbackMethodActionI13WorkspaceWorkMS1_FvvEE7ExecuteEv,comdat
	.align 2
	.weak	_ZN3Upp20CallbackMethodActionI13WorkspaceWorkMS1_FvvEE7ExecuteEv
	.type	_ZN3Upp20CallbackMethodActionI13WorkspaceWorkMS1_FvvEE7ExecuteEv, @function
_ZN3Upp20CallbackMethodActionI13WorkspaceWorkMS1_FvvEE7ExecuteEv:
.LFB10327:
	pushq	%rbp
.LCFI664:
	movq	%rsp, %rbp
.LCFI665:
	subq	$16, %rsp
.LCFI666:
	movq	%rdi, -8(%rbp)
	movq	-8(%rbp), %rax
	movq	24(%rax), %rax
	andl	$1, %eax
	testb	%al, %al
	je	.L611
	movq	-8(%rbp), %rax
	movq	16(%rax), %rdx
	movq	-8(%rbp), %rax
	movq	32(%rax), %rax
	leaq	(%rdx,%rax), %rax
	movq	(%rax), %rdx
	movq	-8(%rbp), %rax
	movq	24(%rax), %rax
	subq	$1, %rax
	leaq	(%rdx,%rax), %rax
	movq	(%rax), %rax
	movq	%rax, -16(%rbp)
	jmp	.L613
.L611:
	movq	-8(%rbp), %rax
	movq	24(%rax), %rax
	movq	%rax, -16(%rbp)
.L613:
	movq	-8(%rbp), %rax
	movq	16(%rax), %rdx
	movq	-8(%rbp), %rax
	movq	32(%rax), %rax
	leaq	(%rdx,%rax), %rdi
	call	*-16(%rbp)
	leave
	ret
.LFE10327:
	.size	_ZN3Upp20CallbackMethodActionI13WorkspaceWorkMS1_FvvEE7ExecuteEv, .-_ZN3Upp20CallbackMethodActionI13WorkspaceWorkMS1_FvvEE7ExecuteEv
	.section	.text._ZN3Upp23CallbackMethodActionArgI13WorkspaceWorkMS1_FvNS1_7ADDFILEEES2_E7ExecuteEv,"axG",@progbits,_ZN3Upp23CallbackMethodActionArgI13WorkspaceWorkMS1_FvNS1_7ADDFILEEES2_E7ExecuteEv,comdat
	.align 2
	.weak	_ZN3Upp23CallbackMethodActionArgI13WorkspaceWorkMS1_FvNS1_7ADDFILEEES2_E7ExecuteEv
	.type	_ZN3Upp23CallbackMethodActionArgI13WorkspaceWorkMS1_FvNS1_7ADDFILEEES2_E7ExecuteEv, @function
_ZN3Upp23CallbackMethodActionArgI13WorkspaceWorkMS1_FvNS1_7ADDFILEEES2_E7ExecuteEv:
.LFB10328:
	pushq	%rbp
.LCFI667:
	movq	%rsp, %rbp
.LCFI668:
	subq	$16, %rsp
.LCFI669:
	movq	%rdi, -8(%rbp)
	movq	-8(%rbp), %rax
	movq	24(%rax), %rax
	andl	$1, %eax
	testb	%al, %al
	je	.L616
	movq	-8(%rbp), %rax
	movq	16(%rax), %rdx
	movq	-8(%rbp), %rax
	movq	32(%rax), %rax
	leaq	(%rdx,%rax), %rax
	movq	(%rax), %rdx
	movq	-8(%rbp), %rax
	movq	24(%rax), %rax
	subq	$1, %rax
	leaq	(%rdx,%rax), %rax
	movq	(%rax), %rax
	movq	%rax, -16(%rbp)
	jmp	.L618
.L616:
	movq	-8(%rbp), %rax
	movq	24(%rax), %rax
	movq	%rax, -16(%rbp)
.L618:
	movq	-8(%rbp), %rax
	movl	40(%rax), %esi
	movq	-8(%rbp), %rax
	movq	16(%rax), %rdx
	movq	-8(%rbp), %rax
	movq	32(%rax), %rax
	leaq	(%rdx,%rax), %rdi
	call	*-16(%rbp)
	leave
	ret
.LFE10328:
	.size	_ZN3Upp23CallbackMethodActionArgI13WorkspaceWorkMS1_FvNS1_7ADDFILEEES2_E7ExecuteEv, .-_ZN3Upp23CallbackMethodActionArgI13WorkspaceWorkMS1_FvNS1_7ADDFILEEES2_E7ExecuteEv
	.section	.text._ZN3Upp20CallbackMethodActionI3TppMS1_FvvEE7ExecuteEv,"axG",@progbits,_ZN3Upp20CallbackMethodActionI3TppMS1_FvvEE7ExecuteEv,comdat
	.align 2
	.weak	_ZN3Upp20CallbackMethodActionI3TppMS1_FvvEE7ExecuteEv
	.type	_ZN3Upp20CallbackMethodActionI3TppMS1_FvvEE7ExecuteEv, @function
_ZN3Upp20CallbackMethodActionI3TppMS1_FvvEE7ExecuteEv:
.LFB10329:
	pushq	%rbp
.LCFI670:
	movq	%rsp, %rbp
.LCFI671:
	subq	$16, %rsp
.LCFI672:
	movq	%rdi, -8(%rbp)
	movq	-8(%rbp), %rax
	movq	24(%rax), %rax
	andl	$1, %eax
	testb	%al, %al
	je	.L621
	movq	-8(%rbp), %rax
	movq	16(%rax), %rdx
	movq	-8(%rbp), %rax
	movq	32(%rax), %rax
	leaq	(%rdx,%rax), %rax
	movq	(%rax), %rdx
	movq	-8(%rbp), %rax
	movq	24(%rax), %rax
	subq	$1, %rax
	leaq	(%rdx,%rax), %rax
	movq	(%rax), %rax
	movq	%rax, -16(%rbp)
	jmp	.L623
.L621:
	movq	-8(%rbp), %rax
	movq	24(%rax), %rax
	movq	%rax, -16(%rbp)
.L623:
	movq	-8(%rbp), %rax
	movq	16(%rax), %rdx
	movq	-8(%rbp), %rax
	movq	32(%rax), %rax
	leaq	(%rdx,%rax), %rdi
	call	*-16(%rbp)
	leave
	ret
.LFE10329:
	.size	_ZN3Upp20CallbackMethodActionI3TppMS1_FvvEE7ExecuteEv, .-_ZN3Upp20CallbackMethodActionI3TppMS1_FvvEE7ExecuteEv
	.section	.text._ZN3Upp21Callback1MethodActionI13WorkspaceWorkMS1_FvRNS_3BarEES3_E7ExecuteES3_,"axG",@progbits,_ZN3Upp21Callback1MethodActionI13WorkspaceWorkMS1_FvRNS_3BarEES3_E7ExecuteES3_,comdat
	.align 2
	.weak	_ZN3Upp21Callback1MethodActionI13WorkspaceWorkMS1_FvRNS_3BarEES3_E7ExecuteES3_
	.type	_ZN3Upp21Callback1MethodActionI13WorkspaceWorkMS1_FvRNS_3BarEES3_E7ExecuteES3_, @function
_ZN3Upp21Callback1MethodActionI13WorkspaceWorkMS1_FvRNS_3BarEES3_E7ExecuteES3_:
.LFB10330:
	pushq	%rbp
.LCFI673:
	movq	%rsp, %rbp
.LCFI674:
	subq	$32, %rsp
.LCFI675:
	movq	%rdi, -8(%rbp)
	movq	%rsi, -16(%rbp)
	movq	-8(%rbp), %rax
	movq	24(%rax), %rax
	andl	$1, %eax
	testb	%al, %al
	je	.L626
	movq	-8(%rbp), %rax
	movq	16(%rax), %rdx
	movq	-8(%rbp), %rax
	movq	32(%rax), %rax
	leaq	(%rdx,%rax), %rax
	movq	(%rax), %rdx
	movq	-8(%rbp), %rax
	movq	24(%rax), %rax
	subq	$1, %rax
	leaq	(%rdx,%rax), %rax
	movq	(%rax), %rax
	movq	%rax, -24(%rbp)
	jmp	.L628
.L626:
	movq	-8(%rbp), %rax
	movq	24(%rax), %rax
	movq	%rax, -24(%rbp)
.L628:
	movq	-8(%rbp), %rax
	movq	16(%rax), %rdx
	movq	-8(%rbp), %rax
	movq	32(%rax), %rax
	leaq	(%rdx,%rax), %rdi
	movq	-16(%rbp), %rsi
	call	*-24(%rbp)
	leave
	ret
.LFE10330:
	.size	_ZN3Upp21Callback1MethodActionI13WorkspaceWorkMS1_FvRNS_3BarEES3_E7ExecuteES3_, .-_ZN3Upp21Callback1MethodActionI13WorkspaceWorkMS1_FvRNS_3BarEES3_E7ExecuteES3_
	.section	.text._ZNK3Upp15Callback1ActionIRNS_3BarEE7IsValidEv,"axG",@progbits,_ZNK3Upp15Callback1ActionIRNS_3BarEE7IsValidEv,comdat
	.align 2
	.weak	_ZNK3Upp15Callback1ActionIRNS_3BarEE7IsValidEv
	.type	_ZNK3Upp15Callback1ActionIRNS_3BarEE7IsValidEv, @function
_ZNK3Upp15Callback1ActionIRNS_3BarEE7IsValidEv:
.LFB10331:
	pushq	%rbp
.LCFI676:
	movq	%rsp, %rbp
.LCFI677:
	movq	%rdi, -8(%rbp)
	movl	$1, %eax
	leave
	ret
.LFE10331:
	.size	_ZNK3Upp15Callback1ActionIRNS_3BarEE7IsValidEv, .-_ZNK3Upp15Callback1ActionIRNS_3BarEE7IsValidEv
	.section	.text._ZN3Upp6VectorIPvE7RawFreeEPS1_,"axG",@progbits,_ZN3Upp6VectorIPvE7RawFreeEPS1_,comdat
	.align 2
	.weak	_ZN3Upp6VectorIPvE7RawFreeEPS1_
	.type	_ZN3Upp6VectorIPvE7RawFreeEPS1_, @function
_ZN3Upp6VectorIPvE7RawFreeEPS1_:
.LFB10054:
	pushq	%rbp
.LCFI678:
	movq	%rsp, %rbp
.LCFI679:
	subq	$16, %rsp
.LCFI680:
	movq	%rdi, -8(%rbp)
	cmpq	$0, -8(%rbp)
	je	.L635
	movq	-8(%rbp), %rdi
	call	_ZN3Upp10MemoryFreeEPv
.L635:
	leave
	ret
.LFE10054:
	.size	_ZN3Upp6VectorIPvE7RawFreeEPS1_, .-_ZN3Upp6VectorIPvE7RawFreeEPS1_
	.section	.text._ZN3Upp6VectorIPvE4FreeEv,"axG",@progbits,_ZN3Upp6VectorIPvE4FreeEv,comdat
	.align 2
	.weak	_ZN3Upp6VectorIPvE4FreeEv
	.type	_ZN3Upp6VectorIPvE4FreeEv, @function
_ZN3Upp6VectorIPvE4FreeEv:
.LFB9678:
	pushq	%rbp
.LCFI681:
	movq	%rsp, %rbp
.LCFI682:
	subq	$16, %rsp
.LCFI683:
	movq	%rdi, -8(%rbp)
	movq	-8(%rbp), %rax
	movq	(%rax), %rax
	testq	%rax, %rax
	je	.L637
	movq	-8(%rbp), %rax
	movl	8(%rax), %eax
	testl	%eax, %eax
	js	.L637
	movq	-8(%rbp), %rax
	movq	(%rax), %rdx
	movq	-8(%rbp), %rax
	movl	8(%rax), %eax
	cltq
	salq	$3, %rax
	leaq	(%rdx,%rax), %rsi
	movq	-8(%rbp), %rax
	movq	(%rax), %rdi
	call	_ZN3Upp12DestroyArrayIPvEEvPT_PKS2_
.L637:
	movq	-8(%rbp), %rax
	movq	(%rax), %rdi
	call	_ZN3Upp6VectorIPvE7RawFreeEPS1_
	leave
	ret
.LFE9678:
	.size	_ZN3Upp6VectorIPvE4FreeEv, .-_ZN3Upp6VectorIPvE4FreeEv
	.section	.text._ZN3Upp6VectorIPvED1Ev,"axG",@progbits,_ZN3Upp6VectorIPvED1Ev,comdat
	.align 2
	.weak	_ZN3Upp6VectorIPvED1Ev
	.type	_ZN3Upp6VectorIPvED1Ev, @function
_ZN3Upp6VectorIPvED1Ev:
.LFB9199:
	pushq	%rbp
.LCFI684:
	movq	%rsp, %rbp
.LCFI685:
	subq	$32, %rsp
.LCFI686:
	movq	%rdi, -24(%rbp)
	movq	-24(%rbp), %rdi
	call	_ZN3Upp6VectorIPvE4FreeEv
	leave
	ret
.LFE9199:
	.size	_ZN3Upp6VectorIPvED1Ev, .-_ZN3Upp6VectorIPvED1Ev
	.section	.text._ZN3Upp6VectorIPvEaSERKS2_,"axG",@progbits,_ZN3Upp6VectorIPvEaSERKS2_,comdat
	.align 2
	.weak	_ZN3Upp6VectorIPvEaSERKS2_
	.type	_ZN3Upp6VectorIPvEaSERKS2_, @function
_ZN3Upp6VectorIPvEaSERKS2_:
.LFB10016:
	pushq	%rbp
.LCFI687:
	movq	%rsp, %rbp
.LCFI688:
	subq	$16, %rsp
.LCFI689:
	movq	%rdi, -8(%rbp)
	movq	%rsi, -16(%rbp)
	movq	-8(%rbp), %rdi
	call	_ZN3Upp6VectorIPvE4FreeEv
	movq	-16(%rbp), %rsi
	movq	-8(%rbp), %rdi
	call	_ZN3Upp6VectorIPvE4PickERKS2_
	leave
	ret
.LFE10016:
	.size	_ZN3Upp6VectorIPvEaSERKS2_, .-_ZN3Upp6VectorIPvEaSERKS2_
	.section	.text._ZN3Upp6VectorINS_6StringEE7RawFreeEPS1_,"axG",@progbits,_ZN3Upp6VectorINS_6StringEE7RawFreeEPS1_,comdat
	.align 2
	.weak	_ZN3Upp6VectorINS_6StringEE7RawFreeEPS1_
	.type	_ZN3Upp6VectorINS_6StringEE7RawFreeEPS1_, @function
_ZN3Upp6VectorINS_6StringEE7RawFreeEPS1_:
.LFB9675:
	pushq	%rbp
.LCFI690:
	movq	%rsp, %rbp
.LCFI691:
	subq	$16, %rsp
.LCFI692:
	movq	%rdi, -8(%rbp)
	cmpq	$0, -8(%rbp)
	je	.L649
	movq	-8(%rbp), %rdi
	call	_ZN3Upp10MemoryFreeEPv
.L649:
	leave
	ret
.LFE9675:
	.size	_ZN3Upp6VectorINS_6StringEE7RawFreeEPS1_, .-_ZN3Upp6VectorINS_6StringEE7RawFreeEPS1_
	.section	.text._ZN3Upp6VectorIN13WorkspaceWork5SepfoEE7RawFreeEPS2_,"axG",@progbits,_ZN3Upp6VectorIN13WorkspaceWork5SepfoEE7RawFreeEPS2_,comdat
	.align 2
	.weak	_ZN3Upp6VectorIN13WorkspaceWork5SepfoEE7RawFreeEPS2_
	.type	_ZN3Upp6VectorIN13WorkspaceWork5SepfoEE7RawFreeEPS2_, @function
_ZN3Upp6VectorIN13WorkspaceWork5SepfoEE7RawFreeEPS2_:
.LFB9973:
	pushq	%rbp
.LCFI693:
	movq	%rsp, %rbp
.LCFI694:
	subq	$16, %rsp
.LCFI695:
	movq	%rdi, -8(%rbp)
	cmpq	$0, -8(%rbp)
	je	.L653
	movq	-8(%rbp), %rdi
	call	_ZN3Upp10MemoryFreeEPv
.L653:
	leave
	ret
.LFE9973:
	.size	_ZN3Upp6VectorIN13WorkspaceWork5SepfoEE7RawFreeEPS2_, .-_ZN3Upp6VectorIN13WorkspaceWork5SepfoEE7RawFreeEPS2_
	.section	.text._ZN3Upp6VectorIiE7RawFreeEPi,"axG",@progbits,_ZN3Upp6VectorIiE7RawFreeEPi,comdat
	.align 2
	.weak	_ZN3Upp6VectorIiE7RawFreeEPi
	.type	_ZN3Upp6VectorIiE7RawFreeEPi, @function
_ZN3Upp6VectorIiE7RawFreeEPi:
.LFB9714:
	pushq	%rbp
.LCFI696:
	movq	%rsp, %rbp
.LCFI697:
	subq	$16, %rsp
.LCFI698:
	movq	%rdi, -8(%rbp)
	cmpq	$0, -8(%rbp)
	je	.L657
	movq	-8(%rbp), %rdi
	call	_ZN3Upp10MemoryFreeEPv
.L657:
	leave
	ret
.LFE9714:
	.size	_ZN3Upp6VectorIiE7RawFreeEPi, .-_ZN3Upp6VectorIiE7RawFreeEPi
	.section	.text._ZN3Upp6VectorIiE4FreeEv,"axG",@progbits,_ZN3Upp6VectorIiE4FreeEv,comdat
	.align 2
	.weak	_ZN3Upp6VectorIiE4FreeEv
	.type	_ZN3Upp6VectorIiE4FreeEv, @function
_ZN3Upp6VectorIiE4FreeEv:
.LFB9255:
	pushq	%rbp
.LCFI699:
	movq	%rsp, %rbp
.LCFI700:
	subq	$16, %rsp
.LCFI701:
	movq	%rdi, -8(%rbp)
	movq	-8(%rbp), %rax
	movq	(%rax), %rax
	testq	%rax, %rax
	je	.L659
	movq	-8(%rbp), %rax
	movl	8(%rax), %eax
	testl	%eax, %eax
	js	.L659
	movq	-8(%rbp), %rax
	movq	(%rax), %rdx
	movq	-8(%rbp), %rax
	movl	8(%rax), %eax
	cltq
	salq	$2, %rax
	leaq	(%rdx,%rax), %rsi
	movq	-8(%rbp), %rax
	movq	(%rax), %rdi
	call	_ZN3Upp12DestroyArrayIiEEvPT_PKS1_
.L659:
	movq	-8(%rbp), %rax
	movq	(%rax), %rdi
	call	_ZN3Upp6VectorIiE7RawFreeEPi
	leave
	ret
.LFE9255:
	.size	_ZN3Upp6VectorIiE4FreeEv, .-_ZN3Upp6VectorIiE4FreeEv
	.section	.text._ZN3Upp6VectorIiED1Ev,"axG",@progbits,_ZN3Upp6VectorIiED1Ev,comdat
	.align 2
	.weak	_ZN3Upp6VectorIiED1Ev
	.type	_ZN3Upp6VectorIiED1Ev, @function
_ZN3Upp6VectorIiED1Ev:
.LFB8374:
	pushq	%rbp
.LCFI702:
	movq	%rsp, %rbp
.LCFI703:
	subq	$32, %rsp
.LCFI704:
	movq	%rdi, -24(%rbp)
	movq	-24(%rbp), %rdi
	call	_ZN3Upp6VectorIiE4FreeEv
	leave
	ret
.LFE8374:
	.size	_ZN3Upp6VectorIiED1Ev, .-_ZN3Upp6VectorIiED1Ev
	.section	.text._ZN3Upp7String04FreeEv,"axG",@progbits,_ZN3Upp7String04FreeEv,comdat
	.align 2
	.weak	_ZN3Upp7String04FreeEv
	.type	_ZN3Upp7String04FreeEv, @function
_ZN3Upp7String04FreeEv:
.LFB1241:
	pushq	%rbp
.LCFI705:
	movq	%rsp, %rbp
.LCFI706:
	subq	$16, %rsp
.LCFI707:
	movq	%rdi, -8(%rbp)
	movq	-8(%rbp), %rdi
	call	_ZNK3Upp7String07IsLargeEv
	testb	%al, %al
	je	.L669
	movq	-8(%rbp), %rdi
	call	_ZN3Upp7String05LFreeEv
.L669:
	leave
	ret
.LFE1241:
	.size	_ZN3Upp7String04FreeEv, .-_ZN3Upp7String04FreeEv
	.section	.text._ZN3Upp7String0D2Ev,"axG",@progbits,_ZN3Upp7String0D2Ev,comdat
	.align 2
	.weak	_ZN3Upp7String0D2Ev
	.type	_ZN3Upp7String0D2Ev, @function
_ZN3Upp7String0D2Ev:
.LFB1264:
	pushq	%rbp
.LCFI708:
	movq	%rsp, %rbp
.LCFI709:
	subq	$16, %rsp
.LCFI710:
	movq	%rdi, -8(%rbp)
	movq	-8(%rbp), %rdi
	call	_ZN3Upp7String04FreeEv
	leave
	ret
.LFE1264:
	.size	_ZN3Upp7String0D2Ev, .-_ZN3Upp7String0D2Ev
	.section	.text._ZN3Upp7AStringINS_7String0EED2Ev,"axG",@progbits,_ZN3Upp7AStringINS_7String0EED2Ev,comdat
	.align 2
	.weak	_ZN3Upp7AStringINS_7String0EED2Ev
	.type	_ZN3Upp7AStringINS_7String0EED2Ev, @function
_ZN3Upp7AStringINS_7String0EED2Ev:
.LFB1275:
	pushq	%rbp
.LCFI711:
	movq	%rsp, %rbp
.LCFI712:
	subq	$16, %rsp
.LCFI713:
	movq	%rdi, -8(%rbp)
	movq	-8(%rbp), %rdi
	call	_ZN3Upp7String0D2Ev
	leave
	ret
.LFE1275:
	.size	_ZN3Upp7AStringINS_7String0EED2Ev, .-_ZN3Upp7AStringINS_7String0EED2Ev
	.section	.text._ZN3Upp8MoveableINS_6StringENS_7AStringINS_7String0EEEED2Ev,"axG",@progbits,_ZN3Upp8MoveableINS_6StringENS_7AStringINS_7String0EEEED2Ev,comdat
	.align 2
	.weak	_ZN3Upp8MoveableINS_6StringENS_7AStringINS_7String0EEEED2Ev
	.type	_ZN3Upp8MoveableINS_6StringENS_7AStringINS_7String0EEEED2Ev, @function
_ZN3Upp8MoveableINS_6StringENS_7AStringINS_7String0EEEED2Ev:
.LFB1277:
	pushq	%rbp
.LCFI714:
	movq	%rsp, %rbp
.LCFI715:
	subq	$16, %rsp
.LCFI716:
	movq	%rdi, -8(%rbp)
	movq	-8(%rbp), %rdi
	call	_ZN3Upp7AStringINS_7String0EED2Ev
	leave
	ret
.LFE1277:
	.size	_ZN3Upp8MoveableINS_6StringENS_7AStringINS_7String0EEEED2Ev, .-_ZN3Upp8MoveableINS_6StringENS_7AStringINS_7String0EEEED2Ev
	.section	.text._ZN3Upp6StringD2Ev,"axG",@progbits,_ZN3Upp6StringD2Ev,comdat
	.align 2
	.weak	_ZN3Upp6StringD2Ev
	.type	_ZN3Upp6StringD2Ev, @function
_ZN3Upp6StringD2Ev:
.LFB1279:
	pushq	%rbp
.LCFI717:
	movq	%rsp, %rbp
.LCFI718:
	subq	$16, %rsp
.LCFI719:
	movq	%rdi, -8(%rbp)
	movq	-8(%rbp), %rdi
	call	_ZN3Upp8MoveableINS_6StringENS_7AStringINS_7String0EEEED2Ev
	leave
	ret
.LFE1279:
	.size	_ZN3Upp6StringD2Ev, .-_ZN3Upp6StringD2Ev
	.section	.text._ZN3Upp6StringD1Ev,"axG",@progbits,_ZN3Upp6StringD1Ev,comdat
	.align 2
	.weak	_ZN3Upp6StringD1Ev
	.type	_ZN3Upp6StringD1Ev, @function
_ZN3Upp6StringD1Ev:
.LFB1280:
	pushq	%rbp
.LCFI720:
	movq	%rsp, %rbp
.LCFI721:
	subq	$16, %rsp
.LCFI722:
	movq	%rdi, -8(%rbp)
	movq	-8(%rbp), %rdi
	call	_ZN3Upp8MoveableINS_6StringENS_7AStringINS_7String0EEEED2Ev
	leave
	ret
.LFE1280:
	.size	_ZN3Upp6StringD1Ev, .-_ZN3Upp6StringD1Ev
	.section	.text._ZN13WorkspaceWork6BackupD1Ev,"axG",@progbits,_ZN13WorkspaceWork6BackupD1Ev,comdat
	.align 2
	.weak	_ZN13WorkspaceWork6BackupD1Ev
	.type	_ZN13WorkspaceWork6BackupD1Ev, @function
_ZN13WorkspaceWork6BackupD1Ev:
.LFB9559:
	pushq	%rbp
.LCFI723:
	movq	%rsp, %rbp
.LCFI724:
	subq	$16, %rsp
.LCFI725:
	movq	%rdi, -8(%rbp)
	movq	-8(%rbp), %rdi
	addq	$8, %rdi
	call	_ZN3Upp6StringD1Ev
	leave
	ret
.LFE9559:
	.size	_ZN13WorkspaceWork6BackupD1Ev, .-_ZN13WorkspaceWork6BackupD1Ev
	.section	.text._ZN3Upp12DestroyArrayINS_6StringEEEvPT_PKS2_,"axG",@progbits,_ZN3Upp12DestroyArrayINS_6StringEEEvPT_PKS2_,comdat
	.align 2
	.weak	_ZN3Upp12DestroyArrayINS_6StringEEEvPT_PKS2_
	.type	_ZN3Upp12DestroyArrayINS_6StringEEEvPT_PKS2_, @function
_ZN3Upp12DestroyArrayINS_6StringEEEvPT_PKS2_:
.LFB9674:
	pushq	%rbp
.LCFI726:
	movq	%rsp, %rbp
.LCFI727:
	subq	$16, %rsp
.LCFI728:
	movq	%rdi, -8(%rbp)
	movq	%rsi, -16(%rbp)
	jmp	.L689
.L690:
	movq	-8(%rbp), %rdi
	call	_ZN3Upp6StringD1Ev
	addq	$16, -8(%rbp)
.L689:
	movq	-8(%rbp), %rax
	cmpq	-16(%rbp), %rax
	jb	.L690
	leave
	ret
.LFE9674:
	.size	_ZN3Upp12DestroyArrayINS_6StringEEEvPT_PKS2_, .-_ZN3Upp12DestroyArrayINS_6StringEEEvPT_PKS2_
	.section	.text._ZN3Upp6VectorINS_6StringEE4FreeEv,"axG",@progbits,_ZN3Upp6VectorINS_6StringEE4FreeEv,comdat
	.align 2
	.weak	_ZN3Upp6VectorINS_6StringEE4FreeEv
	.type	_ZN3Upp6VectorINS_6StringEE4FreeEv, @function
_ZN3Upp6VectorINS_6StringEE4FreeEv:
.LFB9185:
	pushq	%rbp
.LCFI729:
	movq	%rsp, %rbp
.LCFI730:
	subq	$16, %rsp
.LCFI731:
	movq	%rdi, -8(%rbp)
	movq	-8(%rbp), %rax
	movq	(%rax), %rax
	testq	%rax, %rax
	je	.L694
	movq	-8(%rbp), %rax
	movl	8(%rax), %eax
	testl	%eax, %eax
	js	.L694
	movq	-8(%rbp), %rax
	movq	(%rax), %rdx
	movq	-8(%rbp), %rax
	movl	8(%rax), %eax
	cltq
	salq	$4, %rax
	leaq	(%rdx,%rax), %rsi
	movq	-8(%rbp), %rax
	movq	(%rax), %rdi
	call	_ZN3Upp12DestroyArrayINS_6StringEEEvPT_PKS2_
.L694:
	movq	-8(%rbp), %rax
	movq	(%rax), %rdi
	call	_ZN3Upp6VectorINS_6StringEE7RawFreeEPS1_
	leave
	ret
.LFE9185:
	.size	_ZN3Upp6VectorINS_6StringEE4FreeEv, .-_ZN3Upp6VectorINS_6StringEE4FreeEv
	.section	.text._ZN3Upp6VectorINS_6StringEED1Ev,"axG",@progbits,_ZN3Upp6VectorINS_6StringEED1Ev,comdat
	.align 2
	.weak	_ZN3Upp6VectorINS_6StringEED1Ev
	.type	_ZN3Upp6VectorINS_6StringEED1Ev, @function
_ZN3Upp6VectorINS_6StringEED1Ev:
.LFB8219:
	pushq	%rbp
.LCFI732:
	movq	%rsp, %rbp
.LCFI733:
	subq	$48, %rsp
.LCFI734:
	movq	%rdi, -40(%rbp)
	movq	%fs:40, %rax
	movq	%rax, -8(%rbp)
	xorl	%eax, %eax
	movq	-40(%rbp), %rdi
	call	_ZN3Upp6VectorINS_6StringEE4FreeEv
	movq	-8(%rbp), %rax
	xorq	%fs:40, %rax
	je	.L701
	call	__stack_chk_fail
.L701:
	leave
	ret
.LFE8219:
	.size	_ZN3Upp6VectorINS_6StringEED1Ev, .-_ZN3Upp6VectorINS_6StringEED1Ev
.globl _Unwind_Resume
	.section	.text._ZN3Upp6AIndexINS_6StringENS_6VectorIS1_EENS_7StdHashIS1_EEED2Ev,"axG",@progbits,_ZN3Upp6AIndexINS_6StringENS_6VectorIS1_EENS_7StdHashIS1_EEED2Ev,comdat
	.align 2
	.weak	_ZN3Upp6AIndexINS_6StringENS_6VectorIS1_EENS_7StdHashIS1_EEED2Ev
	.type	_ZN3Upp6AIndexINS_6StringENS_6VectorIS1_EENS_7StdHashIS1_EEED2Ev, @function
_ZN3Upp6AIndexINS_6StringENS_6VectorIS1_EENS_7StdHashIS1_EEED2Ev:
.LFB4058:
	pushq	%rbp
.LCFI735:
	movq	%rsp, %rbp
.LCFI736:
	pushq	%rbx
.LCFI737:
	subq	$24, %rsp
.LCFI738:
	movq	%rdi, -16(%rbp)
	movq	-16(%rbp), %rdi
	addq	$16, %rdi
.LEHB0:
	call	_ZN3Upp8HashBaseD1Ev
.LEHE0:
	movq	-16(%rbp), %rax
	movq	%rax, -24(%rbp)
	movq	-24(%rbp), %rdi
.LEHB1:
	call	_ZN3Upp6VectorINS_6StringEED1Ev
.LEHE1:
	jmp	.L705
.L706:
	movq	%rax, -32(%rbp)
.L704:
	movq	-32(%rbp), %rbx
	movq	-16(%rbp), %rax
	movq	%rax, -24(%rbp)
	movq	-24(%rbp), %rdi
	call	_ZN3Upp6VectorINS_6StringEED1Ev
	movq	%rbx, -32(%rbp)
	movq	-32(%rbp), %rdi
.LEHB2:
	call	_Unwind_Resume
.LEHE2:
.L705:
	addq	$24, %rsp
	popq	%rbx
	leave
	ret
.LFE4058:
	.size	_ZN3Upp6AIndexINS_6StringENS_6VectorIS1_EENS_7StdHashIS1_EEED2Ev, .-_ZN3Upp6AIndexINS_6StringENS_6VectorIS1_EENS_7StdHashIS1_EEED2Ev
	.section	.gcc_except_table,"a",@progbits
.LLSDA4058:
	.byte	0xff
	.byte	0xff
	.byte	0x1
	.uleb128 .LLSDACSE4058-.LLSDACSB4058
.LLSDACSB4058:
	.uleb128 .LEHB0-.LFB4058
	.uleb128 .LEHE0-.LEHB0
	.uleb128 .L706-.LFB4058
	.uleb128 0x0
	.uleb128 .LEHB1-.LFB4058
	.uleb128 .LEHE1-.LEHB1
	.uleb128 0x0
	.uleb128 0x0
	.uleb128 .LEHB2-.LFB4058
	.uleb128 .LEHE2-.LEHB2
	.uleb128 0x0
	.uleb128 0x0
.LLSDACSE4058:
	.section	.text._ZN3Upp6AIndexINS_6StringENS_6VectorIS1_EENS_7StdHashIS1_EEED2Ev,"axG",@progbits,_ZN3Upp6AIndexINS_6StringENS_6VectorIS1_EENS_7StdHashIS1_EEED2Ev,comdat
	.section	.text._ZN3Upp5IndexINS_6StringENS_7StdHashIS1_EEED1Ev,"axG",@progbits,_ZN3Upp5IndexINS_6StringENS_7StdHashIS1_EEED1Ev,comdat
	.align 2
	.weak	_ZN3Upp5IndexINS_6StringENS_7StdHashIS1_EEED1Ev
	.type	_ZN3Upp5IndexINS_6StringENS_7StdHashIS1_EEED1Ev, @function
_ZN3Upp5IndexINS_6StringENS_7StdHashIS1_EEED1Ev:
.LFB4061:
	pushq	%rbp
.LCFI739:
	movq	%rsp, %rbp
.LCFI740:
	subq	$16, %rsp
.LCFI741:
	movq	%rdi, -8(%rbp)
	movl	$8, %eax
	addq	-8(%rbp), %rax
	movq	%rax, %rdi
	call	_ZN3Upp6AIndexINS_6StringENS_6VectorIS1_EENS_7StdHashIS1_EEED2Ev
	leave
	ret
.LFE4061:
	.size	_ZN3Upp5IndexINS_6StringENS_7StdHashIS1_EEED1Ev, .-_ZN3Upp5IndexINS_6StringENS_7StdHashIS1_EEED1Ev
	.section	.text._ZN13WorkspaceWork5SepfoD1Ev,"axG",@progbits,_ZN13WorkspaceWork5SepfoD1Ev,comdat
	.align 2
	.weak	_ZN13WorkspaceWork5SepfoD1Ev
	.type	_ZN13WorkspaceWork5SepfoD1Ev, @function
_ZN13WorkspaceWork5SepfoD1Ev:
.LFB7927:
	pushq	%rbp
.LCFI742:
	movq	%rsp, %rbp
.LCFI743:
	subq	$16, %rsp
.LCFI744:
	movq	%rdi, -8(%rbp)
	movq	-8(%rbp), %rdi
	addq	$24, %rdi
	call	_ZN3Upp6StringD1Ev
	movq	-8(%rbp), %rdi
	addq	$8, %rdi
	call	_ZN3Upp6StringD1Ev
	leave
	ret
.LFE7927:
	.size	_ZN13WorkspaceWork5SepfoD1Ev, .-_ZN13WorkspaceWork5SepfoD1Ev
	.section	.text._ZN3Upp12DestroyArrayIN13WorkspaceWork5SepfoEEEvPT_PKS3_,"axG",@progbits,_ZN3Upp12DestroyArrayIN13WorkspaceWork5SepfoEEEvPT_PKS3_,comdat
	.align 2
	.weak	_ZN3Upp12DestroyArrayIN13WorkspaceWork5SepfoEEEvPT_PKS3_
	.type	_ZN3Upp12DestroyArrayIN13WorkspaceWork5SepfoEEEvPT_PKS3_, @function
_ZN3Upp12DestroyArrayIN13WorkspaceWork5SepfoEEEvPT_PKS3_:
.LFB9972:
	pushq	%rbp
.LCFI745:
	movq	%rsp, %rbp
.LCFI746:
	subq	$16, %rsp
.LCFI747:
	movq	%rdi, -8(%rbp)
	movq	%rsi, -16(%rbp)
	jmp	.L714
.L715:
	movq	-8(%rbp), %rdi
	call	_ZN13WorkspaceWork5SepfoD1Ev
	addq	$40, -8(%rbp)
.L714:
	movq	-8(%rbp), %rax
	cmpq	-16(%rbp), %rax
	jb	.L715
	leave
	ret
.LFE9972:
	.size	_ZN3Upp12DestroyArrayIN13WorkspaceWork5SepfoEEEvPT_PKS3_, .-_ZN3Upp12DestroyArrayIN13WorkspaceWork5SepfoEEEvPT_PKS3_
	.section	.text._ZN3Upp6VectorIN13WorkspaceWork5SepfoEE4FreeEv,"axG",@progbits,_ZN3Upp6VectorIN13WorkspaceWork5SepfoEE4FreeEv,comdat
	.align 2
	.weak	_ZN3Upp6VectorIN13WorkspaceWork5SepfoEE4FreeEv
	.type	_ZN3Upp6VectorIN13WorkspaceWork5SepfoEE4FreeEv, @function
_ZN3Upp6VectorIN13WorkspaceWork5SepfoEE4FreeEv:
.LFB9554:
	pushq	%rbp
.LCFI748:
	movq	%rsp, %rbp
.LCFI749:
	subq	$16, %rsp
.LCFI750:
	movq	%rdi, -8(%rbp)
	movq	-8(%rbp), %rax
	movq	(%rax), %rax
	testq	%rax, %rax
	je	.L719
	movq	-8(%rbp), %rax
	movl	8(%rax), %eax
	testl	%eax, %eax
	js	.L719
	movq	-8(%rbp), %rax
	movq	(%rax), %rcx
	movq	-8(%rbp), %rax
	movl	8(%rax), %eax
	movslq	%eax,%rdx
	movq	%rdx, %rax
	salq	$2, %rax
	addq	%rdx, %rax
	salq	$3, %rax
	leaq	(%rcx,%rax), %rsi
	movq	-8(%rbp), %rax
	movq	(%rax), %rdi
	call	_ZN3Upp12DestroyArrayIN13WorkspaceWork5SepfoEEEvPT_PKS3_
.L719:
	movq	-8(%rbp), %rax
	movq	(%rax), %rdi
	call	_ZN3Upp6VectorIN13WorkspaceWork5SepfoEE7RawFreeEPS2_
	leave
	ret
.LFE9554:
	.size	_ZN3Upp6VectorIN13WorkspaceWork5SepfoEE4FreeEv, .-_ZN3Upp6VectorIN13WorkspaceWork5SepfoEE4FreeEv
	.section	.text._ZN3Upp6VectorIN13WorkspaceWork5SepfoEED1Ev,"axG",@progbits,_ZN3Upp6VectorIN13WorkspaceWork5SepfoEED1Ev,comdat
	.align 2
	.weak	_ZN3Upp6VectorIN13WorkspaceWork5SepfoEED1Ev
	.type	_ZN3Upp6VectorIN13WorkspaceWork5SepfoEED1Ev, @function
_ZN3Upp6VectorIN13WorkspaceWork5SepfoEED1Ev:
.LFB8967:
	pushq	%rbp
.LCFI751:
	movq	%rsp, %rbp
.LCFI752:
	subq	$64, %rsp
.LCFI753:
	movq	%rdi, -56(%rbp)
	movq	%fs:40, %rax
	movq	%rax, -8(%rbp)
	xorl	%eax, %eax
	movq	-56(%rbp), %rdi
	call	_ZN3Upp6VectorIN13WorkspaceWork5SepfoEE4FreeEv
	movq	-8(%rbp), %rax
	xorq	%fs:40, %rax
	je	.L726
	call	__stack_chk_fail
.L726:
	leave
	ret
.LFE8967:
	.size	_ZN3Upp6VectorIN13WorkspaceWork5SepfoEED1Ev, .-_ZN3Upp6VectorIN13WorkspaceWork5SepfoEED1Ev
	.section	.text._ZN3Upp6AIndexIN13WorkspaceWork5SepfoENS_6VectorIS2_EENS_7StdHashIS2_EEED2Ev,"axG",@progbits,_ZN3Upp6AIndexIN13WorkspaceWork5SepfoENS_6VectorIS2_EENS_7StdHashIS2_EEED2Ev,comdat
	.align 2
	.weak	_ZN3Upp6AIndexIN13WorkspaceWork5SepfoENS_6VectorIS2_EENS_7StdHashIS2_EEED2Ev
	.type	_ZN3Upp6AIndexIN13WorkspaceWork5SepfoENS_6VectorIS2_EENS_7StdHashIS2_EEED2Ev, @function
_ZN3Upp6AIndexIN13WorkspaceWork5SepfoENS_6VectorIS2_EENS_7StdHashIS2_EEED2Ev:
.LFB7800:
	pushq	%rbp
.LCFI754:
	movq	%rsp, %rbp
.LCFI755:
	pushq	%rbx
.LCFI756:
	subq	$24, %rsp
.LCFI757:
	movq	%rdi, -16(%rbp)
	movq	-16(%rbp), %rdi
	addq	$16, %rdi
.LEHB3:
	call	_ZN3Upp8HashBaseD1Ev
.LEHE3:
	movq	-16(%rbp), %rax
	movq	%rax, -24(%rbp)
	movq	-24(%rbp), %rdi
.LEHB4:
	call	_ZN3Upp6VectorIN13WorkspaceWork5SepfoEED1Ev
.LEHE4:
	jmp	.L730
.L731:
	movq	%rax, -32(%rbp)
.L729:
	movq	-32(%rbp), %rbx
	movq	-16(%rbp), %rax
	movq	%rax, -24(%rbp)
	movq	-24(%rbp), %rdi
	call	_ZN3Upp6VectorIN13WorkspaceWork5SepfoEED1Ev
	movq	%rbx, -32(%rbp)
	movq	-32(%rbp), %rdi
.LEHB5:
	call	_Unwind_Resume
.LEHE5:
.L730:
	addq	$24, %rsp
	popq	%rbx
	leave
	ret
.LFE7800:
	.size	_ZN3Upp6AIndexIN13WorkspaceWork5SepfoENS_6VectorIS2_EENS_7StdHashIS2_EEED2Ev, .-_ZN3Upp6AIndexIN13WorkspaceWork5SepfoENS_6VectorIS2_EENS_7StdHashIS2_EEED2Ev
	.section	.gcc_except_table
.LLSDA7800:
	.byte	0xff
	.byte	0xff
	.byte	0x1
	.uleb128 .LLSDACSE7800-.LLSDACSB7800
.LLSDACSB7800:
	.uleb128 .LEHB3-.LFB7800
	.uleb128 .LEHE3-.LEHB3
	.uleb128 .L731-.LFB7800
	.uleb128 0x0
	.uleb128 .LEHB4-.LFB7800
	.uleb128 .LEHE4-.LEHB4
	.uleb128 0x0
	.uleb128 0x0
	.uleb128 .LEHB5-.LFB7800
	.uleb128 .LEHE5-.LEHB5
	.uleb128 0x0
	.uleb128 0x0
.LLSDACSE7800:
	.section	.text._ZN3Upp6AIndexIN13WorkspaceWork5SepfoENS_6VectorIS2_EENS_7StdHashIS2_EEED2Ev,"axG",@progbits,_ZN3Upp6AIndexIN13WorkspaceWork5SepfoENS_6VectorIS2_EENS_7StdHashIS2_EEED2Ev,comdat
	.section	.text._ZN3Upp5IndexIN13WorkspaceWork5SepfoENS_7StdHashIS2_EEED1Ev,"axG",@progbits,_ZN3Upp5IndexIN13WorkspaceWork5SepfoENS_7StdHashIS2_EEED1Ev,comdat
	.align 2
	.weak	_ZN3Upp5IndexIN13WorkspaceWork5SepfoENS_7StdHashIS2_EEED1Ev
	.type	_ZN3Upp5IndexIN13WorkspaceWork5SepfoENS_7StdHashIS2_EEED1Ev, @function
_ZN3Upp5IndexIN13WorkspaceWork5SepfoENS_7StdHashIS2_EEED1Ev:
.LFB7803:
	pushq	%rbp
.LCFI758:
	movq	%rsp, %rbp
.LCFI759:
	subq	$16, %rsp
.LCFI760:
	movq	%rdi, -8(%rbp)
	movl	$8, %eax
	addq	-8(%rbp), %rax
	movq	%rax, %rdi
	call	_ZN3Upp6AIndexIN13WorkspaceWork5SepfoENS_6VectorIS2_EENS_7StdHashIS2_EEED2Ev
	leave
	ret
.LFE7803:
	.size	_ZN3Upp5IndexIN13WorkspaceWork5SepfoENS_7StdHashIS2_EEED1Ev, .-_ZN3Upp5IndexIN13WorkspaceWork5SepfoENS_7StdHashIS2_EEED1Ev
	.section	.text._ZN3Upp6VectorIN13WorkspaceWork5SepfoEEaSERKS3_,"axG",@progbits,_ZN3Upp6VectorIN13WorkspaceWork5SepfoEEaSERKS3_,comdat
	.align 2
	.weak	_ZN3Upp6VectorIN13WorkspaceWork5SepfoEEaSERKS3_
	.type	_ZN3Upp6VectorIN13WorkspaceWork5SepfoEEaSERKS3_, @function
_ZN3Upp6VectorIN13WorkspaceWork5SepfoEEaSERKS3_:
.LFB10035:
	pushq	%rbp
.LCFI761:
	movq	%rsp, %rbp
.LCFI762:
	subq	$16, %rsp
.LCFI763:
	movq	%rdi, -8(%rbp)
	movq	%rsi, -16(%rbp)
	movq	-8(%rbp), %rdi
	call	_ZN3Upp6VectorIN13WorkspaceWork5SepfoEE4FreeEv
	movq	-16(%rbp), %rsi
	movq	-8(%rbp), %rdi
	call	_ZN3Upp6VectorIN13WorkspaceWork5SepfoEE4PickERKS3_
	leave
	ret
.LFE10035:
	.size	_ZN3Upp6VectorIN13WorkspaceWork5SepfoEEaSERKS3_, .-_ZN3Upp6VectorIN13WorkspaceWork5SepfoEEaSERKS3_
	.section	.text._ZN3Upp6VectorIN13WorkspaceWork5SepfoEE4TrimEi,"axG",@progbits,_ZN3Upp6VectorIN13WorkspaceWork5SepfoEE4TrimEi,comdat
	.align 2
	.weak	_ZN3Upp6VectorIN13WorkspaceWork5SepfoEE4TrimEi
	.type	_ZN3Upp6VectorIN13WorkspaceWork5SepfoEE4TrimEi, @function
_ZN3Upp6VectorIN13WorkspaceWork5SepfoEE4TrimEi:
.LFB10173:
	pushq	%rbp
.LCFI764:
	movq	%rsp, %rbp
.LCFI765:
	subq	$16, %rsp
.LCFI766:
	movq	%rdi, -8(%rbp)
	movl	%esi, -12(%rbp)
	movq	-8(%rbp), %rax
	movq	(%rax), %rcx
	movq	-8(%rbp), %rax
	movl	8(%rax), %eax
	movslq	%eax,%rdx
	movq	%rdx, %rax
	salq	$2, %rax
	addq	%rdx, %rax
	salq	$3, %rax
	leaq	(%rcx,%rax), %rsi
	movq	-8(%rbp), %rax
	movq	(%rax), %rcx
	movl	-12(%rbp), %eax
	movslq	%eax,%rdx
	movq	%rdx, %rax
	salq	$2, %rax
	addq	%rdx, %rax
	salq	$3, %rax
	leaq	(%rcx,%rax), %rdi
	call	_ZN3Upp12DestroyArrayIN13WorkspaceWork5SepfoEEEvPT_PKS3_
	movq	-8(%rbp), %rdx
	movl	-12(%rbp), %eax
	movl	%eax, 8(%rdx)
	leave
	ret
.LFE10173:
	.size	_ZN3Upp6VectorIN13WorkspaceWork5SepfoEE4TrimEi, .-_ZN3Upp6VectorIN13WorkspaceWork5SepfoEE4TrimEi
	.section	.text._ZN10CustomStepD1Ev,"axG",@progbits,_ZN10CustomStepD1Ev,comdat
	.align 2
	.weak	_ZN10CustomStepD1Ev
	.type	_ZN10CustomStepD1Ev, @function
_ZN10CustomStepD1Ev:
.LFB9553:
	pushq	%rbp
.LCFI767:
	movq	%rsp, %rbp
.LCFI768:
	subq	$16, %rsp
.LCFI769:
	movq	%rdi, -8(%rbp)
	movq	-8(%rbp), %rdi
	addq	$48, %rdi
	call	_ZN3Upp6StringD1Ev
	movq	-8(%rbp), %rdi
	addq	$32, %rdi
	call	_ZN3Upp6StringD1Ev
	movq	-8(%rbp), %rdi
	addq	$16, %rdi
	call	_ZN3Upp6StringD1Ev
	movq	-8(%rbp), %rdi
	call	_ZN3Upp6StringD1Ev
	leave
	ret
.LFE9553:
	.size	_ZN10CustomStepD1Ev, .-_ZN10CustomStepD1Ev
	.section	.text._ZN7Package6ConfigD1Ev,"axG",@progbits,_ZN7Package6ConfigD1Ev,comdat
	.align 2
	.weak	_ZN7Package6ConfigD1Ev
	.type	_ZN7Package6ConfigD1Ev, @function
_ZN7Package6ConfigD1Ev:
.LFB9549:
	pushq	%rbp
.LCFI770:
	movq	%rsp, %rbp
.LCFI771:
	subq	$16, %rsp
.LCFI772:
	movq	%rdi, -8(%rbp)
	movq	-8(%rbp), %rdi
	addq	$16, %rdi
	call	_ZN3Upp6StringD1Ev
	movq	-8(%rbp), %rdi
	call	_ZN3Upp6StringD1Ev
	leave
	ret
.LFE9549:
	.size	_ZN7Package6ConfigD1Ev, .-_ZN7Package6ConfigD1Ev
	.section	.text._ZN7OptItemD1Ev,"axG",@progbits,_ZN7OptItemD1Ev,comdat
	.align 2
	.weak	_ZN7OptItemD1Ev
	.type	_ZN7OptItemD1Ev, @function
_ZN7OptItemD1Ev:
.LFB9413:
	pushq	%rbp
.LCFI773:
	movq	%rsp, %rbp
.LCFI774:
	subq	$16, %rsp
.LCFI775:
	movq	%rdi, -8(%rbp)
	movq	-8(%rbp), %rdi
	addq	$16, %rdi
	call	_ZN3Upp6StringD1Ev
	movq	-8(%rbp), %rdi
	call	_ZN3Upp6StringD1Ev
	leave
	ret
.LFE9413:
	.size	_ZN7OptItemD1Ev, .-_ZN7OptItemD1Ev
	.section	.text._ZN13WorkspaceWork5SepfoC1Ev,"axG",@progbits,_ZN13WorkspaceWork5SepfoC1Ev,comdat
	.align 2
	.weak	_ZN13WorkspaceWork5SepfoC1Ev
	.type	_ZN13WorkspaceWork5SepfoC1Ev, @function
_ZN13WorkspaceWork5SepfoC1Ev:
.LFB7782:
	pushq	%rbp
.LCFI776:
	movq	%rsp, %rbp
.LCFI777:
	subq	$16, %rsp
.LCFI778:
	movq	%rdi, -8(%rbp)
	movq	-8(%rbp), %rdi
	call	_ZN3Upp8MoveableIN13WorkspaceWork5SepfoENS_10EmptyClassEEC2Ev
	movq	-8(%rbp), %rdi
	addq	$8, %rdi
	call	_ZN3Upp6StringC1Ev
	movq	-8(%rbp), %rdi
	addq	$24, %rdi
	call	_ZN3Upp6StringC1Ev
	leave
	ret
.LFE7782:
	.size	_ZN13WorkspaceWork5SepfoC1Ev, .-_ZN13WorkspaceWork5SepfoC1Ev
	.section	.text._ZN3Upp14ConstructArrayIN13WorkspaceWork5SepfoEEEvPT_PKS3_,"axG",@progbits,_ZN3Upp14ConstructArrayIN13WorkspaceWork5SepfoEEEvPT_PKS3_,comdat
	.align 2
	.weak	_ZN3Upp14ConstructArrayIN13WorkspaceWork5SepfoEEEvPT_PKS3_
	.type	_ZN3Upp14ConstructArrayIN13WorkspaceWork5SepfoEEEvPT_PKS3_, @function
_ZN3Upp14ConstructArrayIN13WorkspaceWork5SepfoEEEvPT_PKS3_:
.LFB10175:
	pushq	%rbp
.LCFI779:
	movq	%rsp, %rbp
.LCFI780:
	subq	$32, %rsp
.LCFI781:
	movq	%rdi, -8(%rbp)
	movq	%rsi, -16(%rbp)
	jmp	.L757
.L752:
	movq	-8(%rbp), %rsi
	addq	$40, -8(%rbp)
	movl	$40, %edi
	call	_ZnwmPv
	movq	%rax, -24(%rbp)
	cmpq	$0, -24(%rbp)
	je	.L751
	movq	-24(%rbp), %rdi
	call	_ZN13WorkspaceWork5SepfoC1Ev
.L751:
.L757:
	movq	-8(%rbp), %rax
	cmpq	-16(%rbp), %rax
	jb	.L752
	leave
	ret
.LFE10175:
	.size	_ZN3Upp14ConstructArrayIN13WorkspaceWork5SepfoEEEvPT_PKS3_, .-_ZN3Upp14ConstructArrayIN13WorkspaceWork5SepfoEEEvPT_PKS3_
	.section	.text._ZN7OptItemC1Ev,"axG",@progbits,_ZN7OptItemC1Ev,comdat
	.align 2
	.weak	_ZN7OptItemC1Ev
	.type	_ZN7OptItemC1Ev, @function
_ZN7OptItemC1Ev:
.LFB9046:
	pushq	%rbp
.LCFI782:
	movq	%rsp, %rbp
.LCFI783:
	subq	$16, %rsp
.LCFI784:
	movq	%rdi, -8(%rbp)
	movq	-8(%rbp), %rdi
	call	_ZN3Upp6StringC1Ev
	movq	-8(%rbp), %rdi
	addq	$16, %rdi
	call	_ZN3Upp6StringC1Ev
	leave
	ret
.LFE9046:
	.size	_ZN7OptItemC1Ev, .-_ZN7OptItemC1Ev
	.section	.text._ZN3Upp7AStringINS_7String0EE5ClearEv,"axG",@progbits,_ZN3Upp7AStringINS_7String0EE5ClearEv,comdat
	.align 2
	.weak	_ZN3Upp7AStringINS_7String0EE5ClearEv
	.type	_ZN3Upp7AStringINS_7String0EE5ClearEv, @function
_ZN3Upp7AStringINS_7String0EE5ClearEv:
.LFB8203:
	pushq	%rbp
.LCFI785:
	movq	%rsp, %rbp
.LCFI786:
	subq	$16, %rsp
.LCFI787:
	movq	%rdi, -8(%rbp)
	movq	-8(%rbp), %rdi
	call	_ZN3Upp7String04FreeEv
	movq	-8(%rbp), %rdi
	call	_ZN3Upp7String04ZeroEv
	leave
	ret
.LFE8203:
	.size	_ZN3Upp7AStringINS_7String0EE5ClearEv, .-_ZN3Upp7AStringINS_7String0EE5ClearEv
	.section	.text._ZdlPv,"axG",@progbits,_ZdlPv,comdat
	.align 2
	.weak	_ZdlPv
	.type	_ZdlPv, @function
_ZdlPv:
.LFB933:
	pushq	%rbp
.LCFI788:
	movq	%rsp, %rbp
.LCFI789:
	subq	$16, %rsp
.LCFI790:
	movq	%rdi, -8(%rbp)
	movq	-8(%rbp), %rdi
.LEHB6:
	call	_ZN3Upp10MemoryFreeEPv
.LEHE6:
	jmp	.L764
.L766:
	movq	%rax, -16(%rbp)
	cmpq	$-1, %rdx
	je	.L763
	movq	-16(%rbp), %rdi
.LEHB7:
	call	_Unwind_Resume
.L763:
	movq	-16(%rbp), %rdi
	call	__cxa_call_unexpected
.LEHE7:
.L764:
	leave
	ret
.LFE933:
	.size	_ZdlPv, .-_ZdlPv
	.section	.gcc_except_table
	.align 4
.LLSDA933:
	.byte	0xff
	.byte	0x3
	.uleb128 .LLSDATT933-.LLSDATTD933
.LLSDATTD933:
	.byte	0x1
	.uleb128 .LLSDACSE933-.LLSDACSB933
.LLSDACSB933:
	.uleb128 .LEHB6-.LFB933
	.uleb128 .LEHE6-.LEHB6
	.uleb128 .L766-.LFB933
	.uleb128 0x1
	.uleb128 .LEHB7-.LFB933
	.uleb128 .LEHE7-.LEHB7
	.uleb128 0x0
	.uleb128 0x0
.LLSDACSE933:
	.byte	0x7f
	.byte	0x0
	.align 4
.LLSDATT933:
	.byte	0x0
	.section	.text._ZdlPv,"axG",@progbits,_ZdlPv,comdat
	.section	.text._ZN3Upp5ArrayIN13WorkspaceWork6BackupEE4FreeEv,"axG",@progbits,_ZN3Upp5ArrayIN13WorkspaceWork6BackupEE4FreeEv,comdat
	.align 2
	.weak	_ZN3Upp5ArrayIN13WorkspaceWork6BackupEE4FreeEv
	.type	_ZN3Upp5ArrayIN13WorkspaceWork6BackupEE4FreeEv, @function
_ZN3Upp5ArrayIN13WorkspaceWork6BackupEE4FreeEv:
.LFB9556:
	pushq	%rbp
.LCFI791:
	movq	%rsp, %rbp
.LCFI792:
	subq	$32, %rsp
.LCFI793:
	movq	%rdi, -24(%rbp)
	movq	-24(%rbp), %rdi
	call	_ZNK3Upp5ArrayIN13WorkspaceWork6BackupEE8IsPickedEv
	testb	%al, %al
	jne	.L774
	movl	$0, -4(%rbp)
	jmp	.L770
.L771:
	movq	-24(%rbp), %rdi
	addq	$8, %rdi
	movl	-4(%rbp), %esi
	call	_ZN3Upp6VectorIPvEixEi
	movq	(%rax), %rax
	movq	%rax, -32(%rbp)
	cmpq	$0, -32(%rbp)
	je	.L772
	movq	-32(%rbp), %rdi
	call	_ZN13WorkspaceWork6BackupD1Ev
	movq	-32(%rbp), %rdi
	call	_ZdlPv
.L772:
	addl	$1, -4(%rbp)
.L770:
	movq	-24(%rbp), %rdi
	addq	$8, %rdi
	call	_ZNK3Upp6VectorIPvE8GetCountEv
	cmpl	-4(%rbp), %eax
	setg	%al
	testb	%al, %al
	jne	.L771
.L774:
	leave
	ret
.LFE9556:
	.size	_ZN3Upp5ArrayIN13WorkspaceWork6BackupEE4FreeEv, .-_ZN3Upp5ArrayIN13WorkspaceWork6BackupEE4FreeEv
	.section	.text._ZN3Upp5ArrayIN13WorkspaceWork6BackupEED1Ev,"axG",@progbits,_ZN3Upp5ArrayIN13WorkspaceWork6BackupEED1Ev,comdat
	.align 2
	.weak	_ZN3Upp5ArrayIN13WorkspaceWork6BackupEED1Ev
	.type	_ZN3Upp5ArrayIN13WorkspaceWork6BackupEED1Ev, @function
_ZN3Upp5ArrayIN13WorkspaceWork6BackupEED1Ev:
.LFB8970:
	pushq	%rbp
.LCFI794:
	movq	%rsp, %rbp
.LCFI795:
	subq	$16, %rsp
.LCFI796:
	movq	%rdi, -8(%rbp)
	movq	-8(%rbp), %rdi
	call	_ZN3Upp5ArrayIN13WorkspaceWork6BackupEE4FreeEv
	movq	-8(%rbp), %rdi
	addq	$8, %rdi
	call	_ZN3Upp6VectorIPvED1Ev
	leave
	ret
.LFE8970:
	.size	_ZN3Upp5ArrayIN13WorkspaceWork6BackupEED1Ev, .-_ZN3Upp5ArrayIN13WorkspaceWork6BackupEED1Ev
	.section	.text._ZN3Upp4AMapINS_6StringEN13WorkspaceWork6BackupENS_5ArrayIS3_EENS_7StdHashIS1_EEED2Ev,"axG",@progbits,_ZN3Upp4AMapINS_6StringEN13WorkspaceWork6BackupENS_5ArrayIS3_EENS_7StdHashIS1_EEED2Ev,comdat
	.align 2
	.weak	_ZN3Upp4AMapINS_6StringEN13WorkspaceWork6BackupENS_5ArrayIS3_EENS_7StdHashIS1_EEED2Ev
	.type	_ZN3Upp4AMapINS_6StringEN13WorkspaceWork6BackupENS_5ArrayIS3_EENS_7StdHashIS1_EEED2Ev, @function
_ZN3Upp4AMapINS_6StringEN13WorkspaceWork6BackupENS_5ArrayIS3_EENS_7StdHashIS1_EEED2Ev:
.LFB7806:
	pushq	%rbp
.LCFI797:
	movq	%rsp, %rbp
.LCFI798:
	pushq	%rbx
.LCFI799:
	subq	$24, %rsp
.LCFI800:
	movq	%rdi, -16(%rbp)
	movq	-16(%rbp), %rdi
	addq	$88, %rdi
.LEHB8:
	call	_ZN3Upp5ArrayIN13WorkspaceWork6BackupEED1Ev
.LEHE8:
	movq	-16(%rbp), %rax
	movq	%rax, -24(%rbp)
	movq	-24(%rbp), %rdi
	call	_ZN3Upp5IndexINS_6StringENS_7StdHashIS1_EEED1Ev
	jmp	.L781
.L782:
	movq	%rax, -32(%rbp)
.L780:
	movq	-32(%rbp), %rbx
	movq	-16(%rbp), %rax
	movq	%rax, -24(%rbp)
	movq	-24(%rbp), %rdi
	call	_ZN3Upp5IndexINS_6StringENS_7StdHashIS1_EEED1Ev
	movq	%rbx, -32(%rbp)
	movq	-32(%rbp), %rdi
.LEHB9:
	call	_Unwind_Resume
.LEHE9:
.L781:
	addq	$24, %rsp
	popq	%rbx
	leave
	ret
.LFE7806:
	.size	_ZN3Upp4AMapINS_6StringEN13WorkspaceWork6BackupENS_5ArrayIS3_EENS_7StdHashIS1_EEED2Ev, .-_ZN3Upp4AMapINS_6StringEN13WorkspaceWork6BackupENS_5ArrayIS3_EENS_7StdHashIS1_EEED2Ev
	.section	.gcc_except_table
.LLSDA7806:
	.byte	0xff
	.byte	0xff
	.byte	0x1
	.uleb128 .LLSDACSE7806-.LLSDACSB7806
.LLSDACSB7806:
	.uleb128 .LEHB8-.LFB7806
	.uleb128 .LEHE8-.LEHB8
	.uleb128 .L782-.LFB7806
	.uleb128 0x0
	.uleb128 .LEHB9-.LFB7806
	.uleb128 .LEHE9-.LEHB9
	.uleb128 0x0
	.uleb128 0x0
.LLSDACSE7806:
	.section	.text._ZN3Upp4AMapINS_6StringEN13WorkspaceWork6BackupENS_5ArrayIS3_EENS_7StdHashIS1_EEED2Ev,"axG",@progbits,_ZN3Upp4AMapINS_6StringEN13WorkspaceWork6BackupENS_5ArrayIS3_EENS_7StdHashIS1_EEED2Ev,comdat
	.section	.text._ZN3Upp8ArrayMapINS_6StringEN13WorkspaceWork6BackupENS_7StdHashIS1_EEED1Ev,"axG",@progbits,_ZN3Upp8ArrayMapINS_6StringEN13WorkspaceWork6BackupENS_7StdHashIS1_EEED1Ev,comdat
	.align 2
	.weak	_ZN3Upp8ArrayMapINS_6StringEN13WorkspaceWork6BackupENS_7StdHashIS1_EEED1Ev
	.type	_ZN3Upp8ArrayMapINS_6StringEN13WorkspaceWork6BackupENS_7StdHashIS1_EEED1Ev, @function
_ZN3Upp8ArrayMapINS_6StringEN13WorkspaceWork6BackupENS_7StdHashIS1_EEED1Ev:
.LFB7809:
	pushq	%rbp
.LCFI801:
	movq	%rsp, %rbp
.LCFI802:
	subq	$16, %rsp
.LCFI803:
	movq	%rdi, -8(%rbp)
	movl	$8, %eax
	addq	-8(%rbp), %rax
	movq	%rax, %rdi
	call	_ZN3Upp4AMapINS_6StringEN13WorkspaceWork6BackupENS_5ArrayIS3_EENS_7StdHashIS1_EEED2Ev
	leave
	ret
.LFE7809:
	.size	_ZN3Upp8ArrayMapINS_6StringEN13WorkspaceWork6BackupENS_7StdHashIS1_EEED1Ev, .-_ZN3Upp8ArrayMapINS_6StringEN13WorkspaceWork6BackupENS_7StdHashIS1_EEED1Ev
	.section	.text._ZN3Upp5ArrayI10CustomStepE4FreeEv,"axG",@progbits,_ZN3Upp5ArrayI10CustomStepE4FreeEv,comdat
	.align 2
	.weak	_ZN3Upp5ArrayI10CustomStepE4FreeEv
	.type	_ZN3Upp5ArrayI10CustomStepE4FreeEv, @function
_ZN3Upp5ArrayI10CustomStepE4FreeEv:
.LFB9550:
	pushq	%rbp
.LCFI804:
	movq	%rsp, %rbp
.LCFI805:
	subq	$32, %rsp
.LCFI806:
	movq	%rdi, -24(%rbp)
	movq	-24(%rbp), %rdi
	call	_ZNK3Upp5ArrayI10CustomStepE8IsPickedEv
	testb	%al, %al
	jne	.L793
	movl	$0, -4(%rbp)
	jmp	.L789
.L790:
	movq	-24(%rbp), %rdi
	addq	$8, %rdi
	movl	-4(%rbp), %esi
	call	_ZN3Upp6VectorIPvEixEi
	movq	(%rax), %rax
	movq	%rax, -32(%rbp)
	cmpq	$0, -32(%rbp)
	je	.L791
	movq	-32(%rbp), %rdi
	call	_ZN10CustomStepD1Ev
	movq	-32(%rbp), %rdi
	call	_ZdlPv
.L791:
	addl	$1, -4(%rbp)
.L789:
	movq	-24(%rbp), %rdi
	addq	$8, %rdi
	call	_ZNK3Upp6VectorIPvE8GetCountEv
	cmpl	-4(%rbp), %eax
	setg	%al
	testb	%al, %al
	jne	.L790
.L793:
	leave
	ret
.LFE9550:
	.size	_ZN3Upp5ArrayI10CustomStepE4FreeEv, .-_ZN3Upp5ArrayI10CustomStepE4FreeEv
	.section	.text._ZN3Upp5ArrayI10CustomStepED1Ev,"axG",@progbits,_ZN3Upp5ArrayI10CustomStepED1Ev,comdat
	.align 2
	.weak	_ZN3Upp5ArrayI10CustomStepED1Ev
	.type	_ZN3Upp5ArrayI10CustomStepED1Ev, @function
_ZN3Upp5ArrayI10CustomStepED1Ev:
.LFB8964:
	pushq	%rbp
.LCFI807:
	movq	%rsp, %rbp
.LCFI808:
	subq	$16, %rsp
.LCFI809:
	movq	%rdi, -8(%rbp)
	movq	-8(%rbp), %rdi
	call	_ZN3Upp5ArrayI10CustomStepE4FreeEv
	movq	-8(%rbp), %rdi
	addq	$8, %rdi
	call	_ZN3Upp6VectorIPvED1Ev
	leave
	ret
.LFE8964:
	.size	_ZN3Upp5ArrayI10CustomStepED1Ev, .-_ZN3Upp5ArrayI10CustomStepED1Ev
	.section	.text._ZN3Upp5ArrayIN7Package6ConfigEE4FreeEv,"axG",@progbits,_ZN3Upp5ArrayIN7Package6ConfigEE4FreeEv,comdat
	.align 2
	.weak	_ZN3Upp5ArrayIN7Package6ConfigEE4FreeEv
	.type	_ZN3Upp5ArrayIN7Package6ConfigEE4FreeEv, @function
_ZN3Upp5ArrayIN7Package6ConfigEE4FreeEv:
.LFB9546:
	pushq	%rbp
.LCFI810:
	movq	%rsp, %rbp
.LCFI811:
	subq	$32, %rsp
.LCFI812:
	movq	%rdi, -24(%rbp)
	movq	-24(%rbp), %rdi
	call	_ZNK3Upp5ArrayIN7Package6ConfigEE8IsPickedEv
	testb	%al, %al
	jne	.L804
	movl	$0, -4(%rbp)
	jmp	.L800
.L801:
	movq	-24(%rbp), %rdi
	addq	$8, %rdi
	movl	-4(%rbp), %esi
	call	_ZN3Upp6VectorIPvEixEi
	movq	(%rax), %rax
	movq	%rax, -32(%rbp)
	cmpq	$0, -32(%rbp)
	je	.L802
	movq	-32(%rbp), %rdi
	call	_ZN7Package6ConfigD1Ev
	movq	-32(%rbp), %rdi
	call	_ZdlPv
.L802:
	addl	$1, -4(%rbp)
.L800:
	movq	-24(%rbp), %rdi
	addq	$8, %rdi
	call	_ZNK3Upp6VectorIPvE8GetCountEv
	cmpl	-4(%rbp), %eax
	setg	%al
	testb	%al, %al
	jne	.L801
.L804:
	leave
	ret
.LFE9546:
	.size	_ZN3Upp5ArrayIN7Package6ConfigEE4FreeEv, .-_ZN3Upp5ArrayIN7Package6ConfigEE4FreeEv
	.section	.text._ZN3Upp5ArrayIN7Package6ConfigEED1Ev,"axG",@progbits,_ZN3Upp5ArrayIN7Package6ConfigEED1Ev,comdat
	.align 2
	.weak	_ZN3Upp5ArrayIN7Package6ConfigEED1Ev
	.type	_ZN3Upp5ArrayIN7Package6ConfigEED1Ev, @function
_ZN3Upp5ArrayIN7Package6ConfigEED1Ev:
.LFB8961:
	pushq	%rbp
.LCFI813:
	movq	%rsp, %rbp
.LCFI814:
	subq	$16, %rsp
.LCFI815:
	movq	%rdi, -8(%rbp)
	movq	-8(%rbp), %rdi
	call	_ZN3Upp5ArrayIN7Package6ConfigEE4FreeEv
	movq	-8(%rbp), %rdi
	addq	$8, %rdi
	call	_ZN3Upp6VectorIPvED1Ev
	leave
	ret
.LFE8961:
	.size	_ZN3Upp5ArrayIN7Package6ConfigEED1Ev, .-_ZN3Upp5ArrayIN7Package6ConfigEED1Ev
	.section	.text._ZN3Upp5ArrayI7OptItemE4FreeEv,"axG",@progbits,_ZN3Upp5ArrayI7OptItemE4FreeEv,comdat
	.align 2
	.weak	_ZN3Upp5ArrayI7OptItemE4FreeEv
	.type	_ZN3Upp5ArrayI7OptItemE4FreeEv, @function
_ZN3Upp5ArrayI7OptItemE4FreeEv:
.LFB9410:
	pushq	%rbp
.LCFI816:
	movq	%rsp, %rbp
.LCFI817:
	subq	$32, %rsp
.LCFI818:
	movq	%rdi, -24(%rbp)
	movq	-24(%rbp), %rdi
	call	_ZNK3Upp5ArrayI7OptItemE8IsPickedEv
	testb	%al, %al
	jne	.L815
	movl	$0, -4(%rbp)
	jmp	.L811
.L812:
	movq	-24(%rbp), %rdi
	addq	$8, %rdi
	movl	-4(%rbp), %esi
	call	_ZN3Upp6VectorIPvEixEi
	movq	(%rax), %rax
	movq	%rax, -32(%rbp)
	cmpq	$0, -32(%rbp)
	je	.L813
	movq	-32(%rbp), %rdi
	call	_ZN7OptItemD1Ev
	movq	-32(%rbp), %rdi
	call	_ZdlPv
.L813:
	addl	$1, -4(%rbp)
.L811:
	movq	-24(%rbp), %rdi
	addq	$8, %rdi
	call	_ZNK3Upp6VectorIPvE8GetCountEv
	cmpl	-4(%rbp), %eax
	setg	%al
	testb	%al, %al
	jne	.L812
.L815:
	leave
	ret
.LFE9410:
	.size	_ZN3Upp5ArrayI7OptItemE4FreeEv, .-_ZN3Upp5ArrayI7OptItemE4FreeEv
	.section	.text._ZN3Upp5ArrayI7OptItemED1Ev,"axG",@progbits,_ZN3Upp5ArrayI7OptItemED1Ev,comdat
	.align 2
	.weak	_ZN3Upp5ArrayI7OptItemED1Ev
	.type	_ZN3Upp5ArrayI7OptItemED1Ev, @function
_ZN3Upp5ArrayI7OptItemED1Ev:
.LFB8690:
	pushq	%rbp
.LCFI819:
	movq	%rsp, %rbp
.LCFI820:
	subq	$16, %rsp
.LCFI821:
	movq	%rdi, -8(%rbp)
	movq	-8(%rbp), %rdi
	call	_ZN3Upp5ArrayI7OptItemE4FreeEv
	movq	-8(%rbp), %rdi
	addq	$8, %rdi
	call	_ZN3Upp6VectorIPvED1Ev
	leave
	ret
.LFE8690:
	.size	_ZN3Upp5ArrayI7OptItemED1Ev, .-_ZN3Upp5ArrayI7OptItemED1Ev
	.section	.text._ZN7Package4FileD1Ev,"axG",@progbits,_ZN7Package4FileD1Ev,comdat
	.align 2
	.weak	_ZN7Package4FileD1Ev
	.type	_ZN7Package4FileD1Ev, @function
_ZN7Package4FileD1Ev:
.LFB7941:
	pushq	%rbp
.LCFI822:
	movq	%rsp, %rbp
.LCFI823:
	pushq	%rbx
.LCFI824:
	subq	$40, %rsp
.LCFI825:
	movq	%rdi, -16(%rbp)
	movq	-16(%rbp), %rdi
	addq	$80, %rdi
	call	_ZN3Upp6StringD1Ev
	movq	-16(%rbp), %rdi
	addq	$40, %rdi
.LEHB10:
	call	_ZN3Upp5ArrayI7OptItemED1Ev
.LEHE10:
	movq	-16(%rbp), %rax
	addq	$16, %rax
	movq	%rax, -32(%rbp)
	movq	-32(%rbp), %rdi
.LEHB11:
	call	_ZN3Upp5ArrayI7OptItemED1Ev
.LEHE11:
	jmp	.L820
.L825:
	movq	%rax, -40(%rbp)
.L821:
	movq	-40(%rbp), %rbx
	movq	-16(%rbp), %rax
	addq	$16, %rax
	movq	%rax, -32(%rbp)
	movq	-32(%rbp), %rdi
	call	_ZN3Upp5ArrayI7OptItemED1Ev
	movq	%rbx, -40(%rbp)
	jmp	.L823
.L820:
	movq	-16(%rbp), %rax
	movq	%rax, -24(%rbp)
	movq	-24(%rbp), %rdi
	call	_ZN3Upp6StringD2Ev
	jmp	.L824
.L826:
	movq	%rax, -40(%rbp)
.L823:
	movq	-40(%rbp), %rbx
	movq	-16(%rbp), %rax
	movq	%rax, -24(%rbp)
	movq	-24(%rbp), %rdi
	call	_ZN3Upp6StringD2Ev
	movq	%rbx, -40(%rbp)
	movq	-40(%rbp), %rdi
.LEHB12:
	call	_Unwind_Resume
.LEHE12:
.L824:
	addq	$40, %rsp
	popq	%rbx
	leave
	ret
.LFE7941:
	.size	_ZN7Package4FileD1Ev, .-_ZN7Package4FileD1Ev
	.section	.gcc_except_table
.LLSDA7941:
	.byte	0xff
	.byte	0xff
	.byte	0x1
	.uleb128 .LLSDACSE7941-.LLSDACSB7941
.LLSDACSB7941:
	.uleb128 .LEHB10-.LFB7941
	.uleb128 .LEHE10-.LEHB10
	.uleb128 .L825-.LFB7941
	.uleb128 0x0
	.uleb128 .LEHB11-.LFB7941
	.uleb128 .LEHE11-.LEHB11
	.uleb128 .L826-.LFB7941
	.uleb128 0x0
	.uleb128 .LEHB12-.LFB7941
	.uleb128 .LEHE12-.LEHB12
	.uleb128 0x0
	.uleb128 0x0
.LLSDACSE7941:
	.section	.text._ZN7Package4FileD1Ev,"axG",@progbits,_ZN7Package4FileD1Ev,comdat
	.section	.text._ZN3Upp5ArrayIN7Package4FileEE4FreeEv,"axG",@progbits,_ZN3Upp5ArrayIN7Package4FileEE4FreeEv,comdat
	.align 2
	.weak	_ZN3Upp5ArrayIN7Package4FileEE4FreeEv
	.type	_ZN3Upp5ArrayIN7Package4FileEE4FreeEv, @function
_ZN3Upp5ArrayIN7Package4FileEE4FreeEv:
.LFB9545:
	pushq	%rbp
.LCFI826:
	movq	%rsp, %rbp
.LCFI827:
	subq	$32, %rsp
.LCFI828:
	movq	%rdi, -24(%rbp)
	movq	-24(%rbp), %rdi
	call	_ZNK3Upp5ArrayIN7Package4FileEE8IsPickedEv
	testb	%al, %al
	jne	.L834
	movl	$0, -4(%rbp)
	jmp	.L830
.L831:
	movq	-24(%rbp), %rdi
	addq	$8, %rdi
	movl	-4(%rbp), %esi
	call	_ZN3Upp6VectorIPvEixEi
	movq	(%rax), %rax
	movq	%rax, -32(%rbp)
	cmpq	$0, -32(%rbp)
	je	.L832
	movq	-32(%rbp), %rdi
	call	_ZN7Package4FileD1Ev
	movq	-32(%rbp), %rdi
	call	_ZdlPv
.L832:
	addl	$1, -4(%rbp)
.L830:
	movq	-24(%rbp), %rdi
	addq	$8, %rdi
	call	_ZNK3Upp6VectorIPvE8GetCountEv
	cmpl	-4(%rbp), %eax
	setg	%al
	testb	%al, %al
	jne	.L831
.L834:
	leave
	ret
.LFE9545:
	.size	_ZN3Upp5ArrayIN7Package4FileEE4FreeEv, .-_ZN3Upp5ArrayIN7Package4FileEE4FreeEv
	.section	.text._ZN3Upp5ArrayIN7Package4FileEED1Ev,"axG",@progbits,_ZN3Upp5ArrayIN7Package4FileEED1Ev,comdat
	.align 2
	.weak	_ZN3Upp5ArrayIN7Package4FileEED1Ev
	.type	_ZN3Upp5ArrayIN7Package4FileEED1Ev, @function
_ZN3Upp5ArrayIN7Package4FileEED1Ev:
.LFB8958:
	pushq	%rbp
.LCFI829:
	movq	%rsp, %rbp
.LCFI830:
	pushq	%rbx
.LCFI831:
	subq	$24, %rsp
.LCFI832:
	movq	%rdi, -16(%rbp)
	movq	-16(%rbp), %rdi
.LEHB13:
	call	_ZN3Upp5ArrayIN7Package4FileEE4FreeEv
.LEHE13:
	movq	-16(%rbp), %rax
	addq	$8, %rax
	movq	%rax, -24(%rbp)
	movq	-24(%rbp), %rdi
.LEHB14:
	call	_ZN3Upp6VectorIPvED1Ev
.LEHE14:
	jmp	.L838
.L839:
	movq	%rax, -32(%rbp)
.L837:
	movq	-32(%rbp), %rbx
	movq	-16(%rbp), %rax
	addq	$8, %rax
	movq	%rax, -24(%rbp)
	movq	-24(%rbp), %rdi
	call	_ZN3Upp6VectorIPvED1Ev
	movq	%rbx, -32(%rbp)
	movq	-32(%rbp), %rdi
.LEHB15:
	call	_Unwind_Resume
.LEHE15:
.L838:
	addq	$24, %rsp
	popq	%rbx
	leave
	ret
.LFE8958:
	.size	_ZN3Upp5ArrayIN7Package4FileEED1Ev, .-_ZN3Upp5ArrayIN7Package4FileEED1Ev
	.section	.gcc_except_table
.LLSDA8958:
	.byte	0xff
	.byte	0xff
	.byte	0x1
	.uleb128 .LLSDACSE8958-.LLSDACSB8958
.LLSDACSB8958:
	.uleb128 .LEHB13-.LFB8958
	.uleb128 .LEHE13-.LEHB13
	.uleb128 .L839-.LFB8958
	.uleb128 0x0
	.uleb128 .LEHB14-.LFB8958
	.uleb128 .LEHE14-.LEHB14
	.uleb128 0x0
	.uleb128 0x0
	.uleb128 .LEHB15-.LFB8958
	.uleb128 .LEHE15-.LEHB15
	.uleb128 0x0
	.uleb128 0x0
.LLSDACSE8958:
	.section	.text._ZN3Upp5ArrayIN7Package4FileEED1Ev,"axG",@progbits,_ZN3Upp5ArrayIN7Package4FileEED1Ev,comdat
	.section	.text._ZN7PackageD1Ev,"axG",@progbits,_ZN7PackageD1Ev,comdat
	.align 2
	.weak	_ZN7PackageD1Ev
	.type	_ZN7PackageD1Ev, @function
_ZN7PackageD1Ev:
.LFB7797:
	pushq	%rbp
.LCFI833:
	movq	%rsp, %rbp
.LCFI834:
	pushq	%rbx
.LCFI835:
	subq	$104, %rsp
.LCFI836:
	movq	%rdi, -16(%rbp)
	movq	-16(%rbp), %rdi
	addq	$232, %rdi
.LEHB16:
	call	_ZN3Upp5ArrayI10CustomStepED1Ev
.LEHE16:
	movq	-16(%rbp), %rax
	addq	$208, %rax
	movq	%rax, -96(%rbp)
	movq	-96(%rbp), %rdi
.LEHB17:
	call	_ZN3Upp5ArrayIN7Package6ConfigEED1Ev
.LEHE17:
	jmp	.L841
.L862:
	movq	%rax, -104(%rbp)
.L842:
	movq	-104(%rbp), %rbx
	movq	-16(%rbp), %rax
	addq	$208, %rax
	movq	%rax, -96(%rbp)
	movq	-96(%rbp), %rdi
	call	_ZN3Upp5ArrayIN7Package6ConfigEED1Ev
	movq	%rbx, -104(%rbp)
	jmp	.L844
.L841:
	movq	-16(%rbp), %rax
	addq	$184, %rax
	movq	%rax, -88(%rbp)
	movq	-88(%rbp), %rdi
.LEHB18:
	call	_ZN3Upp5ArrayIN7Package4FileEED1Ev
.LEHE18:
	jmp	.L843
.L863:
	movq	%rax, -104(%rbp)
.L844:
	movq	-104(%rbp), %rbx
	movq	-16(%rbp), %rax
	addq	$184, %rax
	movq	%rax, -88(%rbp)
	movq	-88(%rbp), %rdi
	call	_ZN3Upp5ArrayIN7Package4FileEED1Ev
	movq	%rbx, -104(%rbp)
	jmp	.L846
.L843:
	movq	-16(%rbp), %rax
	addq	$160, %rax
	movq	%rax, -80(%rbp)
	movq	-80(%rbp), %rdi
.LEHB19:
	call	_ZN3Upp5ArrayI7OptItemED1Ev
.LEHE19:
	jmp	.L845
.L864:
	movq	%rax, -104(%rbp)
.L846:
	movq	-104(%rbp), %rbx
	movq	-16(%rbp), %rax
	addq	$160, %rax
	movq	%rax, -80(%rbp)
	movq	-80(%rbp), %rdi
	call	_ZN3Upp5ArrayI7OptItemED1Ev
	movq	%rbx, -104(%rbp)
	jmp	.L848
.L845:
	movq	-16(%rbp), %rax
	addq	$136, %rax
	movq	%rax, -72(%rbp)
	movq	-72(%rbp), %rdi
.LEHB20:
	call	_ZN3Upp5ArrayI7OptItemED1Ev
.LEHE20:
	jmp	.L847
.L865:
	movq	%rax, -104(%rbp)
.L848:
	movq	-104(%rbp), %rbx
	movq	-16(%rbp), %rax
	addq	$136, %rax
	movq	%rax, -72(%rbp)
	movq	-72(%rbp), %rdi
	call	_ZN3Upp5ArrayI7OptItemED1Ev
	movq	%rbx, -104(%rbp)
	jmp	.L850
.L847:
	movq	-16(%rbp), %rax
	addq	$112, %rax
	movq	%rax, -64(%rbp)
	movq	-64(%rbp), %rdi
.LEHB21:
	call	_ZN3Upp5ArrayI7OptItemED1Ev
.LEHE21:
	jmp	.L849
.L866:
	movq	%rax, -104(%rbp)
.L850:
	movq	-104(%rbp), %rbx
	movq	-16(%rbp), %rax
	addq	$112, %rax
	movq	%rax, -64(%rbp)
	movq	-64(%rbp), %rdi
	call	_ZN3Upp5ArrayI7OptItemED1Ev
	movq	%rbx, -104(%rbp)
	jmp	.L852
.L849:
	movq	-16(%rbp), %rax
	addq	$88, %rax
	movq	%rax, -56(%rbp)
	movq	-56(%rbp), %rdi
.LEHB22:
	call	_ZN3Upp5ArrayI7OptItemED1Ev
.LEHE22:
	jmp	.L851
.L867:
	movq	%rax, -104(%rbp)
.L852:
	movq	-104(%rbp), %rbx
	movq	-16(%rbp), %rax
	addq	$88, %rax
	movq	%rax, -56(%rbp)
	movq	-56(%rbp), %rdi
	call	_ZN3Upp5ArrayI7OptItemED1Ev
	movq	%rbx, -104(%rbp)
	jmp	.L854
.L851:
	movq	-16(%rbp), %rax
	addq	$64, %rax
	movq	%rax, -48(%rbp)
	movq	-48(%rbp), %rdi
.LEHB23:
	call	_ZN3Upp5ArrayI7OptItemED1Ev
.LEHE23:
	jmp	.L853
.L868:
	movq	%rax, -104(%rbp)
.L854:
	movq	-104(%rbp), %rbx
	movq	-16(%rbp), %rax
	addq	$64, %rax
	movq	%rax, -48(%rbp)
	movq	-48(%rbp), %rdi
	call	_ZN3Upp5ArrayI7OptItemED1Ev
	movq	%rbx, -104(%rbp)
	jmp	.L856
.L853:
	movq	-16(%rbp), %rax
	addq	$40, %rax
	movq	%rax, -40(%rbp)
	movq	-40(%rbp), %rdi
.LEHB24:
	call	_ZN3Upp5ArrayI7OptItemED1Ev
.LEHE24:
	jmp	.L855
.L869:
	movq	%rax, -104(%rbp)
.L856:
	movq	-104(%rbp), %rbx
	movq	-16(%rbp), %rax
	addq	$40, %rax
	movq	%rax, -40(%rbp)
	movq	-40(%rbp), %rdi
	call	_ZN3Upp5ArrayI7OptItemED1Ev
	movq	%rbx, -104(%rbp)
	jmp	.L858
.L855:
	movq	-16(%rbp), %rax
	addq	$24, %rax
	movq	%rax, -32(%rbp)
	movq	-32(%rbp), %rdi
.LEHB25:
	call	_ZN3Upp6VectorINS_6StringEED1Ev
.LEHE25:
	jmp	.L857
.L870:
	movq	%rax, -104(%rbp)
.L858:
	movq	-104(%rbp), %rbx
	movq	-16(%rbp), %rax
	addq	$24, %rax
	movq	%rax, -32(%rbp)
	movq	-32(%rbp), %rdi
	call	_ZN3Upp6VectorINS_6StringEED1Ev
	movq	%rbx, -104(%rbp)
	jmp	.L860
.L857:
	movq	-16(%rbp), %rax
	addq	$8, %rax
	movq	%rax, -24(%rbp)
	movq	-24(%rbp), %rdi
	call	_ZN3Upp6StringD1Ev
	jmp	.L861
.L871:
	movq	%rax, -104(%rbp)
.L860:
	movq	-104(%rbp), %rbx
	movq	-16(%rbp), %rax
	addq	$8, %rax
	movq	%rax, -24(%rbp)
	movq	-24(%rbp), %rdi
	call	_ZN3Upp6StringD1Ev
	movq	%rbx, -104(%rbp)
	movq	-104(%rbp), %rdi
.LEHB26:
	call	_Unwind_Resume
.LEHE26:
.L861:
	addq	$104, %rsp
	popq	%rbx
	leave
	ret
.LFE7797:
	.size	_ZN7PackageD1Ev, .-_ZN7PackageD1Ev
	.section	.gcc_except_table
.LLSDA7797:
	.byte	0xff
	.byte	0xff
	.byte	0x1
	.uleb128 .LLSDACSE7797-.LLSDACSB7797
.LLSDACSB7797:
	.uleb128 .LEHB16-.LFB7797
	.uleb128 .LEHE16-.LEHB16
	.uleb128 .L862-.LFB7797
	.uleb128 0x0
	.uleb128 .LEHB17-.LFB7797
	.uleb128 .LEHE17-.LEHB17
	.uleb128 .L863-.LFB7797
	.uleb128 0x0
	.uleb128 .LEHB18-.LFB7797
	.uleb128 .LEHE18-.LEHB18
	.uleb128 .L864-.LFB7797
	.uleb128 0x0
	.uleb128 .LEHB19-.LFB7797
	.uleb128 .LEHE19-.LEHB19
	.uleb128 .L865-.LFB7797
	.uleb128 0x0
	.uleb128 .LEHB20-.LFB7797
	.uleb128 .LEHE20-.LEHB20
	.uleb128 .L866-.LFB7797
	.uleb128 0x0
	.uleb128 .LEHB21-.LFB7797
	.uleb128 .LEHE21-.LEHB21
	.uleb128 .L867-.LFB7797
	.uleb128 0x0
	.uleb128 .LEHB22-.LFB7797
	.uleb128 .LEHE22-.LEHB22
	.uleb128 .L868-.LFB7797
	.uleb128 0x0
	.uleb128 .LEHB23-.LFB7797
	.uleb128 .LEHE23-.LEHB23
	.uleb128 .L869-.LFB7797
	.uleb128 0x0
	.uleb128 .LEHB24-.LFB7797
	.uleb128 .LEHE24-.LEHB24
	.uleb128 .L870-.LFB7797
	.uleb128 0x0
	.uleb128 .LEHB25-.LFB7797
	.uleb128 .LEHE25-.LEHB25
	.uleb128 .L871-.LFB7797
	.uleb128 0x0
	.uleb128 .LEHB26-.LFB7797
	.uleb128 .LEHE26-.LEHB26
	.uleb128 0x0
	.uleb128 0x0
.LLSDACSE7797:
	.section	.text._ZN7PackageD1Ev,"axG",@progbits,_ZN7PackageD1Ev,comdat
	.section	.text._ZN13WorkspaceWorkD0Ev,"axG",@progbits,_ZN13WorkspaceWorkD0Ev,comdat
	.align 2
	.weak	_ZN13WorkspaceWorkD0Ev
	.type	_ZN13WorkspaceWorkD0Ev, @function
_ZN13WorkspaceWorkD0Ev:
.LFB7812:
	pushq	%rbp
.LCFI837:
	movq	%rsp, %rbp
.LCFI838:
	pushq	%rbx
.LCFI839:
	subq	$56, %rsp
.LCFI840:
	movq	%rdi, -16(%rbp)
	movl	$_ZTV13WorkspaceWork+16, %edx
	movq	-16(%rbp), %rax
	movq	%rdx, (%rax)
	movq	-16(%rbp), %rdi
	addq	$4640, %rdi
	call	_ZN3Upp8ArrayMapINS_6StringEN13WorkspaceWork6BackupENS_7StdHashIS1_EEED1Ev
	movq	-16(%rbp), %rdi
	addq	$4552, %rdi
	call	_ZN3Upp5IndexIN13WorkspaceWork5SepfoENS_7StdHashIS2_EEED1Ev
.L874:
	movq	-16(%rbp), %rdi
	addq	$4288, %rdi
.LEHB27:
	call	_ZN7PackageD1Ev
.LEHE27:
.L876:
	movq	-16(%rbp), %rax
	addq	$4264, %rax
	movq	%rax, -56(%rbp)
	movq	-56(%rbp), %rdi
	call	_ZN3Upp6StringD1Ev
	movq	-16(%rbp), %rax
	addq	$4248, %rax
	movq	%rax, -48(%rbp)
	movq	-48(%rbp), %rdi
	call	_ZN3Upp6StringD1Ev
	movq	-16(%rbp), %rax
	addq	$4232, %rax
	movq	%rax, -40(%rbp)
	movq	-40(%rbp), %rdi
.LEHB28:
	call	_ZN3Upp6VectorIiED1Ev
.LEHE28:
	jmp	.L877
.L888:
	movq	%rax, -64(%rbp)
.L878:
	movq	-64(%rbp), %rbx
	movq	-16(%rbp), %rax
	addq	$4264, %rax
	movq	%rax, -56(%rbp)
	movq	-56(%rbp), %rdi
	call	_ZN3Upp6StringD1Ev
	movq	%rbx, -64(%rbp)
.L889:
.L879:
	movq	-64(%rbp), %rbx
	movq	-16(%rbp), %rax
	addq	$4248, %rax
	movq	%rax, -48(%rbp)
	movq	-48(%rbp), %rdi
	call	_ZN3Upp6StringD1Ev
	movq	%rbx, -64(%rbp)
.L890:
.L880:
	movq	-64(%rbp), %rbx
	movq	-16(%rbp), %rax
	addq	$4232, %rax
	movq	%rax, -40(%rbp)
	movq	-40(%rbp), %rdi
	call	_ZN3Upp6VectorIiED1Ev
	movq	%rbx, -64(%rbp)
	jmp	.L882
.L877:
	movq	-16(%rbp), %rax
	addq	$2120, %rax
	movq	%rax, -32(%rbp)
	movq	-32(%rbp), %rdi
.LEHB29:
	call	_ZN3Upp8FileListD1Ev
.LEHE29:
	jmp	.L881
.L891:
	movq	%rax, -64(%rbp)
.L882:
	movq	-64(%rbp), %rbx
	movq	-16(%rbp), %rax
	addq	$2120, %rax
	movq	%rax, -32(%rbp)
	movq	-32(%rbp), %rdi
	call	_ZN3Upp8FileListD1Ev
	movq	%rbx, -64(%rbp)
	jmp	.L884
.L881:
	movq	-16(%rbp), %rax
	addq	$8, %rax
	movq	%rax, -24(%rbp)
	movq	-24(%rbp), %rdi
.LEHB30:
	call	_ZN3Upp8FileListD1Ev
.LEHE30:
	jmp	.L883
.L892:
	movq	%rax, -64(%rbp)
.L884:
	movq	-64(%rbp), %rbx
	movq	-16(%rbp), %rax
	addq	$8, %rax
	movq	%rax, -24(%rbp)
	movq	-24(%rbp), %rdi
	call	_ZN3Upp8FileListD1Ev
	movq	%rbx, -64(%rbp)
	movq	-64(%rbp), %rdi
.LEHB31:
	call	_Unwind_Resume
.LEHE31:
.L883:
	movl	$1, %eax
	testb	%al, %al
	je	.L887
	movq	-16(%rbp), %rdi
	call	_ZdlPv
.L887:
	addq	$56, %rsp
	popq	%rbx
	leave
	ret
.LFE7812:
	.size	_ZN13WorkspaceWorkD0Ev, .-_ZN13WorkspaceWorkD0Ev
	.section	.gcc_except_table
.LLSDA7812:
	.byte	0xff
	.byte	0xff
	.byte	0x1
	.uleb128 .LLSDACSE7812-.LLSDACSB7812
.LLSDACSB7812:
	.uleb128 .LEHB27-.LFB7812
	.uleb128 .LEHE27-.LEHB27
	.uleb128 .L888-.LFB7812
	.uleb128 0x0
	.uleb128 .LEHB28-.LFB7812
	.uleb128 .LEHE28-.LEHB28
	.uleb128 .L891-.LFB7812
	.uleb128 0x0
	.uleb128 .LEHB29-.LFB7812
	.uleb128 .LEHE29-.LEHB29
	.uleb128 .L892-.LFB7812
	.uleb128 0x0
	.uleb128 .LEHB30-.LFB7812
	.uleb128 .LEHE30-.LEHB30
	.uleb128 0x0
	.uleb128 0x0
	.uleb128 .LEHB31-.LFB7812
	.uleb128 .LEHE31-.LEHB31
	.uleb128 0x0
	.uleb128 0x0
.LLSDACSE7812:
	.section	.text._ZN13WorkspaceWorkD0Ev,"axG",@progbits,_ZN13WorkspaceWorkD0Ev,comdat
	.section	.text._ZN7Package4FileC1Ev,"axG",@progbits,_ZN7Package4FileC1Ev,comdat
	.align 2
	.weak	_ZN7Package4FileC1Ev
	.type	_ZN7Package4FileC1Ev, @function
_ZN7Package4FileC1Ev:
.LFB6973:
	pushq	%rbp
.LCFI841:
	movq	%rsp, %rbp
.LCFI842:
	subq	$16, %rsp
.LCFI843:
	movq	%rdi, -8(%rbp)
	movq	-8(%rbp), %rdi
	call	_ZN3Upp6StringC2Ev
	movq	-8(%rbp), %rdi
	addq	$16, %rdi
	call	_ZN3Upp5ArrayI7OptItemEC1Ev
	movq	-8(%rbp), %rdi
	addq	$40, %rdi
	call	_ZN3Upp5ArrayI7OptItemEC1Ev
	movq	-8(%rbp), %rdi
	addq	$80, %rdi
	call	_ZN3Upp6StringC1Ev
	movq	-8(%rbp), %rdi
	call	_ZN7Package4File4InitEv
	leave
	ret
.LFE6973:
	.size	_ZN7Package4FileC1Ev, .-_ZN7Package4FileC1Ev
	.section	.text._ZN3Upp5ArrayI7OptItemEaSERKS2_,"axG",@progbits,_ZN3Upp5ArrayI7OptItemEaSERKS2_,comdat
	.align 2
	.weak	_ZN3Upp5ArrayI7OptItemEaSERKS2_
	.type	_ZN3Upp5ArrayI7OptItemEaSERKS2_, @function
_ZN3Upp5ArrayI7OptItemEaSERKS2_:
.LFB9601:
	pushq	%rbp
.LCFI844:
	movq	%rsp, %rbp
.LCFI845:
	subq	$16, %rsp
.LCFI846:
	movq	%rdi, -8(%rbp)
	movq	%rsi, -16(%rbp)
	movq	-8(%rbp), %rdi
	call	_ZN3Upp5ArrayI7OptItemE4FreeEv
	movq	-16(%rbp), %rsi
	addq	$8, %rsi
	movq	-8(%rbp), %rdi
	addq	$8, %rdi
	call	_ZN3Upp6VectorIPvEaSERKS2_
	leave
	ret
.LFE9601:
	.size	_ZN3Upp5ArrayI7OptItemEaSERKS2_, .-_ZN3Upp5ArrayI7OptItemEaSERKS2_
	.section	.text._ZN13WorkspaceWorkD1Ev,"axG",@progbits,_ZN13WorkspaceWorkD1Ev,comdat
	.align 2
	.weak	_ZN13WorkspaceWorkD1Ev
	.type	_ZN13WorkspaceWorkD1Ev, @function
_ZN13WorkspaceWorkD1Ev:
.LFB7811:
	pushq	%rbp
.LCFI847:
	movq	%rsp, %rbp
.LCFI848:
	pushq	%rbx
.LCFI849:
	subq	$56, %rsp
.LCFI850:
	movq	%rdi, -16(%rbp)
	movl	$_ZTV13WorkspaceWork+16, %edx
	movq	-16(%rbp), %rax
	movq	%rdx, (%rax)
	movq	-16(%rbp), %rdi
	addq	$4640, %rdi
	call	_ZN3Upp8ArrayMapINS_6StringEN13WorkspaceWork6BackupENS_7StdHashIS1_EEED1Ev
	movq	-16(%rbp), %rdi
	addq	$4552, %rdi
	call	_ZN3Upp5IndexIN13WorkspaceWork5SepfoENS_7StdHashIS2_EEED1Ev
.L899:
	movq	-16(%rbp), %rdi
	addq	$4288, %rdi
.LEHB32:
	call	_ZN7PackageD1Ev
.LEHE32:
.L901:
	movq	-16(%rbp), %rax
	addq	$4264, %rax
	movq	%rax, -56(%rbp)
	movq	-56(%rbp), %rdi
	call	_ZN3Upp6StringD1Ev
	movq	-16(%rbp), %rax
	addq	$4248, %rax
	movq	%rax, -48(%rbp)
	movq	-48(%rbp), %rdi
	call	_ZN3Upp6StringD1Ev
	movq	-16(%rbp), %rax
	addq	$4232, %rax
	movq	%rax, -40(%rbp)
	movq	-40(%rbp), %rdi
.LEHB33:
	call	_ZN3Upp6VectorIiED1Ev
.LEHE33:
	jmp	.L902
.L913:
	movq	%rax, -64(%rbp)
.L903:
	movq	-64(%rbp), %rbx
	movq	-16(%rbp), %rax
	addq	$4264, %rax
	movq	%rax, -56(%rbp)
	movq	-56(%rbp), %rdi
	call	_ZN3Upp6StringD1Ev
	movq	%rbx, -64(%rbp)
.L914:
.L904:
	movq	-64(%rbp), %rbx
	movq	-16(%rbp), %rax
	addq	$4248, %rax
	movq	%rax, -48(%rbp)
	movq	-48(%rbp), %rdi
	call	_ZN3Upp6StringD1Ev
	movq	%rbx, -64(%rbp)
.L915:
.L905:
	movq	-64(%rbp), %rbx
	movq	-16(%rbp), %rax
	addq	$4232, %rax
	movq	%rax, -40(%rbp)
	movq	-40(%rbp), %rdi
	call	_ZN3Upp6VectorIiED1Ev
	movq	%rbx, -64(%rbp)
	jmp	.L907
.L902:
	movq	-16(%rbp), %rax
	addq	$2120, %rax
	movq	%rax, -32(%rbp)
	movq	-32(%rbp), %rdi
.LEHB34:
	call	_ZN3Upp8FileListD1Ev
.LEHE34:
	jmp	.L906
.L916:
	movq	%rax, -64(%rbp)
.L907:
	movq	-64(%rbp), %rbx
	movq	-16(%rbp), %rax
	addq	$2120, %rax
	movq	%rax, -32(%rbp)
	movq	-32(%rbp), %rdi
	call	_ZN3Upp8FileListD1Ev
	movq	%rbx, -64(%rbp)
	jmp	.L909
.L906:
	movq	-16(%rbp), %rax
	addq	$8, %rax
	movq	%rax, -24(%rbp)
	movq	-24(%rbp), %rdi
.LEHB35:
	call	_ZN3Upp8FileListD1Ev
.LEHE35:
	jmp	.L908
.L917:
	movq	%rax, -64(%rbp)
.L909:
	movq	-64(%rbp), %rbx
	movq	-16(%rbp), %rax
	addq	$8, %rax
	movq	%rax, -24(%rbp)
	movq	-24(%rbp), %rdi
	call	_ZN3Upp8FileListD1Ev
	movq	%rbx, -64(%rbp)
	movq	-64(%rbp), %rdi
.LEHB36:
	call	_Unwind_Resume
.LEHE36:
.L908:
	movl	$0, %eax
	testb	%al, %al
	je	.L912
	movq	-16(%rbp), %rdi
	call	_ZdlPv
.L912:
	addq	$56, %rsp
	popq	%rbx
	leave
	ret
.LFE7811:
	.size	_ZN13WorkspaceWorkD1Ev, .-_ZN13WorkspaceWorkD1Ev
	.section	.gcc_except_table
.LLSDA7811:
	.byte	0xff
	.byte	0xff
	.byte	0x1
	.uleb128 .LLSDACSE7811-.LLSDACSB7811
.LLSDACSB7811:
	.uleb128 .LEHB32-.LFB7811
	.uleb128 .LEHE32-.LEHB32
	.uleb128 .L913-.LFB7811
	.uleb128 0x0
	.uleb128 .LEHB33-.LFB7811
	.uleb128 .LEHE33-.LEHB33
	.uleb128 .L916-.LFB7811
	.uleb128 0x0
	.uleb128 .LEHB34-.LFB7811
	.uleb128 .LEHE34-.LEHB34
	.uleb128 .L917-.LFB7811
	.uleb128 0x0
	.uleb128 .LEHB35-.LFB7811
	.uleb128 .LEHE35-.LEHB35
	.uleb128 0x0
	.uleb128 0x0
	.uleb128 .LEHB36-.LFB7811
	.uleb128 .LEHE36-.LEHB36
	.uleb128 0x0
	.uleb128 0x0
.LLSDACSE7811:
	.section	.text._ZN13WorkspaceWorkD1Ev,"axG",@progbits,_ZN13WorkspaceWorkD1Ev,comdat
	.section	.text._ZN3Upp5ArrayI7PackageE4FreeEv,"axG",@progbits,_ZN3Upp5ArrayI7PackageE4FreeEv,comdat
	.align 2
	.weak	_ZN3Upp5ArrayI7PackageE4FreeEv
	.type	_ZN3Upp5ArrayI7PackageE4FreeEv, @function
_ZN3Upp5ArrayI7PackageE4FreeEv:
.LFB9570:
	pushq	%rbp
.LCFI851:
	movq	%rsp, %rbp
.LCFI852:
	subq	$32, %rsp
.LCFI853:
	movq	%rdi, -24(%rbp)
	movq	-24(%rbp), %rdi
	call	_ZNK3Upp5ArrayI7PackageE8IsPickedEv
	testb	%al, %al
	jne	.L925
	movl	$0, -4(%rbp)
	jmp	.L921
.L922:
	movq	-24(%rbp), %rdi
	addq	$8, %rdi
	movl	-4(%rbp), %esi
	call	_ZN3Upp6VectorIPvEixEi
	movq	(%rax), %rax
	movq	%rax, -32(%rbp)
	cmpq	$0, -32(%rbp)
	je	.L923
	movq	-32(%rbp), %rdi
	call	_ZN7PackageD1Ev
	movq	-32(%rbp), %rdi
	call	_ZdlPv
.L923:
	addl	$1, -4(%rbp)
.L921:
	movq	-24(%rbp), %rdi
	addq	$8, %rdi
	call	_ZNK3Upp6VectorIPvE8GetCountEv
	cmpl	-4(%rbp), %eax
	setg	%al
	testb	%al, %al
	jne	.L922
.L925:
	leave
	ret
.LFE9570:
	.size	_ZN3Upp5ArrayI7PackageE4FreeEv, .-_ZN3Upp5ArrayI7PackageE4FreeEv
	.section	.text._ZN3Upp5ArrayI7PackageED1Ev,"axG",@progbits,_ZN3Upp5ArrayI7PackageED1Ev,comdat
	.align 2
	.weak	_ZN3Upp5ArrayI7PackageED1Ev
	.type	_ZN3Upp5ArrayI7PackageED1Ev, @function
_ZN3Upp5ArrayI7PackageED1Ev:
.LFB9004:
	pushq	%rbp
.LCFI854:
	movq	%rsp, %rbp
.LCFI855:
	pushq	%rbx
.LCFI856:
	subq	$24, %rsp
.LCFI857:
	movq	%rdi, -16(%rbp)
	movq	-16(%rbp), %rdi
.LEHB37:
	call	_ZN3Upp5ArrayI7PackageE4FreeEv
.LEHE37:
	movq	-16(%rbp), %rax
	addq	$8, %rax
	movq	%rax, -24(%rbp)
	movq	-24(%rbp), %rdi
.LEHB38:
	call	_ZN3Upp6VectorIPvED1Ev
.LEHE38:
	jmp	.L929
.L930:
	movq	%rax, -32(%rbp)
.L928:
	movq	-32(%rbp), %rbx
	movq	-16(%rbp), %rax
	addq	$8, %rax
	movq	%rax, -24(%rbp)
	movq	-24(%rbp), %rdi
	call	_ZN3Upp6VectorIPvED1Ev
	movq	%rbx, -32(%rbp)
	movq	-32(%rbp), %rdi
.LEHB39:
	call	_Unwind_Resume
.LEHE39:
.L929:
	addq	$24, %rsp
	popq	%rbx
	leave
	ret
.LFE9004:
	.size	_ZN3Upp5ArrayI7PackageED1Ev, .-_ZN3Upp5ArrayI7PackageED1Ev
	.section	.gcc_except_table
.LLSDA9004:
	.byte	0xff
	.byte	0xff
	.byte	0x1
	.uleb128 .LLSDACSE9004-.LLSDACSB9004
.LLSDACSB9004:
	.uleb128 .LEHB37-.LFB9004
	.uleb128 .LEHE37-.LEHB37
	.uleb128 .L930-.LFB9004
	.uleb128 0x0
	.uleb128 .LEHB38-.LFB9004
	.uleb128 .LEHE38-.LEHB38
	.uleb128 0x0
	.uleb128 0x0
	.uleb128 .LEHB39-.LFB9004
	.uleb128 .LEHE39-.LEHB39
	.uleb128 0x0
	.uleb128 0x0
.LLSDACSE9004:
	.section	.text._ZN3Upp5ArrayI7PackageED1Ev,"axG",@progbits,_ZN3Upp5ArrayI7PackageED1Ev,comdat
	.section	.text._ZN3Upp4AMapINS_6StringE7PackageNS_5ArrayIS2_EENS_7StdHashIS1_EEED2Ev,"axG",@progbits,_ZN3Upp4AMapINS_6StringE7PackageNS_5ArrayIS2_EENS_7StdHashIS1_EEED2Ev,comdat
	.align 2
	.weak	_ZN3Upp4AMapINS_6StringE7PackageNS_5ArrayIS2_EENS_7StdHashIS1_EEED2Ev
	.type	_ZN3Upp4AMapINS_6StringE7PackageNS_5ArrayIS2_EENS_7StdHashIS1_EEED2Ev, @function
_ZN3Upp4AMapINS_6StringE7PackageNS_5ArrayIS2_EENS_7StdHashIS1_EEED2Ev:
.LFB7911:
	pushq	%rbp
.LCFI858:
	movq	%rsp, %rbp
.LCFI859:
	pushq	%rbx
.LCFI860:
	subq	$24, %rsp
.LCFI861:
	movq	%rdi, -16(%rbp)
	movq	-16(%rbp), %rdi
	addq	$88, %rdi
.LEHB40:
	call	_ZN3Upp5ArrayI7PackageED1Ev
.LEHE40:
	movq	-16(%rbp), %rax
	movq	%rax, -24(%rbp)
	movq	-24(%rbp), %rdi
	call	_ZN3Upp5IndexINS_6StringENS_7StdHashIS1_EEED1Ev
	jmp	.L934
.L935:
	movq	%rax, -32(%rbp)
.L933:
	movq	-32(%rbp), %rbx
	movq	-16(%rbp), %rax
	movq	%rax, -24(%rbp)
	movq	-24(%rbp), %rdi
	call	_ZN3Upp5IndexINS_6StringENS_7StdHashIS1_EEED1Ev
	movq	%rbx, -32(%rbp)
	movq	-32(%rbp), %rdi
.LEHB41:
	call	_Unwind_Resume
.LEHE41:
.L934:
	addq	$24, %rsp
	popq	%rbx
	leave
	ret
.LFE7911:
	.size	_ZN3Upp4AMapINS_6StringE7PackageNS_5ArrayIS2_EENS_7StdHashIS1_EEED2Ev, .-_ZN3Upp4AMapINS_6StringE7PackageNS_5ArrayIS2_EENS_7StdHashIS1_EEED2Ev
	.section	.gcc_except_table
.LLSDA7911:
	.byte	0xff
	.byte	0xff
	.byte	0x1
	.uleb128 .LLSDACSE7911-.LLSDACSB7911
.LLSDACSB7911:
	.uleb128 .LEHB40-.LFB7911
	.uleb128 .LEHE40-.LEHB40
	.uleb128 .L935-.LFB7911
	.uleb128 0x0
	.uleb128 .LEHB41-.LFB7911
	.uleb128 .LEHE41-.LEHB41
	.uleb128 0x0
	.uleb128 0x0
.LLSDACSE7911:
	.section	.text._ZN3Upp4AMapINS_6StringE7PackageNS_5ArrayIS2_EENS_7StdHashIS1_EEED2Ev,"axG",@progbits,_ZN3Upp4AMapINS_6StringE7PackageNS_5ArrayIS2_EENS_7StdHashIS1_EEED2Ev,comdat
	.section	.text._ZN3Upp8ArrayMapINS_6StringE7PackageNS_7StdHashIS1_EEED1Ev,"axG",@progbits,_ZN3Upp8ArrayMapINS_6StringE7PackageNS_7StdHashIS1_EEED1Ev,comdat
	.align 2
	.weak	_ZN3Upp8ArrayMapINS_6StringE7PackageNS_7StdHashIS1_EEED1Ev
	.type	_ZN3Upp8ArrayMapINS_6StringE7PackageNS_7StdHashIS1_EEED1Ev, @function
_ZN3Upp8ArrayMapINS_6StringE7PackageNS_7StdHashIS1_EEED1Ev:
.LFB7914:
	pushq	%rbp
.LCFI862:
	movq	%rsp, %rbp
.LCFI863:
	subq	$16, %rsp
.LCFI864:
	movq	%rdi, -8(%rbp)
	movl	$8, %eax
	addq	-8(%rbp), %rax
	movq	%rax, %rdi
	call	_ZN3Upp4AMapINS_6StringE7PackageNS_5ArrayIS2_EENS_7StdHashIS1_EEED2Ev
	leave
	ret
.LFE7914:
	.size	_ZN3Upp8ArrayMapINS_6StringE7PackageNS_7StdHashIS1_EEED1Ev, .-_ZN3Upp8ArrayMapINS_6StringE7PackageNS_7StdHashIS1_EEED1Ev
	.section	.text._ZN9WorkspaceD1Ev,"axG",@progbits,_ZN9WorkspaceD1Ev,comdat
	.align 2
	.weak	_ZN9WorkspaceD1Ev
	.type	_ZN9WorkspaceD1Ev, @function
_ZN9WorkspaceD1Ev:
.LFB7919:
	pushq	%rbp
.LCFI865:
	movq	%rsp, %rbp
.LCFI866:
	subq	$16, %rsp
.LCFI867:
	movq	%rdi, -8(%rbp)
	movq	-8(%rbp), %rdi
	call	_ZN3Upp8ArrayMapINS_6StringE7PackageNS_7StdHashIS1_EEED1Ev
	leave
	ret
.LFE7919:
	.size	_ZN9WorkspaceD1Ev, .-_ZN9WorkspaceD1Ev
	.section	.text._ZN3Upp15Callback1ActionIRNS_3BarEED2Ev,"axG",@progbits,_ZN3Upp15Callback1ActionIRNS_3BarEED2Ev,comdat
	.align 2
	.weak	_ZN3Upp15Callback1ActionIRNS_3BarEED2Ev
	.type	_ZN3Upp15Callback1ActionIRNS_3BarEED2Ev, @function
_ZN3Upp15Callback1ActionIRNS_3BarEED2Ev:
.LFB9747:
	pushq	%rbp
.LCFI868:
	movq	%rsp, %rbp
.LCFI869:
	subq	$16, %rsp
.LCFI870:
	movq	%rdi, -8(%rbp)
	movl	$_ZTVN3Upp15Callback1ActionIRNS_3BarEEE+16, %edx
	movq	-8(%rbp), %rax
	movq	%rdx, (%rax)
	movl	$0, %eax
	testb	%al, %al
	je	.L946
	movq	-8(%rbp), %rdi
	call	_ZdlPv
.L946:
	leave
	ret
.LFE9747:
	.size	_ZN3Upp15Callback1ActionIRNS_3BarEED2Ev, .-_ZN3Upp15Callback1ActionIRNS_3BarEED2Ev
	.section	.text._ZN3Upp21Callback1MethodActionI13WorkspaceWorkMS1_FvRNS_3BarEES3_ED0Ev,"axG",@progbits,_ZN3Upp21Callback1MethodActionI13WorkspaceWorkMS1_FvRNS_3BarEES3_ED0Ev,comdat
	.align 2
	.weak	_ZN3Upp21Callback1MethodActionI13WorkspaceWorkMS1_FvRNS_3BarEES3_ED0Ev
	.type	_ZN3Upp21Callback1MethodActionI13WorkspaceWorkMS1_FvRNS_3BarEES3_ED0Ev, @function
_ZN3Upp21Callback1MethodActionI13WorkspaceWorkMS1_FvRNS_3BarEES3_ED0Ev:
.LFB10203:
	pushq	%rbp
.LCFI871:
	movq	%rsp, %rbp
.LCFI872:
	subq	$16, %rsp
.LCFI873:
	movq	%rdi, -8(%rbp)
	movl	$_ZTVN3Upp21Callback1MethodActionI13WorkspaceWorkMS1_FvRNS_3BarEES3_EE+16, %edx
	movq	-8(%rbp), %rax
	movq	%rdx, (%rax)
	movq	-8(%rbp), %rdi
	call	_ZN3Upp15Callback1ActionIRNS_3BarEED2Ev
	movl	$1, %eax
	testb	%al, %al
	je	.L951
	movq	-8(%rbp), %rdi
	call	_ZdlPv
.L951:
	leave
	ret
.LFE10203:
	.size	_ZN3Upp21Callback1MethodActionI13WorkspaceWorkMS1_FvRNS_3BarEES3_ED0Ev, .-_ZN3Upp21Callback1MethodActionI13WorkspaceWorkMS1_FvRNS_3BarEES3_ED0Ev
	.section	.text._ZN3Upp15Callback1ActionIRNS_3BarEED0Ev,"axG",@progbits,_ZN3Upp15Callback1ActionIRNS_3BarEED0Ev,comdat
	.align 2
	.weak	_ZN3Upp15Callback1ActionIRNS_3BarEED0Ev
	.type	_ZN3Upp15Callback1ActionIRNS_3BarEED0Ev, @function
_ZN3Upp15Callback1ActionIRNS_3BarEED0Ev:
.LFB9749:
	pushq	%rbp
.LCFI874:
	movq	%rsp, %rbp
.LCFI875:
	subq	$16, %rsp
.LCFI876:
	movq	%rdi, -8(%rbp)
	movl	$_ZTVN3Upp15Callback1ActionIRNS_3BarEEE+16, %edx
	movq	-8(%rbp), %rax
	movq	%rdx, (%rax)
	movl	$1, %eax
	testb	%al, %al
	je	.L956
	movq	-8(%rbp), %rdi
	call	_ZdlPv
.L956:
	leave
	ret
.LFE9749:
	.size	_ZN3Upp15Callback1ActionIRNS_3BarEED0Ev, .-_ZN3Upp15Callback1ActionIRNS_3BarEED0Ev
	.section	.text._ZN3Upp15Callback1ActionIRNS_3BarEED1Ev,"axG",@progbits,_ZN3Upp15Callback1ActionIRNS_3BarEED1Ev,comdat
	.align 2
	.weak	_ZN3Upp15Callback1ActionIRNS_3BarEED1Ev
	.type	_ZN3Upp15Callback1ActionIRNS_3BarEED1Ev, @function
_ZN3Upp15Callback1ActionIRNS_3BarEED1Ev:
.LFB9748:
	pushq	%rbp
.LCFI877:
	movq	%rsp, %rbp
.LCFI878:
	subq	$16, %rsp
.LCFI879:
	movq	%rdi, -8(%rbp)
	movl	$_ZTVN3Upp15Callback1ActionIRNS_3BarEEE+16, %edx
	movq	-8(%rbp), %rax
	movq	%rdx, (%rax)
	movl	$0, %eax
	testb	%al, %al
	je	.L961
	movq	-8(%rbp), %rdi
	call	_ZdlPv
.L961:
	leave
	ret
.LFE9748:
	.size	_ZN3Upp15Callback1ActionIRNS_3BarEED1Ev, .-_ZN3Upp15Callback1ActionIRNS_3BarEED1Ev
	.section	.text._ZN3Upp21Callback1MethodActionI13WorkspaceWorkMS1_FvRNS_3BarEES3_ED1Ev,"axG",@progbits,_ZN3Upp21Callback1MethodActionI13WorkspaceWorkMS1_FvRNS_3BarEES3_ED1Ev,comdat
	.align 2
	.weak	_ZN3Upp21Callback1MethodActionI13WorkspaceWorkMS1_FvRNS_3BarEES3_ED1Ev
	.type	_ZN3Upp21Callback1MethodActionI13WorkspaceWorkMS1_FvRNS_3BarEES3_ED1Ev, @function
_ZN3Upp21Callback1MethodActionI13WorkspaceWorkMS1_FvRNS_3BarEES3_ED1Ev:
.LFB10202:
	pushq	%rbp
.LCFI880:
	movq	%rsp, %rbp
.LCFI881:
	subq	$16, %rsp
.LCFI882:
	movq	%rdi, -8(%rbp)
	movl	$_ZTVN3Upp21Callback1MethodActionI13WorkspaceWorkMS1_FvRNS_3BarEES3_EE+16, %edx
	movq	-8(%rbp), %rax
	movq	%rdx, (%rax)
	movq	-8(%rbp), %rdi
	call	_ZN3Upp15Callback1ActionIRNS_3BarEED2Ev
	movl	$0, %eax
	testb	%al, %al
	je	.L966
	movq	-8(%rbp), %rdi
	call	_ZdlPv
.L966:
	leave
	ret
.LFE10202:
	.size	_ZN3Upp21Callback1MethodActionI13WorkspaceWorkMS1_FvRNS_3BarEES3_ED1Ev, .-_ZN3Upp21Callback1MethodActionI13WorkspaceWorkMS1_FvRNS_3BarEES3_ED1Ev
	.section	.text._ZN3Upp15Callback1ActionINS_6Point_IiEEED2Ev,"axG",@progbits,_ZN3Upp15Callback1ActionINS_6Point_IiEEED2Ev,comdat
	.align 2
	.weak	_ZN3Upp15Callback1ActionINS_6Point_IiEEED2Ev
	.type	_ZN3Upp15Callback1ActionINS_6Point_IiEEED2Ev, @function
_ZN3Upp15Callback1ActionINS_6Point_IiEEED2Ev:
.LFB10030:
	pushq	%rbp
.LCFI883:
	movq	%rsp, %rbp
.LCFI884:
	subq	$16, %rsp
.LCFI885:
	movq	%rdi, -8(%rbp)
	movl	$_ZTVN3Upp15Callback1ActionINS_6Point_IiEEEE+16, %edx
	movq	-8(%rbp), %rax
	movq	%rdx, (%rax)
	movl	$0, %eax
	testb	%al, %al
	je	.L971
	movq	-8(%rbp), %rdi
	call	_ZdlPv
.L971:
	leave
	ret
.LFE10030:
	.size	_ZN3Upp15Callback1ActionINS_6Point_IiEEED2Ev, .-_ZN3Upp15Callback1ActionINS_6Point_IiEEED2Ev
	.section	.text._ZN3Upp21Callback1MethodActionI13WorkspaceWorkMS1_FvNS_6Point_IiEEES3_ED0Ev,"axG",@progbits,_ZN3Upp21Callback1MethodActionI13WorkspaceWorkMS1_FvNS_6Point_IiEEES3_ED0Ev,comdat
	.align 2
	.weak	_ZN3Upp21Callback1MethodActionI13WorkspaceWorkMS1_FvNS_6Point_IiEEES3_ED0Ev
	.type	_ZN3Upp21Callback1MethodActionI13WorkspaceWorkMS1_FvNS_6Point_IiEEES3_ED0Ev, @function
_ZN3Upp21Callback1MethodActionI13WorkspaceWorkMS1_FvNS_6Point_IiEEES3_ED0Ev:
.LFB10179:
	pushq	%rbp
.LCFI886:
	movq	%rsp, %rbp
.LCFI887:
	subq	$16, %rsp
.LCFI888:
	movq	%rdi, -8(%rbp)
	movl	$_ZTVN3Upp21Callback1MethodActionI13WorkspaceWorkMS1_FvNS_6Point_IiEEES3_EE+16, %edx
	movq	-8(%rbp), %rax
	movq	%rdx, (%rax)
	movq	-8(%rbp), %rdi
	call	_ZN3Upp15Callback1ActionINS_6Point_IiEEED2Ev
	movl	$1, %eax
	testb	%al, %al
	je	.L976
	movq	-8(%rbp), %rdi
	call	_ZdlPv
.L976:
	leave
	ret
.LFE10179:
	.size	_ZN3Upp21Callback1MethodActionI13WorkspaceWorkMS1_FvNS_6Point_IiEEES3_ED0Ev, .-_ZN3Upp21Callback1MethodActionI13WorkspaceWorkMS1_FvNS_6Point_IiEEES3_ED0Ev
	.section	.text._ZN3Upp15Callback1ActionINS_6Point_IiEEED0Ev,"axG",@progbits,_ZN3Upp15Callback1ActionINS_6Point_IiEEED0Ev,comdat
	.align 2
	.weak	_ZN3Upp15Callback1ActionINS_6Point_IiEEED0Ev
	.type	_ZN3Upp15Callback1ActionINS_6Point_IiEEED0Ev, @function
_ZN3Upp15Callback1ActionINS_6Point_IiEEED0Ev:
.LFB10032:
	pushq	%rbp
.LCFI889:
	movq	%rsp, %rbp
.LCFI890:
	subq	$16, %rsp
.LCFI891:
	movq	%rdi, -8(%rbp)
	movl	$_ZTVN3Upp15Callback1ActionINS_6Point_IiEEEE+16, %edx
	movq	-8(%rbp), %rax
	movq	%rdx, (%rax)
	movl	$1, %eax
	testb	%al, %al
	je	.L981
	movq	-8(%rbp), %rdi
	call	_ZdlPv
.L981:
	leave
	ret
.LFE10032:
	.size	_ZN3Upp15Callback1ActionINS_6Point_IiEEED0Ev, .-_ZN3Upp15Callback1ActionINS_6Point_IiEEED0Ev
	.section	.text._ZN3Upp15Callback1ActionINS_6Point_IiEEED1Ev,"axG",@progbits,_ZN3Upp15Callback1ActionINS_6Point_IiEEED1Ev,comdat
	.align 2
	.weak	_ZN3Upp15Callback1ActionINS_6Point_IiEEED1Ev
	.type	_ZN3Upp15Callback1ActionINS_6Point_IiEEED1Ev, @function
_ZN3Upp15Callback1ActionINS_6Point_IiEEED1Ev:
.LFB10031:
	pushq	%rbp
.LCFI892:
	movq	%rsp, %rbp
.LCFI893:
	subq	$16, %rsp
.LCFI894:
	movq	%rdi, -8(%rbp)
	movl	$_ZTVN3Upp15Callback1ActionINS_6Point_IiEEEE+16, %edx
	movq	-8(%rbp), %rax
	movq	%rdx, (%rax)
	movl	$0, %eax
	testb	%al, %al
	je	.L986
	movq	-8(%rbp), %rdi
	call	_ZdlPv
.L986:
	leave
	ret
.LFE10031:
	.size	_ZN3Upp15Callback1ActionINS_6Point_IiEEED1Ev, .-_ZN3Upp15Callback1ActionINS_6Point_IiEEED1Ev
	.section	.text._ZN3Upp21Callback1MethodActionI13WorkspaceWorkMS1_FvNS_6Point_IiEEES3_ED1Ev,"axG",@progbits,_ZN3Upp21Callback1MethodActionI13WorkspaceWorkMS1_FvNS_6Point_IiEEES3_ED1Ev,comdat
	.align 2
	.weak	_ZN3Upp21Callback1MethodActionI13WorkspaceWorkMS1_FvNS_6Point_IiEEES3_ED1Ev
	.type	_ZN3Upp21Callback1MethodActionI13WorkspaceWorkMS1_FvNS_6Point_IiEEES3_ED1Ev, @function
_ZN3Upp21Callback1MethodActionI13WorkspaceWorkMS1_FvNS_6Point_IiEEES3_ED1Ev:
.LFB10178:
	pushq	%rbp
.LCFI895:
	movq	%rsp, %rbp
.LCFI896:
	subq	$16, %rsp
.LCFI897:
	movq	%rdi, -8(%rbp)
	movl	$_ZTVN3Upp21Callback1MethodActionI13WorkspaceWorkMS1_FvNS_6Point_IiEEES3_EE+16, %edx
	movq	-8(%rbp), %rax
	movq	%rdx, (%rax)
	movq	-8(%rbp), %rdi
	call	_ZN3Upp15Callback1ActionINS_6Point_IiEEED2Ev
	movl	$0, %eax
	testb	%al, %al
	je	.L991
	movq	-8(%rbp), %rdi
	call	_ZdlPv
.L991:
	leave
	ret
.LFE10178:
	.size	_ZN3Upp21Callback1MethodActionI13WorkspaceWorkMS1_FvNS_6Point_IiEEES3_ED1Ev, .-_ZN3Upp21Callback1MethodActionI13WorkspaceWorkMS1_FvNS_6Point_IiEEES3_ED1Ev
	.section	.text._ZN3Upp14CallbackActionD2Ev,"axG",@progbits,_ZN3Upp14CallbackActionD2Ev,comdat
	.align 2
	.weak	_ZN3Upp14CallbackActionD2Ev
	.type	_ZN3Upp14CallbackActionD2Ev, @function
_ZN3Upp14CallbackActionD2Ev:
.LFB3397:
	pushq	%rbp
.LCFI898:
	movq	%rsp, %rbp
.LCFI899:
	subq	$16, %rsp
.LCFI900:
	movq	%rdi, -8(%rbp)
	movl	$_ZTVN3Upp14CallbackActionE+16, %edx
	movq	-8(%rbp), %rax
	movq	%rdx, (%rax)
	movl	$0, %eax
	testb	%al, %al
	je	.L996
	movq	-8(%rbp), %rdi
	call	_ZdlPv
.L996:
	leave
	ret
.LFE3397:
	.size	_ZN3Upp14CallbackActionD2Ev, .-_ZN3Upp14CallbackActionD2Ev
	.section	.text._ZN3Upp20CallbackMethodActionI13WorkspaceWorkMS1_FvvEED0Ev,"axG",@progbits,_ZN3Upp20CallbackMethodActionI13WorkspaceWorkMS1_FvvEED0Ev,comdat
	.align 2
	.weak	_ZN3Upp20CallbackMethodActionI13WorkspaceWorkMS1_FvvEED0Ev
	.type	_ZN3Upp20CallbackMethodActionI13WorkspaceWorkMS1_FvvEED0Ev, @function
_ZN3Upp20CallbackMethodActionI13WorkspaceWorkMS1_FvvEED0Ev:
.LFB10191:
	pushq	%rbp
.LCFI901:
	movq	%rsp, %rbp
.LCFI902:
	subq	$16, %rsp
.LCFI903:
	movq	%rdi, -8(%rbp)
	movl	$_ZTVN3Upp20CallbackMethodActionI13WorkspaceWorkMS1_FvvEEE+16, %edx
	movq	-8(%rbp), %rax
	movq	%rdx, (%rax)
	movq	-8(%rbp), %rdi
	call	_ZN3Upp14CallbackActionD2Ev
	movl	$1, %eax
	testb	%al, %al
	je	.L1001
	movq	-8(%rbp), %rdi
	call	_ZdlPv
.L1001:
	leave
	ret
.LFE10191:
	.size	_ZN3Upp20CallbackMethodActionI13WorkspaceWorkMS1_FvvEED0Ev, .-_ZN3Upp20CallbackMethodActionI13WorkspaceWorkMS1_FvvEED0Ev
	.section	.text._ZN3Upp14CallbackActionD0Ev,"axG",@progbits,_ZN3Upp14CallbackActionD0Ev,comdat
	.align 2
	.weak	_ZN3Upp14CallbackActionD0Ev
	.type	_ZN3Upp14CallbackActionD0Ev, @function
_ZN3Upp14CallbackActionD0Ev:
.LFB3399:
	pushq	%rbp
.LCFI904:
	movq	%rsp, %rbp
.LCFI905:
	subq	$16, %rsp
.LCFI906:
	movq	%rdi, -8(%rbp)
	movl	$_ZTVN3Upp14CallbackActionE+16, %edx
	movq	-8(%rbp), %rax
	movq	%rdx, (%rax)
	movl	$1, %eax
	testb	%al, %al
	je	.L1006
	movq	-8(%rbp), %rdi
	call	_ZdlPv
.L1006:
	leave
	ret
.LFE3399:
	.size	_ZN3Upp14CallbackActionD0Ev, .-_ZN3Upp14CallbackActionD0Ev
	.section	.text._ZN3Upp14CallbackActionD1Ev,"axG",@progbits,_ZN3Upp14CallbackActionD1Ev,comdat
	.align 2
	.weak	_ZN3Upp14CallbackActionD1Ev
	.type	_ZN3Upp14CallbackActionD1Ev, @function
_ZN3Upp14CallbackActionD1Ev:
.LFB3398:
	pushq	%rbp
.LCFI907:
	movq	%rsp, %rbp
.LCFI908:
	subq	$16, %rsp
.LCFI909:
	movq	%rdi, -8(%rbp)
	movl	$_ZTVN3Upp14CallbackActionE+16, %edx
	movq	-8(%rbp), %rax
	movq	%rdx, (%rax)
	movl	$0, %eax
	testb	%al, %al
	je	.L1011
	movq	-8(%rbp), %rdi
	call	_ZdlPv
.L1011:
	leave
	ret
.LFE3398:
	.size	_ZN3Upp14CallbackActionD1Ev, .-_ZN3Upp14CallbackActionD1Ev
	.section	.text._ZN3Upp20CallbackMethodActionI13WorkspaceWorkMS1_FvvEED1Ev,"axG",@progbits,_ZN3Upp20CallbackMethodActionI13WorkspaceWorkMS1_FvvEED1Ev,comdat
	.align 2
	.weak	_ZN3Upp20CallbackMethodActionI13WorkspaceWorkMS1_FvvEED1Ev
	.type	_ZN3Upp20CallbackMethodActionI13WorkspaceWorkMS1_FvvEED1Ev, @function
_ZN3Upp20CallbackMethodActionI13WorkspaceWorkMS1_FvvEED1Ev:
.LFB10190:
	pushq	%rbp
.LCFI910:
	movq	%rsp, %rbp
.LCFI911:
	subq	$16, %rsp
.LCFI912:
	movq	%rdi, -8(%rbp)
	movl	$_ZTVN3Upp20CallbackMethodActionI13WorkspaceWorkMS1_FvvEEE+16, %edx
	movq	-8(%rbp), %rax
	movq	%rdx, (%rax)
	movq	-8(%rbp), %rdi
	call	_ZN3Upp14CallbackActionD2Ev
	movl	$0, %eax
	testb	%al, %al
	je	.L1016
	movq	-8(%rbp), %rdi
	call	_ZdlPv
.L1016:
	leave
	ret
.LFE10190:
	.size	_ZN3Upp20CallbackMethodActionI13WorkspaceWorkMS1_FvvEED1Ev, .-_ZN3Upp20CallbackMethodActionI13WorkspaceWorkMS1_FvvEED1Ev
	.section	.text._ZN3Upp5ArrayI7OptItemE3DelEPPvS4_,"axG",@progbits,_ZN3Upp5ArrayI7OptItemE3DelEPPvS4_,comdat
	.align 2
	.weak	_ZN3Upp5ArrayI7OptItemE3DelEPPvS4_
	.type	_ZN3Upp5ArrayI7OptItemE3DelEPPvS4_, @function
_ZN3Upp5ArrayI7OptItemE3DelEPPvS4_:
.LFB9617:
	pushq	%rbp
.LCFI913:
	movq	%rsp, %rbp
.LCFI914:
	subq	$32, %rsp
.LCFI915:
	movq	%rdi, -8(%rbp)
	movq	%rsi, -16(%rbp)
	movq	%rdx, -24(%rbp)
	jmp	.L1023
.L1019:
	movq	-16(%rbp), %rax
	movq	(%rax), %rax
	movq	%rax, -32(%rbp)
	cmpq	$0, -32(%rbp)
	setne	%al
	addq	$8, -16(%rbp)
	testb	%al, %al
	je	.L1018
	movq	-32(%rbp), %rdi
	call	_ZN7OptItemD1Ev
	movq	-32(%rbp), %rdi
	call	_ZdlPv
.L1018:
.L1023:
	movq	-16(%rbp), %rax
	cmpq	-24(%rbp), %rax
	jb	.L1019
	leave
	ret
.LFE9617:
	.size	_ZN3Upp5ArrayI7OptItemE3DelEPPvS4_, .-_ZN3Upp5ArrayI7OptItemE3DelEPPvS4_
	.section	.text._ZN3Upp23CallbackMethodActionArgI13WorkspaceWorkMS1_FvNS_6StringEES2_ED0Ev,"axG",@progbits,_ZN3Upp23CallbackMethodActionArgI13WorkspaceWorkMS1_FvNS_6StringEES2_ED0Ev,comdat
	.align 2
	.weak	_ZN3Upp23CallbackMethodActionArgI13WorkspaceWorkMS1_FvNS_6StringEES2_ED0Ev
	.type	_ZN3Upp23CallbackMethodActionArgI13WorkspaceWorkMS1_FvNS_6StringEES2_ED0Ev, @function
_ZN3Upp23CallbackMethodActionArgI13WorkspaceWorkMS1_FvNS_6StringEES2_ED0Ev:
.LFB10183:
	pushq	%rbp
.LCFI916:
	movq	%rsp, %rbp
.LCFI917:
	subq	$16, %rsp
.LCFI918:
	movq	%rdi, -8(%rbp)
	movl	$_ZTVN3Upp23CallbackMethodActionArgI13WorkspaceWorkMS1_FvNS_6StringEES2_EE+16, %edx
	movq	-8(%rbp), %rax
	movq	%rdx, (%rax)
	movq	-8(%rbp), %rdi
	addq	$40, %rdi
	call	_ZN3Upp6StringD1Ev
	movq	-8(%rbp), %rdi
	call	_ZN3Upp14CallbackActionD2Ev
	movl	$1, %eax
	testb	%al, %al
	je	.L1028
	movq	-8(%rbp), %rdi
	call	_ZdlPv
.L1028:
	leave
	ret
.LFE10183:
	.size	_ZN3Upp23CallbackMethodActionArgI13WorkspaceWorkMS1_FvNS_6StringEES2_ED0Ev, .-_ZN3Upp23CallbackMethodActionArgI13WorkspaceWorkMS1_FvNS_6StringEES2_ED0Ev
	.section	.text._ZN3Upp23CallbackMethodActionArgI13WorkspaceWorkMS1_FvNS_6StringEES2_ED1Ev,"axG",@progbits,_ZN3Upp23CallbackMethodActionArgI13WorkspaceWorkMS1_FvNS_6StringEES2_ED1Ev,comdat
	.align 2
	.weak	_ZN3Upp23CallbackMethodActionArgI13WorkspaceWorkMS1_FvNS_6StringEES2_ED1Ev
	.type	_ZN3Upp23CallbackMethodActionArgI13WorkspaceWorkMS1_FvNS_6StringEES2_ED1Ev, @function
_ZN3Upp23CallbackMethodActionArgI13WorkspaceWorkMS1_FvNS_6StringEES2_ED1Ev:
.LFB10182:
	pushq	%rbp
.LCFI919:
	movq	%rsp, %rbp
.LCFI920:
	subq	$16, %rsp
.LCFI921:
	movq	%rdi, -8(%rbp)
	movl	$_ZTVN3Upp23CallbackMethodActionArgI13WorkspaceWorkMS1_FvNS_6StringEES2_EE+16, %edx
	movq	-8(%rbp), %rax
	movq	%rdx, (%rax)
	movq	-8(%rbp), %rdi
	addq	$40, %rdi
	call	_ZN3Upp6StringD1Ev
	movq	-8(%rbp), %rdi
	call	_ZN3Upp14CallbackActionD2Ev
	movl	$0, %eax
	testb	%al, %al
	je	.L1033
	movq	-8(%rbp), %rdi
	call	_ZdlPv
.L1033:
	leave
	ret
.LFE10182:
	.size	_ZN3Upp23CallbackMethodActionArgI13WorkspaceWorkMS1_FvNS_6StringEES2_ED1Ev, .-_ZN3Upp23CallbackMethodActionArgI13WorkspaceWorkMS1_FvNS_6StringEES2_ED1Ev
	.section	.text._ZN3Upp23CallbackMethodActionArgI13WorkspaceWorkMS1_FvNS1_7ADDFILEEES2_ED0Ev,"axG",@progbits,_ZN3Upp23CallbackMethodActionArgI13WorkspaceWorkMS1_FvNS1_7ADDFILEEES2_ED0Ev,comdat
	.align 2
	.weak	_ZN3Upp23CallbackMethodActionArgI13WorkspaceWorkMS1_FvNS1_7ADDFILEEES2_ED0Ev
	.type	_ZN3Upp23CallbackMethodActionArgI13WorkspaceWorkMS1_FvNS1_7ADDFILEEES2_ED0Ev, @function
_ZN3Upp23CallbackMethodActionArgI13WorkspaceWorkMS1_FvNS1_7ADDFILEEES2_ED0Ev:
.LFB10195:
	pushq	%rbp
.LCFI922:
	movq	%rsp, %rbp
.LCFI923:
	subq	$16, %rsp
.LCFI924:
	movq	%rdi, -8(%rbp)
	movl	$_ZTVN3Upp23CallbackMethodActionArgI13WorkspaceWorkMS1_FvNS1_7ADDFILEEES2_EE+16, %edx
	movq	-8(%rbp), %rax
	movq	%rdx, (%rax)
	movq	-8(%rbp), %rdi
	call	_ZN3Upp14CallbackActionD2Ev
	movl	$1, %eax
	testb	%al, %al
	je	.L1038
	movq	-8(%rbp), %rdi
	call	_ZdlPv
.L1038:
	leave
	ret
.LFE10195:
	.size	_ZN3Upp23CallbackMethodActionArgI13WorkspaceWorkMS1_FvNS1_7ADDFILEEES2_ED0Ev, .-_ZN3Upp23CallbackMethodActionArgI13WorkspaceWorkMS1_FvNS1_7ADDFILEEES2_ED0Ev
	.section	.text._ZN3Upp23CallbackMethodActionArgI13WorkspaceWorkMS1_FvNS1_7ADDFILEEES2_ED1Ev,"axG",@progbits,_ZN3Upp23CallbackMethodActionArgI13WorkspaceWorkMS1_FvNS1_7ADDFILEEES2_ED1Ev,comdat
	.align 2
	.weak	_ZN3Upp23CallbackMethodActionArgI13WorkspaceWorkMS1_FvNS1_7ADDFILEEES2_ED1Ev
	.type	_ZN3Upp23CallbackMethodActionArgI13WorkspaceWorkMS1_FvNS1_7ADDFILEEES2_ED1Ev, @function
_ZN3Upp23CallbackMethodActionArgI13WorkspaceWorkMS1_FvNS1_7ADDFILEEES2_ED1Ev:
.LFB10194:
	pushq	%rbp
.LCFI925:
	movq	%rsp, %rbp
.LCFI926:
	subq	$16, %rsp
.LCFI927:
	movq	%rdi, -8(%rbp)
	movl	$_ZTVN3Upp23CallbackMethodActionArgI13WorkspaceWorkMS1_FvNS1_7ADDFILEEES2_EE+16, %edx
	movq	-8(%rbp), %rax
	movq	%rdx, (%rax)
	movq	-8(%rbp), %rdi
	call	_ZN3Upp14CallbackActionD2Ev
	movl	$0, %eax
	testb	%al, %al
	je	.L1043
	movq	-8(%rbp), %rdi
	call	_ZdlPv
.L1043:
	leave
	ret
.LFE10194:
	.size	_ZN3Upp23CallbackMethodActionArgI13WorkspaceWorkMS1_FvNS1_7ADDFILEEES2_ED1Ev, .-_ZN3Upp23CallbackMethodActionArgI13WorkspaceWorkMS1_FvNS1_7ADDFILEEES2_ED1Ev
	.section	.text._ZN3Upp23CallbackMethodActionArgI13WorkspaceWorkMS1_FviEiED0Ev,"axG",@progbits,_ZN3Upp23CallbackMethodActionArgI13WorkspaceWorkMS1_FviEiED0Ev,comdat
	.align 2
	.weak	_ZN3Upp23CallbackMethodActionArgI13WorkspaceWorkMS1_FviEiED0Ev
	.type	_ZN3Upp23CallbackMethodActionArgI13WorkspaceWorkMS1_FviEiED0Ev, @function
_ZN3Upp23CallbackMethodActionArgI13WorkspaceWorkMS1_FviEiED0Ev:
.LFB10187:
	pushq	%rbp
.LCFI928:
	movq	%rsp, %rbp
.LCFI929:
	subq	$16, %rsp
.LCFI930:
	movq	%rdi, -8(%rbp)
	movl	$_ZTVN3Upp23CallbackMethodActionArgI13WorkspaceWorkMS1_FviEiEE+16, %edx
	movq	-8(%rbp), %rax
	movq	%rdx, (%rax)
	movq	-8(%rbp), %rdi
	call	_ZN3Upp14CallbackActionD2Ev
	movl	$1, %eax
	testb	%al, %al
	je	.L1048
	movq	-8(%rbp), %rdi
	call	_ZdlPv
.L1048:
	leave
	ret
.LFE10187:
	.size	_ZN3Upp23CallbackMethodActionArgI13WorkspaceWorkMS1_FviEiED0Ev, .-_ZN3Upp23CallbackMethodActionArgI13WorkspaceWorkMS1_FviEiED0Ev
	.section	.text._ZN3Upp23CallbackMethodActionArgI13WorkspaceWorkMS1_FviEiED1Ev,"axG",@progbits,_ZN3Upp23CallbackMethodActionArgI13WorkspaceWorkMS1_FviEiED1Ev,comdat
	.align 2
	.weak	_ZN3Upp23CallbackMethodActionArgI13WorkspaceWorkMS1_FviEiED1Ev
	.type	_ZN3Upp23CallbackMethodActionArgI13WorkspaceWorkMS1_FviEiED1Ev, @function
_ZN3Upp23CallbackMethodActionArgI13WorkspaceWorkMS1_FviEiED1Ev:
.LFB10186:
	pushq	%rbp
.LCFI931:
	movq	%rsp, %rbp
.LCFI932:
	subq	$16, %rsp
.LCFI933:
	movq	%rdi, -8(%rbp)
	movl	$_ZTVN3Upp23CallbackMethodActionArgI13WorkspaceWorkMS1_FviEiEE+16, %edx
	movq	-8(%rbp), %rax
	movq	%rdx, (%rax)
	movq	-8(%rbp), %rdi
	call	_ZN3Upp14CallbackActionD2Ev
	movl	$0, %eax
	testb	%al, %al
	je	.L1053
	movq	-8(%rbp), %rdi
	call	_ZdlPv
.L1053:
	leave
	ret
.LFE10186:
	.size	_ZN3Upp23CallbackMethodActionArgI13WorkspaceWorkMS1_FviEiED1Ev, .-_ZN3Upp23CallbackMethodActionArgI13WorkspaceWorkMS1_FviEiED1Ev
	.section	.text._ZN3Upp5ArrayIN7Package4FileEE3DelEPPvS5_,"axG",@progbits,_ZN3Upp5ArrayIN7Package4FileEE3DelEPPvS5_,comdat
	.align 2
	.weak	_ZN3Upp5ArrayIN7Package4FileEE3DelEPPvS5_
	.type	_ZN3Upp5ArrayIN7Package4FileEE3DelEPPvS5_, @function
_ZN3Upp5ArrayIN7Package4FileEE3DelEPPvS5_:
.LFB9595:
	pushq	%rbp
.LCFI934:
	movq	%rsp, %rbp
.LCFI935:
	subq	$32, %rsp
.LCFI936:
	movq	%rdi, -8(%rbp)
	movq	%rsi, -16(%rbp)
	movq	%rdx, -24(%rbp)
	jmp	.L1060
.L1056:
	movq	-16(%rbp), %rax
	movq	(%rax), %rax
	movq	%rax, -32(%rbp)
	cmpq	$0, -32(%rbp)
	setne	%al
	addq	$8, -16(%rbp)
	testb	%al, %al
	je	.L1055
	movq	-32(%rbp), %rdi
	call	_ZN7Package4FileD1Ev
	movq	-32(%rbp), %rdi
	call	_ZdlPv
.L1055:
.L1060:
	movq	-16(%rbp), %rax
	cmpq	-24(%rbp), %rax
	jb	.L1056
	leave
	ret
.LFE9595:
	.size	_ZN3Upp5ArrayIN7Package4FileEE3DelEPPvS5_, .-_ZN3Upp5ArrayIN7Package4FileEE3DelEPPvS5_
	.section	.text._ZN3Upp7ConvertD2Ev,"axG",@progbits,_ZN3Upp7ConvertD2Ev,comdat
	.align 2
	.weak	_ZN3Upp7ConvertD2Ev
	.type	_ZN3Upp7ConvertD2Ev, @function
_ZN3Upp7ConvertD2Ev:
.LFB3876:
	pushq	%rbp
.LCFI937:
	movq	%rsp, %rbp
.LCFI938:
	subq	$16, %rsp
.LCFI939:
	movq	%rdi, -8(%rbp)
	movl	$_ZTVN3Upp7ConvertE+16, %edx
	movq	-8(%rbp), %rax
	movq	%rdx, (%rax)
	movl	$0, %eax
	testb	%al, %al
	je	.L1065
	movq	-8(%rbp), %rdi
	call	_ZdlPv
.L1065:
	leave
	ret
.LFE3876:
	.size	_ZN3Upp7ConvertD2Ev, .-_ZN3Upp7ConvertD2Ev
	.section	.text._ZN3Upp13ConvertStringD2Ev,"axG",@progbits,_ZN3Upp13ConvertStringD2Ev,comdat
	.align 2
	.weak	_ZN3Upp13ConvertStringD2Ev
	.type	_ZN3Upp13ConvertStringD2Ev, @function
_ZN3Upp13ConvertStringD2Ev:
.LFB5670:
	pushq	%rbp
.LCFI940:
	movq	%rsp, %rbp
.LCFI941:
	subq	$16, %rsp
.LCFI942:
	movq	%rdi, -8(%rbp)
	movl	$_ZTVN3Upp13ConvertStringE+16, %edx
	movq	-8(%rbp), %rax
	movq	%rdx, (%rax)
	movq	-8(%rbp), %rdi
	call	_ZN3Upp7ConvertD2Ev
	movl	$0, %eax
	testb	%al, %al
	je	.L1070
	movq	-8(%rbp), %rdi
	call	_ZdlPv
.L1070:
	leave
	ret
.LFE5670:
	.size	_ZN3Upp13ConvertStringD2Ev, .-_ZN3Upp13ConvertStringD2Ev
	.section	.text._ZN3Upp20CallbackMethodActionI3TppMS1_FvvEED0Ev,"axG",@progbits,_ZN3Upp20CallbackMethodActionI3TppMS1_FvvEED0Ev,comdat
	.align 2
	.weak	_ZN3Upp20CallbackMethodActionI3TppMS1_FvvEED0Ev
	.type	_ZN3Upp20CallbackMethodActionI3TppMS1_FvvEED0Ev, @function
_ZN3Upp20CallbackMethodActionI3TppMS1_FvvEED0Ev:
.LFB10199:
	pushq	%rbp
.LCFI943:
	movq	%rsp, %rbp
.LCFI944:
	subq	$16, %rsp
.LCFI945:
	movq	%rdi, -8(%rbp)
	movl	$_ZTVN3Upp20CallbackMethodActionI3TppMS1_FvvEEE+16, %edx
	movq	-8(%rbp), %rax
	movq	%rdx, (%rax)
	movq	-8(%rbp), %rdi
	call	_ZN3Upp14CallbackActionD2Ev
	movl	$1, %eax
	testb	%al, %al
	je	.L1075
	movq	-8(%rbp), %rdi
	call	_ZdlPv
.L1075:
	leave
	ret
.LFE10199:
	.size	_ZN3Upp20CallbackMethodActionI3TppMS1_FvvEED0Ev, .-_ZN3Upp20CallbackMethodActionI3TppMS1_FvvEED0Ev
	.section	.text._ZN3Upp20CallbackMethodActionI3TppMS1_FvvEED1Ev,"axG",@progbits,_ZN3Upp20CallbackMethodActionI3TppMS1_FvvEED1Ev,comdat
	.align 2
	.weak	_ZN3Upp20CallbackMethodActionI3TppMS1_FvvEED1Ev
	.type	_ZN3Upp20CallbackMethodActionI3TppMS1_FvvEED1Ev, @function
_ZN3Upp20CallbackMethodActionI3TppMS1_FvvEED1Ev:
.LFB10198:
	pushq	%rbp
.LCFI946:
	movq	%rsp, %rbp
.LCFI947:
	subq	$16, %rsp
.LCFI948:
	movq	%rdi, -8(%rbp)
	movl	$_ZTVN3Upp20CallbackMethodActionI3TppMS1_FvvEEE+16, %edx
	movq	-8(%rbp), %rax
	movq	%rdx, (%rax)
	movq	-8(%rbp), %rdi
	call	_ZN3Upp14CallbackActionD2Ev
	movl	$0, %eax
	testb	%al, %al
	je	.L1080
	movq	-8(%rbp), %rdi
	call	_ZdlPv
.L1080:
	leave
	ret
.LFE10198:
	.size	_ZN3Upp20CallbackMethodActionI3TppMS1_FvvEED1Ev, .-_ZN3Upp20CallbackMethodActionI3TppMS1_FvvEED1Ev
	.section	.text._ZN3Upp6AIndexINS_6StringENS_6VectorIS1_EENS_7StdHashIS1_EEEC2Ev,"axG",@progbits,_ZN3Upp6AIndexINS_6StringENS_6VectorIS1_EENS_7StdHashIS1_EEEC2Ev,comdat
	.align 2
	.weak	_ZN3Upp6AIndexINS_6StringENS_6VectorIS1_EENS_7StdHashIS1_EEEC2Ev
	.type	_ZN3Upp6AIndexINS_6StringENS_6VectorIS1_EENS_7StdHashIS1_EEEC2Ev, @function
_ZN3Upp6AIndexINS_6StringENS_6VectorIS1_EENS_7StdHashIS1_EEEC2Ev:
.LFB9420:
	pushq	%rbp
.LCFI949:
	movq	%rsp, %rbp
.LCFI950:
	pushq	%rbx
.LCFI951:
	subq	$24, %rsp
.LCFI952:
	movq	%rdi, -16(%rbp)
	movq	-16(%rbp), %rdi
	call	_ZN3Upp6VectorINS_6StringEEC1Ev
	movq	-16(%rbp), %rdi
	addq	$16, %rdi
.LEHB42:
	call	_ZN3Upp8HashBaseC1Ev
.LEHE42:
	jmp	.L1083
.L1084:
	movq	%rax, -24(%rbp)
.L1082:
	movq	-24(%rbp), %rbx
	movq	-16(%rbp), %rdi
	call	_ZN3Upp6VectorINS_6StringEED1Ev
	movq	%rbx, -24(%rbp)
	movq	-24(%rbp), %rdi
.LEHB43:
	call	_Unwind_Resume
.LEHE43:
.L1083:
	addq	$24, %rsp
	popq	%rbx
	leave
	ret
.LFE9420:
	.size	_ZN3Upp6AIndexINS_6StringENS_6VectorIS1_EENS_7StdHashIS1_EEEC2Ev, .-_ZN3Upp6AIndexINS_6StringENS_6VectorIS1_EENS_7StdHashIS1_EEEC2Ev
	.section	.gcc_except_table
.LLSDA9420:
	.byte	0xff
	.byte	0xff
	.byte	0x1
	.uleb128 .LLSDACSE9420-.LLSDACSB9420
.LLSDACSB9420:
	.uleb128 .LEHB42-.LFB9420
	.uleb128 .LEHE42-.LEHB42
	.uleb128 .L1084-.LFB9420
	.uleb128 0x0
	.uleb128 .LEHB43-.LFB9420
	.uleb128 .LEHE43-.LEHB43
	.uleb128 0x0
	.uleb128 0x0
.LLSDACSE9420:
	.section	.text._ZN3Upp6AIndexINS_6StringENS_6VectorIS1_EENS_7StdHashIS1_EEEC2Ev,"axG",@progbits,_ZN3Upp6AIndexINS_6StringENS_6VectorIS1_EENS_7StdHashIS1_EEEC2Ev,comdat
	.section	.text._ZN3Upp5IndexINS_6StringENS_7StdHashIS1_EEEC1Ev,"axG",@progbits,_ZN3Upp5IndexINS_6StringENS_7StdHashIS1_EEEC1Ev,comdat
	.align 2
	.weak	_ZN3Upp5IndexINS_6StringENS_7StdHashIS1_EEEC1Ev
	.type	_ZN3Upp5IndexINS_6StringENS_7StdHashIS1_EEEC1Ev, @function
_ZN3Upp5IndexINS_6StringENS_7StdHashIS1_EEEC1Ev:
.LFB8701:
	pushq	%rbp
.LCFI953:
	movq	%rsp, %rbp
.LCFI954:
	subq	$16, %rsp
.LCFI955:
	movq	%rdi, -8(%rbp)
	movq	-8(%rbp), %rdi
	call	_ZN3Upp25MoveableAndDeepCopyOptionINS_5IndexINS_6StringENS_7StdHashIS2_EEEENS_10EmptyClassEEC2Ev
	movq	-8(%rbp), %rdi
	addq	$8, %rdi
	call	_ZN3Upp6AIndexINS_6StringENS_6VectorIS1_EENS_7StdHashIS1_EEEC2Ev
	leave
	ret
.LFE8701:
	.size	_ZN3Upp5IndexINS_6StringENS_7StdHashIS1_EEEC1Ev, .-_ZN3Upp5IndexINS_6StringENS_7StdHashIS1_EEEC1Ev
	.section	.text._ZN3Upp4AMapINS_6StringE7PackageNS_5ArrayIS2_EENS_7StdHashIS1_EEEC2Ev,"axG",@progbits,_ZN3Upp4AMapINS_6StringE7PackageNS_5ArrayIS2_EENS_7StdHashIS1_EEEC2Ev,comdat
	.align 2
	.weak	_ZN3Upp4AMapINS_6StringE7PackageNS_5ArrayIS2_EENS_7StdHashIS1_EEEC2Ev
	.type	_ZN3Upp4AMapINS_6StringE7PackageNS_5ArrayIS2_EENS_7StdHashIS1_EEEC2Ev, @function
_ZN3Upp4AMapINS_6StringE7PackageNS_5ArrayIS2_EENS_7StdHashIS1_EEEC2Ev:
.LFB9568:
	pushq	%rbp
.LCFI956:
	movq	%rsp, %rbp
.LCFI957:
	subq	$16, %rsp
.LCFI958:
	movq	%rdi, -8(%rbp)
	movq	-8(%rbp), %rdi
	call	_ZN3Upp5IndexINS_6StringENS_7StdHashIS1_EEEC1Ev
	movq	-8(%rbp), %rdi
	addq	$88, %rdi
	call	_ZN3Upp5ArrayI7PackageEC1Ev
	leave
	ret
.LFE9568:
	.size	_ZN3Upp4AMapINS_6StringE7PackageNS_5ArrayIS2_EENS_7StdHashIS1_EEEC2Ev, .-_ZN3Upp4AMapINS_6StringE7PackageNS_5ArrayIS2_EENS_7StdHashIS1_EEEC2Ev
	.section	.text._ZN3Upp8ArrayMapINS_6StringE7PackageNS_7StdHashIS1_EEEC1Ev,"axG",@progbits,_ZN3Upp8ArrayMapINS_6StringE7PackageNS_7StdHashIS1_EEEC1Ev,comdat
	.align 2
	.weak	_ZN3Upp8ArrayMapINS_6StringE7PackageNS_7StdHashIS1_EEEC1Ev
	.type	_ZN3Upp8ArrayMapINS_6StringE7PackageNS_7StdHashIS1_EEEC1Ev, @function
_ZN3Upp8ArrayMapINS_6StringE7PackageNS_7StdHashIS1_EEEC1Ev:
.LFB9001:
	pushq	%rbp
.LCFI959:
	movq	%rsp, %rbp
.LCFI960:
	subq	$16, %rsp
.LCFI961:
	movq	%rdi, -8(%rbp)
	movq	-8(%rbp), %rdi
	call	_ZN3Upp25MoveableAndDeepCopyOptionINS_8ArrayMapINS_6StringE7PackageNS_7StdHashIS2_EEEENS_10EmptyClassEEC2Ev
	movq	-8(%rbp), %rdi
	addq	$8, %rdi
	call	_ZN3Upp4AMapINS_6StringE7PackageNS_5ArrayIS2_EENS_7StdHashIS1_EEEC2Ev
	leave
	ret
.LFE9001:
	.size	_ZN3Upp8ArrayMapINS_6StringE7PackageNS_7StdHashIS1_EEEC1Ev, .-_ZN3Upp8ArrayMapINS_6StringE7PackageNS_7StdHashIS1_EEEC1Ev
	.section	.text._ZN9WorkspaceC1Ev,"axG",@progbits,_ZN9WorkspaceC1Ev,comdat
	.align 2
	.weak	_ZN9WorkspaceC1Ev
	.type	_ZN9WorkspaceC1Ev, @function
_ZN9WorkspaceC1Ev:
.LFB7916:
	pushq	%rbp
.LCFI962:
	movq	%rsp, %rbp
.LCFI963:
	subq	$16, %rsp
.LCFI964:
	movq	%rdi, -8(%rbp)
	movq	-8(%rbp), %rdi
	call	_ZN3Upp8ArrayMapINS_6StringE7PackageNS_7StdHashIS1_EEEC1Ev
	leave
	ret
.LFE7916:
	.size	_ZN9WorkspaceC1Ev, .-_ZN9WorkspaceC1Ev
	.section	.text._ZN3Upp4AMapINS_6StringEN13WorkspaceWork6BackupENS_5ArrayIS3_EENS_7StdHashIS1_EEEC2Ev,"axG",@progbits,_ZN3Upp4AMapINS_6StringEN13WorkspaceWork6BackupENS_5ArrayIS3_EENS_7StdHashIS1_EEEC2Ev,comdat
	.align 2
	.weak	_ZN3Upp4AMapINS_6StringEN13WorkspaceWork6BackupENS_5ArrayIS3_EENS_7StdHashIS1_EEEC2Ev
	.type	_ZN3Upp4AMapINS_6StringEN13WorkspaceWork6BackupENS_5ArrayIS3_EENS_7StdHashIS1_EEEC2Ev, @function
_ZN3Upp4AMapINS_6StringEN13WorkspaceWork6BackupENS_5ArrayIS3_EENS_7StdHashIS1_EEEC2Ev:
.LFB9622:
	pushq	%rbp
.LCFI965:
	movq	%rsp, %rbp
.LCFI966:
	subq	$16, %rsp
.LCFI967:
	movq	%rdi, -8(%rbp)
	movq	-8(%rbp), %rdi
	call	_ZN3Upp5IndexINS_6StringENS_7StdHashIS1_EEEC1Ev
	movq	-8(%rbp), %rdi
	addq	$88, %rdi
	call	_ZN3Upp5ArrayIN13WorkspaceWork6BackupEEC1Ev
	leave
	ret
.LFE9622:
	.size	_ZN3Upp4AMapINS_6StringEN13WorkspaceWork6BackupENS_5ArrayIS3_EENS_7StdHashIS1_EEEC2Ev, .-_ZN3Upp4AMapINS_6StringEN13WorkspaceWork6BackupENS_5ArrayIS3_EENS_7StdHashIS1_EEEC2Ev
	.section	.text._ZN3Upp8ArrayMapINS_6StringEN13WorkspaceWork6BackupENS_7StdHashIS1_EEEC1Ev,"axG",@progbits,_ZN3Upp8ArrayMapINS_6StringEN13WorkspaceWork6BackupENS_7StdHashIS1_EEEC1Ev,comdat
	.align 2
	.weak	_ZN3Upp8ArrayMapINS_6StringEN13WorkspaceWork6BackupENS_7StdHashIS1_EEEC1Ev
	.type	_ZN3Upp8ArrayMapINS_6StringEN13WorkspaceWork6BackupENS_7StdHashIS1_EEEC1Ev, @function
_ZN3Upp8ArrayMapINS_6StringEN13WorkspaceWork6BackupENS_7StdHashIS1_EEEC1Ev:
.LFB9060:
	pushq	%rbp
.LCFI968:
	movq	%rsp, %rbp
.LCFI969:
	subq	$16, %rsp
.LCFI970:
	movq	%rdi, -8(%rbp)
	movq	-8(%rbp), %rdi
	call	_ZN3Upp25MoveableAndDeepCopyOptionINS_8ArrayMapINS_6StringEN13WorkspaceWork6BackupENS_7StdHashIS2_EEEENS_10EmptyClassEEC2Ev
	movq	-8(%rbp), %rdi
	addq	$8, %rdi
	call	_ZN3Upp4AMapINS_6StringEN13WorkspaceWork6BackupENS_5ArrayIS3_EENS_7StdHashIS1_EEEC2Ev
	leave
	ret
.LFE9060:
	.size	_ZN3Upp8ArrayMapINS_6StringEN13WorkspaceWork6BackupENS_7StdHashIS1_EEEC1Ev, .-_ZN3Upp8ArrayMapINS_6StringEN13WorkspaceWork6BackupENS_7StdHashIS1_EEEC1Ev
	.section	.text._ZN3Upp6AIndexIN13WorkspaceWork5SepfoENS_6VectorIS2_EENS_7StdHashIS2_EEEC2Ev,"axG",@progbits,_ZN3Upp6AIndexIN13WorkspaceWork5SepfoENS_6VectorIS2_EENS_7StdHashIS2_EEEC2Ev,comdat
	.align 2
	.weak	_ZN3Upp6AIndexIN13WorkspaceWork5SepfoENS_6VectorIS2_EENS_7StdHashIS2_EEEC2Ev
	.type	_ZN3Upp6AIndexIN13WorkspaceWork5SepfoENS_6VectorIS2_EENS_7StdHashIS2_EEEC2Ev, @function
_ZN3Upp6AIndexIN13WorkspaceWork5SepfoENS_6VectorIS2_EENS_7StdHashIS2_EEEC2Ev:
.LFB9619:
	pushq	%rbp
.LCFI971:
	movq	%rsp, %rbp
.LCFI972:
	pushq	%rbx
.LCFI973:
	subq	$24, %rsp
.LCFI974:
	movq	%rdi, -16(%rbp)
	movq	-16(%rbp), %rdi
	call	_ZN3Upp6VectorIN13WorkspaceWork5SepfoEEC1Ev
	movq	-16(%rbp), %rdi
	addq	$16, %rdi
.LEHB44:
	call	_ZN3Upp8HashBaseC1Ev
.LEHE44:
	jmp	.L1099
.L1100:
	movq	%rax, -24(%rbp)
.L1098:
	movq	-24(%rbp), %rbx
	movq	-16(%rbp), %rdi
	call	_ZN3Upp6VectorIN13WorkspaceWork5SepfoEED1Ev
	movq	%rbx, -24(%rbp)
	movq	-24(%rbp), %rdi
.LEHB45:
	call	_Unwind_Resume
.LEHE45:
.L1099:
	addq	$24, %rsp
	popq	%rbx
	leave
	ret
.LFE9619:
	.size	_ZN3Upp6AIndexIN13WorkspaceWork5SepfoENS_6VectorIS2_EENS_7StdHashIS2_EEEC2Ev, .-_ZN3Upp6AIndexIN13WorkspaceWork5SepfoENS_6VectorIS2_EENS_7StdHashIS2_EEEC2Ev
	.section	.gcc_except_table
.LLSDA9619:
	.byte	0xff
	.byte	0xff
	.byte	0x1
	.uleb128 .LLSDACSE9619-.LLSDACSB9619
.LLSDACSB9619:
	.uleb128 .LEHB44-.LFB9619
	.uleb128 .LEHE44-.LEHB44
	.uleb128 .L1100-.LFB9619
	.uleb128 0x0
	.uleb128 .LEHB45-.LFB9619
	.uleb128 .LEHE45-.LEHB45
	.uleb128 0x0
	.uleb128 0x0
.LLSDACSE9619:
	.section	.text._ZN3Upp6AIndexIN13WorkspaceWork5SepfoENS_6VectorIS2_EENS_7StdHashIS2_EEEC2Ev,"axG",@progbits,_ZN3Upp6AIndexIN13WorkspaceWork5SepfoENS_6VectorIS2_EENS_7StdHashIS2_EEEC2Ev,comdat
	.section	.text._ZN3Upp5IndexIN13WorkspaceWork5SepfoENS_7StdHashIS2_EEEC1Ev,"axG",@progbits,_ZN3Upp5IndexIN13WorkspaceWork5SepfoENS_7StdHashIS2_EEEC1Ev,comdat
	.align 2
	.weak	_ZN3Upp5IndexIN13WorkspaceWork5SepfoENS_7StdHashIS2_EEEC1Ev
	.type	_ZN3Upp5IndexIN13WorkspaceWork5SepfoENS_7StdHashIS2_EEEC1Ev, @function
_ZN3Upp5IndexIN13WorkspaceWork5SepfoENS_7StdHashIS2_EEEC1Ev:
.LFB9054:
	pushq	%rbp
.LCFI975:
	movq	%rsp, %rbp
.LCFI976:
	subq	$16, %rsp
.LCFI977:
	movq	%rdi, -8(%rbp)
	movq	-8(%rbp), %rdi
	call	_ZN3Upp25MoveableAndDeepCopyOptionINS_5IndexIN13WorkspaceWork5SepfoENS_7StdHashIS3_EEEENS_10EmptyClassEEC2Ev
	movq	-8(%rbp), %rdi
	addq	$8, %rdi
	call	_ZN3Upp6AIndexIN13WorkspaceWork5SepfoENS_6VectorIS2_EENS_7StdHashIS2_EEEC2Ev
	leave
	ret
.LFE9054:
	.size	_ZN3Upp5IndexIN13WorkspaceWork5SepfoENS_7StdHashIS2_EEEC1Ev, .-_ZN3Upp5IndexIN13WorkspaceWork5SepfoENS_7StdHashIS2_EEEC1Ev
	.section	.text._ZN3Upp7String03SetERKS0_,"axG",@progbits,_ZN3Upp7String03SetERKS0_,comdat
	.align 2
	.weak	_ZN3Upp7String03SetERKS0_
	.type	_ZN3Upp7String03SetERKS0_, @function
_ZN3Upp7String03SetERKS0_:
.LFB1242:
	pushq	%rbp
.LCFI978:
	movq	%rsp, %rbp
.LCFI979:
	subq	$16, %rsp
.LCFI980:
	movq	%rdi, -8(%rbp)
	movq	%rsi, -16(%rbp)
	movq	-16(%rbp), %rdi
	call	_ZNK3Upp7String07IsSmallEv
	testb	%al, %al
	je	.L1104
	movq	-16(%rbp), %rax
	movq	(%rax), %rdx
	movq	-8(%rbp), %rax
	movq	%rdx, (%rax)
	movq	-16(%rbp), %rax
	movq	8(%rax), %rdx
	movq	-8(%rbp), %rax
	movq	%rdx, 8(%rax)
	jmp	.L1106
.L1104:
	movq	-16(%rbp), %rsi
	movq	-8(%rbp), %rdi
	call	_ZN3Upp7String04LSetERKS0_
.L1106:
	movq	-8(%rbp), %rdi
	call	_ZN3Upp7String04DsynEv
	leave
	ret
.LFE1242:
	.size	_ZN3Upp7String03SetERKS0_, .-_ZN3Upp7String03SetERKS0_
	.section	.text._ZN3Upp6StringC1ERKS0_,"axG",@progbits,_ZN3Upp6StringC1ERKS0_,comdat
	.align 2
	.weak	_ZN3Upp6StringC1ERKS0_
	.type	_ZN3Upp6StringC1ERKS0_, @function
_ZN3Upp6StringC1ERKS0_:
.LFB1297:
	pushq	%rbp
.LCFI981:
	movq	%rsp, %rbp
.LCFI982:
	pushq	%rbx
.LCFI983:
	subq	$24, %rsp
.LCFI984:
	movq	%rdi, -16(%rbp)
	movq	%rsi, -24(%rbp)
	movq	-16(%rbp), %rdi
	call	_ZN3Upp8MoveableINS_6StringENS_7AStringINS_7String0EEEEC2Ev
	movq	-24(%rbp), %rsi
	movq	-16(%rbp), %rdi
.LEHB46:
	call	_ZN3Upp7String03SetERKS0_
.LEHE46:
	jmp	.L1110
.L1111:
	movq	%rax, -32(%rbp)
.L1109:
	movq	-32(%rbp), %rbx
	movq	-16(%rbp), %rdi
	call	_ZN3Upp8MoveableINS_6StringENS_7AStringINS_7String0EEEED2Ev
	movq	%rbx, -32(%rbp)
	movq	-32(%rbp), %rdi
.LEHB47:
	call	_Unwind_Resume
.LEHE47:
.L1110:
	addq	$24, %rsp
	popq	%rbx
	leave
	ret
.LFE1297:
	.size	_ZN3Upp6StringC1ERKS0_, .-_ZN3Upp6StringC1ERKS0_
	.section	.gcc_except_table
.LLSDA1297:
	.byte	0xff
	.byte	0xff
	.byte	0x1
	.uleb128 .LLSDACSE1297-.LLSDACSB1297
.LLSDACSB1297:
	.uleb128 .LEHB46-.LFB1297
	.uleb128 .LEHE46-.LEHB46
	.uleb128 .L1111-.LFB1297
	.uleb128 0x0
	.uleb128 .LEHB47-.LFB1297
	.uleb128 .LEHE47-.LEHB47
	.uleb128 0x0
	.uleb128 0x0
.LLSDACSE1297:
	.section	.text._ZN3Upp6StringC1ERKS0_,"axG",@progbits,_ZN3Upp6StringC1ERKS0_,comdat
	.section	.text._ZNK9WorkspaceixEi,"axG",@progbits,_ZNK9WorkspaceixEi,comdat
	.align 2
	.weak	_ZNK9WorkspaceixEi
	.type	_ZNK9WorkspaceixEi, @function
_ZNK9WorkspaceixEi:
.LFB6981:
	pushq	%rbp
.LCFI985:
	movq	%rsp, %rbp
.LCFI986:
	pushq	%r12
.LCFI987:
	pushq	%rbx
.LCFI988:
	subq	$16, %rsp
.LCFI989:
	movq	%rdi, %rbx
	movq	%rsi, -24(%rbp)
	movl	%edx, -28(%rbp)
	movq	%rbx, %r12
	movq	-24(%rbp), %rdi
	addq	$8, %rdi
	movl	-28(%rbp), %esi
	call	_ZNK3Upp4AMapINS_6StringE7PackageNS_5ArrayIS2_EENS_7StdHashIS1_EEE6GetKeyEi
	movq	%rax, %rsi
	movq	%r12, %rdi
	call	_ZN3Upp6StringC1ERKS0_
	movq	%rbx, %rax
	addq	$16, %rsp
	popq	%rbx
	popq	%r12
	leave
	ret
.LFE6981:
	.size	_ZNK9WorkspaceixEi, .-_ZNK9WorkspaceixEi
	.section	.text._ZN13WorkspaceWork5SepfoC1ERKN3Upp6StringES4_,"axG",@progbits,_ZN13WorkspaceWork5SepfoC1ERKN3Upp6StringES4_,comdat
	.align 2
	.weak	_ZN13WorkspaceWork5SepfoC1ERKN3Upp6StringES4_
	.type	_ZN13WorkspaceWork5SepfoC1ERKN3Upp6StringES4_, @function
_ZN13WorkspaceWork5SepfoC1ERKN3Upp6StringES4_:
.LFB7779:
	pushq	%rbp
.LCFI990:
	movq	%rsp, %rbp
.LCFI991:
	pushq	%rbx
.LCFI992:
	subq	$40, %rsp
.LCFI993:
	movq	%rdi, -16(%rbp)
	movq	%rsi, -24(%rbp)
	movq	%rdx, -32(%rbp)
	movq	-16(%rbp), %rdi
	call	_ZN3Upp8MoveableIN13WorkspaceWork5SepfoENS_10EmptyClassEEC2Ev
	movq	-16(%rbp), %rdi
	addq	$8, %rdi
	movq	-24(%rbp), %rsi
.LEHB48:
	call	_ZN3Upp6StringC1ERKS0_
.LEHE48:
	movq	-16(%rbp), %rdi
	addq	$24, %rdi
	movq	-32(%rbp), %rsi
.LEHB49:
	call	_ZN3Upp6StringC1ERKS0_
.LEHE49:
	jmp	.L1116
.L1117:
	movq	%rax, -40(%rbp)
.L1115:
	movq	-40(%rbp), %rbx
	movq	-16(%rbp), %rdi
	addq	$8, %rdi
	call	_ZN3Upp6StringD1Ev
	movq	%rbx, -40(%rbp)
	movq	-40(%rbp), %rdi
.LEHB50:
	call	_Unwind_Resume
.LEHE50:
.L1116:
	addq	$40, %rsp
	popq	%rbx
	leave
	ret
.LFE7779:
	.size	_ZN13WorkspaceWork5SepfoC1ERKN3Upp6StringES4_, .-_ZN13WorkspaceWork5SepfoC1ERKN3Upp6StringES4_
	.section	.gcc_except_table
.LLSDA7779:
	.byte	0xff
	.byte	0xff
	.byte	0x1
	.uleb128 .LLSDACSE7779-.LLSDACSB7779
.LLSDACSB7779:
	.uleb128 .LEHB48-.LFB7779
	.uleb128 .LEHE48-.LEHB48
	.uleb128 0x0
	.uleb128 0x0
	.uleb128 .LEHB49-.LFB7779
	.uleb128 .LEHE49-.LEHB49
	.uleb128 .L1117-.LFB7779
	.uleb128 0x0
	.uleb128 .LEHB50-.LFB7779
	.uleb128 .LEHE50-.LEHB50
	.uleb128 0x0
	.uleb128 0x0
.LLSDACSE7779:
	.section	.text._ZN13WorkspaceWork5SepfoC1ERKN3Upp6StringES4_,"axG",@progbits,_ZN13WorkspaceWork5SepfoC1ERKN3Upp6StringES4_,comdat
	.section	.text._ZN13WorkspaceWork5SepfoC1ERKS0_,"axG",@progbits,_ZN13WorkspaceWork5SepfoC1ERKS0_,comdat
	.align 2
	.weak	_ZN13WorkspaceWork5SepfoC1ERKS0_
	.type	_ZN13WorkspaceWork5SepfoC1ERKS0_, @function
_ZN13WorkspaceWork5SepfoC1ERKS0_:
.LFB7930:
	pushq	%rbp
.LCFI994:
	movq	%rsp, %rbp
.LCFI995:
	pushq	%rbx
.LCFI996:
	subq	$24, %rsp
.LCFI997:
	movq	%rdi, -16(%rbp)
	movq	%rsi, -24(%rbp)
	movq	-24(%rbp), %rsi
	addq	$8, %rsi
	movq	-16(%rbp), %rdi
	addq	$8, %rdi
.LEHB51:
	call	_ZN3Upp6StringC1ERKS0_
.LEHE51:
	movq	-24(%rbp), %rsi
	addq	$24, %rsi
	movq	-16(%rbp), %rdi
	addq	$24, %rdi
.LEHB52:
	call	_ZN3Upp6StringC1ERKS0_
.LEHE52:
	jmp	.L1120
.L1121:
	movq	%rax, -32(%rbp)
.L1119:
	movq	-32(%rbp), %rbx
	movq	-16(%rbp), %rdi
	addq	$8, %rdi
	call	_ZN3Upp6StringD1Ev
	movq	%rbx, -32(%rbp)
	movq	-32(%rbp), %rdi
.LEHB53:
	call	_Unwind_Resume
.LEHE53:
.L1120:
	addq	$24, %rsp
	popq	%rbx
	leave
	ret
.LFE7930:
	.size	_ZN13WorkspaceWork5SepfoC1ERKS0_, .-_ZN13WorkspaceWork5SepfoC1ERKS0_
	.section	.gcc_except_table
.LLSDA7930:
	.byte	0xff
	.byte	0xff
	.byte	0x1
	.uleb128 .LLSDACSE7930-.LLSDACSB7930
.LLSDACSB7930:
	.uleb128 .LEHB51-.LFB7930
	.uleb128 .LEHE51-.LEHB51
	.uleb128 0x0
	.uleb128 0x0
	.uleb128 .LEHB52-.LFB7930
	.uleb128 .LEHE52-.LEHB52
	.uleb128 .L1121-.LFB7930
	.uleb128 0x0
	.uleb128 .LEHB53-.LFB7930
	.uleb128 .LEHE53-.LEHB53
	.uleb128 0x0
	.uleb128 0x0
.LLSDACSE7930:
	.section	.text._ZN13WorkspaceWork5SepfoC1ERKS0_,"axG",@progbits,_ZN13WorkspaceWork5SepfoC1ERKS0_,comdat
	.section	.text._ZN3Upp17DeepCopyConstructIN13WorkspaceWork5SepfoEEEvPvRKT_,"axG",@progbits,_ZN3Upp17DeepCopyConstructIN13WorkspaceWork5SepfoEEEvPvRKT_,comdat
	.align 2
	.weak	_ZN3Upp17DeepCopyConstructIN13WorkspaceWork5SepfoEEEvPvRKT_
	.type	_ZN3Upp17DeepCopyConstructIN13WorkspaceWork5SepfoEEEvPvRKT_, @function
_ZN3Upp17DeepCopyConstructIN13WorkspaceWork5SepfoEEEvPvRKT_:
.LFB9634:
	pushq	%rbp
.LCFI998:
	movq	%rsp, %rbp
.LCFI999:
	pushq	%rbx
.LCFI1000:
	subq	$40, %rsp
.LCFI1001:
	movq	%rdi, -16(%rbp)
	movq	%rsi, -24(%rbp)
	movq	-16(%rbp), %rsi
	movl	$40, %edi
	call	_ZnwmPv
	movq	%rax, -32(%rbp)
	cmpq	$0, -32(%rbp)
	je	.L1127
	movq	-24(%rbp), %rsi
	movq	-32(%rbp), %rdi
.LEHB54:
	call	_ZN13WorkspaceWork5SepfoC1ERKS0_
.LEHE54:
	jmp	.L1127
.L1128:
	movq	%rax, -40(%rbp)
.L1126:
	movq	-40(%rbp), %rbx
	movq	-16(%rbp), %rsi
	movq	-32(%rbp), %rdi
	call	_ZdlPvS_
	movq	%rbx, -40(%rbp)
	movq	-40(%rbp), %rdi
.LEHB55:
	call	_Unwind_Resume
.LEHE55:
.L1127:
	addq	$40, %rsp
	popq	%rbx
	leave
	ret
.LFE9634:
	.size	_ZN3Upp17DeepCopyConstructIN13WorkspaceWork5SepfoEEEvPvRKT_, .-_ZN3Upp17DeepCopyConstructIN13WorkspaceWork5SepfoEEEvPvRKT_
	.section	.gcc_except_table
.LLSDA9634:
	.byte	0xff
	.byte	0xff
	.byte	0x1
	.uleb128 .LLSDACSE9634-.LLSDACSB9634
.LLSDACSB9634:
	.uleb128 .LEHB54-.LFB9634
	.uleb128 .LEHE54-.LEHB54
	.uleb128 .L1128-.LFB9634
	.uleb128 0x0
	.uleb128 .LEHB55-.LFB9634
	.uleb128 .LEHE55-.LEHB55
	.uleb128 0x0
	.uleb128 0x0
.LLSDACSE9634:
	.section	.text._ZN3Upp17DeepCopyConstructIN13WorkspaceWork5SepfoEEEvPvRKT_,"axG",@progbits,_ZN3Upp17DeepCopyConstructIN13WorkspaceWork5SepfoEEEvPvRKT_,comdat
	.section	.text._ZN3Upp23CallbackMethodActionArgI13WorkspaceWorkMS1_FvNS_6StringEES2_EC1EPS1_S4_S2_,"axG",@progbits,_ZN3Upp23CallbackMethodActionArgI13WorkspaceWorkMS1_FvNS_6StringEES2_EC1EPS1_S4_S2_,comdat
	.align 2
	.weak	_ZN3Upp23CallbackMethodActionArgI13WorkspaceWorkMS1_FvNS_6StringEES2_EC1EPS1_S4_S2_
	.type	_ZN3Upp23CallbackMethodActionArgI13WorkspaceWorkMS1_FvNS_6StringEES2_EC1EPS1_S4_S2_, @function
_ZN3Upp23CallbackMethodActionArgI13WorkspaceWorkMS1_FvNS_6StringEES2_EC1EPS1_S4_S2_:
.LFB9616:
	pushq	%rbp
.LCFI1002:
	movq	%rsp, %rbp
.LCFI1003:
	pushq	%rbx
.LCFI1004:
	subq	$56, %rsp
.LCFI1005:
	movq	%rdi, -16(%rbp)
	movq	%rsi, -24(%rbp)
	movq	%r8, -48(%rbp)
	movq	%rdx, %rax
	movq	%rcx, %rdx
	movq	%rax, -40(%rbp)
	movq	%rdx, -32(%rbp)
	movq	-16(%rbp), %rdi
	call	_ZN3Upp14CallbackActionC2Ev
	movl	$_ZTVN3Upp23CallbackMethodActionArgI13WorkspaceWorkMS1_FvNS_6StringEES2_EE+16, %edx
	movq	-16(%rbp), %rax
	movq	%rdx, (%rax)
	movq	-16(%rbp), %rdx
	movq	-24(%rbp), %rax
	movq	%rax, 16(%rdx)
	movq	-16(%rbp), %rdx
	movq	-40(%rbp), %rax
	movq	%rax, 24(%rdx)
	movq	-32(%rbp), %rax
	movq	%rax, 32(%rdx)
	movq	-16(%rbp), %rdi
	addq	$40, %rdi
	movq	-48(%rbp), %rsi
.LEHB56:
	call	_ZN3Upp6StringC1ERKS0_
.LEHE56:
	jmp	.L1131
.L1132:
	movq	%rax, -56(%rbp)
.L1130:
	movq	-56(%rbp), %rbx
	movq	-16(%rbp), %rdi
	call	_ZN3Upp14CallbackActionD2Ev
	movq	%rbx, -56(%rbp)
	movq	-56(%rbp), %rdi
.LEHB57:
	call	_Unwind_Resume
.LEHE57:
.L1131:
	addq	$56, %rsp
	popq	%rbx
	leave
	ret
.LFE9616:
	.size	_ZN3Upp23CallbackMethodActionArgI13WorkspaceWorkMS1_FvNS_6StringEES2_EC1EPS1_S4_S2_, .-_ZN3Upp23CallbackMethodActionArgI13WorkspaceWorkMS1_FvNS_6StringEES2_EC1EPS1_S4_S2_
	.section	.gcc_except_table
.LLSDA9616:
	.byte	0xff
	.byte	0xff
	.byte	0x1
	.uleb128 .LLSDACSE9616-.LLSDACSB9616
.LLSDACSB9616:
	.uleb128 .LEHB56-.LFB9616
	.uleb128 .LEHE56-.LEHB56
	.uleb128 .L1132-.LFB9616
	.uleb128 0x0
	.uleb128 .LEHB57-.LFB9616
	.uleb128 .LEHE57-.LEHB57
	.uleb128 0x0
	.uleb128 0x0
.LLSDACSE9616:
	.section	.text._ZN3Upp23CallbackMethodActionArgI13WorkspaceWorkMS1_FvNS_6StringEES2_EC1EPS1_S4_S2_,"axG",@progbits,_ZN3Upp23CallbackMethodActionArgI13WorkspaceWorkMS1_FvNS_6StringEES2_EC1EPS1_S4_S2_,comdat
	.section	.text._ZN3Upp23CallbackMethodActionArgI13WorkspaceWorkMS1_FvNS_6StringEES2_E7ExecuteEv,"axG",@progbits,_ZN3Upp23CallbackMethodActionArgI13WorkspaceWorkMS1_FvNS_6StringEES2_E7ExecuteEv,comdat
	.align 2
	.weak	_ZN3Upp23CallbackMethodActionArgI13WorkspaceWorkMS1_FvNS_6StringEES2_E7ExecuteEv
	.type	_ZN3Upp23CallbackMethodActionArgI13WorkspaceWorkMS1_FvNS_6StringEES2_E7ExecuteEv, @function
_ZN3Upp23CallbackMethodActionArgI13WorkspaceWorkMS1_FvNS_6StringEES2_E7ExecuteEv:
.LFB10325:
	pushq	%rbp
.LCFI1006:
	movq	%rsp, %rbp
.LCFI1007:
	pushq	%rbx
.LCFI1008:
	subq	$72, %rsp
.LCFI1009:
	movq	%rdi, -56(%rbp)
	movq	%fs:40, %rax
	movq	%rax, -24(%rbp)
	xorl	%eax, %eax
	movq	-56(%rbp), %rax
	movq	24(%rax), %rax
	andl	$1, %eax
	testb	%al, %al
	je	.L1134
	movq	-56(%rbp), %rax
	movq	16(%rax), %rdx
	movq	-56(%rbp), %rax
	movq	32(%rax), %rax
	leaq	(%rdx,%rax), %rax
	movq	(%rax), %rdx
	movq	-56(%rbp), %rax
	movq	24(%rax), %rax
	subq	$1, %rax
	leaq	(%rdx,%rax), %rax
	movq	(%rax), %rax
	movq	%rax, -64(%rbp)
	jmp	.L1136
.L1134:
	movq	-56(%rbp), %rax
	movq	24(%rax), %rax
	movq	%rax, -64(%rbp)
.L1136:
	movq	-56(%rbp), %rsi
	addq	$40, %rsi
	leaq	-48(%rbp), %rdi
.LEHB58:
	call	_ZN3Upp6StringC1ERKS0_
.LEHE58:
	movq	-56(%rbp), %rax
	movq	16(%rax), %rdx
	movq	-56(%rbp), %rax
	movq	32(%rax), %rax
	leaq	(%rdx,%rax), %rdi
	leaq	-48(%rbp), %rsi
.LEHB59:
	call	*-64(%rbp)
.LEHE59:
	leaq	-48(%rbp), %rdi
	call	_ZN3Upp6StringD1Ev
	jmp	.L1138
.L1140:
	movq	%rax, -72(%rbp)
.L1137:
	movq	-72(%rbp), %rbx
	leaq	-48(%rbp), %rdi
	call	_ZN3Upp6StringD1Ev
	movq	%rbx, -72(%rbp)
	movq	-72(%rbp), %rdi
.LEHB60:
	call	_Unwind_Resume
.LEHE60:
.L1138:
	movq	-24(%rbp), %rax
	xorq	%fs:40, %rax
	je	.L1139
	call	__stack_chk_fail
.L1139:
	addq	$72, %rsp
	popq	%rbx
	leave
	ret
.LFE10325:
	.size	_ZN3Upp23CallbackMethodActionArgI13WorkspaceWorkMS1_FvNS_6StringEES2_E7ExecuteEv, .-_ZN3Upp23CallbackMethodActionArgI13WorkspaceWorkMS1_FvNS_6StringEES2_E7ExecuteEv
	.section	.gcc_except_table
.LLSDA10325:
	.byte	0xff
	.byte	0xff
	.byte	0x1
	.uleb128 .LLSDACSE10325-.LLSDACSB10325
.LLSDACSB10325:
	.uleb128 .LEHB58-.LFB10325
	.uleb128 .LEHE58-.LEHB58
	.uleb128 0x0
	.uleb128 0x0
	.uleb128 .LEHB59-.LFB10325
	.uleb128 .LEHE59-.LEHB59
	.uleb128 .L1140-.LFB10325
	.uleb128 0x0
	.uleb128 .LEHB60-.LFB10325
	.uleb128 .LEHE60-.LEHB60
	.uleb128 0x0
	.uleb128 0x0
.LLSDACSE10325:
	.section	.text._ZN3Upp23CallbackMethodActionArgI13WorkspaceWorkMS1_FvNS_6StringEES2_E7ExecuteEv,"axG",@progbits,_ZN3Upp23CallbackMethodActionArgI13WorkspaceWorkMS1_FvNS_6StringEES2_E7ExecuteEv,comdat
	.section	.text._ZNK3Upp8FindFile7GetNameEv,"axG",@progbits,_ZNK3Upp8FindFile7GetNameEv,comdat
	.align 2
	.weak	_ZNK3Upp8FindFile7GetNameEv
	.type	_ZNK3Upp8FindFile7GetNameEv, @function
_ZNK3Upp8FindFile7GetNameEv:
.LFB1599:
	pushq	%rbp
.LCFI1010:
	movq	%rsp, %rbp
.LCFI1011:
	pushq	%rbx
.LCFI1012:
	subq	$8, %rsp
.LCFI1013:
	movq	%rdi, %rbx
	movq	%rsi, -16(%rbp)
	movq	%rbx, %rdi
	movq	-16(%rbp), %rsi
	addq	$184, %rsi
	call	_ZN3Upp6StringC1ERKS0_
	movq	%rbx, %rax
	addq	$8, %rsp
	popq	%rbx
	leave
	ret
.LFE1599:
	.size	_ZNK3Upp8FindFile7GetNameEv, .-_ZNK3Upp8FindFile7GetNameEv
	.section	.text._ZN3Upp17DeepCopyConstructINS_6StringEEEvPvRKT_,"axG",@progbits,_ZN3Upp17DeepCopyConstructINS_6StringEEEvPvRKT_,comdat
	.align 2
	.weak	_ZN3Upp17DeepCopyConstructINS_6StringEEEvPvRKT_
	.type	_ZN3Upp17DeepCopyConstructINS_6StringEEEvPvRKT_, @function
_ZN3Upp17DeepCopyConstructINS_6StringEEEvPvRKT_:
.LFB9404:
	pushq	%rbp
.LCFI1014:
	movq	%rsp, %rbp
.LCFI1015:
	pushq	%rbx
.LCFI1016:
	subq	$40, %rsp
.LCFI1017:
	movq	%rdi, -16(%rbp)
	movq	%rsi, -24(%rbp)
	movq	-16(%rbp), %rsi
	movl	$16, %edi
	call	_ZnwmPv
	movq	%rax, -32(%rbp)
	cmpq	$0, -32(%rbp)
	je	.L1148
	movq	-24(%rbp), %rsi
	movq	-32(%rbp), %rdi
.LEHB61:
	call	_ZN3Upp6StringC1ERKS0_
.LEHE61:
	jmp	.L1148
.L1149:
	movq	%rax, -40(%rbp)
.L1147:
	movq	-40(%rbp), %rbx
	movq	-16(%rbp), %rsi
	movq	-32(%rbp), %rdi
	call	_ZdlPvS_
	movq	%rbx, -40(%rbp)
	movq	-40(%rbp), %rdi
.LEHB62:
	call	_Unwind_Resume
.LEHE62:
.L1148:
	addq	$40, %rsp
	popq	%rbx
	leave
	ret
.LFE9404:
	.size	_ZN3Upp17DeepCopyConstructINS_6StringEEEvPvRKT_, .-_ZN3Upp17DeepCopyConstructINS_6StringEEEvPvRKT_
	.section	.gcc_except_table
.LLSDA9404:
	.byte	0xff
	.byte	0xff
	.byte	0x1
	.uleb128 .LLSDACSE9404-.LLSDACSB9404
.LLSDACSB9404:
	.uleb128 .LEHB61-.LFB9404
	.uleb128 .LEHE61-.LEHB61
	.uleb128 .L1149-.LFB9404
	.uleb128 0x0
	.uleb128 .LEHB62-.LFB9404
	.uleb128 .LEHE62-.LEHB62
	.uleb128 0x0
	.uleb128 0x0
.LLSDACSE9404:
	.section	.text._ZN3Upp17DeepCopyConstructINS_6StringEEEvPvRKT_,"axG",@progbits,_ZN3Upp17DeepCopyConstructINS_6StringEEEvPvRKT_,comdat
	.text
	.align 2
.globl _ZNK13WorkspaceWork8FileNameEi
	.type	_ZNK13WorkspaceWork8FileNameEi, @function
_ZNK13WorkspaceWork8FileNameEi:
.LFB7943:
	pushq	%rbp
.LCFI1018:
	movq	%rsp, %rbp
.LCFI1019:
	subq	$32, %rsp
.LCFI1020:
	movq	%rdi, -32(%rbp)
	movq	%rsi, -8(%rbp)
	movl	%edx, -12(%rbp)
	movq	-32(%rbp), %rax
	movq	%rax, -24(%rbp)
	cmpl	$0, -12(%rbp)
	js	.L1151
	movq	-8(%rbp), %rdi
	addq	$4232, %rdi
	call	_ZNK3Upp6VectorIiE8GetCountEv
	cmpl	-12(%rbp), %eax
	jle	.L1151
	movq	-8(%rbp), %rdi
	addq	$4232, %rdi
	movl	-12(%rbp), %esi
	call	_ZNK3Upp6VectorIiEixEi
	movl	(%rax), %esi
	movq	-8(%rbp), %rdi
	addq	$4472, %rdi
	call	_ZNK3Upp5ArrayIN7Package4FileEEixEi
	movq	%rax, %rsi
	movq	-24(%rbp), %rdi
	call	_ZN3Upp6StringC1ERKS0_
	jmp	.L1150
.L1151:
	movl	$_ZN3Upp4NullE, %esi
	movq	-24(%rbp), %rdi
	call	_ZN3Upp6StringC1ERKNS_6NullerE
.L1150:
	movq	-32(%rbp), %rax
	leave
	ret
.LFE7943:
	.size	_ZNK13WorkspaceWork8FileNameEi, .-_ZNK13WorkspaceWork8FileNameEi
	.align 2
.globl _ZNK13WorkspaceWork17GetActiveFileNameEv
	.type	_ZNK13WorkspaceWork17GetActiveFileNameEv, @function
_ZNK13WorkspaceWork17GetActiveFileNameEv:
.LFB7945:
	pushq	%rbp
.LCFI1021:
	movq	%rsp, %rbp
.LCFI1022:
	pushq	%r12
.LCFI1023:
	pushq	%rbx
.LCFI1024:
	subq	$16, %rsp
.LCFI1025:
	movq	%rdi, %rbx
	movq	%rsi, -24(%rbp)
	movq	%rbx, %r12
	movq	-24(%rbp), %rdi
	addq	$2120, %rdi
	call	_ZNK3Upp10ColumnList9GetCursorEv
	movq	-24(%rbp), %rsi
	movl	%eax, %edx
	movq	%r12, %rdi
	call	_ZNK13WorkspaceWork8FileNameEi
	movq	%rbx, %rax
	addq	$16, %rsp
	popq	%rbx
	popq	%r12
	leave
	ret
.LFE7945:
	.size	_ZNK13WorkspaceWork17GetActiveFileNameEv, .-_ZNK13WorkspaceWork17GetActiveFileNameEv
	.section	.text._ZN3Upp6StringC2ERKS0_,"axG",@progbits,_ZN3Upp6StringC2ERKS0_,comdat
	.align 2
	.weak	_ZN3Upp6StringC2ERKS0_
	.type	_ZN3Upp6StringC2ERKS0_, @function
_ZN3Upp6StringC2ERKS0_:
.LFB1296:
	pushq	%rbp
.LCFI1026:
	movq	%rsp, %rbp
.LCFI1027:
	pushq	%rbx
.LCFI1028:
	subq	$24, %rsp
.LCFI1029:
	movq	%rdi, -16(%rbp)
	movq	%rsi, -24(%rbp)
	movq	-16(%rbp), %rdi
	call	_ZN3Upp8MoveableINS_6StringENS_7AStringINS_7String0EEEEC2Ev
	movq	-24(%rbp), %rsi
	movq	-16(%rbp), %rdi
.LEHB63:
	call	_ZN3Upp7String03SetERKS0_
.LEHE63:
	jmp	.L1160
.L1161:
	movq	%rax, -32(%rbp)
.L1159:
	movq	-32(%rbp), %rbx
	movq	-16(%rbp), %rdi
	call	_ZN3Upp8MoveableINS_6StringENS_7AStringINS_7String0EEEED2Ev
	movq	%rbx, -32(%rbp)
	movq	-32(%rbp), %rdi
.LEHB64:
	call	_Unwind_Resume
.LEHE64:
.L1160:
	addq	$24, %rsp
	popq	%rbx
	leave
	ret
.LFE1296:
	.size	_ZN3Upp6StringC2ERKS0_, .-_ZN3Upp6StringC2ERKS0_
	.section	.gcc_except_table
.LLSDA1296:
	.byte	0xff
	.byte	0xff
	.byte	0x1
	.uleb128 .LLSDACSE1296-.LLSDACSB1296
.LLSDACSB1296:
	.uleb128 .LEHB63-.LFB1296
	.uleb128 .LEHE63-.LEHB63
	.uleb128 .L1161-.LFB1296
	.uleb128 0x0
	.uleb128 .LEHB64-.LFB1296
	.uleb128 .LEHE64-.LEHB64
	.uleb128 0x0
	.uleb128 0x0
.LLSDACSE1296:
	.section	.text._ZN3Upp6StringC2ERKS0_,"axG",@progbits,_ZN3Upp6StringC2ERKS0_,comdat
	.section	.text._ZN7Package4FileC1ERKS0_,"axG",@progbits,_ZN7Package4FileC1ERKS0_,comdat
	.align 2
	.weak	_ZN7Package4FileC1ERKS0_
	.type	_ZN7Package4FileC1ERKS0_, @function
_ZN7Package4FileC1ERKS0_:
.LFB9035:
	pushq	%rbp
.LCFI1030:
	movq	%rsp, %rbp
.LCFI1031:
	pushq	%rbx
.LCFI1032:
	subq	$24, %rsp
.LCFI1033:
	movq	%rdi, -16(%rbp)
	movq	%rsi, -24(%rbp)
	movq	-24(%rbp), %rsi
	movq	-16(%rbp), %rdi
.LEHB65:
	call	_ZN3Upp6StringC2ERKS0_
.LEHE65:
	movq	-24(%rbp), %rsi
	addq	$16, %rsi
	movq	-16(%rbp), %rdi
	addq	$16, %rdi
	call	_ZN3Upp5ArrayI7OptItemEC1ERKS2_
	movq	-24(%rbp), %rsi
	addq	$40, %rsi
	movq	-16(%rbp), %rdi
	addq	$40, %rdi
	call	_ZN3Upp5ArrayI7OptItemEC1ERKS2_
	movq	-24(%rbp), %rax
	movzbl	64(%rax), %edx
	movq	-16(%rbp), %rax
	movb	%dl, 64(%rax)
	movq	-24(%rbp), %rax
	movzbl	65(%rax), %edx
	movq	-16(%rbp), %rax
	movb	%dl, 65(%rax)
	movq	-24(%rbp), %rax
	movl	68(%rax), %edx
	movq	-16(%rbp), %rax
	movl	%edx, 68(%rax)
	movq	-24(%rbp), %rax
	movzbl	72(%rax), %edx
	movq	-16(%rbp), %rax
	movb	%dl, 72(%rax)
	movq	-24(%rbp), %rax
	movl	76(%rax), %edx
	movq	-16(%rbp), %rax
	movl	%edx, 76(%rax)
	movq	-24(%rbp), %rsi
	addq	$80, %rsi
	movq	-16(%rbp), %rdi
	addq	$80, %rdi
.LEHB66:
	call	_ZN3Upp6StringC1ERKS0_
.LEHE66:
	movq	-24(%rbp), %rax
	movl	96(%rax), %edx
	movq	-16(%rbp), %rax
	movl	%edx, 96(%rax)
	jmp	.L1166
.L1167:
	movq	%rax, -32(%rbp)
.L1163:
	movq	-32(%rbp), %rbx
	movq	-16(%rbp), %rdi
	addq	$40, %rdi
	call	_ZN3Upp5ArrayI7OptItemED1Ev
	movq	%rbx, -32(%rbp)
.L1168:
.L1164:
	movq	-32(%rbp), %rbx
	movq	-16(%rbp), %rdi
	addq	$16, %rdi
	call	_ZN3Upp5ArrayI7OptItemED1Ev
	movq	%rbx, -32(%rbp)
.L1169:
.L1165:
	movq	-32(%rbp), %rbx
	movq	-16(%rbp), %rdi
	call	_ZN3Upp6StringD2Ev
	movq	%rbx, -32(%rbp)
	movq	-32(%rbp), %rdi
.LEHB67:
	call	_Unwind_Resume
.LEHE67:
.L1166:
	addq	$24, %rsp
	popq	%rbx
	leave
	ret
.LFE9035:
	.size	_ZN7Package4FileC1ERKS0_, .-_ZN7Package4FileC1ERKS0_
	.section	.gcc_except_table
.LLSDA9035:
	.byte	0xff
	.byte	0xff
	.byte	0x1
	.uleb128 .LLSDACSE9035-.LLSDACSB9035
.LLSDACSB9035:
	.uleb128 .LEHB65-.LFB9035
	.uleb128 .LEHE65-.LEHB65
	.uleb128 0x0
	.uleb128 0x0
	.uleb128 .LEHB66-.LFB9035
	.uleb128 .LEHE66-.LEHB66
	.uleb128 .L1167-.LFB9035
	.uleb128 0x0
	.uleb128 .LEHB67-.LFB9035
	.uleb128 .LEHE67-.LEHB67
	.uleb128 0x0
	.uleb128 0x0
.LLSDACSE9035:
	.section	.text._ZN7Package4FileC1ERKS0_,"axG",@progbits,_ZN7Package4FileC1ERKS0_,comdat
	.section	.text._ZN7Package4FileC1ERKN3Upp6StringE,"axG",@progbits,_ZN7Package4FileC1ERKN3Upp6StringE,comdat
	.align 2
	.weak	_ZN7Package4FileC1ERKN3Upp6StringE
	.type	_ZN7Package4FileC1ERKN3Upp6StringE, @function
_ZN7Package4FileC1ERKN3Upp6StringE:
.LFB6976:
	pushq	%rbp
.LCFI1034:
	movq	%rsp, %rbp
.LCFI1035:
	subq	$16, %rsp
.LCFI1036:
	movq	%rdi, -8(%rbp)
	movq	%rsi, -16(%rbp)
	movq	-8(%rbp), %rdi
	movq	-16(%rbp), %rsi
	call	_ZN3Upp6StringC2ERKS0_
	movq	-8(%rbp), %rdi
	addq	$16, %rdi
	call	_ZN3Upp5ArrayI7OptItemEC1Ev
	movq	-8(%rbp), %rdi
	addq	$40, %rdi
	call	_ZN3Upp5ArrayI7OptItemEC1Ev
	movq	-8(%rbp), %rdi
	addq	$80, %rdi
	call	_ZN3Upp6StringC1Ev
	movq	-8(%rbp), %rdi
	call	_ZN7Package4File4InitEv
	leave
	ret
.LFE6976:
	.size	_ZN7Package4FileC1ERKN3Upp6StringE, .-_ZN7Package4FileC1ERKN3Upp6StringE
	.section	.text._ZN3Upp7String06AssignERKS0_,"axG",@progbits,_ZN3Upp7String06AssignERKS0_,comdat
	.align 2
	.weak	_ZN3Upp7String06AssignERKS0_
	.type	_ZN3Upp7String06AssignERKS0_, @function
_ZN3Upp7String06AssignERKS0_:
.LFB1243:
	pushq	%rbp
.LCFI1037:
	movq	%rsp, %rbp
.LCFI1038:
	subq	$16, %rsp
.LCFI1039:
	movq	%rdi, -8(%rbp)
	movq	%rsi, -16(%rbp)
	movq	-16(%rbp), %rdi
	call	_ZNK3Upp7String07IsSmallEv
	testb	%al, %al
	je	.L1173
	movq	-8(%rbp), %rdi
	call	_ZNK3Upp7String07IsLargeEv
	testb	%al, %al
	je	.L1175
	movq	-8(%rbp), %rdi
	call	_ZN3Upp7String05LFreeEv
.L1175:
	movq	-16(%rbp), %rax
	movq	(%rax), %rdx
	movq	-8(%rbp), %rax
	movq	%rdx, (%rax)
	movq	-16(%rbp), %rax
	movq	8(%rax), %rdx
	movq	-8(%rbp), %rax
	movq	%rdx, 8(%rax)
	jmp	.L1177
.L1173:
	movq	-8(%rbp), %rax
	cmpq	-16(%rbp), %rax
	je	.L1177
	movq	-8(%rbp), %rdi
	call	_ZN3Upp7String04FreeEv
	movq	-16(%rbp), %rsi
	movq	-8(%rbp), %rdi
	call	_ZN3Upp7String04LSetERKS0_
.L1177:
	movq	-8(%rbp), %rdi
	call	_ZN3Upp7String04DsynEv
	leave
	ret
.LFE1243:
	.size	_ZN3Upp7String06AssignERKS0_, .-_ZN3Upp7String06AssignERKS0_
	.section	.text._ZN3Upp6StringaSERKS0_,"axG",@progbits,_ZN3Upp6StringaSERKS0_,comdat
	.align 2
	.weak	_ZN3Upp6StringaSERKS0_
	.type	_ZN3Upp6StringaSERKS0_, @function
_ZN3Upp6StringaSERKS0_:
.LFB1270:
	pushq	%rbp
.LCFI1040:
	movq	%rsp, %rbp
.LCFI1041:
	subq	$16, %rsp
.LCFI1042:
	movq	%rdi, -8(%rbp)
	movq	%rsi, -16(%rbp)
	movq	-16(%rbp), %rsi
	movq	-8(%rbp), %rdi
	call	_ZN3Upp7String06AssignERKS0_
	movq	-8(%rbp), %rax
	leave
	ret
.LFE1270:
	.size	_ZN3Upp6StringaSERKS0_, .-_ZN3Upp6StringaSERKS0_
	.section	.text._ZN13WorkspaceWork5SepfoaSERKS0_,"axG",@progbits,_ZN13WorkspaceWork5SepfoaSERKS0_,comdat
	.align 2
	.weak	_ZN13WorkspaceWork5SepfoaSERKS0_
	.type	_ZN13WorkspaceWork5SepfoaSERKS0_, @function
_ZN13WorkspaceWork5SepfoaSERKS0_:
.LFB7986:
	pushq	%rbp
.LCFI1043:
	movq	%rsp, %rbp
.LCFI1044:
	subq	$16, %rsp
.LCFI1045:
	movq	%rdi, -8(%rbp)
	movq	%rsi, -16(%rbp)
	movq	-16(%rbp), %rsi
	addq	$8, %rsi
	movq	-8(%rbp), %rdi
	addq	$8, %rdi
	call	_ZN3Upp6StringaSERKS0_
	movq	-16(%rbp), %rsi
	addq	$24, %rsi
	movq	-8(%rbp), %rdi
	addq	$24, %rdi
	call	_ZN3Upp6StringaSERKS0_
	movq	-8(%rbp), %rax
	leave
	ret
.LFE7986:
	.size	_ZN13WorkspaceWork5SepfoaSERKS0_, .-_ZN13WorkspaceWork5SepfoaSERKS0_
	.section	.text._ZN7Package4FileaSERKS0_,"axG",@progbits,_ZN7Package4FileaSERKS0_,comdat
	.align 2
	.weak	_ZN7Package4FileaSERKS0_
	.type	_ZN7Package4FileaSERKS0_, @function
_ZN7Package4FileaSERKS0_:
.LFB9036:
	pushq	%rbp
.LCFI1046:
	movq	%rsp, %rbp
.LCFI1047:
	subq	$16, %rsp
.LCFI1048:
	movq	%rdi, -8(%rbp)
	movq	%rsi, -16(%rbp)
	movq	-16(%rbp), %rsi
	movq	-8(%rbp), %rdi
	call	_ZN3Upp6StringaSERKS0_
	movq	-16(%rbp), %rsi
	addq	$16, %rsi
	movq	-8(%rbp), %rdi
	addq	$16, %rdi
	call	_ZN3Upp5ArrayI7OptItemEaSERKS2_
	movq	-16(%rbp), %rsi
	addq	$40, %rsi
	movq	-8(%rbp), %rdi
	addq	$40, %rdi
	call	_ZN3Upp5ArrayI7OptItemEaSERKS2_
	movq	-16(%rbp), %rax
	movzbl	64(%rax), %edx
	movq	-8(%rbp), %rax
	movb	%dl, 64(%rax)
	movq	-16(%rbp), %rax
	movzbl	65(%rax), %edx
	movq	-8(%rbp), %rax
	movb	%dl, 65(%rax)
	movq	-16(%rbp), %rax
	movl	68(%rax), %edx
	movq	-8(%rbp), %rax
	movl	%edx, 68(%rax)
	movq	-16(%rbp), %rax
	movzbl	72(%rax), %edx
	movq	-8(%rbp), %rax
	movb	%dl, 72(%rax)
	movq	-16(%rbp), %rax
	movl	76(%rax), %edx
	movq	-8(%rbp), %rax
	movl	%edx, 76(%rax)
	movq	-16(%rbp), %rsi
	addq	$80, %rsi
	movq	-8(%rbp), %rdi
	addq	$80, %rdi
	call	_ZN3Upp6StringaSERKS0_
	movq	-16(%rbp), %rax
	movl	96(%rax), %edx
	movq	-8(%rbp), %rax
	movl	%edx, 96(%rax)
	movq	-8(%rbp), %rax
	leave
	ret
.LFE9036:
	.size	_ZN7Package4FileaSERKS0_, .-_ZN7Package4FileaSERKS0_
	.section	.text._ZN3Upp4SwapIN7Package4FileEEEvRT_S4_,"axG",@progbits,_ZN3Upp4SwapIN7Package4FileEEEvRT_S4_,comdat
	.align 2
	.weak	_ZN3Upp4SwapIN7Package4FileEEEvRT_S4_
	.type	_ZN3Upp4SwapIN7Package4FileEEEvRT_S4_, @function
_ZN3Upp4SwapIN7Package4FileEEEvRT_S4_:
.LFB9032:
	pushq	%rbp
.LCFI1049:
	movq	%rsp, %rbp
.LCFI1050:
	pushq	%rbx
.LCFI1051:
	subq	$152, %rsp
.LCFI1052:
	movq	%rdi, -136(%rbp)
	movq	%rsi, -144(%rbp)
	movq	%fs:40, %rax
	movq	%rax, -24(%rbp)
	xorl	%eax, %eax
	movq	-136(%rbp), %rsi
	leaq	-128(%rbp), %rdi
.LEHB68:
	call	_ZN7Package4FileC1ERKS0_
.LEHE68:
	movq	-144(%rbp), %rsi
	movq	-136(%rbp), %rdi
.LEHB69:
	call	_ZN7Package4FileaSERKS0_
	leaq	-128(%rbp), %rsi
	movq	-144(%rbp), %rdi
	call	_ZN7Package4FileaSERKS0_
.LEHE69:
	leaq	-128(%rbp), %rdi
.LEHB70:
	call	_ZN7Package4FileD1Ev
.LEHE70:
	jmp	.L1188
.L1190:
	movq	%rax, -152(%rbp)
.L1187:
	movq	-152(%rbp), %rbx
	leaq	-128(%rbp), %rdi
	call	_ZN7Package4FileD1Ev
	movq	%rbx, -152(%rbp)
	movq	-152(%rbp), %rdi
.LEHB71:
	call	_Unwind_Resume
.LEHE71:
.L1188:
	movq	-24(%rbp), %rax
	xorq	%fs:40, %rax
	je	.L1189
	call	__stack_chk_fail
.L1189:
	addq	$152, %rsp
	popq	%rbx
	leave
	ret
.LFE9032:
	.size	_ZN3Upp4SwapIN7Package4FileEEEvRT_S4_, .-_ZN3Upp4SwapIN7Package4FileEEEvRT_S4_
	.section	.gcc_except_table
.LLSDA9032:
	.byte	0xff
	.byte	0xff
	.byte	0x1
	.uleb128 .LLSDACSE9032-.LLSDACSB9032
.LLSDACSB9032:
	.uleb128 .LEHB68-.LFB9032
	.uleb128 .LEHE68-.LEHB68
	.uleb128 0x0
	.uleb128 0x0
	.uleb128 .LEHB69-.LFB9032
	.uleb128 .LEHE69-.LEHB69
	.uleb128 .L1190-.LFB9032
	.uleb128 0x0
	.uleb128 .LEHB70-.LFB9032
	.uleb128 .LEHE70-.LEHB70
	.uleb128 0x0
	.uleb128 0x0
	.uleb128 .LEHB71-.LFB9032
	.uleb128 .LEHE71-.LEHB71
	.uleb128 0x0
	.uleb128 0x0
.LLSDACSE9032:
	.section	.text._ZN3Upp4SwapIN7Package4FileEEEvRT_S4_,"axG",@progbits,_ZN3Upp4SwapIN7Package4FileEEEvRT_S4_,comdat
	.section	.text._ZN7Package4FileaSERKN3Upp6StringE,"axG",@progbits,_ZN7Package4FileaSERKN3Upp6StringE,comdat
	.align 2
	.weak	_ZN7Package4FileaSERKN3Upp6StringE
	.type	_ZN7Package4FileaSERKN3Upp6StringE, @function
_ZN7Package4FileaSERKN3Upp6StringE:
.LFB6969:
	pushq	%rbp
.LCFI1053:
	movq	%rsp, %rbp
.LCFI1054:
	subq	$16, %rsp
.LCFI1055:
	movq	%rdi, -8(%rbp)
	movq	%rsi, -16(%rbp)
	movq	-8(%rbp), %rdi
	movq	-16(%rbp), %rsi
	call	_ZN3Upp6StringaSERKS0_
	movq	-8(%rbp), %rax
	movb	$0, 65(%rax)
	movq	-8(%rbp), %rax
	movzbl	65(%rax), %edx
	movq	-8(%rbp), %rax
	movb	%dl, 64(%rax)
	leave
	ret
.LFE6969:
	.size	_ZN7Package4FileaSERKN3Upp6StringE, .-_ZN7Package4FileaSERKN3Upp6StringE
	.section	.text._ZN3Upp12GetHashValueINS_6StringEEEjRKT_,"axG",@progbits,_ZN3Upp12GetHashValueINS_6StringEEEjRKT_,comdat
	.align 2
	.weak	_ZN3Upp12GetHashValueINS_6StringEEEjRKT_
	.type	_ZN3Upp12GetHashValueINS_6StringEEEjRKT_, @function
_ZN3Upp12GetHashValueINS_6StringEEEjRKT_:
.LFB1366:
	pushq	%rbp
.LCFI1056:
	movq	%rsp, %rbp
.LCFI1057:
	pushq	%rbx
.LCFI1058:
	subq	$8, %rsp
.LCFI1059:
	movq	%rdi, -16(%rbp)
	movq	-16(%rbp), %rdi
	call	_ZNK3Upp7AStringINS_7String0EE9GetLengthEv
	movslq	%eax,%rbx
	movq	-16(%rbp), %rdi
	call	_ZNK3Upp7AStringINS_7String0EEcoEv
	movq	%rax, %rdi
	movq	%rbx, %rsi
	call	_ZN3Upp7memhashEPKvm
	addq	$8, %rsp
	popq	%rbx
	leave
	ret
.LFE1366:
	.size	_ZN3Upp12GetHashValueINS_6StringEEEjRKT_, .-_ZN3Upp12GetHashValueINS_6StringEEEjRKT_
	.section	.text._ZNK13WorkspaceWork5Sepfo12GetHashValueEv,"axG",@progbits,_ZNK13WorkspaceWork5Sepfo12GetHashValueEv,comdat
	.align 2
	.weak	_ZNK13WorkspaceWork5Sepfo12GetHashValueEv
	.type	_ZNK13WorkspaceWork5Sepfo12GetHashValueEv, @function
_ZNK13WorkspaceWork5Sepfo12GetHashValueEv:
.LFB7772:
	pushq	%rbp
.LCFI1060:
	movq	%rsp, %rbp
.LCFI1061:
	subq	$32, %rsp
.LCFI1062:
	movq	%rdi, -24(%rbp)
	movq	-24(%rbp), %rdi
	addq	$24, %rdi
	call	_ZN3Upp12GetHashValueINS_6StringEEEjRKT_
	movl	%eax, -8(%rbp)
	movq	-24(%rbp), %rdi
	addq	$8, %rdi
	call	_ZN3Upp12GetHashValueINS_6StringEEEjRKT_
	movl	%eax, -4(%rbp)
	leaq	-8(%rbp), %rdx
	leaq	-4(%rbp), %rsi
	leaq	-16(%rbp), %rdi
	call	_ZN3Upp11CombineHashC1IjjEERKT_RKT0_
	leaq	-16(%rbp), %rdi
	call	_ZNK3Upp11CombineHashcvjEv
	leave
	ret
.LFE7772:
	.size	_ZNK13WorkspaceWork5Sepfo12GetHashValueEv, .-_ZNK13WorkspaceWork5Sepfo12GetHashValueEv
	.section	.text._ZN3Upp12GetHashValueIN13WorkspaceWork5SepfoEEEjRKT_,"axG",@progbits,_ZN3Upp12GetHashValueIN13WorkspaceWork5SepfoEEEjRKT_,comdat
	.align 2
	.weak	_ZN3Upp12GetHashValueIN13WorkspaceWork5SepfoEEEjRKT_
	.type	_ZN3Upp12GetHashValueIN13WorkspaceWork5SepfoEEEjRKT_, @function
_ZN3Upp12GetHashValueIN13WorkspaceWork5SepfoEEEjRKT_:
.LFB10006:
	pushq	%rbp
.LCFI1063:
	movq	%rsp, %rbp
.LCFI1064:
	subq	$16, %rsp
.LCFI1065:
	movq	%rdi, -8(%rbp)
	movq	-8(%rbp), %rdi
	call	_ZNK13WorkspaceWork5Sepfo12GetHashValueEv
	leave
	ret
.LFE10006:
	.size	_ZN3Upp12GetHashValueIN13WorkspaceWork5SepfoEEEjRKT_, .-_ZN3Upp12GetHashValueIN13WorkspaceWork5SepfoEEEjRKT_
	.section	.text._ZNK3Upp7StdHashIN13WorkspaceWork5SepfoEEclERKS2_,"axG",@progbits,_ZNK3Upp7StdHashIN13WorkspaceWork5SepfoEEclERKS2_,comdat
	.align 2
	.weak	_ZNK3Upp7StdHashIN13WorkspaceWork5SepfoEEclERKS2_
	.type	_ZNK3Upp7StdHashIN13WorkspaceWork5SepfoEEclERKS2_, @function
_ZNK3Upp7StdHashIN13WorkspaceWork5SepfoEEclERKS2_:
.LFB9576:
	pushq	%rbp
.LCFI1066:
	movq	%rsp, %rbp
.LCFI1067:
	subq	$16, %rsp
.LCFI1068:
	movq	%rdi, -8(%rbp)
	movq	%rsi, -16(%rbp)
	movq	-16(%rbp), %rdi
	call	_ZN3Upp12GetHashValueIN13WorkspaceWork5SepfoEEEjRKT_
	leave
	ret
.LFE9576:
	.size	_ZNK3Upp7StdHashIN13WorkspaceWork5SepfoEEclERKS2_, .-_ZNK3Upp7StdHashIN13WorkspaceWork5SepfoEEclERKS2_
	.section	.text._ZNK3Upp7StdHashINS_6StringEEclERKS1_,"axG",@progbits,_ZNK3Upp7StdHashINS_6StringEEclERKS1_,comdat
	.align 2
	.weak	_ZNK3Upp7StdHashINS_6StringEEclERKS1_
	.type	_ZNK3Upp7StdHashINS_6StringEEclERKS1_, @function
_ZNK3Upp7StdHashINS_6StringEEclERKS1_:
.LFB9432:
	pushq	%rbp
.LCFI1069:
	movq	%rsp, %rbp
.LCFI1070:
	subq	$16, %rsp
.LCFI1071:
	movq	%rdi, -8(%rbp)
	movq	%rsi, -16(%rbp)
	movq	-16(%rbp), %rdi
	call	_ZN3Upp12GetHashValueINS_6StringEEEjRKT_
	leave
	ret
.LFE9432:
	.size	_ZNK3Upp7StdHashINS_6StringEEclERKS1_, .-_ZNK3Upp7StdHashINS_6StringEEclERKS1_
	.section	.text._ZNK3Upp7String07IsEqualERKS0_,"axG",@progbits,_ZNK3Upp7String07IsEqualERKS0_,comdat
	.align 2
	.weak	_ZNK3Upp7String07IsEqualERKS0_
	.type	_ZNK3Upp7String07IsEqualERKS0_, @function
_ZNK3Upp7String07IsEqualERKS0_:
.LFB1244:
	pushq	%rbp
.LCFI1072:
	movq	%rsp, %rbp
.LCFI1073:
	subq	$32, %rsp
.LCFI1074:
	movq	%rdi, -8(%rbp)
	movq	%rsi, -16(%rbp)
	movq	-8(%rbp), %rax
	movzbl	14(%rax), %eax
	movsbl	%al,%edx
	movq	-16(%rbp), %rax
	movzbl	14(%rax), %eax
	movsbl	%al,%eax
	orl	%edx, %eax
	testl	%eax, %eax
	je	.L1204
	movq	-16(%rbp), %rsi
	movq	-8(%rbp), %rdi
	call	_ZNK3Upp7String06LEqualERKS0_
	testl	%eax, %eax
	sete	%al
	movzbl	%al, %eax
	movl	%eax, -20(%rbp)
	jmp	.L1206
.L1204:
	movq	-8(%rbp), %rax
	movq	(%rax), %rdx
	movq	-16(%rbp), %rax
	movq	(%rax), %rax
	movq	%rdx, %rcx
	xorq	%rax, %rcx
	movq	-8(%rbp), %rax
	movq	8(%rax), %rdx
	movq	-16(%rbp), %rax
	movq	8(%rax), %rax
	xorq	%rdx, %rax
	orq	%rcx, %rax
	testq	%rax, %rax
	sete	%al
	movzbl	%al, %eax
	movl	%eax, -20(%rbp)
.L1206:
	movl	-20(%rbp), %eax
	leave
	ret
.LFE1244:
	.size	_ZNK3Upp7String07IsEqualERKS0_, .-_ZNK3Upp7String07IsEqualERKS0_
	.section	.text._ZNK3Upp7AStringINS_7String0EE7IsEqualERKNS_6StringE,"axG",@progbits,_ZNK3Upp7AStringINS_7String0EE7IsEqualERKNS_6StringE,comdat
	.align 2
	.weak	_ZNK3Upp7AStringINS_7String0EE7IsEqualERKNS_6StringE
	.type	_ZNK3Upp7AStringINS_7String0EE7IsEqualERKNS_6StringE, @function
_ZNK3Upp7AStringINS_7String0EE7IsEqualERKNS_6StringE:
.LFB9121:
	pushq	%rbp
.LCFI1075:
	movq	%rsp, %rbp
.LCFI1076:
	subq	$16, %rsp
.LCFI1077:
	movq	%rdi, -8(%rbp)
	movq	%rsi, -16(%rbp)
	movq	-16(%rbp), %rsi
	movq	-8(%rbp), %rdi
	call	_ZNK3Upp7String07IsEqualERKS0_
	movzbl	%al, %eax
	leave
	ret
.LFE9121:
	.size	_ZNK3Upp7AStringINS_7String0EE7IsEqualERKNS_6StringE, .-_ZNK3Upp7AStringINS_7String0EE7IsEqualERKNS_6StringE
	.section	.text._ZN3UppeqERKNS_6StringES2_,"axG",@progbits,_ZN3UppeqERKNS_6StringES2_,comdat
	.align 2
	.weak	_ZN3UppeqERKNS_6StringES2_
	.type	_ZN3UppeqERKNS_6StringES2_, @function
_ZN3UppeqERKNS_6StringES2_:
.LFB8097:
	pushq	%rbp
.LCFI1078:
	movq	%rsp, %rbp
.LCFI1079:
	subq	$16, %rsp
.LCFI1080:
	movq	%rdi, -8(%rbp)
	movq	%rsi, -16(%rbp)
	movq	-8(%rbp), %rdi
	movq	-16(%rbp), %rsi
	call	_ZNK3Upp7AStringINS_7String0EE7IsEqualERKNS_6StringE
	movzbl	%al, %eax
	leave
	ret
.LFE8097:
	.size	_ZN3UppeqERKNS_6StringES2_, .-_ZN3UppeqERKNS_6StringES2_
	.section	.text._ZNK13WorkspaceWork5SepfoeqERKS0_,"axG",@progbits,_ZNK13WorkspaceWork5SepfoeqERKS0_,comdat
	.align 2
	.weak	_ZNK13WorkspaceWork5SepfoeqERKS0_
	.type	_ZNK13WorkspaceWork5SepfoeqERKS0_, @function
_ZNK13WorkspaceWork5SepfoeqERKS0_:
.LFB7771:
	pushq	%rbp
.LCFI1081:
	movq	%rsp, %rbp
.LCFI1082:
	subq	$32, %rsp
.LCFI1083:
	movq	%rdi, -8(%rbp)
	movq	%rsi, -16(%rbp)
	movq	-16(%rbp), %rsi
	addq	$8, %rsi
	movq	-8(%rbp), %rdi
	addq	$8, %rdi
	call	_ZN3UppeqERKNS_6StringES2_
	xorl	$1, %eax
	testb	%al, %al
	jne	.L1213
	movq	-16(%rbp), %rsi
	addq	$24, %rsi
	movq	-8(%rbp), %rdi
	addq	$24, %rdi
	call	_ZN3UppeqERKNS_6StringES2_
	xorl	$1, %eax
	testb	%al, %al
	jne	.L1213
	movb	$1, -17(%rbp)
	jmp	.L1216
.L1213:
	movb	$0, -17(%rbp)
.L1216:
	movzbl	-17(%rbp), %eax
	leave
	ret
.LFE7771:
	.size	_ZNK13WorkspaceWork5SepfoeqERKS0_, .-_ZNK13WorkspaceWork5SepfoeqERKS0_
	.section	.text._ZNK3Upp6AIndexIN13WorkspaceWork5SepfoENS_6VectorIS2_EENS_7StdHashIS2_EEE5Find0ERKS2_i,"axG",@progbits,_ZNK3Upp6AIndexIN13WorkspaceWork5SepfoENS_6VectorIS2_EENS_7StdHashIS2_EEE5Find0ERKS2_i,comdat
	.align 2
	.weak	_ZNK3Upp6AIndexIN13WorkspaceWork5SepfoENS_6VectorIS2_EENS_7StdHashIS2_EEE5Find0ERKS2_i
	.type	_ZNK3Upp6AIndexIN13WorkspaceWork5SepfoENS_6VectorIS2_EENS_7StdHashIS2_EEE5Find0ERKS2_i, @function
_ZNK3Upp6AIndexIN13WorkspaceWork5SepfoENS_6VectorIS2_EENS_7StdHashIS2_EEE5Find0ERKS2_i:
.LFB10007:
	pushq	%rbp
.LCFI1084:
	movq	%rsp, %rbp
.LCFI1085:
	subq	$32, %rsp
.LCFI1086:
	movq	%rdi, -8(%rbp)
	movq	%rsi, -16(%rbp)
	movl	%edx, -20(%rbp)
	jmp	.L1219
.L1220:
	movq	-8(%rbp), %rdi
	addq	$16, %rdi
	movl	-20(%rbp), %esi
	call	_ZNK3Upp8HashBase8FindNextEi
	movl	%eax, -20(%rbp)
.L1219:
	cmpl	$0, -20(%rbp)
	js	.L1221
	movq	-8(%rbp), %rdi
	movl	-20(%rbp), %esi
	call	_ZNK3Upp6VectorIN13WorkspaceWork5SepfoEEixEi
	movq	%rax, %rsi
	movq	-16(%rbp), %rdi
	call	_ZNK13WorkspaceWork5SepfoeqERKS0_
	xorl	$1, %eax
	xorl	$1, %eax
	testb	%al, %al
	jne	.L1221
	movb	$1, -21(%rbp)
	jmp	.L1224
.L1221:
	movb	$0, -21(%rbp)
.L1224:
	movzbl	-21(%rbp), %eax
	testb	%al, %al
	jne	.L1220
	movl	-20(%rbp), %eax
	leave
	ret
.LFE10007:
	.size	_ZNK3Upp6AIndexIN13WorkspaceWork5SepfoENS_6VectorIS2_EENS_7StdHashIS2_EEE5Find0ERKS2_i, .-_ZNK3Upp6AIndexIN13WorkspaceWork5SepfoENS_6VectorIS2_EENS_7StdHashIS2_EEE5Find0ERKS2_i
	.section	.text._ZNK3Upp6AIndexIN13WorkspaceWork5SepfoENS_6VectorIS2_EENS_7StdHashIS2_EEE4FindERKS2_j,"axG",@progbits,_ZNK3Upp6AIndexIN13WorkspaceWork5SepfoENS_6VectorIS2_EENS_7StdHashIS2_EEE4FindERKS2_j,comdat
	.align 2
	.weak	_ZNK3Upp6AIndexIN13WorkspaceWork5SepfoENS_6VectorIS2_EENS_7StdHashIS2_EEE4FindERKS2_j
	.type	_ZNK3Upp6AIndexIN13WorkspaceWork5SepfoENS_6VectorIS2_EENS_7StdHashIS2_EEE4FindERKS2_j, @function
_ZNK3Upp6AIndexIN13WorkspaceWork5SepfoENS_6VectorIS2_EENS_7StdHashIS2_EEE4FindERKS2_j:
.LFB9577:
	pushq	%rbp
.LCFI1087:
	movq	%rsp, %rbp
.LCFI1088:
	subq	$32, %rsp
.LCFI1089:
	movq	%rdi, -8(%rbp)
	movq	%rsi, -16(%rbp)
	movl	%edx, -20(%rbp)
	movq	-8(%rbp), %rdi
	addq	$16, %rdi
	movl	-20(%rbp), %esi
	call	_ZNK3Upp8HashBase4FindEj
	movq	-16(%rbp), %rsi
	movq	-8(%rbp), %rdi
	movl	%eax, %edx
	call	_ZNK3Upp6AIndexIN13WorkspaceWork5SepfoENS_6VectorIS2_EENS_7StdHashIS2_EEE5Find0ERKS2_i
	leave
	ret
.LFE9577:
	.size	_ZNK3Upp6AIndexIN13WorkspaceWork5SepfoENS_6VectorIS2_EENS_7StdHashIS2_EEE4FindERKS2_j, .-_ZNK3Upp6AIndexIN13WorkspaceWork5SepfoENS_6VectorIS2_EENS_7StdHashIS2_EEE4FindERKS2_j
	.section	.text._ZNK3Upp6AIndexIN13WorkspaceWork5SepfoENS_6VectorIS2_EENS_7StdHashIS2_EEE4FindERKS2_,"axG",@progbits,_ZNK3Upp6AIndexIN13WorkspaceWork5SepfoENS_6VectorIS2_EENS_7StdHashIS2_EEE4FindERKS2_,comdat
	.align 2
	.weak	_ZNK3Upp6AIndexIN13WorkspaceWork5SepfoENS_6VectorIS2_EENS_7StdHashIS2_EEE4FindERKS2_
	.type	_ZNK3Upp6AIndexIN13WorkspaceWork5SepfoENS_6VectorIS2_EENS_7StdHashIS2_EEE4FindERKS2_, @function
_ZNK3Upp6AIndexIN13WorkspaceWork5SepfoENS_6VectorIS2_EENS_7StdHashIS2_EEE4FindERKS2_:
.LFB9016:
	pushq	%rbp
.LCFI1090:
	movq	%rsp, %rbp
.LCFI1091:
	subq	$16, %rsp
.LCFI1092:
	movq	%rdi, -8(%rbp)
	movq	%rsi, -16(%rbp)
	movq	-8(%rbp), %rdi
	addq	$72, %rdi
	movq	-16(%rbp), %rsi
	call	_ZNK3Upp7StdHashIN13WorkspaceWork5SepfoEEclERKS2_
	movq	-16(%rbp), %rsi
	movq	-8(%rbp), %rdi
	movl	%eax, %edx
	call	_ZNK3Upp6AIndexIN13WorkspaceWork5SepfoENS_6VectorIS2_EENS_7StdHashIS2_EEE4FindERKS2_j
	leave
	ret
.LFE9016:
	.size	_ZNK3Upp6AIndexIN13WorkspaceWork5SepfoENS_6VectorIS2_EENS_7StdHashIS2_EEE4FindERKS2_, .-_ZNK3Upp6AIndexIN13WorkspaceWork5SepfoENS_6VectorIS2_EENS_7StdHashIS2_EEE4FindERKS2_
	.section	.text._ZN3Upp6AIndexIN13WorkspaceWork5SepfoENS_6VectorIS2_EENS_7StdHashIS2_EEE9UnlinkKeyERKS2_j,"axG",@progbits,_ZN3Upp6AIndexIN13WorkspaceWork5SepfoENS_6VectorIS2_EENS_7StdHashIS2_EEE9UnlinkKeyERKS2_j,comdat
	.align 2
	.weak	_ZN3Upp6AIndexIN13WorkspaceWork5SepfoENS_6VectorIS2_EENS_7StdHashIS2_EEE9UnlinkKeyERKS2_j
	.type	_ZN3Upp6AIndexIN13WorkspaceWork5SepfoENS_6VectorIS2_EENS_7StdHashIS2_EEE9UnlinkKeyERKS2_j, @function
_ZN3Upp6AIndexIN13WorkspaceWork5SepfoENS_6VectorIS2_EENS_7StdHashIS2_EEE9UnlinkKeyERKS2_j:
.LFB9602:
	pushq	%rbp
.LCFI1093:
	movq	%rsp, %rbp
.LCFI1094:
	subq	$48, %rsp
.LCFI1095:
	movq	%rdi, -24(%rbp)
	movq	%rsi, -32(%rbp)
	movl	%edx, -36(%rbp)
	movl	$0, -12(%rbp)
	movq	-24(%rbp), %rdi
	addq	$16, %rdi
	movl	-36(%rbp), %esi
	call	_ZNK3Upp8HashBase4FindEj
	movl	%eax, -8(%rbp)
	jmp	.L1237
.L1233:
	movl	-8(%rbp), %eax
	movl	%eax, -4(%rbp)
	movq	-24(%rbp), %rdi
	addq	$16, %rdi
	movl	-8(%rbp), %esi
	call	_ZNK3Upp8HashBase8FindNextEi
	movl	%eax, -8(%rbp)
	movq	-24(%rbp), %rdi
	movl	-4(%rbp), %esi
	call	_ZN3Upp6VectorIN13WorkspaceWork5SepfoEEixEi
	movq	%rax, %rsi
	movq	-32(%rbp), %rdi
	call	_ZNK13WorkspaceWork5SepfoeqERKS0_
	testb	%al, %al
	je	.L1232
	movq	-24(%rbp), %rdi
	addq	$16, %rdi
	movl	-4(%rbp), %esi
	call	_ZN3Upp8HashBase6UnlinkEi
	addl	$1, -12(%rbp)
.L1232:
.L1237:
	cmpl	$0, -8(%rbp)
	jns	.L1233
	movl	-12(%rbp), %eax
	leave
	ret
.LFE9602:
	.size	_ZN3Upp6AIndexIN13WorkspaceWork5SepfoENS_6VectorIS2_EENS_7StdHashIS2_EEE9UnlinkKeyERKS2_j, .-_ZN3Upp6AIndexIN13WorkspaceWork5SepfoENS_6VectorIS2_EENS_7StdHashIS2_EEE9UnlinkKeyERKS2_j
	.section	.text._ZN3Upp6AIndexIN13WorkspaceWork5SepfoENS_6VectorIS2_EENS_7StdHashIS2_EEE9UnlinkKeyERKS2_,"axG",@progbits,_ZN3Upp6AIndexIN13WorkspaceWork5SepfoENS_6VectorIS2_EENS_7StdHashIS2_EEE9UnlinkKeyERKS2_,comdat
	.align 2
	.weak	_ZN3Upp6AIndexIN13WorkspaceWork5SepfoENS_6VectorIS2_EENS_7StdHashIS2_EEE9UnlinkKeyERKS2_
	.type	_ZN3Upp6AIndexIN13WorkspaceWork5SepfoENS_6VectorIS2_EENS_7StdHashIS2_EEE9UnlinkKeyERKS2_, @function
_ZN3Upp6AIndexIN13WorkspaceWork5SepfoENS_6VectorIS2_EENS_7StdHashIS2_EEE9UnlinkKeyERKS2_:
.LFB9037:
	pushq	%rbp
.LCFI1096:
	movq	%rsp, %rbp
.LCFI1097:
	subq	$16, %rsp
.LCFI1098:
	movq	%rdi, -8(%rbp)
	movq	%rsi, -16(%rbp)
	movq	-8(%rbp), %rdi
	addq	$72, %rdi
	movq	-16(%rbp), %rsi
	call	_ZNK3Upp7StdHashIN13WorkspaceWork5SepfoEEclERKS2_
	movq	-16(%rbp), %rsi
	movq	-8(%rbp), %rdi
	movl	%eax, %edx
	call	_ZN3Upp6AIndexIN13WorkspaceWork5SepfoENS_6VectorIS2_EENS_7StdHashIS2_EEE9UnlinkKeyERKS2_j
	leave
	ret
.LFE9037:
	.size	_ZN3Upp6AIndexIN13WorkspaceWork5SepfoENS_6VectorIS2_EENS_7StdHashIS2_EEE9UnlinkKeyERKS2_, .-_ZN3Upp6AIndexIN13WorkspaceWork5SepfoENS_6VectorIS2_EENS_7StdHashIS2_EEE9UnlinkKeyERKS2_
	.section	.text._ZNK3Upp6AIndexINS_6StringENS_6VectorIS1_EENS_7StdHashIS1_EEE5Find0ERKS1_i,"axG",@progbits,_ZNK3Upp6AIndexINS_6StringENS_6VectorIS1_EENS_7StdHashIS1_EEE5Find0ERKS1_i,comdat
	.align 2
	.weak	_ZNK3Upp6AIndexINS_6StringENS_6VectorIS1_EENS_7StdHashIS1_EEE5Find0ERKS1_i
	.type	_ZNK3Upp6AIndexINS_6StringENS_6VectorIS1_EENS_7StdHashIS1_EEE5Find0ERKS1_i, @function
_ZNK3Upp6AIndexINS_6StringENS_6VectorIS1_EENS_7StdHashIS1_EEE5Find0ERKS1_i:
.LFB9859:
	pushq	%rbp
.LCFI1099:
	movq	%rsp, %rbp
.LCFI1100:
	subq	$32, %rsp
.LCFI1101:
	movq	%rdi, -8(%rbp)
	movq	%rsi, -16(%rbp)
	movl	%edx, -20(%rbp)
	jmp	.L1241
.L1242:
	movq	-8(%rbp), %rdi
	addq	$16, %rdi
	movl	-20(%rbp), %esi
	call	_ZNK3Upp8HashBase8FindNextEi
	movl	%eax, -20(%rbp)
.L1241:
	cmpl	$0, -20(%rbp)
	js	.L1243
	movq	-8(%rbp), %rdi
	movl	-20(%rbp), %esi
	call	_ZNK3Upp6VectorINS_6StringEEixEi
	movq	%rax, %rsi
	movq	-16(%rbp), %rdi
	call	_ZN3UppeqERKNS_6StringES2_
	xorl	$1, %eax
	xorl	$1, %eax
	testb	%al, %al
	jne	.L1243
	movb	$1, -21(%rbp)
	jmp	.L1246
.L1243:
	movb	$0, -21(%rbp)
.L1246:
	movzbl	-21(%rbp), %eax
	testb	%al, %al
	jne	.L1242
	movl	-20(%rbp), %eax
	leave
	ret
.LFE9859:
	.size	_ZNK3Upp6AIndexINS_6StringENS_6VectorIS1_EENS_7StdHashIS1_EEE5Find0ERKS1_i, .-_ZNK3Upp6AIndexINS_6StringENS_6VectorIS1_EENS_7StdHashIS1_EEE5Find0ERKS1_i
	.section	.text._ZNK3Upp6AIndexINS_6StringENS_6VectorIS1_EENS_7StdHashIS1_EEE4FindERKS1_j,"axG",@progbits,_ZNK3Upp6AIndexINS_6StringENS_6VectorIS1_EENS_7StdHashIS1_EEE4FindERKS1_j,comdat
	.align 2
	.weak	_ZNK3Upp6AIndexINS_6StringENS_6VectorIS1_EENS_7StdHashIS1_EEE4FindERKS1_j
	.type	_ZNK3Upp6AIndexINS_6StringENS_6VectorIS1_EENS_7StdHashIS1_EEE4FindERKS1_j, @function
_ZNK3Upp6AIndexINS_6StringENS_6VectorIS1_EENS_7StdHashIS1_EEE4FindERKS1_j:
.LFB9444:
	pushq	%rbp
.LCFI1102:
	movq	%rsp, %rbp
.LCFI1103:
	subq	$32, %rsp
.LCFI1104:
	movq	%rdi, -8(%rbp)
	movq	%rsi, -16(%rbp)
	movl	%edx, -20(%rbp)
	movq	-8(%rbp), %rdi
	addq	$16, %rdi
	movl	-20(%rbp), %esi
	call	_ZNK3Upp8HashBase4FindEj
	movq	-16(%rbp), %rsi
	movq	-8(%rbp), %rdi
	movl	%eax, %edx
	call	_ZNK3Upp6AIndexINS_6StringENS_6VectorIS1_EENS_7StdHashIS1_EEE5Find0ERKS1_i
	leave
	ret
.LFE9444:
	.size	_ZNK3Upp6AIndexINS_6StringENS_6VectorIS1_EENS_7StdHashIS1_EEE4FindERKS1_j, .-_ZNK3Upp6AIndexINS_6StringENS_6VectorIS1_EENS_7StdHashIS1_EEE4FindERKS1_j
	.section	.text._ZNK3Upp6AIndexINS_6StringENS_6VectorIS1_EENS_7StdHashIS1_EEE4FindERKS1_,"axG",@progbits,_ZNK3Upp6AIndexINS_6StringENS_6VectorIS1_EENS_7StdHashIS1_EEE4FindERKS1_,comdat
	.align 2
	.weak	_ZNK3Upp6AIndexINS_6StringENS_6VectorIS1_EENS_7StdHashIS1_EEE4FindERKS1_
	.type	_ZNK3Upp6AIndexINS_6StringENS_6VectorIS1_EENS_7StdHashIS1_EEE4FindERKS1_, @function
_ZNK3Upp6AIndexINS_6StringENS_6VectorIS1_EENS_7StdHashIS1_EEE4FindERKS1_:
.LFB9010:
	pushq	%rbp
.LCFI1105:
	movq	%rsp, %rbp
.LCFI1106:
	subq	$16, %rsp
.LCFI1107:
	movq	%rdi, -8(%rbp)
	movq	%rsi, -16(%rbp)
	movq	-8(%rbp), %rdi
	addq	$72, %rdi
	movq	-16(%rbp), %rsi
	call	_ZNK3Upp7StdHashINS_6StringEEclERKS1_
	movq	-16(%rbp), %rsi
	movq	-8(%rbp), %rdi
	movl	%eax, %edx
	call	_ZNK3Upp6AIndexINS_6StringENS_6VectorIS1_EENS_7StdHashIS1_EEE4FindERKS1_j
	leave
	ret
.LFE9010:
	.size	_ZNK3Upp6AIndexINS_6StringENS_6VectorIS1_EENS_7StdHashIS1_EEE4FindERKS1_, .-_ZNK3Upp6AIndexINS_6StringENS_6VectorIS1_EENS_7StdHashIS1_EEE4FindERKS1_
	.section	.text._ZNK3Upp4AMapINS_6StringEN13WorkspaceWork6BackupENS_5ArrayIS3_EENS_7StdHashIS1_EEE4FindERKS1_,"axG",@progbits,_ZNK3Upp4AMapINS_6StringEN13WorkspaceWork6BackupENS_5ArrayIS3_EENS_7StdHashIS1_EEE4FindERKS1_,comdat
	.align 2
	.weak	_ZNK3Upp4AMapINS_6StringEN13WorkspaceWork6BackupENS_5ArrayIS3_EENS_7StdHashIS1_EEE4FindERKS1_
	.type	_ZNK3Upp4AMapINS_6StringEN13WorkspaceWork6BackupENS_5ArrayIS3_EENS_7StdHashIS1_EEE4FindERKS1_, @function
_ZNK3Upp4AMapINS_6StringEN13WorkspaceWork6BackupENS_5ArrayIS3_EENS_7StdHashIS1_EEE4FindERKS1_:
.LFB9005:
	pushq	%rbp
.LCFI1108:
	movq	%rsp, %rbp
.LCFI1109:
	subq	$16, %rsp
.LCFI1110:
	movq	%rdi, -8(%rbp)
	movq	%rsi, -16(%rbp)
	movq	-8(%rbp), %rdi
	addq	$8, %rdi
	movq	-16(%rbp), %rsi
	call	_ZNK3Upp6AIndexINS_6StringENS_6VectorIS1_EENS_7StdHashIS1_EEE4FindERKS1_
	leave
	ret
.LFE9005:
	.size	_ZNK3Upp4AMapINS_6StringEN13WorkspaceWork6BackupENS_5ArrayIS3_EENS_7StdHashIS1_EEE4FindERKS1_, .-_ZNK3Upp4AMapINS_6StringEN13WorkspaceWork6BackupENS_5ArrayIS3_EENS_7StdHashIS1_EEE4FindERKS1_
	.section	.text._ZN3Upp6VectorIN13WorkspaceWork5SepfoEE4GrowEv,"axG",@progbits,_ZN3Upp6VectorIN13WorkspaceWork5SepfoEE4GrowEv,comdat
	.align 2
	.weak	_ZN3Upp6VectorIN13WorkspaceWork5SepfoEE4GrowEv
	.type	_ZN3Upp6VectorIN13WorkspaceWork5SepfoEE4GrowEv, @function
_ZN3Upp6VectorIN13WorkspaceWork5SepfoEE4GrowEv:
.LFB10033:
	pushq	%rbp
.LCFI1111:
	movq	%rsp, %rbp
.LCFI1112:
	subq	$16, %rsp
.LCFI1113:
	movq	%rdi, -8(%rbp)
	movq	-8(%rbp), %rdi
	movl	$40, %esi
	call	_ZN3Upp11VectorGrow_EPvi
	leave
	ret
.LFE10033:
	.size	_ZN3Upp6VectorIN13WorkspaceWork5SepfoEE4GrowEv, .-_ZN3Upp6VectorIN13WorkspaceWork5SepfoEE4GrowEv
	.section	.text._ZN3Upp6VectorIN13WorkspaceWork5SepfoEE7GrowAddERKS2_,"axG",@progbits,_ZN3Upp6VectorIN13WorkspaceWork5SepfoEE7GrowAddERKS2_,comdat
	.align 2
	.weak	_ZN3Upp6VectorIN13WorkspaceWork5SepfoEE7GrowAddERKS2_
	.type	_ZN3Upp6VectorIN13WorkspaceWork5SepfoEE7GrowAddERKS2_, @function
_ZN3Upp6VectorIN13WorkspaceWork5SepfoEE7GrowAddERKS2_:
.LFB9635:
	pushq	%rbp
.LCFI1114:
	movq	%rsp, %rbp
.LCFI1115:
	subq	$32, %rsp
.LCFI1116:
	movq	%rdi, -24(%rbp)
	movq	%rsi, -32(%rbp)
	movq	-24(%rbp), %rax
	movq	(%rax), %rax
	movq	%rax, -8(%rbp)
	movq	-24(%rbp), %rdi
	call	_ZN3Upp6VectorIN13WorkspaceWork5SepfoEE4GrowEv
	movq	-24(%rbp), %rdi
	call	_ZN3Upp6VectorIN13WorkspaceWork5SepfoEE3RddEv
	movq	%rax, %rdi
	movq	-32(%rbp), %rsi
	call	_ZN3Upp17DeepCopyConstructIN13WorkspaceWork5SepfoEEEvPvRKT_
	movq	-8(%rbp), %rdi
	call	_ZN3Upp6VectorIN13WorkspaceWork5SepfoEE7RawFreeEPS2_
	leave
	ret
.LFE9635:
	.size	_ZN3Upp6VectorIN13WorkspaceWork5SepfoEE7GrowAddERKS2_, .-_ZN3Upp6VectorIN13WorkspaceWork5SepfoEE7GrowAddERKS2_
	.section	.text._ZN3Upp6VectorIN13WorkspaceWork5SepfoEE3AddERKS2_,"axG",@progbits,_ZN3Upp6VectorIN13WorkspaceWork5SepfoEE3AddERKS2_,comdat
	.align 2
	.weak	_ZN3Upp6VectorIN13WorkspaceWork5SepfoEE3AddERKS2_
	.type	_ZN3Upp6VectorIN13WorkspaceWork5SepfoEE3AddERKS2_, @function
_ZN3Upp6VectorIN13WorkspaceWork5SepfoEE3AddERKS2_:
.LFB9078:
	pushq	%rbp
.LCFI1117:
	movq	%rsp, %rbp
.LCFI1118:
	subq	$16, %rsp
.LCFI1119:
	movq	%rdi, -8(%rbp)
	movq	%rsi, -16(%rbp)
	movq	-8(%rbp), %rdi
	call	_ZNK3Upp6VectorIN13WorkspaceWork5SepfoEE3ChkEv
	movq	-8(%rbp), %rax
	movl	8(%rax), %edx
	movq	-8(%rbp), %rax
	movl	12(%rax), %eax
	cmpl	%eax, %edx
	jge	.L1260
	movq	-8(%rbp), %rdi
	call	_ZN3Upp6VectorIN13WorkspaceWork5SepfoEE3RddEv
	movq	%rax, %rdi
	movq	-16(%rbp), %rsi
	call	_ZN3Upp17DeepCopyConstructIN13WorkspaceWork5SepfoEEEvPvRKT_
	jmp	.L1263
.L1260:
	movq	-16(%rbp), %rsi
	movq	-8(%rbp), %rdi
	call	_ZN3Upp6VectorIN13WorkspaceWork5SepfoEE7GrowAddERKS2_
.L1263:
	leave
	ret
.LFE9078:
	.size	_ZN3Upp6VectorIN13WorkspaceWork5SepfoEE3AddERKS2_, .-_ZN3Upp6VectorIN13WorkspaceWork5SepfoEE3AddERKS2_
	.section	.text._ZN3Upp6VectorIPvE4GrowEv,"axG",@progbits,_ZN3Upp6VectorIPvE4GrowEv,comdat
	.align 2
	.weak	_ZN3Upp6VectorIPvE4GrowEv
	.type	_ZN3Upp6VectorIPvE4GrowEv, @function
_ZN3Upp6VectorIPvE4GrowEv:
.LFB10053:
	pushq	%rbp
.LCFI1120:
	movq	%rsp, %rbp
.LCFI1121:
	subq	$16, %rsp
.LCFI1122:
	movq	%rdi, -8(%rbp)
	movq	-8(%rbp), %rdi
	movl	$8, %esi
	call	_ZN3Upp11VectorGrow_EPvi
	leave
	ret
.LFE10053:
	.size	_ZN3Upp6VectorIPvE4GrowEv, .-_ZN3Upp6VectorIPvE4GrowEv
	.section	.text._ZN3Upp6VectorIPvE7GrowAddERKS1_,"axG",@progbits,_ZN3Upp6VectorIPvE7GrowAddERKS1_,comdat
	.align 2
	.weak	_ZN3Upp6VectorIPvE7GrowAddERKS1_
	.type	_ZN3Upp6VectorIPvE7GrowAddERKS1_, @function
_ZN3Upp6VectorIPvE7GrowAddERKS1_:
.LFB9673:
	pushq	%rbp
.LCFI1123:
	movq	%rsp, %rbp
.LCFI1124:
	subq	$32, %rsp
.LCFI1125:
	movq	%rdi, -24(%rbp)
	movq	%rsi, -32(%rbp)
	movq	-24(%rbp), %rax
	movq	(%rax), %rax
	movq	%rax, -8(%rbp)
	movq	-24(%rbp), %rdi
	call	_ZN3Upp6VectorIPvE4GrowEv
	movq	-24(%rbp), %rdi
	call	_ZN3Upp6VectorIPvE3RddEv
	movq	%rax, %rdi
	movq	-32(%rbp), %rsi
	call	_ZN3Upp17DeepCopyConstructIPvEEvS1_RKT_
	movq	-8(%rbp), %rdi
	call	_ZN3Upp6VectorIPvE7RawFreeEPS1_
	leave
	ret
.LFE9673:
	.size	_ZN3Upp6VectorIPvE7GrowAddERKS1_, .-_ZN3Upp6VectorIPvE7GrowAddERKS1_
	.section	.text._ZN3Upp6VectorIPvE3AddERKS1_,"axG",@progbits,_ZN3Upp6VectorIPvE3AddERKS1_,comdat
	.align 2
	.weak	_ZN3Upp6VectorIPvE3AddERKS1_
	.type	_ZN3Upp6VectorIPvE3AddERKS1_, @function
_ZN3Upp6VectorIPvE3AddERKS1_:
.LFB9184:
	pushq	%rbp
.LCFI1126:
	movq	%rsp, %rbp
.LCFI1127:
	subq	$16, %rsp
.LCFI1128:
	movq	%rdi, -8(%rbp)
	movq	%rsi, -16(%rbp)
	movq	-8(%rbp), %rdi
	call	_ZNK3Upp6VectorIPvE3ChkEv
	movq	-8(%rbp), %rax
	movl	8(%rax), %edx
	movq	-8(%rbp), %rax
	movl	12(%rax), %eax
	cmpl	%eax, %edx
	jge	.L1269
	movq	-8(%rbp), %rdi
	call	_ZN3Upp6VectorIPvE3RddEv
	movq	%rax, %rdi
	movq	-16(%rbp), %rsi
	call	_ZN3Upp17DeepCopyConstructIPvEEvS1_RKT_
	jmp	.L1272
.L1269:
	movq	-16(%rbp), %rsi
	movq	-8(%rbp), %rdi
	call	_ZN3Upp6VectorIPvE7GrowAddERKS1_
.L1272:
	leave
	ret
.LFE9184:
	.size	_ZN3Upp6VectorIPvE3AddERKS1_, .-_ZN3Upp6VectorIPvE3AddERKS1_
	.section	.text._ZN3Upp6VectorINS_6StringEE4GrowEv,"axG",@progbits,_ZN3Upp6VectorINS_6StringEE4GrowEv,comdat
	.align 2
	.weak	_ZN3Upp6VectorINS_6StringEE4GrowEv
	.type	_ZN3Upp6VectorINS_6StringEE4GrowEv, @function
_ZN3Upp6VectorINS_6StringEE4GrowEv:
.LFB9834:
	pushq	%rbp
.LCFI1129:
	movq	%rsp, %rbp
.LCFI1130:
	subq	$16, %rsp
.LCFI1131:
	movq	%rdi, -8(%rbp)
	movq	-8(%rbp), %rdi
	movl	$16, %esi
	call	_ZN3Upp11VectorGrow_EPvi
	leave
	ret
.LFE9834:
	.size	_ZN3Upp6VectorINS_6StringEE4GrowEv, .-_ZN3Upp6VectorINS_6StringEE4GrowEv
	.section	.text._ZN3Upp6VectorINS_6StringEE7GrowAddERKS1_,"axG",@progbits,_ZN3Upp6VectorINS_6StringEE7GrowAddERKS1_,comdat
	.align 2
	.weak	_ZN3Upp6VectorINS_6StringEE7GrowAddERKS1_
	.type	_ZN3Upp6VectorINS_6StringEE7GrowAddERKS1_, @function
_ZN3Upp6VectorINS_6StringEE7GrowAddERKS1_:
.LFB9405:
	pushq	%rbp
.LCFI1132:
	movq	%rsp, %rbp
.LCFI1133:
	subq	$32, %rsp
.LCFI1134:
	movq	%rdi, -24(%rbp)
	movq	%rsi, -32(%rbp)
	movq	-24(%rbp), %rax
	movq	(%rax), %rax
	movq	%rax, -8(%rbp)
	movq	-24(%rbp), %rdi
	call	_ZN3Upp6VectorINS_6StringEE4GrowEv
	movq	-24(%rbp), %rdi
	call	_ZN3Upp6VectorINS_6StringEE3RddEv
	movq	%rax, %rdi
	movq	-32(%rbp), %rsi
	call	_ZN3Upp17DeepCopyConstructINS_6StringEEEvPvRKT_
	movq	-8(%rbp), %rdi
	call	_ZN3Upp6VectorINS_6StringEE7RawFreeEPS1_
	leave
	ret
.LFE9405:
	.size	_ZN3Upp6VectorINS_6StringEE7GrowAddERKS1_, .-_ZN3Upp6VectorINS_6StringEE7GrowAddERKS1_
	.section	.text._ZN3Upp6VectorINS_6StringEE3AddERKS1_,"axG",@progbits,_ZN3Upp6VectorINS_6StringEE3AddERKS1_,comdat
	.align 2
	.weak	_ZN3Upp6VectorINS_6StringEE3AddERKS1_
	.type	_ZN3Upp6VectorINS_6StringEE3AddERKS1_, @function
_ZN3Upp6VectorINS_6StringEE3AddERKS1_:
.LFB8680:
	pushq	%rbp
.LCFI1135:
	movq	%rsp, %rbp
.LCFI1136:
	subq	$16, %rsp
.LCFI1137:
	movq	%rdi, -8(%rbp)
	movq	%rsi, -16(%rbp)
	movq	-8(%rbp), %rdi
	call	_ZNK3Upp6VectorINS_6StringEE3ChkEv
	movq	-8(%rbp), %rax
	movl	8(%rax), %edx
	movq	-8(%rbp), %rax
	movl	12(%rax), %eax
	cmpl	%eax, %edx
	jge	.L1278
	movq	-8(%rbp), %rdi
	call	_ZN3Upp6VectorINS_6StringEE3RddEv
	movq	%rax, %rdi
	movq	-16(%rbp), %rsi
	call	_ZN3Upp17DeepCopyConstructINS_6StringEEEvPvRKT_
	jmp	.L1281
.L1278:
	movq	-16(%rbp), %rsi
	movq	-8(%rbp), %rdi
	call	_ZN3Upp6VectorINS_6StringEE7GrowAddERKS1_
.L1281:
	leave
	ret
.LFE8680:
	.size	_ZN3Upp6VectorINS_6StringEE3AddERKS1_, .-_ZN3Upp6VectorINS_6StringEE3AddERKS1_
	.section	.text._ZN3Upp6VectorIiE4GrowEv,"axG",@progbits,_ZN3Upp6VectorIiE4GrowEv,comdat
	.align 2
	.weak	_ZN3Upp6VectorIiE4GrowEv
	.type	_ZN3Upp6VectorIiE4GrowEv, @function
_ZN3Upp6VectorIiE4GrowEv:
.LFB10008:
	pushq	%rbp
.LCFI1138:
	movq	%rsp, %rbp
.LCFI1139:
	subq	$16, %rsp
.LCFI1140:
	movq	%rdi, -8(%rbp)
	movq	-8(%rbp), %rdi
	movl	$4, %esi
	call	_ZN3Upp11VectorGrow_EPvi
	leave
	ret
.LFE10008:
	.size	_ZN3Upp6VectorIiE4GrowEv, .-_ZN3Upp6VectorIiE4GrowEv
	.section	.text._ZN3Upp6VectorIiE7GrowAddERKi,"axG",@progbits,_ZN3Upp6VectorIiE7GrowAddERKi,comdat
	.align 2
	.weak	_ZN3Upp6VectorIiE7GrowAddERKi
	.type	_ZN3Upp6VectorIiE7GrowAddERKi, @function
_ZN3Upp6VectorIiE7GrowAddERKi:
.LFB9580:
	pushq	%rbp
.LCFI1141:
	movq	%rsp, %rbp
.LCFI1142:
	subq	$32, %rsp
.LCFI1143:
	movq	%rdi, -24(%rbp)
	movq	%rsi, -32(%rbp)
	movq	-24(%rbp), %rax
	movq	(%rax), %rax
	movq	%rax, -8(%rbp)
	movq	-24(%rbp), %rdi
	call	_ZN3Upp6VectorIiE4GrowEv
	movq	-24(%rbp), %rdi
	call	_ZN3Upp6VectorIiE3RddEv
	movq	%rax, %rdi
	movq	-32(%rbp), %rsi
	call	_ZN3Upp17DeepCopyConstructIiEEvPvRKT_
	movq	-8(%rbp), %rdi
	call	_ZN3Upp6VectorIiE7RawFreeEPi
	leave
	ret
.LFE9580:
	.size	_ZN3Upp6VectorIiE7GrowAddERKi, .-_ZN3Upp6VectorIiE7GrowAddERKi
	.section	.text._ZN3Upp6VectorIiE3AddERKi,"axG",@progbits,_ZN3Upp6VectorIiE3AddERKi,comdat
	.align 2
	.weak	_ZN3Upp6VectorIiE3AddERKi
	.type	_ZN3Upp6VectorIiE3AddERKi, @function
_ZN3Upp6VectorIiE3AddERKi:
.LFB9017:
	pushq	%rbp
.LCFI1144:
	movq	%rsp, %rbp
.LCFI1145:
	subq	$16, %rsp
.LCFI1146:
	movq	%rdi, -8(%rbp)
	movq	%rsi, -16(%rbp)
	movq	-8(%rbp), %rdi
	call	_ZNK3Upp6VectorIiE3ChkEv
	movq	-8(%rbp), %rax
	movl	8(%rax), %edx
	movq	-8(%rbp), %rax
	movl	12(%rax), %eax
	cmpl	%eax, %edx
	jge	.L1287
	movq	-8(%rbp), %rdi
	call	_ZN3Upp6VectorIiE3RddEv
	movq	%rax, %rdi
	movq	-16(%rbp), %rsi
	call	_ZN3Upp17DeepCopyConstructIiEEvPvRKT_
	jmp	.L1290
.L1287:
	movq	-16(%rbp), %rsi
	movq	-8(%rbp), %rdi
	call	_ZN3Upp6VectorIiE7GrowAddERKi
.L1290:
	leave
	ret
.LFE9017:
	.size	_ZN3Upp6VectorIiE3AddERKi, .-_ZN3Upp6VectorIiE3AddERKi
	.section	.text._ZN3Upp6StreamdvERi,"axG",@progbits,_ZN3Upp6StreamdvERi,comdat
	.align 2
	.weak	_ZN3Upp6StreamdvERi
	.type	_ZN3Upp6StreamdvERi, @function
_ZN3Upp6StreamdvERi:
.LFB1670:
	pushq	%rbp
.LCFI1147:
	movq	%rsp, %rbp
.LCFI1148:
	subq	$32, %rsp
.LCFI1149:
	movq	%rdi, -24(%rbp)
	movq	%rsi, -32(%rbp)
	movq	-32(%rbp), %rax
	movl	(%rax), %eax
	addl	$1, %eax
	movl	%eax, -4(%rbp)
	leaq	-4(%rbp), %rsi
	movq	-24(%rbp), %rdi
	call	_ZN3Upp6Stream4PackERj
	movl	-4(%rbp), %eax
	subl	$1, %eax
	movl	%eax, %edx
	movq	-32(%rbp), %rax
	movl	%edx, (%rax)
	movq	-24(%rbp), %rax
	leave
	ret
.LFE1670:
	.size	_ZN3Upp6StreamdvERi, .-_ZN3Upp6StreamdvERi
	.section	.text._ZN3Upp6VectorIN13WorkspaceWork5SepfoEE8ReAllocFEi,"axG",@progbits,_ZN3Upp6VectorIN13WorkspaceWork5SepfoEE8ReAllocFEi,comdat
	.align 2
	.weak	_ZN3Upp6VectorIN13WorkspaceWork5SepfoEE8ReAllocFEi
	.type	_ZN3Upp6VectorIN13WorkspaceWork5SepfoEE8ReAllocFEi, @function
_ZN3Upp6VectorIN13WorkspaceWork5SepfoEE8ReAllocFEi:
.LFB10174:
	pushq	%rbp
.LCFI1150:
	movq	%rsp, %rbp
.LCFI1151:
	subq	$16, %rsp
.LCFI1152:
	movq	%rdi, -8(%rbp)
	movl	%esi, -12(%rbp)
	movl	-12(%rbp), %esi
	movq	-8(%rbp), %rdi
	movl	$40, %edx
	call	_ZN3Upp15VectorReAllocF_EPvii
	leave
	ret
.LFE10174:
	.size	_ZN3Upp6VectorIN13WorkspaceWork5SepfoEE8ReAllocFEi, .-_ZN3Upp6VectorIN13WorkspaceWork5SepfoEE8ReAllocFEi
	.section	.text._ZN3Upp6VectorIN13WorkspaceWork5SepfoEE8SetCountEi,"axG",@progbits,_ZN3Upp6VectorIN13WorkspaceWork5SepfoEE8SetCountEi,comdat
	.align 2
	.weak	_ZN3Upp6VectorIN13WorkspaceWork5SepfoEE8SetCountEi
	.type	_ZN3Upp6VectorIN13WorkspaceWork5SepfoEE8SetCountEi, @function
_ZN3Upp6VectorIN13WorkspaceWork5SepfoEE8SetCountEi:
.LFB10163:
	pushq	%rbp
.LCFI1153:
	movq	%rsp, %rbp
.LCFI1154:
	subq	$16, %rsp
.LCFI1155:
	movq	%rdi, -8(%rbp)
	movl	%esi, -12(%rbp)
	movq	-8(%rbp), %rdi
	call	_ZNK3Upp6VectorIN13WorkspaceWork5SepfoEE3ChkEv
	movq	-8(%rbp), %rax
	movl	8(%rax), %eax
	cmpl	-12(%rbp), %eax
	je	.L1302
	movq	-8(%rbp), %rax
	movl	8(%rax), %eax
	cmpl	-12(%rbp), %eax
	jle	.L1298
	movl	-12(%rbp), %esi
	movq	-8(%rbp), %rdi
	call	_ZN3Upp6VectorIN13WorkspaceWork5SepfoEE4TrimEi
	jmp	.L1302
.L1298:
	movq	-8(%rbp), %rax
	movl	12(%rax), %eax
	cmpl	-12(%rbp), %eax
	jge	.L1300
	movl	-12(%rbp), %esi
	movq	-8(%rbp), %rdi
	call	_ZN3Upp6VectorIN13WorkspaceWork5SepfoEE8ReAllocFEi
.L1300:
	movq	-8(%rbp), %rax
	movq	(%rax), %rcx
	movl	-12(%rbp), %eax
	movslq	%eax,%rdx
	movq	%rdx, %rax
	salq	$2, %rax
	addq	%rdx, %rax
	salq	$3, %rax
	leaq	(%rcx,%rax), %rsi
	movq	-8(%rbp), %rax
	movq	(%rax), %rcx
	movq	-8(%rbp), %rax
	movl	8(%rax), %eax
	movslq	%eax,%rdx
	movq	%rdx, %rax
	salq	$2, %rax
	addq	%rdx, %rax
	salq	$3, %rax
	leaq	(%rcx,%rax), %rdi
	call	_ZN3Upp14ConstructArrayIN13WorkspaceWork5SepfoEEEvPT_PKS3_
	movq	-8(%rbp), %rdx
	movl	-12(%rbp), %eax
	movl	%eax, 8(%rdx)
.L1302:
	leave
	ret
.LFE10163:
	.size	_ZN3Upp6VectorIN13WorkspaceWork5SepfoEE8SetCountEi, .-_ZN3Upp6VectorIN13WorkspaceWork5SepfoEE8SetCountEi
	.section	.text._ZN3Upp6VectorIN13WorkspaceWork5SepfoEE5ClearEv,"axG",@progbits,_ZN3Upp6VectorIN13WorkspaceWork5SepfoEE5ClearEv,comdat
	.align 2
	.weak	_ZN3Upp6VectorIN13WorkspaceWork5SepfoEE5ClearEv
	.type	_ZN3Upp6VectorIN13WorkspaceWork5SepfoEE5ClearEv, @function
_ZN3Upp6VectorIN13WorkspaceWork5SepfoEE5ClearEv:
.LFB10119:
	pushq	%rbp
.LCFI1156:
	movq	%rsp, %rbp
.LCFI1157:
	subq	$16, %rsp
.LCFI1158:
	movq	%rdi, -8(%rbp)
	movq	-8(%rbp), %rax
	movq	(%rax), %rax
	testq	%rax, %rax
	je	.L1304
	movq	-8(%rbp), %rax
	movl	8(%rax), %eax
	testl	%eax, %eax
	js	.L1304
	movq	-8(%rbp), %rdi
	movl	$0, %esi
	call	_ZN3Upp6VectorIN13WorkspaceWork5SepfoEE8SetCountEi
	jmp	.L1308
.L1304:
	movq	-8(%rbp), %rax
	movl	$0, 8(%rax)
	movq	-8(%rbp), %rax
	movl	8(%rax), %edx
	movq	-8(%rbp), %rax
	movl	%edx, 12(%rax)
	movq	-8(%rbp), %rax
	movq	$0, (%rax)
.L1308:
	leave
	ret
.LFE10119:
	.size	_ZN3Upp6VectorIN13WorkspaceWork5SepfoEE5ClearEv, .-_ZN3Upp6VectorIN13WorkspaceWork5SepfoEE5ClearEv
	.section	.text._ZN3Upp6VectorIjE8ReAllocFEi,"axG",@progbits,_ZN3Upp6VectorIjE8ReAllocFEi,comdat
	.align 2
	.weak	_ZN3Upp6VectorIjE8ReAllocFEi
	.type	_ZN3Upp6VectorIjE8ReAllocFEi, @function
_ZN3Upp6VectorIjE8ReAllocFEi:
.LFB9644:
	pushq	%rbp
.LCFI1159:
	movq	%rsp, %rbp
.LCFI1160:
	subq	$16, %rsp
.LCFI1161:
	movq	%rdi, -8(%rbp)
	movl	%esi, -12(%rbp)
	movl	-12(%rbp), %esi
	movq	-8(%rbp), %rdi
	movl	$4, %edx
	call	_ZN3Upp15VectorReAllocF_EPvii
	leave
	ret
.LFE9644:
	.size	_ZN3Upp6VectorIjE8ReAllocFEi, .-_ZN3Upp6VectorIjE8ReAllocFEi
	.section	.text._ZN3Upp6VectorIjE8SetCountEi,"axG",@progbits,_ZN3Upp6VectorIjE8SetCountEi,comdat
	.align 2
	.weak	_ZN3Upp6VectorIjE8SetCountEi
	.type	_ZN3Upp6VectorIjE8SetCountEi, @function
_ZN3Upp6VectorIjE8SetCountEi:
.LFB9118:
	pushq	%rbp
.LCFI1162:
	movq	%rsp, %rbp
.LCFI1163:
	subq	$16, %rsp
.LCFI1164:
	movq	%rdi, -8(%rbp)
	movl	%esi, -12(%rbp)
	movq	-8(%rbp), %rdi
	call	_ZNK3Upp6VectorIjE3ChkEv
	movq	-8(%rbp), %rax
	movl	8(%rax), %eax
	cmpl	-12(%rbp), %eax
	je	.L1318
	movq	-8(%rbp), %rax
	movl	8(%rax), %eax
	cmpl	-12(%rbp), %eax
	jle	.L1314
	movl	-12(%rbp), %esi
	movq	-8(%rbp), %rdi
	call	_ZN3Upp6VectorIjE4TrimEi
	jmp	.L1318
.L1314:
	movq	-8(%rbp), %rax
	movl	12(%rax), %eax
	cmpl	-12(%rbp), %eax
	jge	.L1316
	movl	-12(%rbp), %esi
	movq	-8(%rbp), %rdi
	call	_ZN3Upp6VectorIjE8ReAllocFEi
.L1316:
	movq	-8(%rbp), %rax
	movq	(%rax), %rdx
	movl	-12(%rbp), %eax
	cltq
	salq	$2, %rax
	leaq	(%rdx,%rax), %rsi
	movq	-8(%rbp), %rax
	movq	(%rax), %rdx
	movq	-8(%rbp), %rax
	movl	8(%rax), %eax
	cltq
	salq	$2, %rax
	leaq	(%rdx,%rax), %rdi
	call	_ZN3Upp14ConstructArrayIjEEvPT_PKS1_
	movq	-8(%rbp), %rdx
	movl	-12(%rbp), %eax
	movl	%eax, 8(%rdx)
.L1318:
	leave
	ret
.LFE9118:
	.size	_ZN3Upp6VectorIjE8SetCountEi, .-_ZN3Upp6VectorIjE8SetCountEi
	.section	.text._ZN3Upp6VectorIjE5ClearEv,"axG",@progbits,_ZN3Upp6VectorIjE5ClearEv,comdat
	.align 2
	.weak	_ZN3Upp6VectorIjE5ClearEv
	.type	_ZN3Upp6VectorIjE5ClearEv, @function
_ZN3Upp6VectorIjE5ClearEv:
.LFB8088:
	pushq	%rbp
.LCFI1165:
	movq	%rsp, %rbp
.LCFI1166:
	subq	$16, %rsp
.LCFI1167:
	movq	%rdi, -8(%rbp)
	movq	-8(%rbp), %rax
	movq	(%rax), %rax
	testq	%rax, %rax
	je	.L1320
	movq	-8(%rbp), %rax
	movl	8(%rax), %eax
	testl	%eax, %eax
	js	.L1320
	movq	-8(%rbp), %rdi
	movl	$0, %esi
	call	_ZN3Upp6VectorIjE8SetCountEi
	jmp	.L1324
.L1320:
	movq	-8(%rbp), %rax
	movl	$0, 8(%rax)
	movq	-8(%rbp), %rax
	movl	8(%rax), %edx
	movq	-8(%rbp), %rax
	movl	%edx, 12(%rax)
	movq	-8(%rbp), %rax
	movq	$0, (%rax)
.L1324:
	leave
	ret
.LFE8088:
	.size	_ZN3Upp6VectorIjE5ClearEv, .-_ZN3Upp6VectorIjE5ClearEv
	.section	.text._ZN3Upp6VectorIPvE8ReAllocFEi,"axG",@progbits,_ZN3Upp6VectorIPvE8ReAllocFEi,comdat
	.align 2
	.weak	_ZN3Upp6VectorIPvE8ReAllocFEi
	.type	_ZN3Upp6VectorIPvE8ReAllocFEi, @function
_ZN3Upp6VectorIPvE8ReAllocFEi:
.LFB10051:
	pushq	%rbp
.LCFI1168:
	movq	%rsp, %rbp
.LCFI1169:
	subq	$16, %rsp
.LCFI1170:
	movq	%rdi, -8(%rbp)
	movl	%esi, -12(%rbp)
	movl	-12(%rbp), %esi
	movq	-8(%rbp), %rdi
	movl	$8, %edx
	call	_ZN3Upp15VectorReAllocF_EPvii
	leave
	ret
.LFE10051:
	.size	_ZN3Upp6VectorIPvE8ReAllocFEi, .-_ZN3Upp6VectorIPvE8ReAllocFEi
	.section	.text._ZN3Upp6VectorIPvE8SetCountEi,"axG",@progbits,_ZN3Upp6VectorIPvE8SetCountEi,comdat
	.align 2
	.weak	_ZN3Upp6VectorIPvE8SetCountEi
	.type	_ZN3Upp6VectorIPvE8SetCountEi, @function
_ZN3Upp6VectorIPvE8SetCountEi:
.LFB9664:
	pushq	%rbp
.LCFI1171:
	movq	%rsp, %rbp
.LCFI1172:
	subq	$16, %rsp
.LCFI1173:
	movq	%rdi, -8(%rbp)
	movl	%esi, -12(%rbp)
	movq	-8(%rbp), %rdi
	call	_ZNK3Upp6VectorIPvE3ChkEv
	movq	-8(%rbp), %rax
	movl	8(%rax), %eax
	cmpl	-12(%rbp), %eax
	je	.L1334
	movq	-8(%rbp), %rax
	movl	8(%rax), %eax
	cmpl	-12(%rbp), %eax
	jle	.L1330
	movl	-12(%rbp), %esi
	movq	-8(%rbp), %rdi
	call	_ZN3Upp6VectorIPvE4TrimEi
	jmp	.L1334
.L1330:
	movq	-8(%rbp), %rax
	movl	12(%rax), %eax
	cmpl	-12(%rbp), %eax
	jge	.L1332
	movl	-12(%rbp), %esi
	movq	-8(%rbp), %rdi
	call	_ZN3Upp6VectorIPvE8ReAllocFEi
.L1332:
	movq	-8(%rbp), %rax
	movq	(%rax), %rdx
	movl	-12(%rbp), %eax
	cltq
	salq	$3, %rax
	leaq	(%rdx,%rax), %rsi
	movq	-8(%rbp), %rax
	movq	(%rax), %rdx
	movq	-8(%rbp), %rax
	movl	8(%rax), %eax
	cltq
	salq	$3, %rax
	leaq	(%rdx,%rax), %rdi
	call	_ZN3Upp14ConstructArrayIPvEEvPT_PKS2_
	movq	-8(%rbp), %rdx
	movl	-12(%rbp), %eax
	movl	%eax, 8(%rdx)
.L1334:
	leave
	ret
.LFE9664:
	.size	_ZN3Upp6VectorIPvE8SetCountEi, .-_ZN3Upp6VectorIPvE8SetCountEi
	.section	.text._ZN3Upp6VectorIPvE5ClearEv,"axG",@progbits,_ZN3Upp6VectorIPvE5ClearEv,comdat
	.align 2
	.weak	_ZN3Upp6VectorIPvE5ClearEv
	.type	_ZN3Upp6VectorIPvE5ClearEv, @function
_ZN3Upp6VectorIPvE5ClearEv:
.LFB9180:
	pushq	%rbp
.LCFI1174:
	movq	%rsp, %rbp
.LCFI1175:
	subq	$16, %rsp
.LCFI1176:
	movq	%rdi, -8(%rbp)
	movq	-8(%rbp), %rax
	movq	(%rax), %rax
	testq	%rax, %rax
	je	.L1336
	movq	-8(%rbp), %rax
	movl	8(%rax), %eax
	testl	%eax, %eax
	js	.L1336
	movq	-8(%rbp), %rdi
	movl	$0, %esi
	call	_ZN3Upp6VectorIPvE8SetCountEi
	jmp	.L1340
.L1336:
	movq	-8(%rbp), %rax
	movl	$0, 8(%rax)
	movq	-8(%rbp), %rax
	movl	8(%rax), %edx
	movq	-8(%rbp), %rax
	movl	%edx, 12(%rax)
	movq	-8(%rbp), %rax
	movq	$0, (%rax)
.L1340:
	leave
	ret
.LFE9180:
	.size	_ZN3Upp6VectorIPvE5ClearEv, .-_ZN3Upp6VectorIPvE5ClearEv
	.section	.text._ZN3Upp5ArrayIN7Package4FileEE5ClearEv,"axG",@progbits,_ZN3Upp5ArrayIN7Package4FileEE5ClearEv,comdat
	.align 2
	.weak	_ZN3Upp5ArrayIN7Package4FileEE5ClearEv
	.type	_ZN3Upp5ArrayIN7Package4FileEE5ClearEv, @function
_ZN3Upp5ArrayIN7Package4FileEE5ClearEv:
.LFB9020:
	pushq	%rbp
.LCFI1177:
	movq	%rsp, %rbp
.LCFI1178:
	subq	$16, %rsp
.LCFI1179:
	movq	%rdi, -8(%rbp)
	movq	-8(%rbp), %rdi
	call	_ZN3Upp5ArrayIN7Package4FileEE4FreeEv
	movq	-8(%rbp), %rdi
	addq	$8, %rdi
	call	_ZN3Upp6VectorIPvE5ClearEv
	leave
	ret
.LFE9020:
	.size	_ZN3Upp5ArrayIN7Package4FileEE5ClearEv, .-_ZN3Upp5ArrayIN7Package4FileEE5ClearEv
	.section	.text._ZN3Upp6VectorIiE8ReAllocFEi,"axG",@progbits,_ZN3Upp6VectorIiE8ReAllocFEi,comdat
	.align 2
	.weak	_ZN3Upp6VectorIiE8ReAllocFEi
	.type	_ZN3Upp6VectorIiE8ReAllocFEi, @function
_ZN3Upp6VectorIiE8ReAllocFEi:
.LFB10004:
	pushq	%rbp
.LCFI1180:
	movq	%rsp, %rbp
.LCFI1181:
	subq	$16, %rsp
.LCFI1182:
	movq	%rdi, -8(%rbp)
	movl	%esi, -12(%rbp)
	movl	-12(%rbp), %esi
	movq	-8(%rbp), %rdi
	movl	$4, %edx
	call	_ZN3Upp15VectorReAllocF_EPvii
	leave
	ret
.LFE10004:
	.size	_ZN3Upp6VectorIiE8ReAllocFEi, .-_ZN3Upp6VectorIiE8ReAllocFEi
	.section	.text._ZN3Upp6VectorIiE8SetCountEi,"axG",@progbits,_ZN3Upp6VectorIiE8SetCountEi,comdat
	.align 2
	.weak	_ZN3Upp6VectorIiE8SetCountEi
	.type	_ZN3Upp6VectorIiE8SetCountEi, @function
_ZN3Upp6VectorIiE8SetCountEi:
.LFB9575:
	pushq	%rbp
.LCFI1183:
	movq	%rsp, %rbp
.LCFI1184:
	subq	$16, %rsp
.LCFI1185:
	movq	%rdi, -8(%rbp)
	movl	%esi, -12(%rbp)
	movq	-8(%rbp), %rdi
	call	_ZNK3Upp6VectorIiE3ChkEv
	movq	-8(%rbp), %rax
	movl	8(%rax), %eax
	cmpl	-12(%rbp), %eax
	je	.L1352
	movq	-8(%rbp), %rax
	movl	8(%rax), %eax
	cmpl	-12(%rbp), %eax
	jle	.L1348
	movl	-12(%rbp), %esi
	movq	-8(%rbp), %rdi
	call	_ZN3Upp6VectorIiE4TrimEi
	jmp	.L1352
.L1348:
	movq	-8(%rbp), %rax
	movl	12(%rax), %eax
	cmpl	-12(%rbp), %eax
	jge	.L1350
	movl	-12(%rbp), %esi
	movq	-8(%rbp), %rdi
	call	_ZN3Upp6VectorIiE8ReAllocFEi
.L1350:
	movq	-8(%rbp), %rax
	movq	(%rax), %rdx
	movl	-12(%rbp), %eax
	cltq
	salq	$2, %rax
	leaq	(%rdx,%rax), %rsi
	movq	-8(%rbp), %rax
	movq	(%rax), %rdx
	movq	-8(%rbp), %rax
	movl	8(%rax), %eax
	cltq
	salq	$2, %rax
	leaq	(%rdx,%rax), %rdi
	call	_ZN3Upp14ConstructArrayIiEEvPT_PKS1_
	movq	-8(%rbp), %rdx
	movl	-12(%rbp), %eax
	movl	%eax, 8(%rdx)
.L1352:
	leave
	ret
.LFE9575:
	.size	_ZN3Upp6VectorIiE8SetCountEi, .-_ZN3Upp6VectorIiE8SetCountEi
	.section	.text._ZN3Upp6VectorIiE5ClearEv,"axG",@progbits,_ZN3Upp6VectorIiE5ClearEv,comdat
	.align 2
	.weak	_ZN3Upp6VectorIiE5ClearEv
	.type	_ZN3Upp6VectorIiE5ClearEv, @function
_ZN3Upp6VectorIiE5ClearEv:
.LFB9015:
	pushq	%rbp
.LCFI1186:
	movq	%rsp, %rbp
.LCFI1187:
	subq	$16, %rsp
.LCFI1188:
	movq	%rdi, -8(%rbp)
	movq	-8(%rbp), %rax
	movq	(%rax), %rax
	testq	%rax, %rax
	je	.L1354
	movq	-8(%rbp), %rax
	movl	8(%rax), %eax
	testl	%eax, %eax
	js	.L1354
	movq	-8(%rbp), %rdi
	movl	$0, %esi
	call	_ZN3Upp6VectorIiE8SetCountEi
	jmp	.L1358
.L1354:
	movq	-8(%rbp), %rax
	movl	$0, 8(%rax)
	movq	-8(%rbp), %rax
	movl	8(%rax), %edx
	movq	-8(%rbp), %rax
	movl	%edx, 12(%rax)
	movq	-8(%rbp), %rax
	movq	$0, (%rax)
.L1358:
	leave
	ret
.LFE9015:
	.size	_ZN3Upp6VectorIiE5ClearEv, .-_ZN3Upp6VectorIiE5ClearEv
	.section	.text._ZN3Upp6VectorIN13WorkspaceWork5SepfoEE5GrowFEv,"axG",@progbits,_ZN3Upp6VectorIN13WorkspaceWork5SepfoEE5GrowFEv,comdat
	.align 2
	.weak	_ZN3Upp6VectorIN13WorkspaceWork5SepfoEE5GrowFEv
	.type	_ZN3Upp6VectorIN13WorkspaceWork5SepfoEE5GrowFEv, @function
_ZN3Upp6VectorIN13WorkspaceWork5SepfoEE5GrowFEv:
.LFB10164:
	pushq	%rbp
.LCFI1189:
	movq	%rsp, %rbp
.LCFI1190:
	subq	$16, %rsp
.LCFI1191:
	movq	%rdi, -8(%rbp)
	movq	-8(%rbp), %rdi
	movl	$40, %esi
	call	_ZN3Upp12VectorGrowF_EPvi
	leave
	ret
.LFE10164:
	.size	_ZN3Upp6VectorIN13WorkspaceWork5SepfoEE5GrowFEv, .-_ZN3Upp6VectorIN13WorkspaceWork5SepfoEE5GrowFEv
	.section	.text._ZN3Upp6VectorIN13WorkspaceWork5SepfoEE3AddEv,"axG",@progbits,_ZN3Upp6VectorIN13WorkspaceWork5SepfoEE3AddEv,comdat
	.align 2
	.weak	_ZN3Upp6VectorIN13WorkspaceWork5SepfoEE3AddEv
	.type	_ZN3Upp6VectorIN13WorkspaceWork5SepfoEE3AddEv, @function
_ZN3Upp6VectorIN13WorkspaceWork5SepfoEE3AddEv:
.LFB10120:
	pushq	%rbp
.LCFI1192:
	movq	%rsp, %rbp
.LCFI1193:
	subq	$32, %rsp
.LCFI1194:
	movq	%rdi, -8(%rbp)
	movq	-8(%rbp), %rdi
	call	_ZNK3Upp6VectorIN13WorkspaceWork5SepfoEE3ChkEv
	movq	-8(%rbp), %rax
	movl	8(%rax), %edx
	movq	-8(%rbp), %rax
	movl	12(%rax), %eax
	cmpl	%eax, %edx
	jl	.L1362
	movq	-8(%rbp), %rdi
	call	_ZN3Upp6VectorIN13WorkspaceWork5SepfoEE5GrowFEv
.L1362:
	movq	-8(%rbp), %rax
	movq	(%rax), %rcx
	movq	-8(%rbp), %rax
	movl	8(%rax), %edi
	movslq	%edi,%rdx
	movq	%rdx, %rax
	salq	$2, %rax
	addq	%rdx, %rax
	salq	$3, %rax
	leaq	(%rcx,%rax), %rsi
	leal	1(%rdi), %edx
	movq	-8(%rbp), %rax
	movl	%edx, 8(%rax)
	movl	$40, %edi
	call	_ZnwmPv
	movq	%rax, -24(%rbp)
	cmpq	$0, -24(%rbp)
	je	.L1364
	movq	-24(%rbp), %rdi
	call	_ZN13WorkspaceWork5SepfoC1Ev
	movq	-24(%rbp), %rax
	movq	%rax, -16(%rbp)
	jmp	.L1366
.L1364:
	movq	-24(%rbp), %rax
	movq	%rax, -16(%rbp)
.L1366:
	movq	-16(%rbp), %rax
	leave
	ret
.LFE10120:
	.size	_ZN3Upp6VectorIN13WorkspaceWork5SepfoEE3AddEv, .-_ZN3Upp6VectorIN13WorkspaceWork5SepfoEE3AddEv
	.section	.text._ZN13WorkspaceWork5Sepfo9SerializeERN3Upp6StreamE,"axG",@progbits,_ZN13WorkspaceWork5Sepfo9SerializeERN3Upp6StreamE,comdat
	.align 2
	.weak	_ZN13WorkspaceWork5Sepfo9SerializeERN3Upp6StreamE
	.type	_ZN13WorkspaceWork5Sepfo9SerializeERN3Upp6StreamE, @function
_ZN13WorkspaceWork5Sepfo9SerializeERN3Upp6StreamE:
.LFB7773:
	pushq	%rbp
.LCFI1195:
	movq	%rsp, %rbp
.LCFI1196:
	pushq	%rbx
.LCFI1197:
	subq	$24, %rsp
.LCFI1198:
	movq	%rdi, -16(%rbp)
	movq	%rsi, -24(%rbp)
	movq	-16(%rbp), %rbx
	addq	$24, %rbx
	movq	-16(%rbp), %rsi
	addq	$8, %rsi
	movq	-24(%rbp), %rdi
	call	_ZN3Upp6StreamrmERNS_6StringE
	movq	%rax, %rdi
	movq	%rbx, %rsi
	call	_ZN3Upp6StreamrmERNS_6StringE
	addq	$24, %rsp
	popq	%rbx
	leave
	ret
.LFE7773:
	.size	_ZN13WorkspaceWork5Sepfo9SerializeERN3Upp6StreamE, .-_ZN13WorkspaceWork5Sepfo9SerializeERN3Upp6StreamE
	.section	.text._ZN3UpprmIN13WorkspaceWork5SepfoEEERNS_6StreamES4_RT_,"axG",@progbits,_ZN3UpprmIN13WorkspaceWork5SepfoEEERNS_6StreamES4_RT_,comdat
	.align 2
	.weak	_ZN3UpprmIN13WorkspaceWork5SepfoEEERNS_6StreamES4_RT_
	.type	_ZN3UpprmIN13WorkspaceWork5SepfoEEERNS_6StreamES4_RT_, @function
_ZN3UpprmIN13WorkspaceWork5SepfoEEERNS_6StreamES4_RT_:
.LFB10121:
	pushq	%rbp
.LCFI1199:
	movq	%rsp, %rbp
.LCFI1200:
	subq	$16, %rsp
.LCFI1201:
	movq	%rdi, -8(%rbp)
	movq	%rsi, -16(%rbp)
	movq	-8(%rbp), %rsi
	movq	-16(%rbp), %rdi
	call	_ZN13WorkspaceWork5Sepfo9SerializeERN3Upp6StreamE
	movq	-8(%rbp), %rax
	leave
	ret
.LFE10121:
	.size	_ZN3UpprmIN13WorkspaceWork5SepfoEEERNS_6StreamES4_RT_, .-_ZN3UpprmIN13WorkspaceWork5SepfoEEERNS_6StreamES4_RT_
	.section	.text._ZN3Upp15StreamContainerINS_6VectorIN13WorkspaceWork5SepfoEEEEEvRNS_6StreamERT_,"axG",@progbits,_ZN3Upp15StreamContainerINS_6VectorIN13WorkspaceWork5SepfoEEEEEvRNS_6StreamERT_,comdat
	.align 2
	.weak	_ZN3Upp15StreamContainerINS_6VectorIN13WorkspaceWork5SepfoEEEEEvRNS_6StreamERT_
	.type	_ZN3Upp15StreamContainerINS_6VectorIN13WorkspaceWork5SepfoEEEEEvRNS_6StreamERT_, @function
_ZN3Upp15StreamContainerINS_6VectorIN13WorkspaceWork5SepfoEEEEEvRNS_6StreamERT_:
.LFB10034:
	pushq	%rbp
.LCFI1202:
	movq	%rsp, %rbp
.LCFI1203:
	subq	$32, %rsp
.LCFI1204:
	movq	%rdi, -24(%rbp)
	movq	%rsi, -32(%rbp)
	movq	-32(%rbp), %rdi
	call	_ZNK3Upp6VectorIN13WorkspaceWork5SepfoEE8GetCountEv
	movl	%eax, -4(%rbp)
	leaq	-4(%rbp), %rsi
	movq	-24(%rbp), %rdi
	call	_ZN3Upp6StreamdvERi
	movl	-4(%rbp), %eax
	testl	%eax, %eax
	jns	.L1373
	movq	-24(%rbp), %rdi
	call	_ZN3Upp6Stream9LoadErrorEv
	jmp	.L1383
.L1373:
	movq	-24(%rbp), %rdi
	call	_ZN3Upp6Stream9IsLoadingEv
	testb	%al, %al
	je	.L1376
	movq	-32(%rbp), %rdi
	call	_ZN3Upp6VectorIN13WorkspaceWork5SepfoEE5ClearEv
	jmp	.L1378
.L1379:
	movq	-32(%rbp), %rdi
	call	_ZN3Upp6VectorIN13WorkspaceWork5SepfoEE3AddEv
	movq	%rax, %rsi
	movq	-24(%rbp), %rdi
	call	_ZN3UpprmIN13WorkspaceWork5SepfoEEERNS_6StreamES4_RT_
.L1378:
	movl	-4(%rbp), %eax
	subl	$1, %eax
	movl	%eax, -4(%rbp)
	movl	-4(%rbp), %eax
	cmpl	$-1, %eax
	setne	%al
	testb	%al, %al
	jne	.L1379
	jmp	.L1383
.L1376:
	movq	-32(%rbp), %rdi
	call	_ZN3Upp6VectorIN13WorkspaceWork5SepfoEE5BeginEv
	movq	%rax, -16(%rbp)
	jmp	.L1381
.L1382:
	movq	-16(%rbp), %rsi
	movq	-24(%rbp), %rdi
	call	_ZN3UpprmIN13WorkspaceWork5SepfoEEERNS_6StreamES4_RT_
	addq	$40, -16(%rbp)
.L1381:
	movl	-4(%rbp), %eax
	subl	$1, %eax
	movl	%eax, -4(%rbp)
	movl	-4(%rbp), %eax
	cmpl	$-1, %eax
	setne	%al
	testb	%al, %al
	jne	.L1382
.L1383:
	leave
	ret
.LFE10034:
	.size	_ZN3Upp15StreamContainerINS_6VectorIN13WorkspaceWork5SepfoEEEEEvRNS_6StreamERT_, .-_ZN3Upp15StreamContainerINS_6VectorIN13WorkspaceWork5SepfoEEEEEvRNS_6StreamERT_
	.section	.text._ZN3Upp6VectorIN13WorkspaceWork5SepfoEE9SerializeERNS_6StreamE,"axG",@progbits,_ZN3Upp6VectorIN13WorkspaceWork5SepfoEE9SerializeERNS_6StreamE,comdat
	.align 2
	.weak	_ZN3Upp6VectorIN13WorkspaceWork5SepfoEE9SerializeERNS_6StreamE
	.type	_ZN3Upp6VectorIN13WorkspaceWork5SepfoEE9SerializeERNS_6StreamE, @function
_ZN3Upp6VectorIN13WorkspaceWork5SepfoEE9SerializeERNS_6StreamE:
.LFB9636:
	pushq	%rbp
.LCFI1205:
	movq	%rsp, %rbp
.LCFI1206:
	subq	$16, %rsp
.LCFI1207:
	movq	%rdi, -8(%rbp)
	movq	%rsi, -16(%rbp)
	movq	-8(%rbp), %rsi
	movq	-16(%rbp), %rdi
	call	_ZN3Upp15StreamContainerINS_6VectorIN13WorkspaceWork5SepfoEEEEEvRNS_6StreamERT_
	leave
	ret
.LFE9636:
	.size	_ZN3Upp6VectorIN13WorkspaceWork5SepfoEE9SerializeERNS_6StreamE, .-_ZN3Upp6VectorIN13WorkspaceWork5SepfoEE9SerializeERNS_6StreamE
	.section	.text._ZN3UpprmINS_6VectorIN13WorkspaceWork5SepfoEEEEERNS_6StreamES6_RT_,"axG",@progbits,_ZN3UpprmINS_6VectorIN13WorkspaceWork5SepfoEEEEERNS_6StreamES6_RT_,comdat
	.align 2
	.weak	_ZN3UpprmINS_6VectorIN13WorkspaceWork5SepfoEEEEERNS_6StreamES6_RT_
	.type	_ZN3UpprmINS_6VectorIN13WorkspaceWork5SepfoEEEEERNS_6StreamES6_RT_, @function
_ZN3UpprmINS_6VectorIN13WorkspaceWork5SepfoEEEEERNS_6StreamES6_RT_:
.LFB9079:
	pushq	%rbp
.LCFI1208:
	movq	%rsp, %rbp
.LCFI1209:
	subq	$16, %rsp
.LCFI1210:
	movq	%rdi, -8(%rbp)
	movq	%rsi, -16(%rbp)
	movq	-8(%rbp), %rsi
	movq	-16(%rbp), %rdi
	call	_ZN3Upp6VectorIN13WorkspaceWork5SepfoEE9SerializeERNS_6StreamE
	movq	-8(%rbp), %rax
	leave
	ret
.LFE9079:
	.size	_ZN3UpprmINS_6VectorIN13WorkspaceWork5SepfoEEEEERNS_6StreamES6_RT_, .-_ZN3UpprmINS_6VectorIN13WorkspaceWork5SepfoEEEEERNS_6StreamES6_RT_
	.section	.text._ZN3Upp8HashBase5ClearEv,"axG",@progbits,_ZN3Upp8HashBase5ClearEv,comdat
	.align 2
	.weak	_ZN3Upp8HashBase5ClearEv
	.type	_ZN3Upp8HashBase5ClearEv, @function
_ZN3Upp8HashBase5ClearEv:
.LFB2072:
	pushq	%rbp
.LCFI1211:
	movq	%rsp, %rbp
.LCFI1212:
	subq	$16, %rsp
.LCFI1213:
	movq	%rdi, -8(%rbp)
	movq	-8(%rbp), %rdi
	addq	$8, %rdi
	call	_ZN3Upp6VectorIjE5ClearEv
	movq	-8(%rbp), %rdi
	call	_ZN3Upp8HashBase10ClearIndexEv
	leave
	ret
.LFE2072:
	.size	_ZN3Upp8HashBase5ClearEv, .-_ZN3Upp8HashBase5ClearEv
	.section	.text._ZN3Upp6AIndexIN13WorkspaceWork5SepfoENS_6VectorIS2_EENS_7StdHashIS2_EEE4HashEv,"axG",@progbits,_ZN3Upp6AIndexIN13WorkspaceWork5SepfoENS_6VectorIS2_EENS_7StdHashIS2_EEE4HashEv,comdat
	.align 2
	.weak	_ZN3Upp6AIndexIN13WorkspaceWork5SepfoENS_6VectorIS2_EENS_7StdHashIS2_EEE4HashEv
	.type	_ZN3Upp6AIndexIN13WorkspaceWork5SepfoENS_6VectorIS2_EENS_7StdHashIS2_EEE4HashEv, @function
_ZN3Upp6AIndexIN13WorkspaceWork5SepfoENS_6VectorIS2_EENS_7StdHashIS2_EEE4HashEv:
.LFB10036:
	pushq	%rbp
.LCFI1214:
	movq	%rsp, %rbp
.LCFI1215:
	subq	$32, %rsp
.LCFI1216:
	movq	%rdi, -24(%rbp)
	movl	$0, -4(%rbp)
	jmp	.L1391
.L1392:
	movq	-24(%rbp), %rdi
	movl	-4(%rbp), %esi
	call	_ZN3Upp6VectorIN13WorkspaceWork5SepfoEEixEi
	movq	%rax, %rsi
	movq	-24(%rbp), %rdi
	addq	$72, %rdi
	call	_ZNK3Upp7StdHashIN13WorkspaceWork5SepfoEEclERKS2_
	movl	%eax, %esi
	movq	-24(%rbp), %rdi
	addq	$16, %rdi
	call	_ZN3Upp8HashBase3AddEj
	addl	$1, -4(%rbp)
.L1391:
	movq	-24(%rbp), %rdi
	call	_ZNK3Upp6VectorIN13WorkspaceWork5SepfoEE8GetCountEv
	cmpl	-4(%rbp), %eax
	setg	%al
	testb	%al, %al
	jne	.L1392
	leave
	ret
.LFE10036:
	.size	_ZN3Upp6AIndexIN13WorkspaceWork5SepfoENS_6VectorIS2_EENS_7StdHashIS2_EEE4HashEv, .-_ZN3Upp6AIndexIN13WorkspaceWork5SepfoENS_6VectorIS2_EENS_7StdHashIS2_EEE4HashEv
	.section	.text._ZN3Upp6AIndexIN13WorkspaceWork5SepfoENS_6VectorIS2_EENS_7StdHashIS2_EEEaSERKS4_,"axG",@progbits,_ZN3Upp6AIndexIN13WorkspaceWork5SepfoENS_6VectorIS2_EENS_7StdHashIS2_EEEaSERKS4_,comdat
	.align 2
	.weak	_ZN3Upp6AIndexIN13WorkspaceWork5SepfoENS_6VectorIS2_EENS_7StdHashIS2_EEEaSERKS4_
	.type	_ZN3Upp6AIndexIN13WorkspaceWork5SepfoENS_6VectorIS2_EENS_7StdHashIS2_EEEaSERKS4_, @function
_ZN3Upp6AIndexIN13WorkspaceWork5SepfoENS_6VectorIS2_EENS_7StdHashIS2_EEEaSERKS4_:
.LFB9637:
	pushq	%rbp
.LCFI1217:
	movq	%rsp, %rbp
.LCFI1218:
	subq	$16, %rsp
.LCFI1219:
	movq	%rdi, -8(%rbp)
	movq	%rsi, -16(%rbp)
	movq	-8(%rbp), %rdi
	movq	-16(%rbp), %rsi
	call	_ZN3Upp6VectorIN13WorkspaceWork5SepfoEEaSERKS3_
	movq	-8(%rbp), %rdi
	addq	$16, %rdi
	call	_ZN3Upp8HashBase5ClearEv
	movq	-8(%rbp), %rdi
	call	_ZN3Upp6AIndexIN13WorkspaceWork5SepfoENS_6VectorIS2_EENS_7StdHashIS2_EEE4HashEv
	movq	-8(%rbp), %rax
	leave
	ret
.LFE9637:
	.size	_ZN3Upp6AIndexIN13WorkspaceWork5SepfoENS_6VectorIS2_EENS_7StdHashIS2_EEEaSERKS4_, .-_ZN3Upp6AIndexIN13WorkspaceWork5SepfoENS_6VectorIS2_EENS_7StdHashIS2_EEEaSERKS4_
	.section	.text._ZN3Upp5IndexIN13WorkspaceWork5SepfoENS_7StdHashIS2_EEEaSERKNS_6VectorIS2_EE,"axG",@progbits,_ZN3Upp5IndexIN13WorkspaceWork5SepfoENS_7StdHashIS2_EEEaSERKNS_6VectorIS2_EE,comdat
	.align 2
	.weak	_ZN3Upp5IndexIN13WorkspaceWork5SepfoENS_7StdHashIS2_EEEaSERKNS_6VectorIS2_EE
	.type	_ZN3Upp5IndexIN13WorkspaceWork5SepfoENS_7StdHashIS2_EEEaSERKNS_6VectorIS2_EE, @function
_ZN3Upp5IndexIN13WorkspaceWork5SepfoENS_7StdHashIS2_EEEaSERKNS_6VectorIS2_EE:
.LFB9080:
	pushq	%rbp
.LCFI1220:
	movq	%rsp, %rbp
.LCFI1221:
	subq	$16, %rsp
.LCFI1222:
	movq	%rdi, -8(%rbp)
	movq	%rsi, -16(%rbp)
	movq	-8(%rbp), %rdi
	addq	$8, %rdi
	movq	-16(%rbp), %rsi
	call	_ZN3Upp6AIndexIN13WorkspaceWork5SepfoENS_6VectorIS2_EENS_7StdHashIS2_EEEaSERKS4_
	movq	-8(%rbp), %rax
	leave
	ret
.LFE9080:
	.size	_ZN3Upp5IndexIN13WorkspaceWork5SepfoENS_7StdHashIS2_EEEaSERKNS_6VectorIS2_EE, .-_ZN3Upp5IndexIN13WorkspaceWork5SepfoENS_7StdHashIS2_EEEaSERKNS_6VectorIS2_EE
	.text
	.align 2
.globl _ZN13WorkspaceWork15SerializeClosedERN3Upp6StreamE
	.type	_ZN13WorkspaceWork15SerializeClosedERN3Upp6StreamE, @function
_ZN13WorkspaceWork15SerializeClosedERN3Upp6StreamE:
.LFB8000:
	pushq	%rbp
.LCFI1223:
	movq	%rsp, %rbp
.LCFI1224:
	pushq	%rbx
.LCFI1225:
	subq	$280, %rsp
.LCFI1226:
	movq	%rdi, -264(%rbp)
	movq	%rsi, -272(%rbp)
	movq	%fs:40, %rax
	movq	%rax, -24(%rbp)
	xorl	%eax, %eax
	leaq	-256(%rbp), %rdi
.LEHB72:
	call	_ZN9WorkspaceC1Ev
.LEHE72:
	movq	-264(%rbp), %rdi
	addq	$4248, %rdi
	call	_ZNK3Upp7AStringINS_7String0EEcvPKcEv
	movq	%rax, %rsi
	leaq	-256(%rbp), %rdi
.LEHB73:
	call	_ZN9Workspace4ScanEPKc
.LEHE73:
	leaq	-128(%rbp), %rdi
	call	_ZN3Upp6VectorIN13WorkspaceWork5SepfoEEC1Ev
	movl	$0, -104(%rbp)
	jmp	.L1400
.L1401:
	leaq	-48(%rbp), %rdi
	movl	-104(%rbp), %edx
	leaq	-256(%rbp), %rsi
.LEHB74:
	call	_ZNK9WorkspaceixEi
.LEHE74:
	movl	-104(%rbp), %esi
	leaq	-256(%rbp), %rdi
	call	_ZN9Workspace10GetPackageEi
	movq	%rax, -112(%rbp)
	movl	$0, -100(%rbp)
	jmp	.L1402
.L1403:
	movl	-100(%rbp), %esi
	movq	-112(%rbp), %rdi
	call	_ZNK7PackageixEi
	movzbl	65(%rax), %eax
	testb	%al, %al
	je	.L1404
	movl	-100(%rbp), %esi
	movq	-112(%rbp), %rdi
	call	_ZNK7PackageixEi
	movq	%rax, %rdx
	leaq	-48(%rbp), %rsi
	leaq	-96(%rbp), %rdi
.LEHB75:
	call	_ZN13WorkspaceWork5SepfoC1ERKN3Upp6StringES4_
.LEHE75:
	movq	-264(%rbp), %rdi
	addq	$4560, %rdi
	leaq	-96(%rbp), %rsi
.LEHB76:
	call	_ZNK3Upp6AIndexIN13WorkspaceWork5SepfoENS_6VectorIS2_EENS_7StdHashIS2_EEE4FindERKS2_
	notl	%eax
	shrl	$31, %eax
	testb	%al, %al
	je	.L1406
	leaq	-96(%rbp), %rsi
	leaq	-128(%rbp), %rdi
	call	_ZN3Upp6VectorIN13WorkspaceWork5SepfoEE3AddERKS2_
.LEHE76:
.L1406:
	leaq	-96(%rbp), %rdi
	call	_ZN13WorkspaceWork5SepfoD1Ev
	jmp	.L1404
.L1417:
	movq	%rax, -280(%rbp)
.L1408:
	movq	-280(%rbp), %rbx
	leaq	-96(%rbp), %rdi
	call	_ZN13WorkspaceWork5SepfoD1Ev
	movq	%rbx, -280(%rbp)
	jmp	.L1410
.L1404:
	addl	$1, -100(%rbp)
.L1402:
	movq	-112(%rbp), %rdi
	call	_ZNK7Package8GetCountEv
	cmpl	-100(%rbp), %eax
	setg	%al
	testb	%al, %al
	jne	.L1403
	leaq	-48(%rbp), %rdi
	call	_ZN3Upp6StringD1Ev
	addl	$1, -104(%rbp)
	jmp	.L1400
.L1418:
	movq	%rax, -280(%rbp)
.L1410:
	movq	-280(%rbp), %rbx
	leaq	-48(%rbp), %rdi
	call	_ZN3Upp6StringD1Ev
	movq	%rbx, -280(%rbp)
	jmp	.L1413
.L1400:
	leaq	-256(%rbp), %rdi
	call	_ZNK9Workspace8GetCountEv
	cmpl	-104(%rbp), %eax
	setg	%al
	testb	%al, %al
	jne	.L1401
	leaq	-128(%rbp), %rsi
	movq	-272(%rbp), %rdi
.LEHB77:
	call	_ZN3UpprmINS_6VectorIN13WorkspaceWork5SepfoEEEEERNS_6StreamES6_RT_
	movq	-264(%rbp), %rdi
	addq	$4552, %rdi
	leaq	-128(%rbp), %rsi
	call	_ZN3Upp5IndexIN13WorkspaceWork5SepfoENS_7StdHashIS2_EEEaSERKNS_6VectorIS2_EE
.LEHE77:
	leaq	-128(%rbp), %rdi
.LEHB78:
	call	_ZN3Upp6VectorIN13WorkspaceWork5SepfoEED1Ev
.LEHE78:
	jmp	.L1412
.L1419:
	movq	%rax, -280(%rbp)
.L1413:
	movq	-280(%rbp), %rbx
	leaq	-128(%rbp), %rdi
	call	_ZN3Upp6VectorIN13WorkspaceWork5SepfoEED1Ev
	movq	%rbx, -280(%rbp)
	jmp	.L1414
.L1412:
	leaq	-256(%rbp), %rdi
	call	_ZN9WorkspaceD1Ev
	jmp	.L1415
.L1420:
	movq	%rax, -280(%rbp)
.L1414:
	movq	-280(%rbp), %rbx
	leaq	-256(%rbp), %rdi
	call	_ZN9WorkspaceD1Ev
	movq	%rbx, -280(%rbp)
	movq	-280(%rbp), %rdi
.LEHB79:
	call	_Unwind_Resume
.LEHE79:
.L1415:
	movq	-24(%rbp), %rax
	xorq	%fs:40, %rax
	je	.L1416
	call	__stack_chk_fail
.L1416:
	addq	$280, %rsp
	popq	%rbx
	leave
	ret
.LFE8000:
	.size	_ZN13WorkspaceWork15SerializeClosedERN3Upp6StreamE, .-_ZN13WorkspaceWork15SerializeClosedERN3Upp6StreamE
	.section	.gcc_except_table
.LLSDA8000:
	.byte	0xff
	.byte	0xff
	.byte	0x1
	.uleb128 .LLSDACSE8000-.LLSDACSB8000
.LLSDACSB8000:
	.uleb128 .LEHB72-.LFB8000
	.uleb128 .LEHE72-.LEHB72
	.uleb128 0x0
	.uleb128 0x0
	.uleb128 .LEHB73-.LFB8000
	.uleb128 .LEHE73-.LEHB73
	.uleb128 .L1420-.LFB8000
	.uleb128 0x0
	.uleb128 .LEHB74-.LFB8000
	.uleb128 .LEHE74-.LEHB74
	.uleb128 .L1419-.LFB8000
	.uleb128 0x0
	.uleb128 .LEHB75-.LFB8000
	.uleb128 .LEHE75-.LEHB75
	.uleb128 .L1418-.LFB8000
	.uleb128 0x0
	.uleb128 .LEHB76-.LFB8000
	.uleb128 .LEHE76-.LEHB76
	.uleb128 .L1417-.LFB8000
	.uleb128 0x0
	.uleb128 .LEHB77-.LFB8000
	.uleb128 .LEHE77-.LEHB77
	.uleb128 .L1419-.LFB8000
	.uleb128 0x0
	.uleb128 .LEHB78-.LFB8000
	.uleb128 .LEHE78-.LEHB78
	.uleb128 .L1420-.LFB8000
	.uleb128 0x0
	.uleb128 .LEHB79-.LFB8000
	.uleb128 .LEHE79-.LEHB79
	.uleb128 0x0
	.uleb128 0x0
.LLSDACSE8000:
	.text
	.section	.text._ZN3Upp6AIndexIN13WorkspaceWork5SepfoENS_6VectorIS2_EENS_7StdHashIS2_EEE3AddERKS2_j,"axG",@progbits,_ZN3Upp6AIndexIN13WorkspaceWork5SepfoENS_6VectorIS2_EENS_7StdHashIS2_EEE3AddERKS2_j,comdat
	.align 2
	.weak	_ZN3Upp6AIndexIN13WorkspaceWork5SepfoENS_6VectorIS2_EENS_7StdHashIS2_EEE3AddERKS2_j
	.type	_ZN3Upp6AIndexIN13WorkspaceWork5SepfoENS_6VectorIS2_EENS_7StdHashIS2_EEE3AddERKS2_j, @function
_ZN3Upp6AIndexIN13WorkspaceWork5SepfoENS_6VectorIS2_EENS_7StdHashIS2_EEE3AddERKS2_j:
.LFB10019:
	pushq	%rbp
.LCFI1227:
	movq	%rsp, %rbp
.LCFI1228:
	subq	$32, %rsp
.LCFI1229:
	movq	%rdi, -8(%rbp)
	movq	%rsi, -16(%rbp)
	movl	%edx, -20(%rbp)
	movq	-8(%rbp), %rdi
	movq	-16(%rbp), %rsi
	call	_ZN3Upp6VectorIN13WorkspaceWork5SepfoEE3AddERKS2_
	movq	-8(%rbp), %rdi
	addq	$16, %rdi
	movl	-20(%rbp), %esi
	call	_ZN3Upp8HashBase3AddEj
	leave
	ret
.LFE10019:
	.size	_ZN3Upp6AIndexIN13WorkspaceWork5SepfoENS_6VectorIS2_EENS_7StdHashIS2_EEE3AddERKS2_j, .-_ZN3Upp6AIndexIN13WorkspaceWork5SepfoENS_6VectorIS2_EENS_7StdHashIS2_EEE3AddERKS2_j
	.section	.text._ZN3Upp6AIndexINS_6StringENS_6VectorIS1_EENS_7StdHashIS1_EEE3AddERKS1_j,"axG",@progbits,_ZN3Upp6AIndexINS_6StringENS_6VectorIS1_EENS_7StdHashIS1_EEE3AddERKS1_j,comdat
	.align 2
	.weak	_ZN3Upp6AIndexINS_6StringENS_6VectorIS1_EENS_7StdHashIS1_EEE3AddERKS1_j
	.type	_ZN3Upp6AIndexINS_6StringENS_6VectorIS1_EENS_7StdHashIS1_EEE3AddERKS1_j, @function
_ZN3Upp6AIndexINS_6StringENS_6VectorIS1_EENS_7StdHashIS1_EEE3AddERKS1_j:
.LFB9445:
	pushq	%rbp
.LCFI1230:
	movq	%rsp, %rbp
.LCFI1231:
	subq	$32, %rsp
.LCFI1232:
	movq	%rdi, -8(%rbp)
	movq	%rsi, -16(%rbp)
	movl	%edx, -20(%rbp)
	movq	-8(%rbp), %rdi
	movq	-16(%rbp), %rsi
	call	_ZN3Upp6VectorINS_6StringEE3AddERKS1_
	movq	-8(%rbp), %rdi
	addq	$16, %rdi
	movl	-20(%rbp), %esi
	call	_ZN3Upp8HashBase3AddEj
	leave
	ret
.LFE9445:
	.size	_ZN3Upp6AIndexINS_6StringENS_6VectorIS1_EENS_7StdHashIS1_EEE3AddERKS1_j, .-_ZN3Upp6AIndexINS_6StringENS_6VectorIS1_EENS_7StdHashIS1_EEE3AddERKS1_j
	.section	.text._ZN3Upp6AIndexINS_6StringENS_6VectorIS1_EENS_7StdHashIS1_EEE3AddERKS1_,"axG",@progbits,_ZN3Upp6AIndexINS_6StringENS_6VectorIS1_EENS_7StdHashIS1_EEE3AddERKS1_,comdat
	.align 2
	.weak	_ZN3Upp6AIndexINS_6StringENS_6VectorIS1_EENS_7StdHashIS1_EEE3AddERKS1_
	.type	_ZN3Upp6AIndexINS_6StringENS_6VectorIS1_EENS_7StdHashIS1_EEE3AddERKS1_, @function
_ZN3Upp6AIndexINS_6StringENS_6VectorIS1_EENS_7StdHashIS1_EEE3AddERKS1_:
.LFB9011:
	pushq	%rbp
.LCFI1233:
	movq	%rsp, %rbp
.LCFI1234:
	subq	$16, %rsp
.LCFI1235:
	movq	%rdi, -8(%rbp)
	movq	%rsi, -16(%rbp)
	movq	-8(%rbp), %rdi
	addq	$72, %rdi
	movq	-16(%rbp), %rsi
	call	_ZNK3Upp7StdHashINS_6StringEEclERKS1_
	movq	-16(%rbp), %rsi
	movq	-8(%rbp), %rdi
	movl	%eax, %edx
	call	_ZN3Upp6AIndexINS_6StringENS_6VectorIS1_EENS_7StdHashIS1_EEE3AddERKS1_j
	leave
	ret
.LFE9011:
	.size	_ZN3Upp6AIndexINS_6StringENS_6VectorIS1_EENS_7StdHashIS1_EEE3AddERKS1_, .-_ZN3Upp6AIndexINS_6StringENS_6VectorIS1_EENS_7StdHashIS1_EEE3AddERKS1_
	.section	.text._Znwm,"axG",@progbits,_Znwm,comdat
	.align 2
	.weak	_Znwm
	.type	_Znwm, @function
_Znwm:
.LFB932:
	pushq	%rbp
.LCFI1236:
	movq	%rsp, %rbp
.LCFI1237:
	subq	$48, %rsp
.LCFI1238:
	movq	%rdi, -24(%rbp)
	movq	-24(%rbp), %rdi
.LEHB80:
	call	_ZN3Upp11MemoryAllocEm
.LEHE80:
	movq	%rax, -8(%rbp)
	movq	-8(%rbp), %rax
	movq	%rax, -32(%rbp)
	jmp	.L1427
.L1431:
	movq	%rax, -40(%rbp)
	cmpq	$-1, %rdx
	je	.L1428
	movq	-40(%rbp), %rdi
.LEHB81:
	call	_Unwind_Resume
.L1428:
	movq	-40(%rbp), %rdi
	call	__cxa_call_unexpected
.LEHE81:
.L1427:
	movq	-32(%rbp), %rax
	leave
	ret
.LFE932:
	.size	_Znwm, .-_Znwm
	.section	.gcc_except_table
	.align 4
.LLSDA932:
	.byte	0xff
	.byte	0x3
	.uleb128 .LLSDATT932-.LLSDATTD932
.LLSDATTD932:
	.byte	0x1
	.uleb128 .LLSDACSE932-.LLSDACSB932
.LLSDACSB932:
	.uleb128 .LEHB80-.LFB932
	.uleb128 .LEHE80-.LEHB80
	.uleb128 .L1431-.LFB932
	.uleb128 0x1
	.uleb128 .LEHB81-.LFB932
	.uleb128 .LEHE81-.LEHB81
	.uleb128 0x0
	.uleb128 0x0
.LLSDACSE932:
	.byte	0x7f
	.byte	0x0
	.align 4
	.long	_ZTISt9bad_alloc
.LLSDATT932:
	.byte	0x1
	.byte	0x0
	.section	.text._Znwm,"axG",@progbits,_Znwm,comdat
	.section	.text._ZN3Upp8callbackI13WorkspaceWorkS1_RNS_3BarEEENS_9Callback1IT1_EEPT_MT0_FvS5_E,"axG",@progbits,_ZN3Upp8callbackI13WorkspaceWorkS1_RNS_3BarEEENS_9Callback1IT1_EEPT_MT0_FvS5_E,comdat
	.align 2
	.weak	_ZN3Upp8callbackI13WorkspaceWorkS1_RNS_3BarEEENS_9Callback1IT1_EEPT_MT0_FvS5_E
	.type	_ZN3Upp8callbackI13WorkspaceWorkS1_RNS_3BarEEENS_9Callback1IT1_EEPT_MT0_FvS5_E, @function
_ZN3Upp8callbackI13WorkspaceWorkS1_RNS_3BarEEENS_9Callback1IT1_EEPT_MT0_FvS5_E:
.LFB9023:
	pushq	%rbp
.LCFI1239:
	movq	%rsp, %rbp
.LCFI1240:
	pushq	%r13
.LCFI1241:
	pushq	%r12
.LCFI1242:
	pushq	%rbx
.LCFI1243:
	subq	$24, %rsp
.LCFI1244:
	movq	%rdi, %r12
	movq	%rsi, -32(%rbp)
	movq	%rdx, %rax
	movq	%rcx, %rdx
	movq	%rax, -48(%rbp)
	movq	%rdx, -40(%rbp)
	movq	%r12, %r13
	movl	$40, %edi
	call	_Znwm
	movq	%rax, %rbx
	movq	-48(%rbp), %rdx
	movq	-40(%rbp), %rcx
	movq	-32(%rbp), %rsi
	movq	%rbx, %rdi
	call	_ZN3Upp21Callback1MethodActionI13WorkspaceWorkMS1_FvRNS_3BarEES3_EC1EPS1_S5_
	movq	%rbx, %rsi
	movq	%r13, %rdi
	call	_ZN3Upp9Callback1IRNS_3BarEEC1EPNS_15Callback1ActionIS2_EE
	movq	%r12, %rax
	addq	$24, %rsp
	popq	%rbx
	popq	%r12
	popq	%r13
	leave
	ret
.LFE9023:
	.size	_ZN3Upp8callbackI13WorkspaceWorkS1_RNS_3BarEEENS_9Callback1IT1_EEPT_MT0_FvS5_E, .-_ZN3Upp8callbackI13WorkspaceWorkS1_RNS_3BarEEENS_9Callback1IT1_EEPT_MT0_FvS5_E
	.section	.text._ZN3Upp8callbackI13WorkspaceWorkS1_NS_6Point_IiEEEENS_9Callback1IT1_EEPT_MT0_FvS5_E,"axG",@progbits,_ZN3Upp8callbackI13WorkspaceWorkS1_NS_6Point_IiEEEENS_9Callback1IT1_EEPT_MT0_FvS5_E,comdat
	.align 2
	.weak	_ZN3Upp8callbackI13WorkspaceWorkS1_NS_6Point_IiEEEENS_9Callback1IT1_EEPT_MT0_FvS5_E
	.type	_ZN3Upp8callbackI13WorkspaceWorkS1_NS_6Point_IiEEEENS_9Callback1IT1_EEPT_MT0_FvS5_E, @function
_ZN3Upp8callbackI13WorkspaceWorkS1_NS_6Point_IiEEEENS_9Callback1IT1_EEPT_MT0_FvS5_E:
.LFB9061:
	pushq	%rbp
.LCFI1245:
	movq	%rsp, %rbp
.LCFI1246:
	pushq	%r13
.LCFI1247:
	pushq	%r12
.LCFI1248:
	pushq	%rbx
.LCFI1249:
	subq	$24, %rsp
.LCFI1250:
	movq	%rdi, %r12
	movq	%rsi, -32(%rbp)
	movq	%rdx, %rax
	movq	%rcx, %rdx
	movq	%rax, -48(%rbp)
	movq	%rdx, -40(%rbp)
	movq	%r12, %r13
	movl	$40, %edi
	call	_Znwm
	movq	%rax, %rbx
	movq	-48(%rbp), %rdx
	movq	-40(%rbp), %rcx
	movq	-32(%rbp), %rsi
	movq	%rbx, %rdi
	call	_ZN3Upp21Callback1MethodActionI13WorkspaceWorkMS1_FvNS_6Point_IiEEES3_EC1EPS1_S5_
	movq	%rbx, %rsi
	movq	%r13, %rdi
	call	_ZN3Upp9Callback1INS_6Point_IiEEEC1EPNS_15Callback1ActionIS2_EE
	movq	%r12, %rax
	addq	$24, %rsp
	popq	%rbx
	popq	%r12
	popq	%r13
	leave
	ret
.LFE9061:
	.size	_ZN3Upp8callbackI13WorkspaceWorkS1_NS_6Point_IiEEEENS_9Callback1IT1_EEPT_MT0_FvS5_E, .-_ZN3Upp8callbackI13WorkspaceWorkS1_NS_6Point_IiEEEENS_9Callback1IT1_EEPT_MT0_FvS5_E
	.section	.text._ZN3Upp8callbackI13WorkspaceWorkS1_EENS_8CallbackEPT_MT0_FvvE,"axG",@progbits,_ZN3Upp8callbackI13WorkspaceWorkS1_EENS_8CallbackEPT_MT0_FvvE,comdat
	.align 2
	.weak	_ZN3Upp8callbackI13WorkspaceWorkS1_EENS_8CallbackEPT_MT0_FvvE
	.type	_ZN3Upp8callbackI13WorkspaceWorkS1_EENS_8CallbackEPT_MT0_FvvE, @function
_ZN3Upp8callbackI13WorkspaceWorkS1_EENS_8CallbackEPT_MT0_FvvE:
.LFB9041:
	pushq	%rbp
.LCFI1251:
	movq	%rsp, %rbp
.LCFI1252:
	pushq	%r13
.LCFI1253:
	pushq	%r12
.LCFI1254:
	pushq	%rbx
.LCFI1255:
	subq	$24, %rsp
.LCFI1256:
	movq	%rdi, %r12
	movq	%rsi, -32(%rbp)
	movq	%rdx, %rax
	movq	%rcx, %rdx
	movq	%rax, -48(%rbp)
	movq	%rdx, -40(%rbp)
	movq	%r12, %r13
	movl	$40, %edi
	call	_Znwm
	movq	%rax, %rbx
	movq	-48(%rbp), %rdx
	movq	-40(%rbp), %rcx
	movq	-32(%rbp), %rsi
	movq	%rbx, %rdi
	call	_ZN3Upp20CallbackMethodActionI13WorkspaceWorkMS1_FvvEEC1EPS1_S3_
	movq	%rbx, %rsi
	movq	%r13, %rdi
	call	_ZN3Upp8CallbackC1EPNS_14CallbackActionE
	movq	%r12, %rax
	addq	$24, %rsp
	popq	%rbx
	popq	%r12
	popq	%r13
	leave
	ret
.LFE9041:
	.size	_ZN3Upp8callbackI13WorkspaceWorkS1_EENS_8CallbackEPT_MT0_FvvE, .-_ZN3Upp8callbackI13WorkspaceWorkS1_EENS_8CallbackEPT_MT0_FvvE
	.section	.text._ZN3Upp9callback1I13WorkspaceWorkS1_NS_6StringES2_EENS_8CallbackEPT_MT0_FvT1_ET2_,"axG",@progbits,_ZN3Upp9callback1I13WorkspaceWorkS1_NS_6StringES2_EENS_8CallbackEPT_MT0_FvT1_ET2_,comdat
	.align 2
	.weak	_ZN3Upp9callback1I13WorkspaceWorkS1_NS_6StringES2_EENS_8CallbackEPT_MT0_FvT1_ET2_
	.type	_ZN3Upp9callback1I13WorkspaceWorkS1_NS_6StringES2_EENS_8CallbackEPT_MT0_FvT1_ET2_, @function
_ZN3Upp9callback1I13WorkspaceWorkS1_NS_6StringES2_EENS_8CallbackEPT_MT0_FvT1_ET2_:
.LFB9047:
	pushq	%rbp
.LCFI1257:
	movq	%rsp, %rbp
.LCFI1258:
	pushq	%rbx
.LCFI1259:
	subq	$120, %rsp
.LCFI1260:
	movq	%rdi, -112(%rbp)
	movq	%rsi, -56(%rbp)
	movq	%r8, -80(%rbp)
	movq	%rdx, %rax
	movq	%rcx, %rdx
	movq	%rax, -72(%rbp)
	movq	%rdx, -64(%rbp)
	movq	%fs:40, %rax
	movq	%rax, -24(%rbp)
	xorl	%eax, %eax
	movq	-112(%rbp), %rdx
	movq	%rdx, -104(%rbp)
	movq	-80(%rbp), %rsi
	leaq	-48(%rbp), %rdi
.LEHB82:
	call	_ZN3Upp6StringC1ERKS0_
.LEHE82:
	leaq	-48(%rbp), %rax
	movq	%rax, -96(%rbp)
	movl	$56, %edi
.LEHB83:
	call	_Znwm
.LEHE83:
	movq	%rax, -88(%rbp)
	movq	-72(%rbp), %rdx
	movq	-64(%rbp), %rcx
	movq	-56(%rbp), %rsi
	movq	-96(%rbp), %r8
	movq	-88(%rbp), %rdi
.LEHB84:
	call	_ZN3Upp23CallbackMethodActionArgI13WorkspaceWorkMS1_FvNS_6StringEES2_EC1EPS1_S4_S2_
.LEHE84:
	movq	-88(%rbp), %rsi
	movq	-104(%rbp), %rdi
	call	_ZN3Upp8CallbackC1EPNS_14CallbackActionE
	leaq	-48(%rbp), %rdi
	call	_ZN3Upp6StringD1Ev
	jmp	.L1438
.L1443:
	movq	%rax, -120(%rbp)
.L1439:
	movq	-120(%rbp), %rbx
	movq	-88(%rbp), %rdi
	call	_ZdlPv
	movq	%rbx, -120(%rbp)
	jmp	.L1440
.L1444:
	movq	%rax, -120(%rbp)
.L1440:
	movq	-120(%rbp), %rbx
	leaq	-48(%rbp), %rdi
	call	_ZN3Upp6StringD1Ev
	movq	%rbx, -120(%rbp)
	movq	-120(%rbp), %rdi
.LEHB85:
	call	_Unwind_Resume
.LEHE85:
.L1438:
	movq	-112(%rbp), %rax
	movq	-24(%rbp), %rdx
	xorq	%fs:40, %rdx
	je	.L1442
	call	__stack_chk_fail
.L1442:
	addq	$120, %rsp
	popq	%rbx
	leave
	ret
.LFE9047:
	.size	_ZN3Upp9callback1I13WorkspaceWorkS1_NS_6StringES2_EENS_8CallbackEPT_MT0_FvT1_ET2_, .-_ZN3Upp9callback1I13WorkspaceWorkS1_NS_6StringES2_EENS_8CallbackEPT_MT0_FvT1_ET2_
	.section	.gcc_except_table
.LLSDA9047:
	.byte	0xff
	.byte	0xff
	.byte	0x1
	.uleb128 .LLSDACSE9047-.LLSDACSB9047
.LLSDACSB9047:
	.uleb128 .LEHB82-.LFB9047
	.uleb128 .LEHE82-.LEHB82
	.uleb128 0x0
	.uleb128 0x0
	.uleb128 .LEHB83-.LFB9047
	.uleb128 .LEHE83-.LEHB83
	.uleb128 .L1444-.LFB9047
	.uleb128 0x0
	.uleb128 .LEHB84-.LFB9047
	.uleb128 .LEHE84-.LEHB84
	.uleb128 .L1443-.LFB9047
	.uleb128 0x0
	.uleb128 .LEHB85-.LFB9047
	.uleb128 .LEHE85-.LEHB85
	.uleb128 0x0
	.uleb128 0x0
.LLSDACSE9047:
	.section	.text._ZN3Upp9callback1I13WorkspaceWorkS1_NS_6StringES2_EENS_8CallbackEPT_MT0_FvT1_ET2_,"axG",@progbits,_ZN3Upp9callback1I13WorkspaceWorkS1_NS_6StringES2_EENS_8CallbackEPT_MT0_FvT1_ET2_,comdat
	.section	.text._ZN3Upp5ArrayI7OptItemE3AddEv,"axG",@progbits,_ZN3Upp5ArrayI7OptItemE3AddEv,comdat
	.align 2
	.weak	_ZN3Upp5ArrayI7OptItemE3AddEv
	.type	_ZN3Upp5ArrayI7OptItemE3AddEv, @function
_ZN3Upp5ArrayI7OptItemE3AddEv:
.LFB9043:
	pushq	%rbp
.LCFI1261:
	movq	%rsp, %rbp
.LCFI1262:
	pushq	%rbx
.LCFI1263:
	subq	$24, %rsp
.LCFI1264:
	movq	%rdi, -32(%rbp)
	movl	$32, %edi
	call	_Znwm
	movq	%rax, %rbx
	movq	%rbx, %rdi
	call	_ZN7OptItemC1Ev
	movq	%rbx, -16(%rbp)
	movq	-16(%rbp), %rax
	movq	%rax, -24(%rbp)
	movq	-32(%rbp), %rdi
	addq	$8, %rdi
	leaq	-24(%rbp), %rsi
	call	_ZN3Upp6VectorIPvE3AddERKS1_
	movq	-16(%rbp), %rax
	addq	$24, %rsp
	popq	%rbx
	leave
	ret
.LFE9043:
	.size	_ZN3Upp5ArrayI7OptItemE3AddEv, .-_ZN3Upp5ArrayI7OptItemE3AddEv
	.section	.text._ZN3Upp9callback1I13WorkspaceWorkS1_NS1_7ADDFILEES2_EENS_8CallbackEPT_MT0_FvT1_ET2_,"axG",@progbits,_ZN3Upp9callback1I13WorkspaceWorkS1_NS1_7ADDFILEES2_EENS_8CallbackEPT_MT0_FvT1_ET2_,comdat
	.align 2
	.weak	_ZN3Upp9callback1I13WorkspaceWorkS1_NS1_7ADDFILEES2_EENS_8CallbackEPT_MT0_FvT1_ET2_
	.type	_ZN3Upp9callback1I13WorkspaceWorkS1_NS1_7ADDFILEES2_EENS_8CallbackEPT_MT0_FvT1_ET2_, @function
_ZN3Upp9callback1I13WorkspaceWorkS1_NS1_7ADDFILEES2_EENS_8CallbackEPT_MT0_FvT1_ET2_:
.LFB9040:
	pushq	%rbp
.LCFI1265:
	movq	%rsp, %rbp
.LCFI1266:
	pushq	%r13
.LCFI1267:
	pushq	%r12
.LCFI1268:
	pushq	%rbx
.LCFI1269:
	subq	$40, %rsp
.LCFI1270:
	movq	%rdi, %r12
	movq	%rsi, -32(%rbp)
	movl	%r8d, -52(%rbp)
	movq	%rdx, %rax
	movq	%rcx, %rdx
	movq	%rax, -48(%rbp)
	movq	%rdx, -40(%rbp)
	movq	%r12, %r13
	movl	$48, %edi
	call	_Znwm
	movq	%rax, %rbx
	movl	-52(%rbp), %eax
	movq	-48(%rbp), %rdx
	movq	-40(%rbp), %rcx
	movq	-32(%rbp), %rsi
	movl	%eax, %r8d
	movq	%rbx, %rdi
	call	_ZN3Upp23CallbackMethodActionArgI13WorkspaceWorkMS1_FvNS1_7ADDFILEEES2_EC1EPS1_S4_S2_
	movq	%rbx, %rsi
	movq	%r13, %rdi
	call	_ZN3Upp8CallbackC1EPNS_14CallbackActionE
	movq	%r12, %rax
	addq	$40, %rsp
	popq	%rbx
	popq	%r12
	popq	%r13
	leave
	ret
.LFE9040:
	.size	_ZN3Upp9callback1I13WorkspaceWorkS1_NS1_7ADDFILEES2_EENS_8CallbackEPT_MT0_FvT1_ET2_, .-_ZN3Upp9callback1I13WorkspaceWorkS1_NS1_7ADDFILEES2_EENS_8CallbackEPT_MT0_FvT1_ET2_
	.section	.text._ZN3Upp9callback1I13WorkspaceWorkS1_iiEENS_8CallbackEPT_MT0_FvT1_ET2_,"axG",@progbits,_ZN3Upp9callback1I13WorkspaceWorkS1_iiEENS_8CallbackEPT_MT0_FvT1_ET2_,comdat
	.align 2
	.weak	_ZN3Upp9callback1I13WorkspaceWorkS1_iiEENS_8CallbackEPT_MT0_FvT1_ET2_
	.type	_ZN3Upp9callback1I13WorkspaceWorkS1_iiEENS_8CallbackEPT_MT0_FvT1_ET2_, @function
_ZN3Upp9callback1I13WorkspaceWorkS1_iiEENS_8CallbackEPT_MT0_FvT1_ET2_:
.LFB9042:
	pushq	%rbp
.LCFI1271:
	movq	%rsp, %rbp
.LCFI1272:
	pushq	%r13
.LCFI1273:
	pushq	%r12
.LCFI1274:
	pushq	%rbx
.LCFI1275:
	subq	$40, %rsp
.LCFI1276:
	movq	%rdi, %r12
	movq	%rsi, -32(%rbp)
	movl	%r8d, -52(%rbp)
	movq	%rdx, %rax
	movq	%rcx, %rdx
	movq	%rax, -48(%rbp)
	movq	%rdx, -40(%rbp)
	movq	%r12, %r13
	movl	$48, %edi
	call	_Znwm
	movq	%rax, %rbx
	movl	-52(%rbp), %eax
	movq	-48(%rbp), %rdx
	movq	-40(%rbp), %rcx
	movq	-32(%rbp), %rsi
	movl	%eax, %r8d
	movq	%rbx, %rdi
	call	_ZN3Upp23CallbackMethodActionArgI13WorkspaceWorkMS1_FviEiEC1EPS1_S3_i
	movq	%rbx, %rsi
	movq	%r13, %rdi
	call	_ZN3Upp8CallbackC1EPNS_14CallbackActionE
	movq	%r12, %rax
	addq	$40, %rsp
	popq	%rbx
	popq	%r12
	popq	%r13
	leave
	ret
.LFE9042:
	.size	_ZN3Upp9callback1I13WorkspaceWorkS1_iiEENS_8CallbackEPT_MT0_FvT1_ET2_, .-_ZN3Upp9callback1I13WorkspaceWorkS1_iiEENS_8CallbackEPT_MT0_FvT1_ET2_
	.section	.text._ZN3Upp8callbackI3TppS1_EENS_8CallbackEPT_MT0_FvvE,"axG",@progbits,_ZN3Upp8callbackI3TppS1_EENS_8CallbackEPT_MT0_FvvE,comdat
	.align 2
	.weak	_ZN3Upp8callbackI3TppS1_EENS_8CallbackEPT_MT0_FvvE
	.type	_ZN3Upp8callbackI3TppS1_EENS_8CallbackEPT_MT0_FvvE, @function
_ZN3Upp8callbackI3TppS1_EENS_8CallbackEPT_MT0_FvvE:
.LFB9029:
	pushq	%rbp
.LCFI1277:
	movq	%rsp, %rbp
.LCFI1278:
	pushq	%r13
.LCFI1279:
	pushq	%r12
.LCFI1280:
	pushq	%rbx
.LCFI1281:
	subq	$24, %rsp
.LCFI1282:
	movq	%rdi, %r12
	movq	%rsi, -32(%rbp)
	movq	%rdx, %rax
	movq	%rcx, %rdx
	movq	%rax, -48(%rbp)
	movq	%rdx, -40(%rbp)
	movq	%r12, %r13
	movl	$40, %edi
	call	_Znwm
	movq	%rax, %rbx
	movq	-48(%rbp), %rdx
	movq	-40(%rbp), %rcx
	movq	-32(%rbp), %rsi
	movq	%rbx, %rdi
	call	_ZN3Upp20CallbackMethodActionI3TppMS1_FvvEEC1EPS1_S3_
	movq	%rbx, %rsi
	movq	%r13, %rdi
	call	_ZN3Upp8CallbackC1EPNS_14CallbackActionE
	movq	%r12, %rax
	addq	$24, %rsp
	popq	%rbx
	popq	%r12
	popq	%r13
	leave
	ret
.LFE9029:
	.size	_ZN3Upp8callbackI3TppS1_EENS_8CallbackEPT_MT0_FvvE, .-_ZN3Upp8callbackI3TppS1_EENS_8CallbackEPT_MT0_FvvE
	.section	.text._ZN3Upp5ArrayIN7Package4FileEE4InitEPPvS5_,"axG",@progbits,_ZN3Upp5ArrayIN7Package4FileEE4InitEPPvS5_,comdat
	.align 2
	.weak	_ZN3Upp5ArrayIN7Package4FileEE4InitEPPvS5_
	.type	_ZN3Upp5ArrayIN7Package4FileEE4InitEPPvS5_, @function
_ZN3Upp5ArrayIN7Package4FileEE4InitEPPvS5_:
.LFB10013:
	pushq	%rbp
.LCFI1283:
	movq	%rsp, %rbp
.LCFI1284:
	pushq	%rbx
.LCFI1285:
	subq	$24, %rsp
.LCFI1286:
	movq	%rdi, -16(%rbp)
	movq	%rsi, -24(%rbp)
	movq	%rdx, -32(%rbp)
	jmp	.L1454
.L1455:
	movl	$104, %edi
	call	_Znwm
	movq	%rax, %rbx
	movq	%rbx, %rdi
	call	_ZN7Package4FileC1Ev
	movq	-24(%rbp), %rax
	movq	%rbx, (%rax)
	addq	$8, -24(%rbp)
.L1454:
	movq	-24(%rbp), %rax
	cmpq	-32(%rbp), %rax
	jb	.L1455
	addq	$24, %rsp
	popq	%rbx
	leave
	ret
.LFE10013:
	.size	_ZN3Upp5ArrayIN7Package4FileEE4InitEPPvS5_, .-_ZN3Upp5ArrayIN7Package4FileEE4InitEPPvS5_
	.section	.text._ZN3Upp5ArrayIN7Package4FileEE3AddEv,"axG",@progbits,_ZN3Upp5ArrayIN7Package4FileEE3AddEv,comdat
	.align 2
	.weak	_ZN3Upp5ArrayIN7Package4FileEE3AddEv
	.type	_ZN3Upp5ArrayIN7Package4FileEE3AddEv, @function
_ZN3Upp5ArrayIN7Package4FileEE3AddEv:
.LFB9026:
	pushq	%rbp
.LCFI1287:
	movq	%rsp, %rbp
.LCFI1288:
	pushq	%rbx
.LCFI1289:
	subq	$24, %rsp
.LCFI1290:
	movq	%rdi, -32(%rbp)
	movl	$104, %edi
	call	_Znwm
	movq	%rax, %rbx
	movq	%rbx, %rdi
	call	_ZN7Package4FileC1Ev
	movq	%rbx, -16(%rbp)
	movq	-16(%rbp), %rax
	movq	%rax, -24(%rbp)
	movq	-32(%rbp), %rdi
	addq	$8, %rdi
	leaq	-24(%rbp), %rsi
	call	_ZN3Upp6VectorIPvE3AddERKS1_
	movq	-16(%rbp), %rax
	addq	$24, %rsp
	popq	%rbx
	leave
	ret
.LFE9026:
	.size	_ZN3Upp5ArrayIN7Package4FileEE3AddEv, .-_ZN3Upp5ArrayIN7Package4FileEE3AddEv
	.section	.text._ZN3Upp11DeepCopyNewIN7Package4FileEEEPT_RKS3_,"axG",@progbits,_ZN3Upp11DeepCopyNewIN7Package4FileEEEPT_RKS3_,comdat
	.align 2
	.weak	_ZN3Upp11DeepCopyNewIN7Package4FileEEEPT_RKS3_
	.type	_ZN3Upp11DeepCopyNewIN7Package4FileEEEPT_RKS3_, @function
_ZN3Upp11DeepCopyNewIN7Package4FileEEEPT_RKS3_:
.LFB9581:
	pushq	%rbp
.LCFI1291:
	movq	%rsp, %rbp
.LCFI1292:
	pushq	%rbx
.LCFI1293:
	subq	$40, %rsp
.LCFI1294:
	movq	%rdi, -16(%rbp)
	movl	$104, %edi
.LEHB86:
	call	_Znwm
.LEHE86:
	movq	%rax, -24(%rbp)
	movq	-16(%rbp), %rsi
	movq	-24(%rbp), %rdi
.LEHB87:
	call	_ZN7Package4FileC1ERKS0_
.LEHE87:
	movq	-24(%rbp), %rax
	movq	%rax, -32(%rbp)
	jmp	.L1460
.L1463:
	movq	%rax, -40(%rbp)
.L1461:
	movq	-40(%rbp), %rbx
	movq	-24(%rbp), %rdi
	call	_ZdlPv
	movq	%rbx, -40(%rbp)
	movq	-40(%rbp), %rdi
.LEHB88:
	call	_Unwind_Resume
.LEHE88:
.L1460:
	movq	-32(%rbp), %rax
	addq	$40, %rsp
	popq	%rbx
	leave
	ret
.LFE9581:
	.size	_ZN3Upp11DeepCopyNewIN7Package4FileEEEPT_RKS3_, .-_ZN3Upp11DeepCopyNewIN7Package4FileEEEPT_RKS3_
	.section	.gcc_except_table
.LLSDA9581:
	.byte	0xff
	.byte	0xff
	.byte	0x1
	.uleb128 .LLSDACSE9581-.LLSDACSB9581
.LLSDACSB9581:
	.uleb128 .LEHB86-.LFB9581
	.uleb128 .LEHE86-.LEHB86
	.uleb128 0x0
	.uleb128 0x0
	.uleb128 .LEHB87-.LFB9581
	.uleb128 .LEHE87-.LEHB87
	.uleb128 .L1463-.LFB9581
	.uleb128 0x0
	.uleb128 .LEHB88-.LFB9581
	.uleb128 .LEHE88-.LEHB88
	.uleb128 0x0
	.uleb128 0x0
.LLSDACSE9581:
	.section	.text._ZN3Upp11DeepCopyNewIN7Package4FileEEEPT_RKS3_,"axG",@progbits,_ZN3Upp11DeepCopyNewIN7Package4FileEEEPT_RKS3_,comdat
	.section	.text._ZN3Upp5ArrayIN7Package4FileEE3AddERKS2_,"axG",@progbits,_ZN3Upp5ArrayIN7Package4FileEE3AddERKS2_,comdat
	.align 2
	.weak	_ZN3Upp5ArrayIN7Package4FileEE3AddERKS2_
	.type	_ZN3Upp5ArrayIN7Package4FileEE3AddERKS2_, @function
_ZN3Upp5ArrayIN7Package4FileEE3AddERKS2_:
.LFB9021:
	pushq	%rbp
.LCFI1295:
	movq	%rsp, %rbp
.LCFI1296:
	subq	$32, %rsp
.LCFI1297:
	movq	%rdi, -24(%rbp)
	movq	%rsi, -32(%rbp)
	movq	-32(%rbp), %rdi
	call	_ZN3Upp11DeepCopyNewIN7Package4FileEEEPT_RKS3_
	movq	%rax, -8(%rbp)
	movq	-24(%rbp), %rdi
	addq	$8, %rdi
	leaq	-8(%rbp), %rsi
	call	_ZN3Upp6VectorIPvE3AddERKS1_
	leave
	ret
.LFE9021:
	.size	_ZN3Upp5ArrayIN7Package4FileEE3AddERKS2_, .-_ZN3Upp5ArrayIN7Package4FileEE3AddERKS2_
	.section	.text._ZN3Upp5ArrayIN13WorkspaceWork6BackupEE3AddEv,"axG",@progbits,_ZN3Upp5ArrayIN13WorkspaceWork6BackupEE3AddEv,comdat
	.align 2
	.weak	_ZN3Upp5ArrayIN13WorkspaceWork6BackupEE3AddEv
	.type	_ZN3Upp5ArrayIN13WorkspaceWork6BackupEE3AddEv, @function
_ZN3Upp5ArrayIN13WorkspaceWork6BackupEE3AddEv:
.LFB9998:
	pushq	%rbp
.LCFI1298:
	movq	%rsp, %rbp
.LCFI1299:
	pushq	%rbx
.LCFI1300:
	subq	$24, %rsp
.LCFI1301:
	movq	%rdi, -32(%rbp)
	movl	$24, %edi
	call	_Znwm
	movq	%rax, %rbx
	movq	%rbx, %rdi
	call	_ZN13WorkspaceWork6BackupC1Ev
	movq	%rbx, -16(%rbp)
	movq	-16(%rbp), %rax
	movq	%rax, -24(%rbp)
	movq	-32(%rbp), %rdi
	addq	$8, %rdi
	leaq	-24(%rbp), %rsi
	call	_ZN3Upp6VectorIPvE3AddERKS1_
	movq	-16(%rbp), %rax
	addq	$24, %rsp
	popq	%rbx
	leave
	ret
.LFE9998:
	.size	_ZN3Upp5ArrayIN13WorkspaceWork6BackupEE3AddEv, .-_ZN3Upp5ArrayIN13WorkspaceWork6BackupEE3AddEv
	.section	.text._ZN3Upp4AMapINS_6StringEN13WorkspaceWork6BackupENS_5ArrayIS3_EENS_7StdHashIS1_EEE3AddERKS1_,"axG",@progbits,_ZN3Upp4AMapINS_6StringEN13WorkspaceWork6BackupENS_5ArrayIS3_EENS_7StdHashIS1_EEE3AddERKS1_,comdat
	.align 2
	.weak	_ZN3Upp4AMapINS_6StringEN13WorkspaceWork6BackupENS_5ArrayIS3_EENS_7StdHashIS1_EEE3AddERKS1_
	.type	_ZN3Upp4AMapINS_6StringEN13WorkspaceWork6BackupENS_5ArrayIS3_EENS_7StdHashIS1_EEE3AddERKS1_, @function
_ZN3Upp4AMapINS_6StringEN13WorkspaceWork6BackupENS_5ArrayIS3_EENS_7StdHashIS1_EEE3AddERKS1_:
.LFB9571:
	pushq	%rbp
.LCFI1302:
	movq	%rsp, %rbp
.LCFI1303:
	subq	$16, %rsp
.LCFI1304:
	movq	%rdi, -8(%rbp)
	movq	%rsi, -16(%rbp)
	movq	-8(%rbp), %rdi
	addq	$8, %rdi
	movq	-16(%rbp), %rsi
	call	_ZN3Upp6AIndexINS_6StringENS_6VectorIS1_EENS_7StdHashIS1_EEE3AddERKS1_
	movq	-8(%rbp), %rdi
	addq	$88, %rdi
	call	_ZN3Upp5ArrayIN13WorkspaceWork6BackupEE3AddEv
	leave
	ret
.LFE9571:
	.size	_ZN3Upp4AMapINS_6StringEN13WorkspaceWork6BackupENS_5ArrayIS3_EENS_7StdHashIS1_EEE3AddERKS1_, .-_ZN3Upp4AMapINS_6StringEN13WorkspaceWork6BackupENS_5ArrayIS3_EENS_7StdHashIS1_EEE3AddERKS1_
	.section	.text._ZN3Upp8ArrayMapINS_6StringEN13WorkspaceWork6BackupENS_7StdHashIS1_EEE3AddERKS1_,"axG",@progbits,_ZN3Upp8ArrayMapINS_6StringEN13WorkspaceWork6BackupENS_7StdHashIS1_EEE3AddERKS1_,comdat
	.align 2
	.weak	_ZN3Upp8ArrayMapINS_6StringEN13WorkspaceWork6BackupENS_7StdHashIS1_EEE3AddERKS1_
	.type	_ZN3Upp8ArrayMapINS_6StringEN13WorkspaceWork6BackupENS_7StdHashIS1_EEE3AddERKS1_, @function
_ZN3Upp8ArrayMapINS_6StringEN13WorkspaceWork6BackupENS_7StdHashIS1_EEE3AddERKS1_:
.LFB9006:
	pushq	%rbp
.LCFI1305:
	movq	%rsp, %rbp
.LCFI1306:
	subq	$16, %rsp
.LCFI1307:
	movq	%rdi, -8(%rbp)
	movq	%rsi, -16(%rbp)
	movq	-8(%rbp), %rdi
	addq	$8, %rdi
	movq	-16(%rbp), %rsi
	call	_ZN3Upp4AMapINS_6StringEN13WorkspaceWork6BackupENS_5ArrayIS3_EENS_7StdHashIS1_EEE3AddERKS1_
	leave
	ret
.LFE9006:
	.size	_ZN3Upp8ArrayMapINS_6StringEN13WorkspaceWork6BackupENS_7StdHashIS1_EEE3AddERKS1_, .-_ZN3Upp8ArrayMapINS_6StringEN13WorkspaceWork6BackupENS_7StdHashIS1_EEE3AddERKS1_
	.section	.text._ZN3Upp4CtrllSENS_8CallbackE,"axG",@progbits,_ZN3Upp4CtrllSENS_8CallbackE,comdat
	.align 2
	.weak	_ZN3Upp4CtrllSENS_8CallbackE
	.type	_ZN3Upp4CtrllSENS_8CallbackE, @function
_ZN3Upp4CtrllSENS_8CallbackE:
.LFB4705:
	pushq	%rbp
.LCFI1308:
	movq	%rsp, %rbp
.LCFI1309:
	pushq	%rbx
.LCFI1310:
	subq	$24, %rsp
.LCFI1311:
	movq	%rdi, %rbx
	movq	%rsi, -16(%rbp)
	movq	%rdx, -24(%rbp)
	movq	-16(%rbp), %rdi
	addq	$144, %rdi
	movq	-24(%rbp), %rsi
	call	_ZN3Upp8CallbackaSERKS0_
	movq	%rbx, %rdi
	movq	-24(%rbp), %rsi
	call	_ZN3Upp8CallbackC1ERKS0_
	movq	%rbx, %rax
	addq	$24, %rsp
	popq	%rbx
	leave
	ret
.LFE4705:
	.size	_ZN3Upp4CtrllSENS_8CallbackE, .-_ZN3Upp4CtrllSENS_8CallbackE
	.section	.text._ZN3Upp10ColumnList7ColumnsEi,"axG",@progbits,_ZN3Upp10ColumnList7ColumnsEi,comdat
	.align 2
	.weak	_ZN3Upp10ColumnList7ColumnsEi
	.type	_ZN3Upp10ColumnList7ColumnsEi, @function
_ZN3Upp10ColumnList7ColumnsEi:
.LFB6315:
	pushq	%rbp
.LCFI1312:
	movq	%rsp, %rbp
.LCFI1313:
	subq	$16, %rsp
.LCFI1314:
	movq	%rdi, -8(%rbp)
	movl	%esi, -12(%rbp)
	movq	-8(%rbp), %rdx
	movl	-12(%rbp), %eax
	movl	%eax, 160(%rdx)
	movq	-8(%rbp), %rdi
	call	_ZN3Upp4Ctrl7RefreshEv
	movq	-8(%rbp), %rax
	leave
	ret
.LFE6315:
	.size	_ZN3Upp10ColumnList7ColumnsEi, .-_ZN3Upp10ColumnList7ColumnsEi
	.section	.text._ZN3Upp10ColumnList11NoRoundSizeEv,"axG",@progbits,_ZN3Upp10ColumnList11NoRoundSizeEv,comdat
	.align 2
	.weak	_ZN3Upp10ColumnList11NoRoundSizeEv
	.type	_ZN3Upp10ColumnList11NoRoundSizeEv, @function
_ZN3Upp10ColumnList11NoRoundSizeEv:
.LFB6319:
	pushq	%rbp
.LCFI1315:
	movq	%rsp, %rbp
.LCFI1316:
	subq	$16, %rsp
.LCFI1317:
	movq	%rdi, -8(%rbp)
	movq	-8(%rbp), %rdi
	movl	$0, %esi
	call	_ZN3Upp10ColumnList9RoundSizeEb
	leave
	ret
.LFE6319:
	.size	_ZN3Upp10ColumnList11NoRoundSizeEv, .-_ZN3Upp10ColumnList11NoRoundSizeEv
	.text
	.align 2
.globl _ZN13WorkspaceWorkC1Ev
	.type	_ZN13WorkspaceWorkC1Ev, @function
_ZN13WorkspaceWorkC1Ev:
.LFB7999:
	pushq	%rbp
.LCFI1318:
	movq	%rsp, %rbp
.LCFI1319:
	pushq	%rbx
.LCFI1320:
	subq	$216, %rsp
.LCFI1321:
	movq	%rdi, -216(%rbp)
	movl	$_ZTV13WorkspaceWork+16, %edx
	movq	-216(%rbp), %rax
	movq	%rdx, (%rax)
	movq	-216(%rbp), %rdi
	addq	$8, %rdi
.LEHB89:
	call	_ZN3Upp8FileListC1Ev
.LEHE89:
	movq	-216(%rbp), %rdi
	addq	$2120, %rdi
.LEHB90:
	call	_ZN3Upp8FileListC1Ev
.LEHE90:
	movq	-216(%rbp), %rdi
	addq	$4232, %rdi
	call	_ZN3Upp6VectorIiEC1Ev
	movq	-216(%rbp), %rdi
	addq	$4248, %rdi
	call	_ZN3Upp6StringC1Ev
	movq	-216(%rbp), %rdi
	addq	$4264, %rdi
	call	_ZN3Upp6StringC1Ev
	movq	-216(%rbp), %rdi
	addq	$4288, %rdi
.LEHB91:
	call	_ZN7PackageC1Ev
.LEHE91:
	movq	-216(%rbp), %rdi
	addq	$4552, %rdi
.LEHB92:
	call	_ZN3Upp5IndexIN13WorkspaceWork5SepfoENS_7StdHashIS2_EEEC1Ev
.LEHE92:
	movq	-216(%rbp), %rdi
	addq	$4640, %rdi
.LEHB93:
	call	_ZN3Upp8ArrayMapINS_6StringEN13WorkspaceWork6BackupENS_7StdHashIS1_EEEC1Ev
.LEHE93:
	movq	$1, -208(%rbp)
	movq	$0, -200(%rbp)
	leaq	-112(%rbp), %rdi
	movq	-208(%rbp), %rdx
	movq	-200(%rbp), %rcx
	movq	-216(%rbp), %rsi
.LEHB94:
	call	_ZN3Upp8callbackI13WorkspaceWorkS1_EENS_8CallbackEPT_MT0_FvvE
.LEHE94:
	movq	-216(%rbp), %rsi
	addq	$8, %rsi
	leaq	-128(%rbp), %rdi
	leaq	-112(%rbp), %rdx
.LEHB95:
	call	_ZN3Upp4CtrllSENS_8CallbackE
	leaq	-128(%rbp), %rdi
	call	_ZN3Upp8CallbackD1Ev
.LEHE95:
	leaq	-112(%rbp), %rdi
.LEHB96:
	call	_ZN3Upp8CallbackD1Ev
.LEHE96:
	jmp	.L1479
.L1502:
	movq	%rax, -224(%rbp)
.L1480:
	movq	-224(%rbp), %rbx
	leaq	-112(%rbp), %rdi
	call	_ZN3Upp8CallbackD1Ev
	movq	%rbx, -224(%rbp)
	jmp	.L1489
.L1479:
	movq	$_ZN13WorkspaceWork11PackageMenuERN3Upp3BarE, -192(%rbp)
	movq	$0, -184(%rbp)
	leaq	-96(%rbp), %rdi
	movq	-192(%rbp), %rdx
	movq	-184(%rbp), %rcx
	movq	-216(%rbp), %rsi
.LEHB97:
	call	_ZN3Upp8callbackI13WorkspaceWorkS1_RNS_3BarEEENS_9Callback1IT1_EEPT_MT0_FvS5_E
.LEHE97:
	movq	-216(%rbp), %rdi
	addq	$1664, %rdi
	leaq	-96(%rbp), %rsi
.LEHB98:
	call	_ZN3Upp9Callback1IRNS_3BarEEaSERKS3_
.LEHE98:
	leaq	-96(%rbp), %rdi
.LEHB99:
	call	_ZN3Upp9Callback1IRNS_3BarEED1Ev
.LEHE99:
	jmp	.L1481
.L1501:
	movq	%rax, -224(%rbp)
.L1482:
	movq	-224(%rbp), %rbx
	leaq	-96(%rbp), %rdi
	call	_ZN3Upp9Callback1IRNS_3BarEED1Ev
	movq	%rbx, -224(%rbp)
	jmp	.L1489
.L1481:
	movq	-216(%rbp), %rdi
	addq	$8, %rdi
.LEHB100:
	call	_ZN3Upp10ColumnList11NoRoundSizeEv
	movq	-216(%rbp), %rdi
	addq	$8, %rdi
	movl	$2, %esi
	call	_ZN3Upp10ColumnList7ColumnsEi
	movq	$9, -176(%rbp)
	movq	$0, -168(%rbp)
	leaq	-64(%rbp), %rdi
	movq	-176(%rbp), %rdx
	movq	-168(%rbp), %rcx
	movq	-216(%rbp), %rsi
	call	_ZN3Upp8callbackI13WorkspaceWorkS1_EENS_8CallbackEPT_MT0_FvvE
.LEHE100:
	movq	-216(%rbp), %rsi
	addq	$2120, %rsi
	leaq	-80(%rbp), %rdi
	leaq	-64(%rbp), %rdx
.LEHB101:
	call	_ZN3Upp4CtrllSENS_8CallbackE
	leaq	-80(%rbp), %rdi
	call	_ZN3Upp8CallbackD1Ev
.LEHE101:
	leaq	-64(%rbp), %rdi
.LEHB102:
	call	_ZN3Upp8CallbackD1Ev
.LEHE102:
	jmp	.L1483
.L1500:
	movq	%rax, -224(%rbp)
.L1484:
	movq	-224(%rbp), %rbx
	leaq	-64(%rbp), %rdi
	call	_ZN3Upp8CallbackD1Ev
	movq	%rbx, -224(%rbp)
	jmp	.L1489
.L1483:
	movq	$_ZN13WorkspaceWork11GroupOrFileEN3Upp6Point_IiEE, -160(%rbp)
	movq	$0, -152(%rbp)
	leaq	-48(%rbp), %rdi
	movq	-160(%rbp), %rdx
	movq	-152(%rbp), %rcx
	movq	-216(%rbp), %rsi
.LEHB103:
	call	_ZN3Upp8callbackI13WorkspaceWorkS1_NS_6Point_IiEEEENS_9Callback1IT1_EEPT_MT0_FvS5_E
.LEHE103:
	movq	-216(%rbp), %rdi
	addq	$3760, %rdi
	leaq	-48(%rbp), %rsi
.LEHB104:
	call	_ZN3Upp9Callback1INS_6Point_IiEEEaSERKS3_
.LEHE104:
	leaq	-48(%rbp), %rdi
.LEHB105:
	call	_ZN3Upp9Callback1INS_6Point_IiEEED1Ev
.LEHE105:
	jmp	.L1485
.L1499:
	movq	%rax, -224(%rbp)
.L1486:
	movq	-224(%rbp), %rbx
	leaq	-48(%rbp), %rdi
	call	_ZN3Upp9Callback1INS_6Point_IiEEED1Ev
	movq	%rbx, -224(%rbp)
	jmp	.L1489
.L1485:
	movq	$_ZN13WorkspaceWork5GroupEv, -144(%rbp)
	movq	$0, -136(%rbp)
	leaq	-32(%rbp), %rdi
	movq	-144(%rbp), %rdx
	movq	-136(%rbp), %rcx
	movq	-216(%rbp), %rsi
.LEHB106:
	call	_ZN3Upp8callbackI13WorkspaceWorkS1_EENS_8CallbackEPT_MT0_FvvE
.LEHE106:
	movq	-216(%rbp), %rdi
	addq	$3768, %rdi
	leaq	-32(%rbp), %rsi
.LEHB107:
	call	_ZN3Upp8CallbackaSERKS0_
.LEHE107:
	leaq	-32(%rbp), %rdi
.LEHB108:
	call	_ZN3Upp8CallbackD1Ev
.LEHE108:
	jmp	.L1487
.L1498:
	movq	%rax, -224(%rbp)
.L1488:
	movq	-224(%rbp), %rbx
	leaq	-32(%rbp), %rdi
	call	_ZN3Upp8CallbackD1Ev
	movq	%rbx, -224(%rbp)
	jmp	.L1489
.L1487:
	movq	-216(%rbp), %rdi
	addq	$2120, %rdi
	movl	$2, %esi
.LEHB109:
	call	_ZN3Upp10ColumnList7ColumnsEi
	movq	-216(%rbp), %rdi
	addq	$2120, %rdi
	call	_ZN3Upp10ColumnList11NoRoundSizeEv
	movq	-216(%rbp), %rax
	movl	$-1, 4280(%rax)
	movq	-216(%rbp), %rax
	movb	$0, 4760(%rax)
	movq	-216(%rbp), %rdi
	addq	$8, %rdi
	call	_ZN3Upp4Ctrl13BackPaintHintEv
	movq	-216(%rbp), %rdi
	addq	$2120, %rdi
	call	_ZN3Upp4Ctrl13BackPaintHintEv
.LEHE109:
	movq	-216(%rbp), %rax
	movb	$0, 4761(%rax)
	jmp	.L1497
.L1503:
	movq	%rax, -224(%rbp)
.L1489:
	movq	-224(%rbp), %rbx
	movq	-216(%rbp), %rdi
	addq	$4640, %rdi
	call	_ZN3Upp8ArrayMapINS_6StringEN13WorkspaceWork6BackupENS_7StdHashIS1_EEED1Ev
	movq	%rbx, -224(%rbp)
	jmp	.L1490
.L1504:
	movq	%rax, -224(%rbp)
.L1490:
	movq	-224(%rbp), %rbx
	movq	-216(%rbp), %rdi
	addq	$4552, %rdi
	call	_ZN3Upp5IndexIN13WorkspaceWork5SepfoENS_7StdHashIS2_EEED1Ev
	movq	%rbx, -224(%rbp)
	jmp	.L1491
.L1505:
	movq	%rax, -224(%rbp)
.L1491:
	movq	-224(%rbp), %rbx
	movq	-216(%rbp), %rdi
	addq	$4288, %rdi
	call	_ZN7PackageD1Ev
	movq	%rbx, -224(%rbp)
	jmp	.L1492
.L1506:
	movq	%rax, -224(%rbp)
.L1492:
	movq	-224(%rbp), %rbx
	movq	-216(%rbp), %rdi
	addq	$4264, %rdi
	call	_ZN3Upp6StringD1Ev
	movq	%rbx, -224(%rbp)
.L1507:
.L1493:
	movq	-224(%rbp), %rbx
	movq	-216(%rbp), %rdi
	addq	$4248, %rdi
	call	_ZN3Upp6StringD1Ev
	movq	%rbx, -224(%rbp)
.L1508:
.L1494:
	movq	-224(%rbp), %rbx
	movq	-216(%rbp), %rdi
	addq	$4232, %rdi
	call	_ZN3Upp6VectorIiED1Ev
	movq	%rbx, -224(%rbp)
.L1509:
.L1495:
	movq	-224(%rbp), %rbx
	movq	-216(%rbp), %rdi
	addq	$2120, %rdi
	call	_ZN3Upp8FileListD1Ev
	movq	%rbx, -224(%rbp)
	jmp	.L1496
.L1510:
	movq	%rax, -224(%rbp)
.L1496:
	movq	-224(%rbp), %rbx
	movq	-216(%rbp), %rdi
	addq	$8, %rdi
	call	_ZN3Upp8FileListD1Ev
	movq	%rbx, -224(%rbp)
	movq	-224(%rbp), %rdi
.LEHB110:
	call	_Unwind_Resume
.LEHE110:
.L1497:
	addq	$216, %rsp
	popq	%rbx
	leave
	ret
.LFE7999:
	.size	_ZN13WorkspaceWorkC1Ev, .-_ZN13WorkspaceWorkC1Ev
	.section	.gcc_except_table
.LLSDA7999:
	.byte	0xff
	.byte	0xff
	.byte	0x1
	.uleb128 .LLSDACSE7999-.LLSDACSB7999
.LLSDACSB7999:
	.uleb128 .LEHB89-.LFB7999
	.uleb128 .LEHE89-.LEHB89
	.uleb128 0x0
	.uleb128 0x0
	.uleb128 .LEHB90-.LFB7999
	.uleb128 .LEHE90-.LEHB90
	.uleb128 .L1510-.LFB7999
	.uleb128 0x0
	.uleb128 .LEHB91-.LFB7999
	.uleb128 .LEHE91-.LEHB91
	.uleb128 .L1506-.LFB7999
	.uleb128 0x0
	.uleb128 .LEHB92-.LFB7999
	.uleb128 .LEHE92-.LEHB92
	.uleb128 .L1505-.LFB7999
	.uleb128 0x0
	.uleb128 .LEHB93-.LFB7999
	.uleb128 .LEHE93-.LEHB93
	.uleb128 .L1504-.LFB7999
	.uleb128 0x0
	.uleb128 .LEHB94-.LFB7999
	.uleb128 .LEHE94-.LEHB94
	.uleb128 .L1503-.LFB7999
	.uleb128 0x0
	.uleb128 .LEHB95-.LFB7999
	.uleb128 .LEHE95-.LEHB95
	.uleb128 .L1502-.LFB7999
	.uleb128 0x0
	.uleb128 .LEHB96-.LFB7999
	.uleb128 .LEHE96-.LEHB96
	.uleb128 .L1503-.LFB7999
	.uleb128 0x0
	.uleb128 .LEHB97-.LFB7999
	.uleb128 .LEHE97-.LEHB97
	.uleb128 .L1503-.LFB7999
	.uleb128 0x0
	.uleb128 .LEHB98-.LFB7999
	.uleb128 .LEHE98-.LEHB98
	.uleb128 .L1501-.LFB7999
	.uleb128 0x0
	.uleb128 .LEHB99-.LFB7999
	.uleb128 .LEHE99-.LEHB99
	.uleb128 .L1503-.LFB7999
	.uleb128 0x0
	.uleb128 .LEHB100-.LFB7999
	.uleb128 .LEHE100-.LEHB100
	.uleb128 .L1503-.LFB7999
	.uleb128 0x0
	.uleb128 .LEHB101-.LFB7999
	.uleb128 .LEHE101-.LEHB101
	.uleb128 .L1500-.LFB7999
	.uleb128 0x0
	.uleb128 .LEHB102-.LFB7999
	.uleb128 .LEHE102-.LEHB102
	.uleb128 .L1503-.LFB7999
	.uleb128 0x0
	.uleb128 .LEHB103-.LFB7999
	.uleb128 .LEHE103-.LEHB103
	.uleb128 .L1503-.LFB7999
	.uleb128 0x0
	.uleb128 .LEHB104-.LFB7999
	.uleb128 .LEHE104-.LEHB104
	.uleb128 .L1499-.LFB7999
	.uleb128 0x0
	.uleb128 .LEHB105-.LFB7999
	.uleb128 .LEHE105-.LEHB105
	.uleb128 .L1503-.LFB7999
	.uleb128 0x0
	.uleb128 .LEHB106-.LFB7999
	.uleb128 .LEHE106-.LEHB106
	.uleb128 .L1503-.LFB7999
	.uleb128 0x0
	.uleb128 .LEHB107-.LFB7999
	.uleb128 .LEHE107-.LEHB107
	.uleb128 .L1498-.LFB7999
	.uleb128 0x0
	.uleb128 .LEHB108-.LFB7999
	.uleb128 .LEHE108-.LEHB108
	.uleb128 .L1503-.LFB7999
	.uleb128 0x0
	.uleb128 .LEHB109-.LFB7999
	.uleb128 .LEHE109-.LEHB109
	.uleb128 .L1503-.LFB7999
	.uleb128 0x0
	.uleb128 .LEHB110-.LFB7999
	.uleb128 .LEHE110-.LEHB110
	.uleb128 0x0
	.uleb128 0x0
.LLSDACSE7999:
	.text
	.align 2
.globl _ZN13WorkspaceWorkC2Ev
	.type	_ZN13WorkspaceWorkC2Ev, @function
_ZN13WorkspaceWorkC2Ev:
.LFB7998:
	pushq	%rbp
.LCFI1322:
	movq	%rsp, %rbp
.LCFI1323:
	pushq	%rbx
.LCFI1324:
	subq	$216, %rsp
.LCFI1325:
	movq	%rdi, -216(%rbp)
	movl	$_ZTV13WorkspaceWork+16, %edx
	movq	-216(%rbp), %rax
	movq	%rdx, (%rax)
	movq	-216(%rbp), %rdi
	addq	$8, %rdi
.LEHB111:
	call	_ZN3Upp8FileListC1Ev
.LEHE111:
	movq	-216(%rbp), %rdi
	addq	$2120, %rdi
.LEHB112:
	call	_ZN3Upp8FileListC1Ev
.LEHE112:
	movq	-216(%rbp), %rdi
	addq	$4232, %rdi
	call	_ZN3Upp6VectorIiEC1Ev
	movq	-216(%rbp), %rdi
	addq	$4248, %rdi
	call	_ZN3Upp6StringC1Ev
	movq	-216(%rbp), %rdi
	addq	$4264, %rdi
	call	_ZN3Upp6StringC1Ev
	movq	-216(%rbp), %rdi
	addq	$4288, %rdi
.LEHB113:
	call	_ZN7PackageC1Ev
.LEHE113:
	movq	-216(%rbp), %rdi
	addq	$4552, %rdi
.LEHB114:
	call	_ZN3Upp5IndexIN13WorkspaceWork5SepfoENS_7StdHashIS2_EEEC1Ev
.LEHE114:
	movq	-216(%rbp), %rdi
	addq	$4640, %rdi
.LEHB115:
	call	_ZN3Upp8ArrayMapINS_6StringEN13WorkspaceWork6BackupENS_7StdHashIS1_EEEC1Ev
.LEHE115:
	movq	$1, -208(%rbp)
	movq	$0, -200(%rbp)
	leaq	-112(%rbp), %rdi
	movq	-208(%rbp), %rdx
	movq	-200(%rbp), %rcx
	movq	-216(%rbp), %rsi
.LEHB116:
	call	_ZN3Upp8callbackI13WorkspaceWorkS1_EENS_8CallbackEPT_MT0_FvvE
.LEHE116:
	movq	-216(%rbp), %rsi
	addq	$8, %rsi
	leaq	-128(%rbp), %rdi
	leaq	-112(%rbp), %rdx
.LEHB117:
	call	_ZN3Upp4CtrllSENS_8CallbackE
	leaq	-128(%rbp), %rdi
	call	_ZN3Upp8CallbackD1Ev
.LEHE117:
	leaq	-112(%rbp), %rdi
.LEHB118:
	call	_ZN3Upp8CallbackD1Ev
.LEHE118:
	jmp	.L1512
.L1535:
	movq	%rax, -224(%rbp)
.L1513:
	movq	-224(%rbp), %rbx
	leaq	-112(%rbp), %rdi
	call	_ZN3Upp8CallbackD1Ev
	movq	%rbx, -224(%rbp)
	jmp	.L1522
.L1512:
	movq	$_ZN13WorkspaceWork11PackageMenuERN3Upp3BarE, -192(%rbp)
	movq	$0, -184(%rbp)
	leaq	-96(%rbp), %rdi
	movq	-192(%rbp), %rdx
	movq	-184(%rbp), %rcx
	movq	-216(%rbp), %rsi
.LEHB119:
	call	_ZN3Upp8callbackI13WorkspaceWorkS1_RNS_3BarEEENS_9Callback1IT1_EEPT_MT0_FvS5_E
.LEHE119:
	movq	-216(%rbp), %rdi
	addq	$1664, %rdi
	leaq	-96(%rbp), %rsi
.LEHB120:
	call	_ZN3Upp9Callback1IRNS_3BarEEaSERKS3_
.LEHE120:
	leaq	-96(%rbp), %rdi
.LEHB121:
	call	_ZN3Upp9Callback1IRNS_3BarEED1Ev
.LEHE121:
	jmp	.L1514
.L1534:
	movq	%rax, -224(%rbp)
.L1515:
	movq	-224(%rbp), %rbx
	leaq	-96(%rbp), %rdi
	call	_ZN3Upp9Callback1IRNS_3BarEED1Ev
	movq	%rbx, -224(%rbp)
	jmp	.L1522
.L1514:
	movq	-216(%rbp), %rdi
	addq	$8, %rdi
.LEHB122:
	call	_ZN3Upp10ColumnList11NoRoundSizeEv
	movq	-216(%rbp), %rdi
	addq	$8, %rdi
	movl	$2, %esi
	call	_ZN3Upp10ColumnList7ColumnsEi
	movq	$9, -176(%rbp)
	movq	$0, -168(%rbp)
	leaq	-64(%rbp), %rdi
	movq	-176(%rbp), %rdx
	movq	-168(%rbp), %rcx
	movq	-216(%rbp), %rsi
	call	_ZN3Upp8callbackI13WorkspaceWorkS1_EENS_8CallbackEPT_MT0_FvvE
.LEHE122:
	movq	-216(%rbp), %rsi
	addq	$2120, %rsi
	leaq	-80(%rbp), %rdi
	leaq	-64(%rbp), %rdx
.LEHB123:
	call	_ZN3Upp4CtrllSENS_8CallbackE
	leaq	-80(%rbp), %rdi
	call	_ZN3Upp8CallbackD1Ev
.LEHE123:
	leaq	-64(%rbp), %rdi
.LEHB124:
	call	_ZN3Upp8CallbackD1Ev
.LEHE124:
	jmp	.L1516
.L1533:
	movq	%rax, -224(%rbp)
.L1517:
	movq	-224(%rbp), %rbx
	leaq	-64(%rbp), %rdi
	call	_ZN3Upp8CallbackD1Ev
	movq	%rbx, -224(%rbp)
	jmp	.L1522
.L1516:
	movq	$_ZN13WorkspaceWork11GroupOrFileEN3Upp6Point_IiEE, -160(%rbp)
	movq	$0, -152(%rbp)
	leaq	-48(%rbp), %rdi
	movq	-160(%rbp), %rdx
	movq	-152(%rbp), %rcx
	movq	-216(%rbp), %rsi
.LEHB125:
	call	_ZN3Upp8callbackI13WorkspaceWorkS1_NS_6Point_IiEEEENS_9Callback1IT1_EEPT_MT0_FvS5_E
.LEHE125:
	movq	-216(%rbp), %rdi
	addq	$3760, %rdi
	leaq	-48(%rbp), %rsi
.LEHB126:
	call	_ZN3Upp9Callback1INS_6Point_IiEEEaSERKS3_
.LEHE126:
	leaq	-48(%rbp), %rdi
.LEHB127:
	call	_ZN3Upp9Callback1INS_6Point_IiEEED1Ev
.LEHE127:
	jmp	.L1518
.L1532:
	movq	%rax, -224(%rbp)
.L1519:
	movq	-224(%rbp), %rbx
	leaq	-48(%rbp), %rdi
	call	_ZN3Upp9Callback1INS_6Point_IiEEED1Ev
	movq	%rbx, -224(%rbp)
	jmp	.L1522
.L1518:
	movq	$_ZN13WorkspaceWork5GroupEv, -144(%rbp)
	movq	$0, -136(%rbp)
	leaq	-32(%rbp), %rdi
	movq	-144(%rbp), %rdx
	movq	-136(%rbp), %rcx
	movq	-216(%rbp), %rsi
.LEHB128:
	call	_ZN3Upp8callbackI13WorkspaceWorkS1_EENS_8CallbackEPT_MT0_FvvE
.LEHE128:
	movq	-216(%rbp), %rdi
	addq	$3768, %rdi
	leaq	-32(%rbp), %rsi
.LEHB129:
	call	_ZN3Upp8CallbackaSERKS0_
.LEHE129:
	leaq	-32(%rbp), %rdi
.LEHB130:
	call	_ZN3Upp8CallbackD1Ev
.LEHE130:
	jmp	.L1520
.L1531:
	movq	%rax, -224(%rbp)
.L1521:
	movq	-224(%rbp), %rbx
	leaq	-32(%rbp), %rdi
	call	_ZN3Upp8CallbackD1Ev
	movq	%rbx, -224(%rbp)
	jmp	.L1522
.L1520:
	movq	-216(%rbp), %rdi
	addq	$2120, %rdi
	movl	$2, %esi
.LEHB131:
	call	_ZN3Upp10ColumnList7ColumnsEi
	movq	-216(%rbp), %rdi
	addq	$2120, %rdi
	call	_ZN3Upp10ColumnList11NoRoundSizeEv
	movq	-216(%rbp), %rax
	movl	$-1, 4280(%rax)
	movq	-216(%rbp), %rax
	movb	$0, 4760(%rax)
	movq	-216(%rbp), %rdi
	addq	$8, %rdi
	call	_ZN3Upp4Ctrl13BackPaintHintEv
	movq	-216(%rbp), %rdi
	addq	$2120, %rdi
	call	_ZN3Upp4Ctrl13BackPaintHintEv
.LEHE131:
	movq	-216(%rbp), %rax
	movb	$0, 4761(%rax)
	jmp	.L1530
.L1536:
	movq	%rax, -224(%rbp)
.L1522:
	movq	-224(%rbp), %rbx
	movq	-216(%rbp), %rdi
	addq	$4640, %rdi
	call	_ZN3Upp8ArrayMapINS_6StringEN13WorkspaceWork6BackupENS_7StdHashIS1_EEED1Ev
	movq	%rbx, -224(%rbp)
	jmp	.L1523
.L1537:
	movq	%rax, -224(%rbp)
.L1523:
	movq	-224(%rbp), %rbx
	movq	-216(%rbp), %rdi
	addq	$4552, %rdi
	call	_ZN3Upp5IndexIN13WorkspaceWork5SepfoENS_7StdHashIS2_EEED1Ev
	movq	%rbx, -224(%rbp)
	jmp	.L1524
.L1538:
	movq	%rax, -224(%rbp)
.L1524:
	movq	-224(%rbp), %rbx
	movq	-216(%rbp), %rdi
	addq	$4288, %rdi
	call	_ZN7PackageD1Ev
	movq	%rbx, -224(%rbp)
	jmp	.L1525
.L1539:
	movq	%rax, -224(%rbp)
.L1525:
	movq	-224(%rbp), %rbx
	movq	-216(%rbp), %rdi
	addq	$4264, %rdi
	call	_ZN3Upp6StringD1Ev
	movq	%rbx, -224(%rbp)
.L1540:
.L1526:
	movq	-224(%rbp), %rbx
	movq	-216(%rbp), %rdi
	addq	$4248, %rdi
	call	_ZN3Upp6StringD1Ev
	movq	%rbx, -224(%rbp)
.L1541:
.L1527:
	movq	-224(%rbp), %rbx
	movq	-216(%rbp), %rdi
	addq	$4232, %rdi
	call	_ZN3Upp6VectorIiED1Ev
	movq	%rbx, -224(%rbp)
.L1542:
.L1528:
	movq	-224(%rbp), %rbx
	movq	-216(%rbp), %rdi
	addq	$2120, %rdi
	call	_ZN3Upp8FileListD1Ev
	movq	%rbx, -224(%rbp)
	jmp	.L1529
.L1543:
	movq	%rax, -224(%rbp)
.L1529:
	movq	-224(%rbp), %rbx
	movq	-216(%rbp), %rdi
	addq	$8, %rdi
	call	_ZN3Upp8FileListD1Ev
	movq	%rbx, -224(%rbp)
	movq	-224(%rbp), %rdi
.LEHB132:
	call	_Unwind_Resume
.LEHE132:
.L1530:
	addq	$216, %rsp
	popq	%rbx
	leave
	ret
.LFE7998:
	.size	_ZN13WorkspaceWorkC2Ev, .-_ZN13WorkspaceWorkC2Ev
	.section	.gcc_except_table
.LLSDA7998:
	.byte	0xff
	.byte	0xff
	.byte	0x1
	.uleb128 .LLSDACSE7998-.LLSDACSB7998
.LLSDACSB7998:
	.uleb128 .LEHB111-.LFB7998
	.uleb128 .LEHE111-.LEHB111
	.uleb128 0x0
	.uleb128 0x0
	.uleb128 .LEHB112-.LFB7998
	.uleb128 .LEHE112-.LEHB112
	.uleb128 .L1543-.LFB7998
	.uleb128 0x0
	.uleb128 .LEHB113-.LFB7998
	.uleb128 .LEHE113-.LEHB113
	.uleb128 .L1539-.LFB7998
	.uleb128 0x0
	.uleb128 .LEHB114-.LFB7998
	.uleb128 .LEHE114-.LEHB114
	.uleb128 .L1538-.LFB7998
	.uleb128 0x0
	.uleb128 .LEHB115-.LFB7998
	.uleb128 .LEHE115-.LEHB115
	.uleb128 .L1537-.LFB7998
	.uleb128 0x0
	.uleb128 .LEHB116-.LFB7998
	.uleb128 .LEHE116-.LEHB116
	.uleb128 .L1536-.LFB7998
	.uleb128 0x0
	.uleb128 .LEHB117-.LFB7998
	.uleb128 .LEHE117-.LEHB117
	.uleb128 .L1535-.LFB7998
	.uleb128 0x0
	.uleb128 .LEHB118-.LFB7998
	.uleb128 .LEHE118-.LEHB118
	.uleb128 .L1536-.LFB7998
	.uleb128 0x0
	.uleb128 .LEHB119-.LFB7998
	.uleb128 .LEHE119-.LEHB119
	.uleb128 .L1536-.LFB7998
	.uleb128 0x0
	.uleb128 .LEHB120-.LFB7998
	.uleb128 .LEHE120-.LEHB120
	.uleb128 .L1534-.LFB7998
	.uleb128 0x0
	.uleb128 .LEHB121-.LFB7998
	.uleb128 .LEHE121-.LEHB121
	.uleb128 .L1536-.LFB7998
	.uleb128 0x0
	.uleb128 .LEHB122-.LFB7998
	.uleb128 .LEHE122-.LEHB122
	.uleb128 .L1536-.LFB7998
	.uleb128 0x0
	.uleb128 .LEHB123-.LFB7998
	.uleb128 .LEHE123-.LEHB123
	.uleb128 .L1533-.LFB7998
	.uleb128 0x0
	.uleb128 .LEHB124-.LFB7998
	.uleb128 .LEHE124-.LEHB124
	.uleb128 .L1536-.LFB7998
	.uleb128 0x0
	.uleb128 .LEHB125-.LFB7998
	.uleb128 .LEHE125-.LEHB125
	.uleb128 .L1536-.LFB7998
	.uleb128 0x0
	.uleb128 .LEHB126-.LFB7998
	.uleb128 .LEHE126-.LEHB126
	.uleb128 .L1532-.LFB7998
	.uleb128 0x0
	.uleb128 .LEHB127-.LFB7998
	.uleb128 .LEHE127-.LEHB127
	.uleb128 .L1536-.LFB7998
	.uleb128 0x0
	.uleb128 .LEHB128-.LFB7998
	.uleb128 .LEHE128-.LEHB128
	.uleb128 .L1536-.LFB7998
	.uleb128 0x0
	.uleb128 .LEHB129-.LFB7998
	.uleb128 .LEHE129-.LEHB129
	.uleb128 .L1531-.LFB7998
	.uleb128 0x0
	.uleb128 .LEHB130-.LFB7998
	.uleb128 .LEHE130-.LEHB130
	.uleb128 .L1536-.LFB7998
	.uleb128 0x0
	.uleb128 .LEHB131-.LFB7998
	.uleb128 .LEHE131-.LEHB131
	.uleb128 .L1536-.LFB7998
	.uleb128 0x0
	.uleb128 .LEHB132-.LFB7998
	.uleb128 .LEHE132-.LEHB132
	.uleb128 0x0
	.uleb128 0x0
.LLSDACSE7998:
	.text
	.section	.text._ZN3Upp7FileSel9ActiveDirERKNS_6StringE,"axG",@progbits,_ZN3Upp7FileSel9ActiveDirERKNS_6StringE,comdat
	.align 2
	.weak	_ZN3Upp7FileSel9ActiveDirERKNS_6StringE
	.type	_ZN3Upp7FileSel9ActiveDirERKNS_6StringE, @function
_ZN3Upp7FileSel9ActiveDirERKNS_6StringE:
.LFB6459:
	pushq	%rbp
.LCFI1326:
	movq	%rsp, %rbp
.LCFI1327:
	pushq	%rbx
.LCFI1328:
	subq	$56, %rsp
.LCFI1329:
	movq	%rdi, -40(%rbp)
	movq	%rsi, -48(%rbp)
	movq	-48(%rbp), %rsi
	leaq	-32(%rbp), %rdi
.LEHB133:
	call	_ZN3Upp5ValueC1ERKNS_6StringE
.LEHE133:
	movq	-40(%rbp), %rdi
	addq	$656, %rdi
	leaq	-32(%rbp), %rsi
.LEHB134:
	call	_ZN3Upp4CtrllSERKNS_5ValueE
.LEHE134:
	leaq	-32(%rbp), %rdi
.LEHB135:
	call	_ZN3Upp5ValueD1Ev
.LEHE135:
	movq	-40(%rbp), %rax
	movq	%rax, -56(%rbp)
	jmp	.L1544
.L1547:
	movq	%rax, -64(%rbp)
.L1545:
	movq	-64(%rbp), %rbx
	leaq	-32(%rbp), %rdi
	call	_ZN3Upp5ValueD1Ev
	movq	%rbx, -64(%rbp)
	movq	-64(%rbp), %rdi
.LEHB136:
	call	_Unwind_Resume
.LEHE136:
.L1544:
	movq	-56(%rbp), %rax
	addq	$56, %rsp
	popq	%rbx
	leave
	ret
.LFE6459:
	.size	_ZN3Upp7FileSel9ActiveDirERKNS_6StringE, .-_ZN3Upp7FileSel9ActiveDirERKNS_6StringE
	.section	.gcc_except_table
.LLSDA6459:
	.byte	0xff
	.byte	0xff
	.byte	0x1
	.uleb128 .LLSDACSE6459-.LLSDACSB6459
.LLSDACSB6459:
	.uleb128 .LEHB133-.LFB6459
	.uleb128 .LEHE133-.LEHB133
	.uleb128 0x0
	.uleb128 0x0
	.uleb128 .LEHB134-.LFB6459
	.uleb128 .LEHE134-.LEHB134
	.uleb128 .L1547-.LFB6459
	.uleb128 0x0
	.uleb128 .LEHB135-.LFB6459
	.uleb128 .LEHE135-.LEHB135
	.uleb128 0x0
	.uleb128 0x0
	.uleb128 .LEHB136-.LFB6459
	.uleb128 .LEHE136-.LEHB136
	.uleb128 0x0
	.uleb128 0x0
.LLSDACSE6459:
	.section	.text._ZN3Upp7FileSel9ActiveDirERKNS_6StringE,"axG",@progbits,_ZN3Upp7FileSel9ActiveDirERKNS_6StringE,comdat
	.section	.text._ZN3Upp8FileList4FileD1Ev,"axG",@progbits,_ZN3Upp8FileList4FileD1Ev,comdat
	.align 2
	.weak	_ZN3Upp8FileList4FileD1Ev
	.type	_ZN3Upp8FileList4FileD1Ev, @function
_ZN3Upp8FileList4FileD1Ev:
.LFB7937:
	pushq	%rbp
.LCFI1330:
	movq	%rsp, %rbp
.LCFI1331:
	pushq	%rbx
.LCFI1332:
	subq	$40, %rsp
.LCFI1333:
	movq	%rdi, -16(%rbp)
	movq	-16(%rbp), %rdi
	addq	$96, %rdi
.LEHB137:
	call	_ZN3Upp5ValueD1Ev
.LEHE137:
	movq	-16(%rbp), %rax
	addq	$72, %rax
	movq	%rax, -40(%rbp)
	movq	-40(%rbp), %rdi
	call	_ZN3Upp6StringD1Ev
	movq	-16(%rbp), %rax
	addq	$16, %rax
	movq	%rax, -32(%rbp)
	movq	-32(%rbp), %rdi
	call	_ZN3Upp6StringD1Ev
	movq	-16(%rbp), %rax
	addq	$8, %rax
	movq	%rax, -24(%rbp)
	movq	-24(%rbp), %rdi
.LEHB138:
	call	_ZN3Upp5ImageD1Ev
.LEHE138:
	jmp	.L1553
.L1554:
	movq	%rax, -48(%rbp)
.L1550:
	movq	-48(%rbp), %rbx
	movq	-16(%rbp), %rax
	addq	$72, %rax
	movq	%rax, -40(%rbp)
	movq	-40(%rbp), %rdi
	call	_ZN3Upp6StringD1Ev
	movq	%rbx, -48(%rbp)
.L1555:
.L1551:
	movq	-48(%rbp), %rbx
	movq	-16(%rbp), %rax
	addq	$16, %rax
	movq	%rax, -32(%rbp)
	movq	-32(%rbp), %rdi
	call	_ZN3Upp6StringD1Ev
	movq	%rbx, -48(%rbp)
.L1556:
.L1552:
	movq	-48(%rbp), %rbx
	movq	-16(%rbp), %rax
	addq	$8, %rax
	movq	%rax, -24(%rbp)
	movq	-24(%rbp), %rdi
	call	_ZN3Upp5ImageD1Ev
	movq	%rbx, -48(%rbp)
	movq	-48(%rbp), %rdi
.LEHB139:
	call	_Unwind_Resume
.LEHE139:
.L1553:
	addq	$40, %rsp
	popq	%rbx
	leave
	ret
.LFE7937:
	.size	_ZN3Upp8FileList4FileD1Ev, .-_ZN3Upp8FileList4FileD1Ev
	.section	.gcc_except_table
.LLSDA7937:
	.byte	0xff
	.byte	0xff
	.byte	0x1
	.uleb128 .LLSDACSE7937-.LLSDACSB7937
.LLSDACSB7937:
	.uleb128 .LEHB137-.LFB7937
	.uleb128 .LEHE137-.LEHB137
	.uleb128 .L1554-.LFB7937
	.uleb128 0x0
	.uleb128 .LEHB138-.LFB7937
	.uleb128 .LEHE138-.LEHB138
	.uleb128 0x0
	.uleb128 0x0
	.uleb128 .LEHB139-.LFB7937
	.uleb128 .LEHE139-.LEHB139
	.uleb128 0x0
	.uleb128 0x0
.LLSDACSE7937:
	.section	.text._ZN3Upp8FileList4FileD1Ev,"axG",@progbits,_ZN3Upp8FileList4FileD1Ev,comdat
	.section	.text._ZNK13WorkspaceWork16GetActivePackageEv,"axG",@progbits,_ZNK13WorkspaceWork16GetActivePackageEv,comdat
	.align 2
	.weak	_ZNK13WorkspaceWork16GetActivePackageEv
	.type	_ZNK13WorkspaceWork16GetActivePackageEv, @function
_ZNK13WorkspaceWork16GetActivePackageEv:
.LFB7793:
	pushq	%rbp
.LCFI1334:
	movq	%rsp, %rbp
.LCFI1335:
	pushq	%rbx
.LCFI1336:
	subq	$8, %rsp
.LCFI1337:
	movq	%rdi, %rbx
	movq	%rsi, -16(%rbp)
	movq	%rbx, %rdi
	movq	-16(%rbp), %rsi
	addq	$8, %rsi
	call	_ZNK3Upp8FileList14GetCurrentNameEv
	movq	%rbx, %rax
	addq	$8, %rsp
	popq	%rbx
	leave
	ret
.LFE7793:
	.size	_ZNK13WorkspaceWork16GetActivePackageEv, .-_ZNK13WorkspaceWork16GetActivePackageEv
	.text
	.align 2
.globl _ZN13WorkspaceWork14GetActiveSepfoEv
	.type	_ZN13WorkspaceWork14GetActiveSepfoEv, @function
_ZN13WorkspaceWork14GetActiveSepfoEv:
.LFB7980:
	pushq	%rbp
.LCFI1338:
	movq	%rsp, %rbp
.LCFI1339:
	pushq	%rbx
.LCFI1340:
	subq	$88, %rsp
.LCFI1341:
	movq	%rdi, -88(%rbp)
	movq	%rsi, -72(%rbp)
	movq	%fs:40, %rax
	movq	%rax, -24(%rbp)
	xorl	%eax, %eax
	movq	-88(%rbp), %rdx
	movq	%rdx, -80(%rbp)
	leaq	-64(%rbp), %rdi
	movq	-72(%rbp), %rsi
.LEHB140:
	call	_ZNK13WorkspaceWork17GetActiveFileNameEv
.LEHE140:
	leaq	-48(%rbp), %rdi
	movq	-72(%rbp), %rsi
.LEHB141:
	call	_ZNK13WorkspaceWork16GetActivePackageEv
.LEHE141:
	leaq	-64(%rbp), %rdx
	leaq	-48(%rbp), %rsi
	movq	-80(%rbp), %rdi
.LEHB142:
	call	_ZN13WorkspaceWork5SepfoC1ERKN3Upp6StringES4_
.LEHE142:
	leaq	-48(%rbp), %rdi
	call	_ZN3Upp6StringD1Ev
	leaq	-64(%rbp), %rdi
	call	_ZN3Upp6StringD1Ev
	jmp	.L1559
.L1564:
	movq	%rax, -96(%rbp)
.L1560:
	movq	-96(%rbp), %rbx
	leaq	-48(%rbp), %rdi
	call	_ZN3Upp6StringD1Ev
	movq	%rbx, -96(%rbp)
	jmp	.L1561
.L1565:
	movq	%rax, -96(%rbp)
.L1561:
	movq	-96(%rbp), %rbx
	leaq	-64(%rbp), %rdi
	call	_ZN3Upp6StringD1Ev
	movq	%rbx, -96(%rbp)
	movq	-96(%rbp), %rdi
.LEHB143:
	call	_Unwind_Resume
.LEHE143:
.L1559:
	movq	-88(%rbp), %rax
	movq	-24(%rbp), %rdx
	xorq	%fs:40, %rdx
	je	.L1563
	call	__stack_chk_fail
.L1563:
	addq	$88, %rsp
	popq	%rbx
	leave
	ret
.LFE7980:
	.size	_ZN13WorkspaceWork14GetActiveSepfoEv, .-_ZN13WorkspaceWork14GetActiveSepfoEv
	.section	.gcc_except_table
.LLSDA7980:
	.byte	0xff
	.byte	0xff
	.byte	0x1
	.uleb128 .LLSDACSE7980-.LLSDACSB7980
.LLSDACSB7980:
	.uleb128 .LEHB140-.LFB7980
	.uleb128 .LEHE140-.LEHB140
	.uleb128 0x0
	.uleb128 0x0
	.uleb128 .LEHB141-.LFB7980
	.uleb128 .LEHE141-.LEHB141
	.uleb128 .L1565-.LFB7980
	.uleb128 0x0
	.uleb128 .LEHB142-.LFB7980
	.uleb128 .LEHE142-.LEHB142
	.uleb128 .L1564-.LFB7980
	.uleb128 0x0
	.uleb128 .LEHB143-.LFB7980
	.uleb128 .LEHE143-.LEHB143
	.uleb128 0x0
	.uleb128 0x0
.LLSDACSE7980:
	.text
	.section	.text._ZN6IdeImg11package_addEv,"axG",@progbits,_ZN6IdeImg11package_addEv,comdat
	.align 2
	.weak	_ZN6IdeImg11package_addEv
	.type	_ZN6IdeImg11package_addEv, @function
_ZN6IdeImg11package_addEv:
.LFB7278:
	pushq	%rbp
.LCFI1342:
	movq	%rsp, %rbp
.LCFI1343:
	pushq	%rbx
.LCFI1344:
	subq	$8, %rsp
.LCFI1345:
	movq	%rdi, %rbx
	movq	%rbx, %rdi
	movl	$22, %esi
	call	_ZN6IdeImg3GetEi
	movq	%rbx, %rax
	addq	$8, %rsp
	popq	%rbx
	leave
	ret
.LFE7278:
	.size	_ZN6IdeImg11package_addEv, .-_ZN6IdeImg11package_addEv
	.section	.text._ZN6IdeImg14SeparatorCloseEv,"axG",@progbits,_ZN6IdeImg14SeparatorCloseEv,comdat
	.align 2
	.weak	_ZN6IdeImg14SeparatorCloseEv
	.type	_ZN6IdeImg14SeparatorCloseEv, @function
_ZN6IdeImg14SeparatorCloseEv:
.LFB7272:
	pushq	%rbp
.LCFI1346:
	movq	%rsp, %rbp
.LCFI1347:
	pushq	%rbx
.LCFI1348:
	subq	$8, %rsp
.LCFI1349:
	movq	%rdi, %rbx
	movq	%rbx, %rdi
	movl	$16, %esi
	call	_ZN6IdeImg3GetEi
	movq	%rbx, %rax
	addq	$8, %rsp
	popq	%rbx
	leave
	ret
.LFE7272:
	.size	_ZN6IdeImg14SeparatorCloseEv, .-_ZN6IdeImg14SeparatorCloseEv
	.section	.text._ZN6IdeImg13SeparatorOpenEv,"axG",@progbits,_ZN6IdeImg13SeparatorOpenEv,comdat
	.align 2
	.weak	_ZN6IdeImg13SeparatorOpenEv
	.type	_ZN6IdeImg13SeparatorOpenEv, @function
_ZN6IdeImg13SeparatorOpenEv:
.LFB7271:
	pushq	%rbp
.LCFI1350:
	movq	%rsp, %rbp
.LCFI1351:
	pushq	%rbx
.LCFI1352:
	subq	$8, %rsp
.LCFI1353:
	movq	%rdi, %rbx
	movq	%rbx, %rdi
	movl	$15, %esi
	call	_ZN6IdeImg3GetEi
	movq	%rbx, %rax
	addq	$8, %rsp
	popq	%rbx
	leave
	ret
.LFE7271:
	.size	_ZN6IdeImg13SeparatorOpenEv, .-_ZN6IdeImg13SeparatorOpenEv
	.section	.text._ZN6IdeImg7PackageEv,"axG",@progbits,_ZN6IdeImg7PackageEv,comdat
	.align 2
	.weak	_ZN6IdeImg7PackageEv
	.type	_ZN6IdeImg7PackageEv, @function
_ZN6IdeImg7PackageEv:
.LFB7256:
	pushq	%rbp
.LCFI1354:
	movq	%rsp, %rbp
.LCFI1355:
	pushq	%rbx
.LCFI1356:
	subq	$8, %rsp
.LCFI1357:
	movq	%rdi, %rbx
	movq	%rbx, %rdi
	movl	$0, %esi
	call	_ZN6IdeImg3GetEi
	movq	%rbx, %rax
	addq	$8, %rsp
	popq	%rbx
	leave
	ret
.LFE7256:
	.size	_ZN6IdeImg7PackageEv, .-_ZN6IdeImg7PackageEv
	.section	.text._ZN6IdeImg6PrjAuxEv,"axG",@progbits,_ZN6IdeImg6PrjAuxEv,comdat
	.align 2
	.weak	_ZN6IdeImg6PrjAuxEv
	.type	_ZN6IdeImg6PrjAuxEv, @function
_ZN6IdeImg6PrjAuxEv:
.LFB7263:
	pushq	%rbp
.LCFI1358:
	movq	%rsp, %rbp
.LCFI1359:
	pushq	%rbx
.LCFI1360:
	subq	$8, %rsp
.LCFI1361:
	movq	%rdi, %rbx
	movq	%rbx, %rdi
	movl	$7, %esi
	call	_ZN6IdeImg3GetEi
	movq	%rbx, %rax
	addq	$8, %rsp
	popq	%rbx
	leave
	ret
.LFE7263:
	.size	_ZN6IdeImg6PrjAuxEv, .-_ZN6IdeImg6PrjAuxEv
	.section	.text._ZN6IdeImg6IdeAuxEv,"axG",@progbits,_ZN6IdeImg6IdeAuxEv,comdat
	.align 2
	.weak	_ZN6IdeImg6IdeAuxEv
	.type	_ZN6IdeImg6IdeAuxEv, @function
_ZN6IdeImg6IdeAuxEv:
.LFB7264:
	pushq	%rbp
.LCFI1362:
	movq	%rsp, %rbp
.LCFI1363:
	pushq	%rbx
.LCFI1364:
	subq	$8, %rsp
.LCFI1365:
	movq	%rdi, %rbx
	movq	%rbx, %rdi
	movl	$8, %esi
	call	_ZN6IdeImg3GetEi
	movq	%rbx, %rax
	addq	$8, %rsp
	popq	%rbx
	leave
	ret
.LFE7264:
	.size	_ZN6IdeImg6IdeAuxEv, .-_ZN6IdeImg6IdeAuxEv
	.section	.text._ZN6IdeImg7TempAuxEv,"axG",@progbits,_ZN6IdeImg7TempAuxEv,comdat
	.align 2
	.weak	_ZN6IdeImg7TempAuxEv
	.type	_ZN6IdeImg7TempAuxEv, @function
_ZN6IdeImg7TempAuxEv:
.LFB7262:
	pushq	%rbp
.LCFI1366:
	movq	%rsp, %rbp
.LCFI1367:
	pushq	%rbx
.LCFI1368:
	subq	$8, %rsp
.LCFI1369:
	movq	%rdi, %rbx
	movq	%rbx, %rdi
	movl	$6, %esi
	call	_ZN6IdeImg3GetEi
	movq	%rbx, %rax
	addq	$8, %rsp
	popq	%rbx
	leave
	ret
.LFE7262:
	.size	_ZN6IdeImg7TempAuxEv, .-_ZN6IdeImg7TempAuxEv
	.section	.text._ZN6IdeImg4MetaEv,"axG",@progbits,_ZN6IdeImg4MetaEv,comdat
	.align 2
	.weak	_ZN6IdeImg4MetaEv
	.type	_ZN6IdeImg4MetaEv, @function
_ZN6IdeImg4MetaEv:
.LFB7261:
	pushq	%rbp
.LCFI1370:
	movq	%rsp, %rbp
.LCFI1371:
	pushq	%rbx
.LCFI1372:
	subq	$8, %rsp
.LCFI1373:
	movq	%rdi, %rbx
	movq	%rbx, %rdi
	movl	$5, %esi
	call	_ZN6IdeImg3GetEi
	movq	%rbx, %rax
	addq	$8, %rsp
	popq	%rbx
	leave
	ret
.LFE7261:
	.size	_ZN6IdeImg4MetaEv, .-_ZN6IdeImg4MetaEv
	.section	.text._ZNK3Upp8FileListixEi,"axG",@progbits,_ZNK3Upp8FileListixEi,comdat
	.align 2
	.weak	_ZNK3Upp8FileListixEi
	.type	_ZNK3Upp8FileListixEi, @function
_ZNK3Upp8FileListixEi:
.LFB6437:
	pushq	%rbp
.LCFI1374:
	movq	%rsp, %rbp
.LCFI1375:
	subq	$16, %rsp
.LCFI1376:
	movq	%rdi, -8(%rbp)
	movl	%esi, -12(%rbp)
	movl	-12(%rbp), %esi
	movq	-8(%rbp), %rdi
	call	_ZNK3Upp8FileList3GetEi
	leave
	ret
.LFE6437:
	.size	_ZNK3Upp8FileListixEi, .-_ZNK3Upp8FileListixEi
	.section	.text._ZN3Upp6VectorIPvE6RemoveEii,"axG",@progbits,_ZN3Upp6VectorIPvE6RemoveEii,comdat
	.align 2
	.weak	_ZN3Upp6VectorIPvE6RemoveEii
	.type	_ZN3Upp6VectorIPvE6RemoveEii, @function
_ZN3Upp6VectorIPvE6RemoveEii:
.LFB9597:
	pushq	%rbp
.LCFI1377:
	movq	%rsp, %rbp
.LCFI1378:
	subq	$16, %rsp
.LCFI1379:
	movq	%rdi, -8(%rbp)
	movl	%esi, -12(%rbp)
	movl	%edx, -16(%rbp)
	movq	-8(%rbp), %rdi
	call	_ZNK3Upp6VectorIPvE3ChkEv
	cmpl	$0, -16(%rbp)
	je	.L1587
	movq	-8(%rbp), %rax
	movq	(%rax), %rcx
	movl	-16(%rbp), %eax
	cltq
	movq	%rax, %rdx
	movl	-12(%rbp), %eax
	cltq
	leaq	(%rdx,%rax), %rax
	salq	$3, %rax
	leaq	(%rcx,%rax), %rsi
	movq	-8(%rbp), %rax
	movq	(%rax), %rdx
	movl	-12(%rbp), %eax
	cltq
	salq	$3, %rax
	leaq	(%rdx,%rax), %rdi
	call	_ZN3Upp12DestroyArrayIPvEEvPT_PKS2_
	movq	-8(%rbp), %rax
	movl	8(%rax), %eax
	subl	-12(%rbp), %eax
	subl	-16(%rbp), %eax
	cltq
	leaq	0(,%rax,8), %r8
	movq	-8(%rbp), %rax
	movq	(%rax), %rcx
	movl	-16(%rbp), %eax
	cltq
	movq	%rax, %rdx
	movl	-12(%rbp), %eax
	cltq
	leaq	(%rdx,%rax), %rax
	salq	$3, %rax
	leaq	(%rcx,%rax), %rsi
	movq	-8(%rbp), %rax
	movq	(%rax), %rdx
	movl	-12(%rbp), %eax
	cltq
	salq	$3, %rax
	leaq	(%rdx,%rax), %rdi
	movq	%r8, %rdx
	call	memmove
	movq	-8(%rbp), %rax
	movl	8(%rax), %eax
	movl	%eax, %edx
	subl	-16(%rbp), %edx
	movq	-8(%rbp), %rax
	movl	%edx, 8(%rax)
.L1587:
	leave
	ret
.LFE9597:
	.size	_ZN3Upp6VectorIPvE6RemoveEii, .-_ZN3Upp6VectorIPvE6RemoveEii
	.section	.text._ZN3Upp5ArrayI7OptItemE6RemoveEii,"axG",@progbits,_ZN3Upp5ArrayI7OptItemE6RemoveEii,comdat
	.align 2
	.weak	_ZN3Upp5ArrayI7OptItemE6RemoveEii
	.type	_ZN3Upp5ArrayI7OptItemE6RemoveEii, @function
_ZN3Upp5ArrayI7OptItemE6RemoveEii:
.LFB9048:
	pushq	%rbp
.LCFI1380:
	movq	%rsp, %rbp
.LCFI1381:
	pushq	%rbx
.LCFI1382:
	subq	$24, %rsp
.LCFI1383:
	movq	%rdi, -16(%rbp)
	movl	%esi, -20(%rbp)
	movl	%edx, -24(%rbp)
	movq	-16(%rbp), %rdi
	addq	$8, %rdi
	call	_ZN3Upp6VectorIPvE5BeginEv
	movq	%rax, %rcx
	movl	-24(%rbp), %eax
	cltq
	movq	%rax, %rdx
	movl	-20(%rbp), %eax
	cltq
	leaq	(%rdx,%rax), %rax
	salq	$3, %rax
	leaq	(%rcx,%rax), %rbx
	movq	-16(%rbp), %rdi
	addq	$8, %rdi
	call	_ZN3Upp6VectorIPvE5BeginEv
	movq	%rax, %rdx
	movl	-20(%rbp), %eax
	cltq
	salq	$3, %rax
	leaq	(%rdx,%rax), %rsi
	movq	-16(%rbp), %rdi
	movq	%rbx, %rdx
	call	_ZN3Upp5ArrayI7OptItemE3DelEPPvS4_
	movq	-16(%rbp), %rdi
	addq	$8, %rdi
	movl	-24(%rbp), %edx
	movl	-20(%rbp), %esi
	call	_ZN3Upp6VectorIPvE6RemoveEii
	addq	$24, %rsp
	popq	%rbx
	leave
	ret
.LFE9048:
	.size	_ZN3Upp5ArrayI7OptItemE6RemoveEii, .-_ZN3Upp5ArrayI7OptItemE6RemoveEii
	.section	.text._ZN3Upp5ArrayIN7Package4FileEE6RemoveEii,"axG",@progbits,_ZN3Upp5ArrayIN7Package4FileEE6RemoveEii,comdat
	.align 2
	.weak	_ZN3Upp5ArrayIN7Package4FileEE6RemoveEii
	.type	_ZN3Upp5ArrayIN7Package4FileEE6RemoveEii, @function
_ZN3Upp5ArrayIN7Package4FileEE6RemoveEii:
.LFB9031:
	pushq	%rbp
.LCFI1384:
	movq	%rsp, %rbp
.LCFI1385:
	pushq	%rbx
.LCFI1386:
	subq	$24, %rsp
.LCFI1387:
	movq	%rdi, -16(%rbp)
	movl	%esi, -20(%rbp)
	movl	%edx, -24(%rbp)
	movq	-16(%rbp), %rdi
	addq	$8, %rdi
	call	_ZN3Upp6VectorIPvE5BeginEv
	movq	%rax, %rcx
	movl	-24(%rbp), %eax
	cltq
	movq	%rax, %rdx
	movl	-20(%rbp), %eax
	cltq
	leaq	(%rdx,%rax), %rax
	salq	$3, %rax
	leaq	(%rcx,%rax), %rbx
	movq	-16(%rbp), %rdi
	addq	$8, %rdi
	call	_ZN3Upp6VectorIPvE5BeginEv
	movq	%rax, %rdx
	movl	-20(%rbp), %eax
	cltq
	salq	$3, %rax
	leaq	(%rdx,%rax), %rsi
	movq	-16(%rbp), %rdi
	movq	%rbx, %rdx
	call	_ZN3Upp5ArrayIN7Package4FileEE3DelEPPvS5_
	movq	-16(%rbp), %rdi
	addq	$8, %rdi
	movl	-24(%rbp), %edx
	movl	-20(%rbp), %esi
	call	_ZN3Upp6VectorIPvE6RemoveEii
	addq	$24, %rsp
	popq	%rbx
	leave
	ret
.LFE9031:
	.size	_ZN3Upp5ArrayIN7Package4FileEE6RemoveEii, .-_ZN3Upp5ArrayIN7Package4FileEE6RemoveEii
	.section	.text._ZN3Upp8strlen__EPKc,"axG",@progbits,_ZN3Upp8strlen__EPKc,comdat
	.align 2
	.weak	_ZN3Upp8strlen__EPKc
	.type	_ZN3Upp8strlen__EPKc, @function
_ZN3Upp8strlen__EPKc:
.LFB1159:
	pushq	%rbp
.LCFI1388:
	movq	%rsp, %rbp
.LCFI1389:
	subq	$16, %rsp
.LCFI1390:
	movq	%rdi, -8(%rbp)
	cmpq	$0, -8(%rbp)
	je	.L1593
	movq	-8(%rbp), %rdi
	call	strlen
	movl	%eax, -12(%rbp)
	jmp	.L1595
.L1593:
	movl	$0, -12(%rbp)
.L1595:
	movl	-12(%rbp), %eax
	leave
	ret
.LFE1159:
	.size	_ZN3Upp8strlen__EPKc, .-_ZN3Upp8strlen__EPKc
	.section	.text._ZN3Upp6StringC1EPKc,"axG",@progbits,_ZN3Upp6StringC1EPKc,comdat
	.align 2
	.weak	_ZN3Upp6StringC1EPKc
	.type	_ZN3Upp6StringC1EPKc, @function
_ZN3Upp6StringC1EPKc:
.LFB1300:
	pushq	%rbp
.LCFI1391:
	movq	%rsp, %rbp
.LCFI1392:
	pushq	%rbx
.LCFI1393:
	subq	$24, %rsp
.LCFI1394:
	movq	%rdi, -16(%rbp)
	movq	%rsi, -24(%rbp)
	movq	-16(%rbp), %rdi
	call	_ZN3Upp8MoveableINS_6StringENS_7AStringINS_7String0EEEEC2Ev
	movq	-24(%rbp), %rdi
	call	_ZN3Upp8strlen__EPKc
	movq	-16(%rbp), %rdi
	movq	-24(%rbp), %rsi
	movl	%eax, %edx
.LEHB144:
	call	_ZN3Upp7String03SetEPKci
.LEHE144:
	jmp	.L1599
.L1600:
	movq	%rax, -32(%rbp)
.L1598:
	movq	-32(%rbp), %rbx
	movq	-16(%rbp), %rdi
	call	_ZN3Upp8MoveableINS_6StringENS_7AStringINS_7String0EEEED2Ev
	movq	%rbx, -32(%rbp)
	movq	-32(%rbp), %rdi
.LEHB145:
	call	_Unwind_Resume
.LEHE145:
.L1599:
	addq	$24, %rsp
	popq	%rbx
	leave
	ret
.LFE1300:
	.size	_ZN3Upp6StringC1EPKc, .-_ZN3Upp6StringC1EPKc
	.section	.gcc_except_table
.LLSDA1300:
	.byte	0xff
	.byte	0xff
	.byte	0x1
	.uleb128 .LLSDACSE1300-.LLSDACSB1300
.LLSDACSB1300:
	.uleb128 .LEHB144-.LFB1300
	.uleb128 .LEHE144-.LEHB144
	.uleb128 .L1600-.LFB1300
	.uleb128 0x0
	.uleb128 .LEHB145-.LFB1300
	.uleb128 .LEHE145-.LEHB145
	.uleb128 0x0
	.uleb128 0x0
.LLSDACSE1300:
	.section	.text._ZN3Upp6StringC1EPKc,"axG",@progbits,_ZN3Upp6StringC1EPKc,comdat
	.section	.text._ZN3Upp7AStringINS_7String0EE3CatEPKci,"axG",@progbits,_ZN3Upp7AStringINS_7String0EE3CatEPKci,comdat
	.align 2
	.weak	_ZN3Upp7AStringINS_7String0EE3CatEPKci
	.type	_ZN3Upp7AStringINS_7String0EE3CatEPKci, @function
_ZN3Upp7AStringINS_7String0EE3CatEPKci:
.LFB8660:
	pushq	%rbp
.LCFI1395:
	movq	%rsp, %rbp
.LCFI1396:
	subq	$32, %rsp
.LCFI1397:
	movq	%rdi, -8(%rbp)
	movq	%rsi, -16(%rbp)
	movl	%edx, -20(%rbp)
	movq	-8(%rbp), %rdi
	movl	-20(%rbp), %edx
	movq	-16(%rbp), %rsi
	call	_ZN3Upp7String03CatEPKci
	leave
	ret
.LFE8660:
	.size	_ZN3Upp7AStringINS_7String0EE3CatEPKci, .-_ZN3Upp7AStringINS_7String0EE3CatEPKci
	.section	.text._ZN3Upp7AStringINS_7String0EE3CatERKNS_6StringE,"axG",@progbits,_ZN3Upp7AStringINS_7String0EE3CatERKNS_6StringE,comdat
	.align 2
	.weak	_ZN3Upp7AStringINS_7String0EE3CatERKNS_6StringE
	.type	_ZN3Upp7AStringINS_7String0EE3CatERKNS_6StringE, @function
_ZN3Upp7AStringINS_7String0EE3CatERKNS_6StringE:
.LFB8029:
	pushq	%rbp
.LCFI1398:
	movq	%rsp, %rbp
.LCFI1399:
	pushq	%rbx
.LCFI1400:
	subq	$24, %rsp
.LCFI1401:
	movq	%rdi, -16(%rbp)
	movq	%rsi, -24(%rbp)
	movq	-24(%rbp), %rdi
	call	_ZNK3Upp7AStringINS_7String0EE9GetLengthEv
	movl	%eax, %ebx
	movq	-24(%rbp), %rdi
	call	_ZNK3Upp7AStringINS_7String0EEcoEv
	movq	%rax, %rsi
	movq	-16(%rbp), %rdi
	movl	%ebx, %edx
	call	_ZN3Upp7AStringINS_7String0EE3CatEPKci
	addq	$24, %rsp
	popq	%rbx
	leave
	ret
.LFE8029:
	.size	_ZN3Upp7AStringINS_7String0EE3CatERKNS_6StringE, .-_ZN3Upp7AStringINS_7String0EE3CatERKNS_6StringE
	.section	.text._ZN3Upp6StringpLERKS0_,"axG",@progbits,_ZN3Upp6StringpLERKS0_,comdat
	.align 2
	.weak	_ZN3Upp6StringpLERKS0_
	.type	_ZN3Upp6StringpLERKS0_, @function
_ZN3Upp6StringpLERKS0_:
.LFB1269:
	pushq	%rbp
.LCFI1402:
	movq	%rsp, %rbp
.LCFI1403:
	subq	$16, %rsp
.LCFI1404:
	movq	%rdi, -8(%rbp)
	movq	%rsi, -16(%rbp)
	movq	-8(%rbp), %rdi
	movq	-16(%rbp), %rsi
	call	_ZN3Upp7AStringINS_7String0EE3CatERKNS_6StringE
	movq	-8(%rbp), %rax
	leave
	ret
.LFE1269:
	.size	_ZN3Upp6StringpLERKS0_, .-_ZN3Upp6StringpLERKS0_
	.section	.text._ZN3UppplEPKcRKNS_6StringE,"axG",@progbits,_ZN3UppplEPKcRKNS_6StringE,comdat
	.align 2
	.weak	_ZN3UppplEPKcRKNS_6StringE
	.type	_ZN3UppplEPKcRKNS_6StringE, @function
_ZN3UppplEPKcRKNS_6StringE:
.LFB8678:
	pushq	%rbp
.LCFI1405:
	movq	%rsp, %rbp
.LCFI1406:
	pushq	%rbx
.LCFI1407:
	subq	$72, %rsp
.LCFI1408:
	movq	%rdi, -72(%rbp)
	movq	%rsi, -56(%rbp)
	movq	%rdx, -64(%rbp)
	movq	%fs:40, %rax
	movq	%rax, -24(%rbp)
	xorl	%eax, %eax
	movq	-72(%rbp), %rdi
	movq	-56(%rbp), %rsi
.LEHB146:
	call	_ZN3Upp6StringC1EPKc
.LEHE146:
	movq	-72(%rbp), %rdi
	movq	-64(%rbp), %rsi
.LEHB147:
	call	_ZN3Upp6StringpLERKS0_
.LEHE147:
	jmp	.L1607
.L1611:
	movq	%rax, -80(%rbp)
.L1608:
	movq	-80(%rbp), %rbx
	movq	-72(%rbp), %rdi
	call	_ZN3Upp6StringD1Ev
	movq	%rbx, -80(%rbp)
	movq	-80(%rbp), %rdi
.LEHB148:
	call	_Unwind_Resume
.LEHE148:
.L1607:
	movq	-72(%rbp), %rax
	movq	-24(%rbp), %rdx
	xorq	%fs:40, %rdx
	je	.L1610
	call	__stack_chk_fail
.L1610:
	addq	$72, %rsp
	popq	%rbx
	leave
	ret
.LFE8678:
	.size	_ZN3UppplEPKcRKNS_6StringE, .-_ZN3UppplEPKcRKNS_6StringE
	.section	.gcc_except_table
.LLSDA8678:
	.byte	0xff
	.byte	0xff
	.byte	0x1
	.uleb128 .LLSDACSE8678-.LLSDACSB8678
.LLSDACSB8678:
	.uleb128 .LEHB146-.LFB8678
	.uleb128 .LEHE146-.LEHB146
	.uleb128 0x0
	.uleb128 0x0
	.uleb128 .LEHB147-.LFB8678
	.uleb128 .LEHE147-.LEHB147
	.uleb128 .L1611-.LFB8678
	.uleb128 0x0
	.uleb128 .LEHB148-.LFB8678
	.uleb128 .LEHE148-.LEHB148
	.uleb128 0x0
	.uleb128 0x0
.LLSDACSE8678:
	.section	.text._ZN3UppplEPKcRKNS_6StringE,"axG",@progbits,_ZN3UppplEPKcRKNS_6StringE,comdat
	.section	.text._ZN3UppplERKNS_6StringES2_,"axG",@progbits,_ZN3UppplERKNS_6StringES2_,comdat
	.align 2
	.weak	_ZN3UppplERKNS_6StringES2_
	.type	_ZN3UppplERKNS_6StringES2_, @function
_ZN3UppplERKNS_6StringES2_:
.LFB8995:
	pushq	%rbp
.LCFI1409:
	movq	%rsp, %rbp
.LCFI1410:
	pushq	%rbx
.LCFI1411:
	subq	$72, %rsp
.LCFI1412:
	movq	%rdi, -72(%rbp)
	movq	%rsi, -56(%rbp)
	movq	%rdx, -64(%rbp)
	movq	%fs:40, %rax
	movq	%rax, -24(%rbp)
	xorl	%eax, %eax
	movq	-72(%rbp), %rdi
	movq	-56(%rbp), %rsi
.LEHB149:
	call	_ZN3Upp6StringC1ERKS0_
.LEHE149:
	movq	-72(%rbp), %rdi
	movq	-64(%rbp), %rsi
.LEHB150:
	call	_ZN3Upp6StringpLERKS0_
.LEHE150:
	jmp	.L1612
.L1616:
	movq	%rax, -80(%rbp)
.L1613:
	movq	-80(%rbp), %rbx
	movq	-72(%rbp), %rdi
	call	_ZN3Upp6StringD1Ev
	movq	%rbx, -80(%rbp)
	movq	-80(%rbp), %rdi
.LEHB151:
	call	_Unwind_Resume
.LEHE151:
.L1612:
	movq	-72(%rbp), %rax
	movq	-24(%rbp), %rdx
	xorq	%fs:40, %rdx
	je	.L1615
	call	__stack_chk_fail
.L1615:
	addq	$72, %rsp
	popq	%rbx
	leave
	ret
.LFE8995:
	.size	_ZN3UppplERKNS_6StringES2_, .-_ZN3UppplERKNS_6StringES2_
	.section	.gcc_except_table
.LLSDA8995:
	.byte	0xff
	.byte	0xff
	.byte	0x1
	.uleb128 .LLSDACSE8995-.LLSDACSB8995
.LLSDACSB8995:
	.uleb128 .LEHB149-.LFB8995
	.uleb128 .LEHE149-.LEHB149
	.uleb128 0x0
	.uleb128 0x0
	.uleb128 .LEHB150-.LFB8995
	.uleb128 .LEHE150-.LEHB150
	.uleb128 .L1616-.LFB8995
	.uleb128 0x0
	.uleb128 .LEHB151-.LFB8995
	.uleb128 .LEHE151-.LEHB151
	.uleb128 0x0
	.uleb128 0x0
.LLSDACSE8995:
	.section	.text._ZN3UppplERKNS_6StringES2_,"axG",@progbits,_ZN3UppplERKNS_6StringES2_,comdat
	.section	.text._ZN3UpplsERNS_6StringERKS0_,"axG",@progbits,_ZN3UpplsERNS_6StringERKS0_,comdat
	.align 2
	.weak	_ZN3UpplsERNS_6StringERKS0_
	.type	_ZN3UpplsERNS_6StringERKS0_, @function
_ZN3UpplsERNS_6StringERKS0_:
.LFB1356:
	pushq	%rbp
.LCFI1413:
	movq	%rsp, %rbp
.LCFI1414:
	subq	$16, %rsp
.LCFI1415:
	movq	%rdi, -8(%rbp)
	movq	%rsi, -16(%rbp)
	movq	-8(%rbp), %rdi
	movq	-16(%rbp), %rsi
	call	_ZN3Upp7AStringINS_7String0EE3CatERKNS_6StringE
	movq	-8(%rbp), %rax
	leave
	ret
.LFE1356:
	.size	_ZN3UpplsERNS_6StringERKS0_, .-_ZN3UpplsERNS_6StringERKS0_
	.section	.text._ZN3Upp7AStringINS_7String0EE3CatEPKc,"axG",@progbits,_ZN3Upp7AStringINS_7String0EE3CatEPKc,comdat
	.align 2
	.weak	_ZN3Upp7AStringINS_7String0EE3CatEPKc
	.type	_ZN3Upp7AStringINS_7String0EE3CatEPKc, @function
_ZN3Upp7AStringINS_7String0EE3CatEPKc:
.LFB8028:
	pushq	%rbp
.LCFI1416:
	movq	%rsp, %rbp
.LCFI1417:
	subq	$16, %rsp
.LCFI1418:
	movq	%rdi, -8(%rbp)
	movq	%rsi, -16(%rbp)
	movq	-16(%rbp), %rdi
	call	_ZN3Upp8strlen__EPKc
	movq	-16(%rbp), %rsi
	movq	-8(%rbp), %rdi
	movl	%eax, %edx
	call	_ZN3Upp7AStringINS_7String0EE3CatEPKci
	leave
	ret
.LFE8028:
	.size	_ZN3Upp7AStringINS_7String0EE3CatEPKc, .-_ZN3Upp7AStringINS_7String0EE3CatEPKc
	.section	.text._ZN3Upp6StringpLEPKc,"axG",@progbits,_ZN3Upp6StringpLEPKc,comdat
	.align 2
	.weak	_ZN3Upp6StringpLEPKc
	.type	_ZN3Upp6StringpLEPKc, @function
_ZN3Upp6StringpLEPKc:
.LFB1268:
	pushq	%rbp
.LCFI1419:
	movq	%rsp, %rbp
.LCFI1420:
	subq	$16, %rsp
.LCFI1421:
	movq	%rdi, -8(%rbp)
	movq	%rsi, -16(%rbp)
	movq	-8(%rbp), %rdi
	movq	-16(%rbp), %rsi
	call	_ZN3Upp7AStringINS_7String0EE3CatEPKc
	movq	-8(%rbp), %rax
	leave
	ret
.LFE1268:
	.size	_ZN3Upp6StringpLEPKc, .-_ZN3Upp6StringpLEPKc
	.section	.text._ZN3UppplERKNS_6StringEPKc,"axG",@progbits,_ZN3UppplERKNS_6StringEPKc,comdat
	.align 2
	.weak	_ZN3UppplERKNS_6StringEPKc
	.type	_ZN3UppplERKNS_6StringEPKc, @function
_ZN3UppplERKNS_6StringEPKc:
.LFB8679:
	pushq	%rbp
.LCFI1422:
	movq	%rsp, %rbp
.LCFI1423:
	pushq	%rbx
.LCFI1424:
	subq	$72, %rsp
.LCFI1425:
	movq	%rdi, -72(%rbp)
	movq	%rsi, -56(%rbp)
	movq	%rdx, -64(%rbp)
	movq	%fs:40, %rax
	movq	%rax, -24(%rbp)
	xorl	%eax, %eax
	movq	-72(%rbp), %rdi
	movq	-56(%rbp), %rsi
.LEHB152:
	call	_ZN3Upp6StringC1ERKS0_
.LEHE152:
	movq	-72(%rbp), %rdi
	movq	-64(%rbp), %rsi
.LEHB153:
	call	_ZN3Upp6StringpLEPKc
.LEHE153:
	jmp	.L1623
.L1627:
	movq	%rax, -80(%rbp)
.L1624:
	movq	-80(%rbp), %rbx
	movq	-72(%rbp), %rdi
	call	_ZN3Upp6StringD1Ev
	movq	%rbx, -80(%rbp)
	movq	-80(%rbp), %rdi
.LEHB154:
	call	_Unwind_Resume
.LEHE154:
.L1623:
	movq	-72(%rbp), %rax
	movq	-24(%rbp), %rdx
	xorq	%fs:40, %rdx
	je	.L1626
	call	__stack_chk_fail
.L1626:
	addq	$72, %rsp
	popq	%rbx
	leave
	ret
.LFE8679:
	.size	_ZN3UppplERKNS_6StringEPKc, .-_ZN3UppplERKNS_6StringEPKc
	.section	.gcc_except_table
.LLSDA8679:
	.byte	0xff
	.byte	0xff
	.byte	0x1
	.uleb128 .LLSDACSE8679-.LLSDACSB8679
.LLSDACSB8679:
	.uleb128 .LEHB152-.LFB8679
	.uleb128 .LEHE152-.LEHB152
	.uleb128 0x0
	.uleb128 0x0
	.uleb128 .LEHB153-.LFB8679
	.uleb128 .LEHE153-.LEHB153
	.uleb128 .L1627-.LFB8679
	.uleb128 0x0
	.uleb128 .LEHB154-.LFB8679
	.uleb128 .LEHE154-.LEHB154
	.uleb128 0x0
	.uleb128 0x0
.LLSDACSE8679:
	.section	.text._ZN3UppplERKNS_6StringEPKc,"axG",@progbits,_ZN3UppplERKNS_6StringEPKc,comdat
	.section	.text._ZN3UpplsERNS_6StringEPKc,"axG",@progbits,_ZN3UpplsERNS_6StringEPKc,comdat
	.align 2
	.weak	_ZN3UpplsERNS_6StringEPKc
	.type	_ZN3UpplsERNS_6StringEPKc, @function
_ZN3UpplsERNS_6StringEPKc:
.LFB1354:
	pushq	%rbp
.LCFI1426:
	movq	%rsp, %rbp
.LCFI1427:
	subq	$16, %rsp
.LCFI1428:
	movq	%rdi, -8(%rbp)
	movq	%rsi, -16(%rbp)
	movq	-8(%rbp), %rdi
	movq	-16(%rbp), %rsi
	call	_ZN3Upp7AStringINS_7String0EE3CatEPKc
	movq	-8(%rbp), %rax
	leave
	ret
.LFE1354:
	.size	_ZN3UpplsERNS_6StringEPKc, .-_ZN3UpplsERNS_6StringEPKc
	.section	.text._ZN3Upp7String03CatEi,"axG",@progbits,_ZN3Upp7String03CatEi,comdat
	.align 2
	.weak	_ZN3Upp7String03CatEi
	.type	_ZN3Upp7String03CatEi, @function
_ZN3Upp7String03CatEi:
.LFB1246:
	pushq	%rbp
.LCFI1429:
	movq	%rsp, %rbp
.LCFI1430:
	subq	$16, %rsp
.LCFI1431:
	movq	%rdi, -8(%rbp)
	movl	%esi, -12(%rbp)
	movq	-8(%rbp), %rdi
	call	_ZN3Upp7String04SLenEv
	movzbl	(%rax), %eax
	cmpb	$13, %al
	setle	%al
	testb	%al, %al
	je	.L1631
	movq	-8(%rbp), %rdi
	call	_ZN3Upp7String04SLenEv
	movq	%rax, %r8
	movzbl	(%r8), %esi
	movsbl	%sil,%edi
	movl	-12(%rbp), %eax
	movl	%eax, %ecx
	movq	-8(%rbp), %rdx
	movslq	%edi,%rax
	movb	%cl, (%rdx,%rax)
	leal	1(%rsi), %eax
	movb	%al, (%r8)
	jmp	.L1633
.L1631:
	movl	-12(%rbp), %esi
	movq	-8(%rbp), %rdi
	call	_ZN3Upp7String04LCatEi
.L1633:
	movq	-8(%rbp), %rdi
	call	_ZN3Upp7String04DsynEv
	leave
	ret
.LFE1246:
	.size	_ZN3Upp7String03CatEi, .-_ZN3Upp7String03CatEi
	.section	.text._ZN3Upp7AStringINS_7String0EE3CatEi,"axG",@progbits,_ZN3Upp7AStringINS_7String0EE3CatEi,comdat
	.align 2
	.weak	_ZN3Upp7AStringINS_7String0EE3CatEi
	.type	_ZN3Upp7AStringINS_7String0EE3CatEi, @function
_ZN3Upp7AStringINS_7String0EE3CatEi:
.LFB8027:
	pushq	%rbp
.LCFI1432:
	movq	%rsp, %rbp
.LCFI1433:
	subq	$16, %rsp
.LCFI1434:
	movq	%rdi, -8(%rbp)
	movl	%esi, -12(%rbp)
	movq	-8(%rbp), %rdi
	movl	-12(%rbp), %esi
	call	_ZN3Upp7String03CatEi
	leave
	ret
.LFE8027:
	.size	_ZN3Upp7AStringINS_7String0EE3CatEi, .-_ZN3Upp7AStringINS_7String0EE3CatEi
	.section	.text._ZN3Upp6StringpLEc,"axG",@progbits,_ZN3Upp6StringpLEc,comdat
	.align 2
	.weak	_ZN3Upp6StringpLEc
	.type	_ZN3Upp6StringpLEc, @function
_ZN3Upp6StringpLEc:
.LFB1267:
	pushq	%rbp
.LCFI1435:
	movq	%rsp, %rbp
.LCFI1436:
	subq	$16, %rsp
.LCFI1437:
	movq	%rdi, -8(%rbp)
	movb	%sil, -12(%rbp)
	movsbl	-12(%rbp),%esi
	movq	-8(%rbp), %rdi
	call	_ZN3Upp7AStringINS_7String0EE3CatEi
	movq	-8(%rbp), %rax
	leave
	ret
.LFE1267:
	.size	_ZN3Upp6StringpLEc, .-_ZN3Upp6StringpLEc
	.section	.text._ZN3UppplERKNS_6StringEc,"axG",@progbits,_ZN3UppplERKNS_6StringEc,comdat
	.align 2
	.weak	_ZN3UppplERKNS_6StringEc
	.type	_ZN3UppplERKNS_6StringEc, @function
_ZN3UppplERKNS_6StringEc:
.LFB8994:
	pushq	%rbp
.LCFI1438:
	movq	%rsp, %rbp
.LCFI1439:
	pushq	%rbx
.LCFI1440:
	subq	$72, %rsp
.LCFI1441:
	movq	%rdi, -72(%rbp)
	movq	%rsi, -56(%rbp)
	movb	%dl, -60(%rbp)
	movq	%fs:40, %rax
	movq	%rax, -24(%rbp)
	xorl	%eax, %eax
	movq	-72(%rbp), %rdi
	movq	-56(%rbp), %rsi
.LEHB155:
	call	_ZN3Upp6StringC1ERKS0_
.LEHE155:
	movsbl	-60(%rbp),%esi
	movq	-72(%rbp), %rdi
.LEHB156:
	call	_ZN3Upp6StringpLEc
.LEHE156:
	jmp	.L1639
.L1643:
	movq	%rax, -80(%rbp)
.L1640:
	movq	-80(%rbp), %rbx
	movq	-72(%rbp), %rdi
	call	_ZN3Upp6StringD1Ev
	movq	%rbx, -80(%rbp)
	movq	-80(%rbp), %rdi
.LEHB157:
	call	_Unwind_Resume
.LEHE157:
.L1639:
	movq	-72(%rbp), %rax
	movq	-24(%rbp), %rdx
	xorq	%fs:40, %rdx
	je	.L1642
	call	__stack_chk_fail
.L1642:
	addq	$72, %rsp
	popq	%rbx
	leave
	ret
.LFE8994:
	.size	_ZN3UppplERKNS_6StringEc, .-_ZN3UppplERKNS_6StringEc
	.section	.gcc_except_table
.LLSDA8994:
	.byte	0xff
	.byte	0xff
	.byte	0x1
	.uleb128 .LLSDACSE8994-.LLSDACSB8994
.LLSDACSB8994:
	.uleb128 .LEHB155-.LFB8994
	.uleb128 .LEHE155-.LEHB155
	.uleb128 0x0
	.uleb128 0x0
	.uleb128 .LEHB156-.LFB8994
	.uleb128 .LEHE156-.LEHB156
	.uleb128 .L1643-.LFB8994
	.uleb128 0x0
	.uleb128 .LEHB157-.LFB8994
	.uleb128 .LEHE157-.LEHB157
	.uleb128 0x0
	.uleb128 0x0
.LLSDACSE8994:
	.section	.text._ZN3UppplERKNS_6StringEc,"axG",@progbits,_ZN3UppplERKNS_6StringEc,comdat
	.section	.rodata
.LC1:
	.string	"Remove from '"
	.align 8
.LC2:
	.string	"Remove package '%s' from uses section in '%s'"
.LC3:
	.string	"Remove all uses"
	.align 8
.LC4:
	.string	"Remove package '%s' from all uses in active project and its submodules"
	.text
	.align 2
.globl _ZN13WorkspaceWork17RemovePackageMenuERN3Upp3BarE
	.type	_ZN13WorkspaceWork17RemovePackageMenuERN3Upp3BarE, @function
_ZN13WorkspaceWork17RemovePackageMenuERN3Upp3BarE:
.LFB7993:
	pushq	%rbp
.LCFI1442:
	movq	%rsp, %rbp
.LCFI1443:
	pushq	%rbx
.LCFI1444:
	subq	$648, %rsp
.LCFI1445:
	movq	%rdi, -600(%rbp)
	movq	%rsi, -608(%rbp)
	movq	%fs:40, %rax
	movq	%rax, -24(%rbp)
	xorl	%eax, %eax
	movq	-608(%rbp), %rax
	movq	(%rax), %rax
	addq	$696, %rax
	movq	(%rax), %rax
	movq	-608(%rbp), %rdi
.LEHB158:
	call	*%rax
	testb	%al, %al
	jne	.L1645
	movq	-608(%rbp), %rax
	movq	(%rax), %rax
	addq	$704, %rax
	movq	(%rax), %rax
	movq	-608(%rbp), %rdi
	call	*%rax
	testb	%al, %al
	jne	.L1645
	movq	-608(%rbp), %rax
	movq	(%rax), %rax
	addq	$680, %rax
	movq	(%rax), %rax
	movq	-608(%rbp), %rdi
	call	*%rax
	xorl	$1, %eax
	testb	%al, %al
	je	.L1648
.L1645:
	movb	$1, -641(%rbp)
	jmp	.L1649
.L1648:
	movb	$0, -641(%rbp)
.L1649:
	movzbl	-641(%rbp), %eax
	testb	%al, %al
	jne	.L1684
	leaq	-160(%rbp), %rdi
	movq	-600(%rbp), %rsi
	call	_ZNK13WorkspaceWork16GetActivePackageEv
.LEHE158:
	movl	$0, -476(%rbp)
	movl	$0, -472(%rbp)
	jmp	.L1652
.L1653:
	movq	-600(%rbp), %rdi
	addq	$8, %rdi
	movl	-472(%rbp), %esi
.LEHB159:
	call	_ZNK3Upp8FileListixEi
	leaq	16(%rax), %rsi
	leaq	-176(%rbp), %rdi
	call	_ZN3Upp6StringC1ERKS0_
.LEHE159:
	leaq	-464(%rbp), %rdi
.LEHB160:
	call	_ZN7PackageC1Ev
.LEHE160:
	leaq	-192(%rbp), %rdi
	leaq	-176(%rbp), %rsi
.LEHB161:
	call	_Z11PackagePathRKN3Upp6StringE
.LEHE161:
	leaq	-192(%rbp), %rdi
	call	_ZNK3Upp7AStringINS_7String0EEcvPKcEv
	movq	%rax, %rsi
	leaq	-464(%rbp), %rdi
.LEHB162:
	call	_ZN7Package4LoadEPKc
	movl	$0, -468(%rbp)
	jmp	.L1654
.L1655:
	movl	-468(%rbp), %esi
	leaq	-464(%rbp), %rax
	leaq	64(%rax), %rdi
	call	_ZN3Upp5ArrayI7OptItemEixEi
	leaq	16(%rax), %rdi
	leaq	-160(%rbp), %rsi
	call	_ZN3UppeqERKNS_6StringES2_
	testb	%al, %al
	je	.L1656
	addl	$1, -476(%rbp)
	leaq	-176(%rbp), %rsi
	leaq	-144(%rbp), %rdi
	call	_ZN3Upp6StringC1ERKS0_
.LEHE162:
	movq	$_ZN13WorkspaceWork13RemovePackageEN3Upp6StringE, -592(%rbp)
	movq	$0, -584(%rbp)
	leaq	-560(%rbp), %rdi
	leaq	-144(%rbp), %rax
	movq	-592(%rbp), %rdx
	movq	-584(%rbp), %rcx
	movq	-600(%rbp), %rsi
	movq	%rax, %r8
.LEHB163:
	call	_ZN3Upp9callback1I13WorkspaceWorkS1_NS_6StringES2_EENS_8CallbackEPT_MT0_FvT1_ET2_
.LEHE163:
	leaq	-176(%rbp), %rdi
	call	_ZNK3Upp7AStringINS_7String0EEcvPKcEv
	movq	%rax, %rsi
	leaq	-96(%rbp), %rdi
.LEHB164:
	call	_ZN3Upp8UnixPathEPKc
.LEHE164:
	leaq	-112(%rbp), %rdi
	leaq	-96(%rbp), %rdx
	movl	$.LC1, %esi
.LEHB165:
	call	_ZN3UppplEPKcRKNS_6StringE
.LEHE165:
	leaq	-128(%rbp), %rdi
	leaq	-112(%rbp), %rsi
	movl	$39, %edx
.LEHB166:
	call	_ZN3UppplERKNS_6StringEc
.LEHE166:
	leaq	-128(%rbp), %rdi
	call	_ZNK3Upp7AStringINS_7String0EEcvPKcEv
	movq	%rax, %rsi
	leaq	-560(%rbp), %rdx
	movq	-608(%rbp), %rdi
.LEHB167:
	call	_ZN3Upp3Bar3AddEPKcNS_8CallbackE
	movq	%rax, -640(%rbp)
	movq	-640(%rbp), %rdx
	movq	(%rdx), %rax
	addq	$64, %rax
	movq	(%rax), %rax
	movq	%rax, -632(%rbp)
	leaq	-192(%rbp), %rsi
	leaq	-544(%rbp), %rdi
	call	_ZN3Upp5ValueC1ERKNS_6StringE
.LEHE167:
	leaq	-160(%rbp), %rsi
	leaq	-528(%rbp), %rdi
.LEHB168:
	call	_ZN3Upp5ValueC1ERKNS_6StringE
.LEHE168:
	leaq	-80(%rbp), %rdi
	leaq	-544(%rbp), %rcx
	leaq	-528(%rbp), %rdx
	movl	$.LC2, %esi
.LEHB169:
	call	_ZN3Upp7NFormatEPKcRKNS_5ValueES4_
.LEHE169:
	leaq	-80(%rbp), %rdi
	call	_ZNK3Upp7AStringINS_7String0EEcvPKcEv
	movq	%rax, %rsi
	movq	-640(%rbp), %rdi
.LEHB170:
	call	*-632(%rbp)
.LEHE170:
	leaq	-80(%rbp), %rdi
	call	_ZN3Upp6StringD1Ev
	leaq	-528(%rbp), %rdi
.LEHB171:
	call	_ZN3Upp5ValueD1Ev
.LEHE171:
	jmp	.L1658
.L1690:
	movq	%rax, -656(%rbp)
.L1659:
	movq	-656(%rbp), %rbx
	leaq	-80(%rbp), %rdi
	call	_ZN3Upp6StringD1Ev
	movq	%rbx, -656(%rbp)
	jmp	.L1660
.L1691:
	movq	%rax, -656(%rbp)
.L1660:
	movq	-656(%rbp), %rbx
	leaq	-528(%rbp), %rdi
	call	_ZN3Upp5ValueD1Ev
	movq	%rbx, -656(%rbp)
	jmp	.L1662
.L1658:
	leaq	-544(%rbp), %rdi
.LEHB172:
	call	_ZN3Upp5ValueD1Ev
.LEHE172:
	jmp	.L1661
.L1692:
	movq	%rax, -656(%rbp)
.L1662:
	movq	-656(%rbp), %rbx
	leaq	-544(%rbp), %rdi
	call	_ZN3Upp5ValueD1Ev
	movq	%rbx, -656(%rbp)
	jmp	.L1664
.L1661:
	leaq	-128(%rbp), %rdi
	call	_ZN3Upp6StringD1Ev
	leaq	-112(%rbp), %rdi
	call	_ZN3Upp6StringD1Ev
	leaq	-96(%rbp), %rdi
	call	_ZN3Upp6StringD1Ev
	leaq	-560(%rbp), %rdi
.LEHB173:
	call	_ZN3Upp8CallbackD1Ev
.LEHE173:
	jmp	.L1663
.L1693:
	movq	%rax, -656(%rbp)
.L1664:
	movq	-656(%rbp), %rbx
	leaq	-128(%rbp), %rdi
	call	_ZN3Upp6StringD1Ev
	movq	%rbx, -656(%rbp)
	jmp	.L1665
.L1694:
	movq	%rax, -656(%rbp)
.L1665:
	movq	-656(%rbp), %rbx
	leaq	-112(%rbp), %rdi
	call	_ZN3Upp6StringD1Ev
	movq	%rbx, -656(%rbp)
	jmp	.L1666
.L1695:
	movq	%rax, -656(%rbp)
.L1666:
	movq	-656(%rbp), %rbx
	leaq	-96(%rbp), %rdi
	call	_ZN3Upp6StringD1Ev
	movq	%rbx, -656(%rbp)
	jmp	.L1667
.L1696:
	movq	%rax, -656(%rbp)
.L1667:
	movq	-656(%rbp), %rbx
	leaq	-560(%rbp), %rdi
	call	_ZN3Upp8CallbackD1Ev
	movq	%rbx, -656(%rbp)
	jmp	.L1668
.L1663:
	leaq	-144(%rbp), %rdi
	call	_ZN3Upp6StringD1Ev
	jmp	.L1656
.L1697:
	movq	%rax, -656(%rbp)
.L1668:
	movq	-656(%rbp), %rbx
	leaq	-144(%rbp), %rdi
	call	_ZN3Upp6StringD1Ev
	movq	%rbx, -656(%rbp)
	jmp	.L1671
.L1656:
	addl	$1, -468(%rbp)
.L1654:
	leaq	-464(%rbp), %rax
	leaq	64(%rax), %rdi
	call	_ZNK3Upp5ArrayI7OptItemE8GetCountEv
	cmpl	-468(%rbp), %eax
	setg	%al
	testb	%al, %al
	jne	.L1655
	leaq	-192(%rbp), %rdi
	call	_ZN3Upp6StringD1Ev
	leaq	-464(%rbp), %rdi
.LEHB174:
	call	_ZN7PackageD1Ev
.LEHE174:
	jmp	.L1670
.L1698:
	movq	%rax, -656(%rbp)
.L1671:
	movq	-656(%rbp), %rbx
	leaq	-192(%rbp), %rdi
	call	_ZN3Upp6StringD1Ev
	movq	%rbx, -656(%rbp)
	jmp	.L1672
.L1699:
	movq	%rax, -656(%rbp)
.L1672:
	movq	-656(%rbp), %rbx
	leaq	-464(%rbp), %rdi
	call	_ZN7PackageD1Ev
	movq	%rbx, -656(%rbp)
	jmp	.L1673
.L1670:
	leaq	-176(%rbp), %rdi
	call	_ZN3Upp6StringD1Ev
	addl	$1, -472(%rbp)
	jmp	.L1652
.L1700:
	movq	%rax, -656(%rbp)
.L1673:
	movq	-656(%rbp), %rbx
	leaq	-176(%rbp), %rdi
	call	_ZN3Upp6StringD1Ev
	movq	%rbx, -656(%rbp)
	jmp	.L1683
.L1652:
	movq	-600(%rbp), %rdi
	addq	$8, %rdi
	call	_ZNK3Upp10ColumnList8GetCountEv
	cmpl	-472(%rbp), %eax
	setg	%al
	testb	%al, %al
	jne	.L1653
	cmpl	$1, -476(%rbp)
	jle	.L1675
	movq	-608(%rbp), %rdi
.LEHB175:
	call	_ZN3Upp3Bar13MenuSeparatorEv
.LEHE175:
	leaq	-64(%rbp), %rdi
	movl	$_ZN3Upp4NullE, %esi
	call	_ZN3Upp6StringC1ERKNS_6NullerE
	movq	$_ZN13WorkspaceWork13RemovePackageEN3Upp6StringE, -576(%rbp)
	movq	$0, -568(%rbp)
	leaq	-512(%rbp), %rdi
	leaq	-64(%rbp), %rax
	movq	-576(%rbp), %rdx
	movq	-568(%rbp), %rcx
	movq	-600(%rbp), %rsi
	movq	%rax, %r8
.LEHB176:
	call	_ZN3Upp9callback1I13WorkspaceWorkS1_NS_6StringES2_EENS_8CallbackEPT_MT0_FvT1_ET2_
.LEHE176:
	leaq	-512(%rbp), %rdx
	movq	-608(%rbp), %rdi
	movl	$.LC3, %esi
.LEHB177:
	call	_ZN3Upp3Bar3AddEPKcNS_8CallbackE
	movq	%rax, -624(%rbp)
	movq	-624(%rbp), %rdx
	movq	(%rdx), %rax
	addq	$64, %rax
	movq	(%rax), %rax
	movq	%rax, -616(%rbp)
	leaq	-160(%rbp), %rsi
	leaq	-496(%rbp), %rdi
	call	_ZN3Upp5ValueC1ERKNS_6StringE
.LEHE177:
	leaq	-48(%rbp), %rdi
	leaq	-496(%rbp), %rdx
	movl	$.LC4, %esi
.LEHB178:
	call	_ZN3Upp7NFormatEPKcRKNS_5ValueE
.LEHE178:
	leaq	-48(%rbp), %rdi
	call	_ZNK3Upp7AStringINS_7String0EEcvPKcEv
	movq	%rax, %rsi
	movq	-624(%rbp), %rdi
.LEHB179:
	call	*-616(%rbp)
.LEHE179:
	leaq	-48(%rbp), %rdi
	call	_ZN3Upp6StringD1Ev
	leaq	-496(%rbp), %rdi
.LEHB180:
	call	_ZN3Upp5ValueD1Ev
.LEHE180:
	jmp	.L1677
.L1686:
	movq	%rax, -656(%rbp)
.L1678:
	movq	-656(%rbp), %rbx
	leaq	-48(%rbp), %rdi
	call	_ZN3Upp6StringD1Ev
	movq	%rbx, -656(%rbp)
	jmp	.L1679
.L1687:
	movq	%rax, -656(%rbp)
.L1679:
	movq	-656(%rbp), %rbx
	leaq	-496(%rbp), %rdi
	call	_ZN3Upp5ValueD1Ev
	movq	%rbx, -656(%rbp)
	jmp	.L1681
.L1677:
	leaq	-512(%rbp), %rdi
.LEHB181:
	call	_ZN3Upp8CallbackD1Ev
.LEHE181:
	jmp	.L1680
.L1688:
	movq	%rax, -656(%rbp)
.L1681:
	movq	-656(%rbp), %rbx
	leaq	-512(%rbp), %rdi
	call	_ZN3Upp8CallbackD1Ev
	movq	%rbx, -656(%rbp)
	jmp	.L1682
.L1680:
	leaq	-64(%rbp), %rdi
	call	_ZN3Upp6StringD1Ev
	jmp	.L1675
.L1689:
	movq	%rax, -656(%rbp)
.L1682:
	movq	-656(%rbp), %rbx
	leaq	-64(%rbp), %rdi
	call	_ZN3Upp6StringD1Ev
	movq	%rbx, -656(%rbp)
	jmp	.L1683
.L1675:
	leaq	-160(%rbp), %rdi
	call	_ZN3Upp6StringD1Ev
	jmp	.L1684
.L1701:
	movq	%rax, -656(%rbp)
.L1683:
	movq	-656(%rbp), %rbx
	leaq	-160(%rbp), %rdi
	call	_ZN3Upp6StringD1Ev
	movq	%rbx, -656(%rbp)
	movq	-656(%rbp), %rdi
.LEHB182:
	call	_Unwind_Resume
.LEHE182:
.L1684:
	movq	-24(%rbp), %rax
	xorq	%fs:40, %rax
	je	.L1685
	call	__stack_chk_fail
.L1685:
	addq	$648, %rsp
	popq	%rbx
	leave
	ret
.LFE7993:
	.size	_ZN13WorkspaceWork17RemovePackageMenuERN3Upp3BarE, .-_ZN13WorkspaceWork17RemovePackageMenuERN3Upp3BarE
	.section	.gcc_except_table
.LLSDA7993:
	.byte	0xff
	.byte	0xff
	.byte	0x1
	.uleb128 .LLSDACSE7993-.LLSDACSB7993
.LLSDACSB7993:
	.uleb128 .LEHB158-.LFB7993
	.uleb128 .LEHE158-.LEHB158
	.uleb128 0x0
	.uleb128 0x0
	.uleb128 .LEHB159-.LFB7993
	.uleb128 .LEHE159-.LEHB159
	.uleb128 .L1701-.LFB7993
	.uleb128 0x0
	.uleb128 .LEHB160-.LFB7993
	.uleb128 .LEHE160-.LEHB160
	.uleb128 .L1700-.LFB7993
	.uleb128 0x0
	.uleb128 .LEHB161-.LFB7993
	.uleb128 .LEHE161-.LEHB161
	.uleb128 .L1699-.LFB7993
	.uleb128 0x0
	.uleb128 .LEHB162-.LFB7993
	.uleb128 .LEHE162-.LEHB162
	.uleb128 .L1698-.LFB7993
	.uleb128 0x0
	.uleb128 .LEHB163-.LFB7993
	.uleb128 .LEHE163-.LEHB163
	.uleb128 .L1697-.LFB7993
	.uleb128 0x0
	.uleb128 .LEHB164-.LFB7993
	.uleb128 .LEHE164-.LEHB164
	.uleb128 .L1696-.LFB7993
	.uleb128 0x0
	.uleb128 .LEHB165-.LFB7993
	.uleb128 .LEHE165-.LEHB165
	.uleb128 .L1695-.LFB7993
	.uleb128 0x0
	.uleb128 .LEHB166-.LFB7993
	.uleb128 .LEHE166-.LEHB166
	.uleb128 .L1694-.LFB7993
	.uleb128 0x0
	.uleb128 .LEHB167-.LFB7993
	.uleb128 .LEHE167-.LEHB167
	.uleb128 .L1693-.LFB7993
	.uleb128 0x0
	.uleb128 .LEHB168-.LFB7993
	.uleb128 .LEHE168-.LEHB168
	.uleb128 .L1692-.LFB7993
	.uleb128 0x0
	.uleb128 .LEHB169-.LFB7993
	.uleb128 .LEHE169-.LEHB169
	.uleb128 .L1691-.LFB7993
	.uleb128 0x0
	.uleb128 .LEHB170-.LFB7993
	.uleb128 .LEHE170-.LEHB170
	.uleb128 .L1690-.LFB7993
	.uleb128 0x0
	.uleb128 .LEHB171-.LFB7993
	.uleb128 .LEHE171-.LEHB171
	.uleb128 .L1692-.LFB7993
	.uleb128 0x0
	.uleb128 .LEHB172-.LFB7993
	.uleb128 .LEHE172-.LEHB172
	.uleb128 .L1693-.LFB7993
	.uleb128 0x0
	.uleb128 .LEHB173-.LFB7993
	.uleb128 .LEHE173-.LEHB173
	.uleb128 .L1697-.LFB7993
	.uleb128 0x0
	.uleb128 .LEHB174-.LFB7993
	.uleb128 .LEHE174-.LEHB174
	.uleb128 .L1700-.LFB7993
	.uleb128 0x0
	.uleb128 .LEHB175-.LFB7993
	.uleb128 .LEHE175-.LEHB175
	.uleb128 .L1701-.LFB7993
	.uleb128 0x0
	.uleb128 .LEHB176-.LFB7993
	.uleb128 .LEHE176-.LEHB176
	.uleb128 .L1689-.LFB7993
	.uleb128 0x0
	.uleb128 .LEHB177-.LFB7993
	.uleb128 .LEHE177-.LEHB177
	.uleb128 .L1688-.LFB7993
	.uleb128 0x0
	.uleb128 .LEHB178-.LFB7993
	.uleb128 .LEHE178-.LEHB178
	.uleb128 .L1687-.LFB7993
	.uleb128 0x0
	.uleb128 .LEHB179-.LFB7993
	.uleb128 .LEHE179-.LEHB179
	.uleb128 .L1686-.LFB7993
	.uleb128 0x0
	.uleb128 .LEHB180-.LFB7993
	.uleb128 .LEHE180-.LEHB180
	.uleb128 .L1688-.LFB7993
	.uleb128 0x0
	.uleb128 .LEHB181-.LFB7993
	.uleb128 .LEHE181-.LEHB181
	.uleb128 .L1689-.LFB7993
	.uleb128 0x0
	.uleb128 .LEHB182-.LFB7993
	.uleb128 .LEHE182-.LEHB182
	.uleb128 0x0
	.uleb128 0x0
.LLSDACSE7993:
	.text
	.section	.rodata
.LC5:
	.string	"Add package to '%s'"
.LC6:
	.string	"Optimize for speed"
	.text
	.align 2
.globl _ZN13WorkspaceWork11PackageMenuERN3Upp3BarE
	.type	_ZN13WorkspaceWork11PackageMenuERN3Upp3BarE, @function
_ZN13WorkspaceWork11PackageMenuERN3Upp3BarE:
.LFB7996:
	pushq	%rbp
.LCFI1446:
	movq	%rsp, %rbp
.LCFI1447:
	pushq	%rbx
.LCFI1448:
	subq	$200, %rsp
.LCFI1449:
	movq	%rdi, -184(%rbp)
	movq	%rsi, -192(%rbp)
	movq	%fs:40, %rax
	movq	%rax, -24(%rbp)
	xorl	%eax, %eax
	movq	-192(%rbp), %rax
	movq	(%rax), %rax
	addq	$696, %rax
	movq	(%rax), %rax
	movq	-192(%rbp), %rdi
.LEHB183:
	call	*%rax
	xorl	$1, %eax
	testb	%al, %al
	je	.L1723
	movq	-184(%rbp), %rdi
	call	_ZN13WorkspaceWork5IsAuxEv
	xorl	$1, %eax
	xorl	$1, %eax
	testb	%al, %al
	jne	.L1705
	movq	-184(%rbp), %rdi
	addq	$8, %rdi
	call	_ZNK3Upp10ColumnList8IsCursorEv
	xorl	$1, %eax
	testb	%al, %al
	jne	.L1705
	movb	$1, -193(%rbp)
	jmp	.L1708
.L1705:
	movb	$0, -193(%rbp)
.L1708:
	movzbl	-193(%rbp), %eax
	movb	%al, -81(%rbp)
	leaq	-64(%rbp), %rdi
	movq	-184(%rbp), %rsi
	call	_ZNK13WorkspaceWork16GetActivePackageEv
.LEHE183:
	leaq	-64(%rbp), %rdi
	call	_ZNK3Upp7AStringINS_7String0EEcvPKcEv
	movq	%rax, %rsi
	leaq	-80(%rbp), %rdi
.LEHB184:
	call	_ZN3Upp8UnixPathEPKc
.LEHE184:
	leaq	-64(%rbp), %rdi
	call	_ZN3Upp6StringD1Ev
	movq	$_ZN13WorkspaceWork13AddNormalUsesEv, -176(%rbp)
	movq	$0, -168(%rbp)
	leaq	-144(%rbp), %rdi
	movq	-176(%rbp), %rdx
	movq	-168(%rbp), %rcx
	movq	-184(%rbp), %rsi
.LEHB185:
	call	_ZN3Upp8callbackI13WorkspaceWorkS1_EENS_8CallbackEPT_MT0_FvvE
.LEHE185:
	jmp	.L1709
.L1731:
	movq	%rax, -208(%rbp)
.L1710:
	movq	-208(%rbp), %rbx
	leaq	-64(%rbp), %rdi
	call	_ZN3Upp6StringD1Ev
	movq	%rbx, -208(%rbp)
	movq	-208(%rbp), %rdi
.LEHB186:
	call	_Unwind_Resume
.LEHE186:
.L1709:
	leaq	-128(%rbp), %rdi
.LEHB187:
	call	_ZN6IdeImg11package_addEv
.LEHE187:
	leaq	-80(%rbp), %rsi
	leaq	-112(%rbp), %rdi
.LEHB188:
	call	_ZN3Upp5ValueC1ERKNS_6StringE
.LEHE188:
	leaq	-48(%rbp), %rdi
	leaq	-112(%rbp), %rdx
	movl	$.LC5, %esi
.LEHB189:
	call	_ZN3Upp7NFormatEPKcRKNS_5ValueE
.LEHE189:
	leaq	-48(%rbp), %rdi
	call	_ZNK3Upp7AStringINS_7String0EEcoEv
	movq	%rax, %rdx
	movzbl	-81(%rbp), %esi
	leaq	-144(%rbp), %rax
	leaq	-128(%rbp), %rcx
	movq	-192(%rbp), %rdi
	movq	%rax, %r8
.LEHB190:
	call	_ZN3Upp3Bar3AddEbPKcRKNS_5ImageENS_8CallbackE
.LEHE190:
	leaq	-48(%rbp), %rdi
	call	_ZN3Upp6StringD1Ev
	leaq	-112(%rbp), %rdi
.LEHB191:
	call	_ZN3Upp5ValueD1Ev
.LEHE191:
	jmp	.L1711
.L1726:
	movq	%rax, -208(%rbp)
.L1712:
	movq	-208(%rbp), %rbx
	leaq	-48(%rbp), %rdi
	call	_ZN3Upp6StringD1Ev
	movq	%rbx, -208(%rbp)
	jmp	.L1713
.L1727:
	movq	%rax, -208(%rbp)
.L1713:
	movq	-208(%rbp), %rbx
	leaq	-112(%rbp), %rdi
	call	_ZN3Upp5ValueD1Ev
	movq	%rbx, -208(%rbp)
	jmp	.L1715
.L1711:
	leaq	-128(%rbp), %rdi
.LEHB192:
	call	_ZN3Upp5ImageD1Ev
.LEHE192:
	jmp	.L1714
.L1728:
	movq	%rax, -208(%rbp)
.L1715:
	movq	-208(%rbp), %rbx
	leaq	-128(%rbp), %rdi
	call	_ZN3Upp5ImageD1Ev
	movq	%rbx, -208(%rbp)
	jmp	.L1717
.L1714:
	leaq	-144(%rbp), %rdi
.LEHB193:
	call	_ZN3Upp8CallbackD1Ev
.LEHE193:
	jmp	.L1716
.L1729:
	movq	%rax, -208(%rbp)
.L1717:
	movq	-208(%rbp), %rbx
	leaq	-144(%rbp), %rdi
	call	_ZN3Upp8CallbackD1Ev
	movq	%rbx, -208(%rbp)
	jmp	.L1722
.L1716:
	movq	-192(%rbp), %rsi
	movq	-184(%rbp), %rdi
.LEHB194:
	call	_ZN13WorkspaceWork17RemovePackageMenuERN3Upp3BarE
	movq	-192(%rbp), %rax
	movq	(%rax), %rax
	addq	$680, %rax
	movq	(%rax), %rax
	movq	-192(%rbp), %rdi
	call	*%rax
	testb	%al, %al
	je	.L1718
	movq	-192(%rbp), %rax
	movq	(%rax), %rax
	addq	$664, %rax
	movq	(%rax), %rax
	movq	-192(%rbp), %rdi
	call	*%rax
	movq	$_ZN13WorkspaceWork18TogglePackageSpeedEv, -160(%rbp)
	movq	$0, -152(%rbp)
	leaq	-96(%rbp), %rdi
	movq	-160(%rbp), %rdx
	movq	-152(%rbp), %rcx
	movq	-184(%rbp), %rsi
	call	_ZN3Upp8callbackI13WorkspaceWorkS1_EENS_8CallbackEPT_MT0_FvvE
.LEHE194:
	movzbl	-81(%rbp), %esi
	leaq	-96(%rbp), %rcx
	movq	-192(%rbp), %rdi
	movl	$.LC6, %edx
.LEHB195:
	call	_ZN3Upp3Bar3AddEbPKcNS_8CallbackE
	movq	%rax, %rdi
	movq	(%rdi), %rax
	addq	$32, %rax
	movq	(%rax), %rdx
	movq	-184(%rbp), %rax
	movzbl	4289(%rax), %eax
	movzbl	%al, %esi
	call	*%rdx
.LEHE195:
	leaq	-96(%rbp), %rdi
.LEHB196:
	call	_ZN3Upp8CallbackD1Ev
.LEHE196:
	jmp	.L1720
.L1725:
	movq	%rax, -208(%rbp)
.L1721:
	movq	-208(%rbp), %rbx
	leaq	-96(%rbp), %rdi
	call	_ZN3Upp8CallbackD1Ev
	movq	%rbx, -208(%rbp)
	jmp	.L1722
.L1720:
	movq	-192(%rbp), %rax
	movq	(%rax), %rax
	addq	$664, %rax
	movq	(%rax), %rax
	movq	-192(%rbp), %rdi
.LEHB197:
	call	*%rax
	movq	-184(%rbp), %rax
	movq	(%rax), %rax
	addq	$16, %rax
	movq	(%rax), %rax
	movq	-192(%rbp), %rsi
	movq	-184(%rbp), %rdi
	call	*%rax
.LEHE197:
.L1718:
	leaq	-80(%rbp), %rdi
	call	_ZN3Upp6StringD1Ev
	jmp	.L1723
.L1730:
	movq	%rax, -208(%rbp)
.L1722:
	movq	-208(%rbp), %rbx
	leaq	-80(%rbp), %rdi
	call	_ZN3Upp6StringD1Ev
	movq	%rbx, -208(%rbp)
	movq	-208(%rbp), %rdi
.LEHB198:
	call	_Unwind_Resume
.LEHE198:
.L1723:
	movq	-24(%rbp), %rax
	xorq	%fs:40, %rax
	je	.L1724
	call	__stack_chk_fail
.L1724:
	addq	$200, %rsp
	popq	%rbx
	leave
	ret
.LFE7996:
	.size	_ZN13WorkspaceWork11PackageMenuERN3Upp3BarE, .-_ZN13WorkspaceWork11PackageMenuERN3Upp3BarE
	.section	.gcc_except_table
.LLSDA7996:
	.byte	0xff
	.byte	0xff
	.byte	0x1
	.uleb128 .LLSDACSE7996-.LLSDACSB7996
.LLSDACSB7996:
	.uleb128 .LEHB183-.LFB7996
	.uleb128 .LEHE183-.LEHB183
	.uleb128 0x0
	.uleb128 0x0
	.uleb128 .LEHB184-.LFB7996
	.uleb128 .LEHE184-.LEHB184
	.uleb128 .L1731-.LFB7996
	.uleb128 0x0
	.uleb128 .LEHB185-.LFB7996
	.uleb128 .LEHE185-.LEHB185
	.uleb128 .L1730-.LFB7996
	.uleb128 0x0
	.uleb128 .LEHB186-.LFB7996
	.uleb128 .LEHE186-.LEHB186
	.uleb128 0x0
	.uleb128 0x0
	.uleb128 .LEHB187-.LFB7996
	.uleb128 .LEHE187-.LEHB187
	.uleb128 .L1729-.LFB7996
	.uleb128 0x0
	.uleb128 .LEHB188-.LFB7996
	.uleb128 .LEHE188-.LEHB188
	.uleb128 .L1728-.LFB7996
	.uleb128 0x0
	.uleb128 .LEHB189-.LFB7996
	.uleb128 .LEHE189-.LEHB189
	.uleb128 .L1727-.LFB7996
	.uleb128 0x0
	.uleb128 .LEHB190-.LFB7996
	.uleb128 .LEHE190-.LEHB190
	.uleb128 .L1726-.LFB7996
	.uleb128 0x0
	.uleb128 .LEHB191-.LFB7996
	.uleb128 .LEHE191-.LEHB191
	.uleb128 .L1728-.LFB7996
	.uleb128 0x0
	.uleb128 .LEHB192-.LFB7996
	.uleb128 .LEHE192-.LEHB192
	.uleb128 .L1729-.LFB7996
	.uleb128 0x0
	.uleb128 .LEHB193-.LFB7996
	.uleb128 .LEHE193-.LEHB193
	.uleb128 .L1730-.LFB7996
	.uleb128 0x0
	.uleb128 .LEHB194-.LFB7996
	.uleb128 .LEHE194-.LEHB194
	.uleb128 .L1730-.LFB7996
	.uleb128 0x0
	.uleb128 .LEHB195-.LFB7996
	.uleb128 .LEHE195-.LEHB195
	.uleb128 .L1725-.LFB7996
	.uleb128 0x0
	.uleb128 .LEHB196-.LFB7996
	.uleb128 .LEHE196-.LEHB196
	.uleb128 .L1730-.LFB7996
	.uleb128 0x0
	.uleb128 .LEHB197-.LFB7996
	.uleb128 .LEHE197-.LEHB197
	.uleb128 .L1730-.LFB7996
	.uleb128 0x0
	.uleb128 .LEHB198-.LFB7996
	.uleb128 .LEHE198-.LEHB198
	.uleb128 0x0
	.uleb128 0x0
.LLSDACSE7996:
	.text
	.section	.text._ZN3Upp6AIndexIN13WorkspaceWork5SepfoENS_6VectorIS2_EENS_7StdHashIS2_EEE3PutERKS2_j,"axG",@progbits,_ZN3Upp6AIndexIN13WorkspaceWork5SepfoENS_6VectorIS2_EENS_7StdHashIS2_EEE3PutERKS2_j,comdat
	.align 2
	.weak	_ZN3Upp6AIndexIN13WorkspaceWork5SepfoENS_6VectorIS2_EENS_7StdHashIS2_EEE3PutERKS2_j
	.type	_ZN3Upp6AIndexIN13WorkspaceWork5SepfoENS_6VectorIS2_EENS_7StdHashIS2_EEE3PutERKS2_j, @function
_ZN3Upp6AIndexIN13WorkspaceWork5SepfoENS_6VectorIS2_EENS_7StdHashIS2_EEE3PutERKS2_j:
.LFB9603:
	pushq	%rbp
.LCFI1450:
	movq	%rsp, %rbp
.LCFI1451:
	subq	$48, %rsp
.LCFI1452:
	movq	%rdi, -24(%rbp)
	movq	%rsi, -32(%rbp)
	movl	%edx, -36(%rbp)
	movq	-24(%rbp), %rdi
	addq	$16, %rdi
	movl	-36(%rbp), %esi
	call	_ZN3Upp8HashBase3PutEj
	movl	%eax, -4(%rbp)
	cmpl	$0, -4(%rbp)
	jns	.L1733
	movq	-24(%rbp), %rdi
	call	_ZNK3Upp6VectorIN13WorkspaceWork5SepfoEE8GetCountEv
	movl	%eax, -4(%rbp)
	movl	-36(%rbp), %edx
	movq	-32(%rbp), %rsi
	movq	-24(%rbp), %rdi
	call	_ZN3Upp6AIndexIN13WorkspaceWork5SepfoENS_6VectorIS2_EENS_7StdHashIS2_EEE3AddERKS2_j
	jmp	.L1735
.L1733:
	movq	-24(%rbp), %rdi
	movl	-4(%rbp), %esi
	call	_ZN3Upp6VectorIN13WorkspaceWork5SepfoEEixEi
	movq	%rax, %rdi
	movq	-32(%rbp), %rsi
	call	_ZN13WorkspaceWork5SepfoaSERKS0_
.L1735:
	movl	-4(%rbp), %eax
	leave
	ret
.LFE9603:
	.size	_ZN3Upp6AIndexIN13WorkspaceWork5SepfoENS_6VectorIS2_EENS_7StdHashIS2_EEE3PutERKS2_j, .-_ZN3Upp6AIndexIN13WorkspaceWork5SepfoENS_6VectorIS2_EENS_7StdHashIS2_EEE3PutERKS2_j
	.section	.text._ZN3Upp6AIndexIN13WorkspaceWork5SepfoENS_6VectorIS2_EENS_7StdHashIS2_EEE7FindPutERKS2_j,"axG",@progbits,_ZN3Upp6AIndexIN13WorkspaceWork5SepfoENS_6VectorIS2_EENS_7StdHashIS2_EEE7FindPutERKS2_j,comdat
	.align 2
	.weak	_ZN3Upp6AIndexIN13WorkspaceWork5SepfoENS_6VectorIS2_EENS_7StdHashIS2_EEE7FindPutERKS2_j
	.type	_ZN3Upp6AIndexIN13WorkspaceWork5SepfoENS_6VectorIS2_EENS_7StdHashIS2_EEE7FindPutERKS2_j, @function
_ZN3Upp6AIndexIN13WorkspaceWork5SepfoENS_6VectorIS2_EENS_7StdHashIS2_EEE7FindPutERKS2_j:
.LFB9604:
	pushq	%rbp
.LCFI1453:
	movq	%rsp, %rbp
.LCFI1454:
	subq	$48, %rsp
.LCFI1455:
	movq	%rdi, -24(%rbp)
	movq	%rsi, -32(%rbp)
	movl	%edx, -36(%rbp)
	movl	-36(%rbp), %edx
	movq	-32(%rbp), %rsi
	movq	-24(%rbp), %rdi
	call	_ZNK3Upp6AIndexIN13WorkspaceWork5SepfoENS_6VectorIS2_EENS_7StdHashIS2_EEE4FindERKS2_j
	movl	%eax, -4(%rbp)
	cmpl	$0, -4(%rbp)
	js	.L1738
	movl	-4(%rbp), %eax
	movl	%eax, -40(%rbp)
	jmp	.L1740
.L1738:
	movl	-36(%rbp), %edx
	movq	-32(%rbp), %rsi
	movq	-24(%rbp), %rdi
	call	_ZN3Upp6AIndexIN13WorkspaceWork5SepfoENS_6VectorIS2_EENS_7StdHashIS2_EEE3PutERKS2_j
	movl	%eax, -40(%rbp)
.L1740:
	movl	-40(%rbp), %eax
	leave
	ret
.LFE9604:
	.size	_ZN3Upp6AIndexIN13WorkspaceWork5SepfoENS_6VectorIS2_EENS_7StdHashIS2_EEE7FindPutERKS2_j, .-_ZN3Upp6AIndexIN13WorkspaceWork5SepfoENS_6VectorIS2_EENS_7StdHashIS2_EEE7FindPutERKS2_j
	.section	.text._ZN3Upp6AIndexIN13WorkspaceWork5SepfoENS_6VectorIS2_EENS_7StdHashIS2_EEE7FindPutERKS2_,"axG",@progbits,_ZN3Upp6AIndexIN13WorkspaceWork5SepfoENS_6VectorIS2_EENS_7StdHashIS2_EEE7FindPutERKS2_,comdat
	.align 2
	.weak	_ZN3Upp6AIndexIN13WorkspaceWork5SepfoENS_6VectorIS2_EENS_7StdHashIS2_EEE7FindPutERKS2_
	.type	_ZN3Upp6AIndexIN13WorkspaceWork5SepfoENS_6VectorIS2_EENS_7StdHashIS2_EEE7FindPutERKS2_, @function
_ZN3Upp6AIndexIN13WorkspaceWork5SepfoENS_6VectorIS2_EENS_7StdHashIS2_EEE7FindPutERKS2_:
.LFB9039:
	pushq	%rbp
.LCFI1456:
	movq	%rsp, %rbp
.LCFI1457:
	subq	$16, %rsp
.LCFI1458:
	movq	%rdi, -8(%rbp)
	movq	%rsi, -16(%rbp)
	movq	-8(%rbp), %rdi
	addq	$72, %rdi
	movq	-16(%rbp), %rsi
	call	_ZNK3Upp7StdHashIN13WorkspaceWork5SepfoEEclERKS2_
	movq	-16(%rbp), %rsi
	movq	-8(%rbp), %rdi
	movl	%eax, %edx
	call	_ZN3Upp6AIndexIN13WorkspaceWork5SepfoENS_6VectorIS2_EENS_7StdHashIS2_EEE7FindPutERKS2_j
	leave
	ret
.LFE9039:
	.size	_ZN3Upp6AIndexIN13WorkspaceWork5SepfoENS_6VectorIS2_EENS_7StdHashIS2_EEE7FindPutERKS2_, .-_ZN3Upp6AIndexIN13WorkspaceWork5SepfoENS_6VectorIS2_EENS_7StdHashIS2_EEE7FindPutERKS2_
	.section	.text._ZN3Upp6AIndexIN13WorkspaceWork5SepfoENS_6VectorIS2_EENS_7StdHashIS2_EEE3PutERKS2_,"axG",@progbits,_ZN3Upp6AIndexIN13WorkspaceWork5SepfoENS_6VectorIS2_EENS_7StdHashIS2_EEE3PutERKS2_,comdat
	.align 2
	.weak	_ZN3Upp6AIndexIN13WorkspaceWork5SepfoENS_6VectorIS2_EENS_7StdHashIS2_EEE3PutERKS2_
	.type	_ZN3Upp6AIndexIN13WorkspaceWork5SepfoENS_6VectorIS2_EENS_7StdHashIS2_EEE3PutERKS2_, @function
_ZN3Upp6AIndexIN13WorkspaceWork5SepfoENS_6VectorIS2_EENS_7StdHashIS2_EEE3PutERKS2_:
.LFB9038:
	pushq	%rbp
.LCFI1459:
	movq	%rsp, %rbp
.LCFI1460:
	subq	$16, %rsp
.LCFI1461:
	movq	%rdi, -8(%rbp)
	movq	%rsi, -16(%rbp)
	movq	-8(%rbp), %rdi
	addq	$72, %rdi
	movq	-16(%rbp), %rsi
	call	_ZNK3Upp7StdHashIN13WorkspaceWork5SepfoEEclERKS2_
	movq	-16(%rbp), %rsi
	movq	-8(%rbp), %rdi
	movl	%eax, %edx
	call	_ZN3Upp6AIndexIN13WorkspaceWork5SepfoENS_6VectorIS2_EENS_7StdHashIS2_EEE3PutERKS2_j
	leave
	ret
.LFE9038:
	.size	_ZN3Upp6AIndexIN13WorkspaceWork5SepfoENS_6VectorIS2_EENS_7StdHashIS2_EEE3PutERKS2_, .-_ZN3Upp6AIndexIN13WorkspaceWork5SepfoENS_6VectorIS2_EENS_7StdHashIS2_EEE3PutERKS2_
	.text
	.align 2
.globl _ZNK13WorkspaceWork17GetActiveFilePathEv
	.type	_ZNK13WorkspaceWork17GetActiveFilePathEv, @function
_ZNK13WorkspaceWork17GetActiveFilePathEv:
.LFB7946:
	pushq	%rbp
.LCFI1462:
	movq	%rsp, %rbp
.LCFI1463:
	pushq	%rbx
.LCFI1464:
	subq	$88, %rsp
.LCFI1465:
	movq	%rdi, -88(%rbp)
	movq	%rsi, -72(%rbp)
	movq	%fs:40, %rax
	movq	%rax, -24(%rbp)
	xorl	%eax, %eax
	movq	-88(%rbp), %rdx
	movq	%rdx, -80(%rbp)
	leaq	-64(%rbp), %rdi
	movq	-72(%rbp), %rsi
.LEHB199:
	call	_ZNK13WorkspaceWork17GetActiveFileNameEv
.LEHE199:
	leaq	-48(%rbp), %rdi
	movq	-72(%rbp), %rsi
.LEHB200:
	call	_ZNK13WorkspaceWork16GetActivePackageEv
.LEHE200:
	leaq	-64(%rbp), %rdx
	leaq	-48(%rbp), %rsi
	movq	-80(%rbp), %rdi
.LEHB201:
	call	_Z10SourcePathRKN3Upp6StringES2_
.LEHE201:
	leaq	-48(%rbp), %rdi
	call	_ZN3Upp6StringD1Ev
	leaq	-64(%rbp), %rdi
	call	_ZN3Upp6StringD1Ev
	jmp	.L1746
.L1751:
	movq	%rax, -96(%rbp)
.L1747:
	movq	-96(%rbp), %rbx
	leaq	-48(%rbp), %rdi
	call	_ZN3Upp6StringD1Ev
	movq	%rbx, -96(%rbp)
	jmp	.L1748
.L1752:
	movq	%rax, -96(%rbp)
.L1748:
	movq	-96(%rbp), %rbx
	leaq	-64(%rbp), %rdi
	call	_ZN3Upp6StringD1Ev
	movq	%rbx, -96(%rbp)
	movq	-96(%rbp), %rdi
.LEHB202:
	call	_Unwind_Resume
.LEHE202:
.L1746:
	movq	-88(%rbp), %rax
	movq	-24(%rbp), %rdx
	xorq	%fs:40, %rdx
	je	.L1750
	call	__stack_chk_fail
.L1750:
	addq	$88, %rsp
	popq	%rbx
	leave
	ret
.LFE7946:
	.size	_ZNK13WorkspaceWork17GetActiveFilePathEv, .-_ZNK13WorkspaceWork17GetActiveFilePathEv
	.section	.gcc_except_table
.LLSDA7946:
	.byte	0xff
	.byte	0xff
	.byte	0x1
	.uleb128 .LLSDACSE7946-.LLSDACSB7946
.LLSDACSB7946:
	.uleb128 .LEHB199-.LFB7946
	.uleb128 .LEHE199-.LEHB199
	.uleb128 0x0
	.uleb128 0x0
	.uleb128 .LEHB200-.LFB7946
	.uleb128 .LEHE200-.LEHB200
	.uleb128 .L1752-.LFB7946
	.uleb128 0x0
	.uleb128 .LEHB201-.LFB7946
	.uleb128 .LEHE201-.LEHB201
	.uleb128 .L1751-.LFB7946
	.uleb128 0x0
	.uleb128 .LEHB202-.LFB7946
	.uleb128 .LEHE202-.LEHB202
	.uleb128 0x0
	.uleb128 0x0
.LLSDACSE7946:
	.text
	.section	.rodata
	.align 8
.LC7:
	.string	"Insert package directory file(s)"
	.align 8
.LC8:
	.string	"Insert file relative to current package"
.LC9:
	.string	"Insert topic++ group"
.LC10:
	.string	"Insert separator"
.LC11:
	.string	"Insert text separator line"
.LC12:
	.string	"Insert any file(s)"
	.align 8
.LC13:
	.string	"Insert files from anywhere on disk (discouraged in portable packages)"
	.align 8
.LC14:
	.string	"Insert output directory file(s)"
	.align 8
.LC15:
	.string	"Open file selector in output / intermediate directory for current package"
	.align 8
.LC16:
	.string	"Insert Local directory file(s)"
	.align 8
.LC17:
	.string	"Open file selector in Local directory for current package"
.LC18:
	.string	"Insert home directory file(s)"
	.align 8
.LC19:
	.string	"Open file selector in current user's HOME directory"
.LC20:
	.string	"Close group\t[double-click]"
.LC21:
	.string	"Open group\t[double-click]"
.LC22:
	.string	"Open all groups"
.LC23:
	.string	"Close all groups"
.LC24:
	.string	"Rename..."
	.align 8
.LC25:
	.string	"Rename file / separator / topic group"
.LC26:
	.string	"Remove"
	.align 8
.LC27:
	.string	"Remove file / separator / topic group from package"
.LC28:
	.string	"Delete"
	.align 8
.LC29:
	.string	"Remove file / topic group reference from package & delete file / folder on disk"
.LC30:
	.string	"Move up"
	.align 8
.LC31:
	.string	"Move current file one position towards package beginning"
.LC32:
	.string	"Move down"
	.align 8
.LC33:
	.string	"Move current file one position towards package end"
.LC34:
	.string	".tpp"
.LC35:
	.string	"Includeable"
.LC36:
	.string	"all.i"
	.text
	.align 2
.globl _ZN13WorkspaceWork8FileMenuERN3Upp3BarE
	.type	_ZN13WorkspaceWork8FileMenuERN3Upp3BarE, @function
_ZN13WorkspaceWork8FileMenuERN3Upp3BarE:
.LFB7988:
	pushq	%rbp
.LCFI1466:
	movq	%rsp, %rbp
.LCFI1467:
	pushq	%r12
.LCFI1468:
	pushq	%rbx
.LCFI1469:
	subq	$896, %rsp
.LCFI1470:
	movq	%rdi, -712(%rbp)
	movq	%rsi, -720(%rbp)
	movq	%fs:40, %rax
	movq	%rax, -24(%rbp)
	xorl	%eax, %eax
	movq	-712(%rbp), %rdi
	addq	$2120, %rdi
	call	_ZNK3Upp10ColumnList8IsCursorEv
	xorl	$1, %eax
	testb	%al, %al
	jne	.L1754
	movq	-712(%rbp), %rdi
	addq	$2120, %rdi
	call	_ZNK3Upp10ColumnList9GetCursorEv
	movl	%eax, %esi
	movq	-712(%rbp), %rdi
	addq	$2120, %rdi
.LEHB203:
	call	_ZNK3Upp8FileListixEi
	movzbl	(%rax), %eax
	xorl	$1, %eax
	testb	%al, %al
	jne	.L1754
	movb	$1, -897(%rbp)
	jmp	.L1757
.L1754:
	movb	$0, -897(%rbp)
.L1757:
	movzbl	-897(%rbp), %edx
	movb	%dl, -162(%rbp)
	movq	-712(%rbp), %rdi
	call	_ZN13WorkspaceWork5IsAuxEv
	movb	%al, -161(%rbp)
	movq	$_ZN13WorkspaceWork7AddFileENS_7ADDFILEE, -704(%rbp)
	movq	$0, -696(%rbp)
	leaq	-432(%rbp), %rdi
	movq	-704(%rbp), %rdx
	movq	-696(%rbp), %rcx
	movq	-712(%rbp), %rsi
	movl	$0, %r8d
	call	_ZN3Upp9callback1I13WorkspaceWorkS1_NS1_7ADDFILEES2_EENS_8CallbackEPT_MT0_FvT1_ET2_
.LEHE203:
	movzbl	-161(%rbp), %eax
	xorl	$1, %eax
	movzbl	%al, %esi
	leaq	-432(%rbp), %rcx
	movq	-720(%rbp), %rdi
	movl	$.LC7, %edx
.LEHB204:
	call	_ZN3Upp3Bar3AddEbPKcNS_8CallbackE
	movq	%rax, %rdi
	movq	(%rdi), %rax
	addq	$64, %rax
	movq	(%rax), %rax
	movl	$.LC8, %esi
	call	*%rax
.LEHE204:
	leaq	-432(%rbp), %rdi
.LEHB205:
	call	_ZN3Upp8CallbackD1Ev
	movq	$_ZN13WorkspaceWork13AddTopicGroupEv, -688(%rbp)
	movq	$0, -680(%rbp)
	leaq	-416(%rbp), %rdi
	movq	-688(%rbp), %rdx
	movq	-680(%rbp), %rcx
	movq	-712(%rbp), %rsi
	call	_ZN3Upp8callbackI13WorkspaceWorkS1_EENS_8CallbackEPT_MT0_FvvE
.LEHE205:
	movzbl	-161(%rbp), %eax
	xorl	$1, %eax
	movzbl	%al, %esi
	leaq	-416(%rbp), %rcx
	movq	-720(%rbp), %rdi
	movl	$.LC9, %edx
.LEHB206:
	call	_ZN3Upp3Bar3AddEbPKcNS_8CallbackE
.LEHE206:
	jmp	.L1758
.L1863:
	movq	%rax, -912(%rbp)
.L1759:
	movq	-912(%rbp), %rbx
	leaq	-432(%rbp), %rdi
	call	_ZN3Upp8CallbackD1Ev
	movq	%rbx, -912(%rbp)
	movq	-912(%rbp), %rdi
.LEHB207:
	call	_Unwind_Resume
.L1758:
	leaq	-416(%rbp), %rdi
	call	_ZN3Upp8CallbackD1Ev
	movq	$_ZN13WorkspaceWork12AddSeparatorEv, -672(%rbp)
	movq	$0, -664(%rbp)
	leaq	-400(%rbp), %rdi
	movq	-672(%rbp), %rdx
	movq	-664(%rbp), %rcx
	movq	-712(%rbp), %rsi
	call	_ZN3Upp8callbackI13WorkspaceWorkS1_EENS_8CallbackEPT_MT0_FvvE
.LEHE207:
	leaq	-400(%rbp), %rdx
	movq	-720(%rbp), %rdi
	movl	$.LC10, %esi
.LEHB208:
	call	_ZN3Upp3Bar3AddEPKcNS_8CallbackE
.LEHE208:
	movq	%rax, -896(%rbp)
	jmp	.L1760
.L1862:
	movq	%rax, -912(%rbp)
.L1761:
	movq	-912(%rbp), %rbx
	leaq	-416(%rbp), %rdi
	call	_ZN3Upp8CallbackD1Ev
	movq	%rbx, -912(%rbp)
	movq	-912(%rbp), %rdi
.LEHB209:
	call	_Unwind_Resume
.LEHE209:
.L1760:
	movq	-896(%rbp), %rdi
	movq	(%rdi), %rax
	addq	$64, %rax
	movq	(%rax), %rax
	movl	$.LC11, %esi
.LEHB210:
	call	*%rax
.LEHE210:
	leaq	-400(%rbp), %rdi
.LEHB211:
	call	_ZN3Upp8CallbackD1Ev
	movq	-720(%rbp), %rax
	movq	(%rax), %rax
	addq	$664, %rax
	movq	(%rax), %rax
	movq	-720(%rbp), %rdi
	call	*%rax
	movq	$_ZN13WorkspaceWork7AddFileENS_7ADDFILEE, -656(%rbp)
	movq	$0, -648(%rbp)
	leaq	-384(%rbp), %rdi
	movq	-656(%rbp), %rdx
	movq	-648(%rbp), %rcx
	movq	-712(%rbp), %rsi
	movl	$4, %r8d
	call	_ZN3Upp9callback1I13WorkspaceWorkS1_NS1_7ADDFILEES2_EENS_8CallbackEPT_MT0_FvT1_ET2_
.LEHE211:
	leaq	-384(%rbp), %rdx
	movq	-720(%rbp), %rdi
	movl	$.LC12, %esi
.LEHB212:
	call	_ZN3Upp3Bar3AddEPKcNS_8CallbackE
.LEHE212:
	movq	%rax, -888(%rbp)
	jmp	.L1762
.L1861:
	movq	%rax, -912(%rbp)
.L1763:
	movq	-912(%rbp), %rbx
	leaq	-400(%rbp), %rdi
	call	_ZN3Upp8CallbackD1Ev
	movq	%rbx, -912(%rbp)
	movq	-912(%rbp), %rdi
.LEHB213:
	call	_Unwind_Resume
.LEHE213:
.L1762:
	movq	-888(%rbp), %rdi
	movq	(%rdi), %rax
	addq	$8, %rax
	movq	(%rax), %rax
	movl	$458825, %esi
.LEHB214:
	call	*%rax
	movq	%rax, %rdi
	movq	(%rdi), %rax
	addq	$64, %rax
	movq	(%rax), %rax
	movl	$.LC13, %esi
	call	*%rax
.LEHE214:
	leaq	-384(%rbp), %rdi
.LEHB215:
	call	_ZN3Upp8CallbackD1Ev
	movq	$_ZN13WorkspaceWork7AddFileENS_7ADDFILEE, -640(%rbp)
	movq	$0, -632(%rbp)
	leaq	-368(%rbp), %rdi
	movq	-640(%rbp), %rdx
	movq	-632(%rbp), %rcx
	movq	-712(%rbp), %rsi
	movl	$1, %r8d
	call	_ZN3Upp9callback1I13WorkspaceWorkS1_NS1_7ADDFILEES2_EENS_8CallbackEPT_MT0_FvT1_ET2_
.LEHE215:
	movb	$0, -873(%rbp)
	movzbl	-161(%rbp), %eax
	xorl	$1, %eax
	testb	%al, %al
	jne	.L1764
	jmp	.L1765
.L1860:
	movq	%rax, -912(%rbp)
.L1766:
	movq	-912(%rbp), %rbx
	leaq	-384(%rbp), %rdi
	call	_ZN3Upp8CallbackD1Ev
	movq	%rbx, -912(%rbp)
	movq	-912(%rbp), %rdi
.LEHB216:
	call	_Unwind_Resume
.LEHE216:
.L1765:
	movq	-712(%rbp), %rax
	movq	(%rax), %rax
	addq	$40, %rax
	movq	(%rax), %rax
	leaq	-96(%rbp), %rdi
	movq	-712(%rbp), %rsi
.LEHB217:
	call	*%rax
	movb	$1, -873(%rbp)
	leaq	-96(%rbp), %rdi
	call	_ZNK3Upp7String08GetCountEv
	testl	%eax, %eax
	je	.L1764
	movb	$1, -874(%rbp)
	jmp	.L1768
.L1764:
	movb	$0, -874(%rbp)
.L1768:
	movzbl	-874(%rbp), %esi
	leaq	-368(%rbp), %rcx
	movq	-720(%rbp), %rdi
	movl	$.LC14, %edx
	call	_ZN3Upp3Bar3AddEbPKcNS_8CallbackE
	movq	%rax, %rdi
	movq	(%rdi), %rax
	addq	$64, %rax
	movq	(%rax), %rax
	movl	$.LC15, %esi
	call	*%rax
.LEHE217:
	cmpb	$0, -873(%rbp)
	jne	.L1769
	jmp	.L1770
.L1858:
	movq	%rax, -912(%rbp)
.L1771:
	movq	-912(%rbp), %rax
	movq	%rax, -744(%rbp)
	cmpb	$0, -873(%rbp)
	je	.L1772
	leaq	-96(%rbp), %rdi
	call	_ZN3Upp6StringD1Ev
.L1772:
	movq	-744(%rbp), %rdx
	movq	%rdx, -912(%rbp)
	jmp	.L1775
.L1769:
	leaq	-96(%rbp), %rdi
	call	_ZN3Upp6StringD1Ev
.L1770:
	leaq	-368(%rbp), %rdi
.LEHB218:
	call	_ZN3Upp8CallbackD1Ev
	movq	$_ZN13WorkspaceWork7AddFileENS_7ADDFILEE, -624(%rbp)
	movq	$0, -616(%rbp)
	leaq	-352(%rbp), %rdi
	movq	-624(%rbp), %rdx
	movq	-616(%rbp), %rcx
	movq	-712(%rbp), %rsi
	movl	$3, %r8d
	call	_ZN3Upp9callback1I13WorkspaceWorkS1_NS1_7ADDFILEES2_EENS_8CallbackEPT_MT0_FvT1_ET2_
.LEHE218:
	movzbl	-161(%rbp), %esi
	leaq	-352(%rbp), %rcx
	movq	-720(%rbp), %rdi
	movl	$.LC16, %edx
.LEHB219:
	call	_ZN3Upp3Bar3AddEbPKcNS_8CallbackE
.LEHE219:
	movq	%rax, -872(%rbp)
	jmp	.L1774
.L1859:
.L1775:
	movq	-912(%rbp), %rbx
	leaq	-368(%rbp), %rdi
	call	_ZN3Upp8CallbackD1Ev
	movq	%rbx, -912(%rbp)
	movq	-912(%rbp), %rdi
.LEHB220:
	call	_Unwind_Resume
.LEHE220:
.L1774:
	movq	-872(%rbp), %rdi
	movq	(%rdi), %rax
	addq	$64, %rax
	movq	(%rax), %rax
	movl	$.LC17, %esi
.LEHB221:
	call	*%rax
.LEHE221:
	leaq	-352(%rbp), %rdi
.LEHB222:
	call	_ZN3Upp8CallbackD1Ev
	movq	$_ZN13WorkspaceWork7AddFileENS_7ADDFILEE, -608(%rbp)
	movq	$0, -600(%rbp)
	leaq	-336(%rbp), %rdi
	movq	-608(%rbp), %rdx
	movq	-600(%rbp), %rcx
	movq	-712(%rbp), %rsi
	movl	$2, %r8d
	call	_ZN3Upp9callback1I13WorkspaceWorkS1_NS1_7ADDFILEES2_EENS_8CallbackEPT_MT0_FvT1_ET2_
.LEHE222:
	leaq	-336(%rbp), %rdx
	movq	-720(%rbp), %rdi
	movl	$.LC18, %esi
.LEHB223:
	call	_ZN3Upp3Bar3AddEPKcNS_8CallbackE
.LEHE223:
	movq	%rax, -864(%rbp)
	jmp	.L1776
.L1857:
	movq	%rax, -912(%rbp)
.L1777:
	movq	-912(%rbp), %rbx
	leaq	-352(%rbp), %rdi
	call	_ZN3Upp8CallbackD1Ev
	movq	%rbx, -912(%rbp)
	movq	-912(%rbp), %rdi
.LEHB224:
	call	_Unwind_Resume
.LEHE224:
.L1776:
	movq	-864(%rbp), %rdi
	movq	(%rdi), %rax
	addq	$64, %rax
	movq	(%rax), %rax
	movl	$.LC19, %esi
.LEHB225:
	call	*%rax
.LEHE225:
	leaq	-336(%rbp), %rdi
.LEHB226:
	call	_ZN3Upp8CallbackD1Ev
	movq	-720(%rbp), %rax
	movq	(%rax), %rax
	addq	$664, %rax
	movq	(%rax), %rax
	movq	-720(%rbp), %rdi
	call	*%rax
.LEHE226:
	movq	-712(%rbp), %rax
	movzbl	4760(%rax), %eax
	xorl	$1, %eax
	testb	%al, %al
	jne	.L1778
	jmp	.L1779
.L1856:
	movq	%rax, -912(%rbp)
.L1780:
	movq	-912(%rbp), %rbx
	leaq	-336(%rbp), %rdi
	call	_ZN3Upp8CallbackD1Ev
	movq	%rbx, -912(%rbp)
	movq	-912(%rbp), %rdi
.LEHB227:
	call	_Unwind_Resume
.L1778:
	cmpb	$0, -162(%rbp)
	je	.L1781
	movq	$_ZN13WorkspaceWork5GroupEv, -592(%rbp)
	movq	$0, -584(%rbp)
	leaq	-320(%rbp), %rdi
	movq	-592(%rbp), %rdx
	movq	-584(%rbp), %rcx
	movq	-712(%rbp), %rsi
	call	_ZN3Upp8callbackI13WorkspaceWorkS1_EENS_8CallbackEPT_MT0_FvvE
.LEHE227:
	leaq	-160(%rbp), %rdi
	movq	-712(%rbp), %rsi
.LEHB228:
	call	_ZN13WorkspaceWork14GetActiveSepfoEv
.LEHE228:
	movq	-712(%rbp), %rdi
	addq	$4560, %rdi
	leaq	-160(%rbp), %rsi
.LEHB229:
	call	_ZNK3Upp6AIndexIN13WorkspaceWork5SepfoENS_6VectorIS2_EENS_7StdHashIS2_EEE4FindERKS2_
	testl	%eax, %eax
	jns	.L1783
	movq	$.LC20, -856(%rbp)
	jmp	.L1785
.L1783:
	movq	$.LC21, -856(%rbp)
.L1785:
	leaq	-320(%rbp), %rdx
	movq	-720(%rbp), %rdi
	movq	-856(%rbp), %rsi
	call	_ZN3Upp3Bar3AddEPKcNS_8CallbackE
.LEHE229:
	leaq	-160(%rbp), %rdi
	call	_ZN13WorkspaceWork5SepfoD1Ev
	leaq	-320(%rbp), %rdi
.LEHB230:
	call	_ZN3Upp8CallbackD1Ev
.LEHE230:
	jmp	.L1781
.L1854:
	movq	%rax, -912(%rbp)
.L1786:
	movq	-912(%rbp), %rbx
	leaq	-160(%rbp), %rdi
	call	_ZN13WorkspaceWork5SepfoD1Ev
	movq	%rbx, -912(%rbp)
	jmp	.L1787
.L1855:
	movq	%rax, -912(%rbp)
.L1787:
	movq	-912(%rbp), %rbx
	leaq	-320(%rbp), %rdi
	call	_ZN3Upp8CallbackD1Ev
	movq	%rbx, -912(%rbp)
	movq	-912(%rbp), %rdi
.LEHB231:
	call	_Unwind_Resume
.L1781:
	movq	$_ZN13WorkspaceWork13OpenAllGroupsEv, -576(%rbp)
	movq	$0, -568(%rbp)
	leaq	-304(%rbp), %rdi
	movq	-576(%rbp), %rdx
	movq	-568(%rbp), %rcx
	movq	-712(%rbp), %rsi
	call	_ZN3Upp8callbackI13WorkspaceWorkS1_EENS_8CallbackEPT_MT0_FvvE
.LEHE231:
	leaq	-304(%rbp), %rdx
	movq	-720(%rbp), %rdi
	movl	$.LC22, %esi
.LEHB232:
	call	_ZN3Upp3Bar3AddEPKcNS_8CallbackE
.LEHE232:
	leaq	-304(%rbp), %rdi
.LEHB233:
	call	_ZN3Upp8CallbackD1Ev
	movq	$_ZN13WorkspaceWork14CloseAllGroupsEv, -560(%rbp)
	movq	$0, -552(%rbp)
	leaq	-288(%rbp), %rdi
	movq	-560(%rbp), %rdx
	movq	-552(%rbp), %rcx
	movq	-712(%rbp), %rsi
	call	_ZN3Upp8callbackI13WorkspaceWorkS1_EENS_8CallbackEPT_MT0_FvvE
.LEHE233:
	leaq	-288(%rbp), %rdx
	movq	-720(%rbp), %rdi
	movl	$.LC23, %esi
.LEHB234:
	call	_ZN3Upp3Bar3AddEPKcNS_8CallbackE
.LEHE234:
	jmp	.L1788
.L1853:
	movq	%rax, -912(%rbp)
.L1789:
	movq	-912(%rbp), %rbx
	leaq	-304(%rbp), %rdi
	call	_ZN3Upp8CallbackD1Ev
	movq	%rbx, -912(%rbp)
	movq	-912(%rbp), %rdi
.LEHB235:
	call	_Unwind_Resume
.L1788:
	leaq	-288(%rbp), %rdi
	call	_ZN3Upp8CallbackD1Ev
	movq	-720(%rbp), %rax
	movq	(%rax), %rax
	addq	$664, %rax
	movq	(%rax), %rax
	movq	-720(%rbp), %rdi
	call	*%rax
	movq	-712(%rbp), %rax
	movq	(%rax), %rax
	addq	$24, %rax
	movq	(%rax), %rax
	movq	-720(%rbp), %rsi
	movq	-712(%rbp), %rdi
	call	*%rax
	movq	-720(%rbp), %rax
	movq	(%rax), %rax
	addq	$664, %rax
	movq	(%rax), %rax
	movq	-720(%rbp), %rdi
	call	*%rax
.LEHE235:
	jmp	.L1779
.L1852:
	movq	%rax, -912(%rbp)
.L1790:
	movq	-912(%rbp), %rbx
	leaq	-288(%rbp), %rdi
	call	_ZN3Upp8CallbackD1Ev
	movq	%rbx, -912(%rbp)
	movq	-912(%rbp), %rdi
.LEHB236:
	call	_Unwind_Resume
.L1779:
	movq	$_ZN13WorkspaceWork10RenameFileEv, -544(%rbp)
	movq	$0, -536(%rbp)
	leaq	-272(%rbp), %rdi
	movq	-544(%rbp), %rdx
	movq	-536(%rbp), %rcx
	movq	-712(%rbp), %rsi
	call	_ZN3Upp8callbackI13WorkspaceWorkS1_EENS_8CallbackEPT_MT0_FvvE
.LEHE236:
	leaq	-272(%rbp), %rdx
	movq	-720(%rbp), %rdi
	movl	$.LC24, %esi
.LEHB237:
	call	_ZN3Upp3Bar3AddEPKcNS_8CallbackE
	movq	%rax, %rdi
	movq	(%rdi), %rax
	addq	$64, %rax
	movq	(%rax), %rax
	movl	$.LC25, %esi
	call	*%rax
.LEHE237:
	leaq	-272(%rbp), %rdi
.LEHB238:
	call	_ZN3Upp8CallbackD1Ev
	movq	$_ZN13WorkspaceWork10RemoveFileEv, -528(%rbp)
	movq	$0, -520(%rbp)
	leaq	-256(%rbp), %rdi
	movq	-528(%rbp), %rdx
	movq	-520(%rbp), %rcx
	movq	-712(%rbp), %rsi
	call	_ZN3Upp8callbackI13WorkspaceWorkS1_EENS_8CallbackEPT_MT0_FvvE
.LEHE238:
	leaq	-256(%rbp), %rdx
	movq	-720(%rbp), %rdi
	movl	$.LC26, %esi
.LEHB239:
	call	_ZN3Upp3Bar3AddEPKcNS_8CallbackE
.LEHE239:
	movq	%rax, -840(%rbp)
	jmp	.L1791
.L1851:
	movq	%rax, -912(%rbp)
.L1792:
	movq	-912(%rbp), %rbx
	leaq	-272(%rbp), %rdi
	call	_ZN3Upp8CallbackD1Ev
	movq	%rbx, -912(%rbp)
	movq	-912(%rbp), %rdi
.LEHB240:
	call	_Unwind_Resume
.LEHE240:
.L1791:
	movq	-840(%rbp), %rax
	movq	%rax, -848(%rbp)
	movq	-848(%rbp), %rdx
	movq	(%rdx), %rax
	addq	$8, %rax
	movq	(%rax), %rax
	movq	%rax, -832(%rbp)
	movq	-712(%rbp), %rax
	movzbl	4760(%rax), %eax
	testb	%al, %al
	je	.L1793
	movl	$131071, -824(%rbp)
	jmp	.L1795
.L1793:
	movl	$655359, -824(%rbp)
.L1795:
	movl	-824(%rbp), %esi
	movq	-848(%rbp), %rdi
.LEHB241:
	call	*-832(%rbp)
	movq	%rax, %rdi
	movq	(%rdi), %rax
	addq	$64, %rax
	movq	(%rax), %rax
	movl	$.LC27, %esi
	call	*%rax
.LEHE241:
	leaq	-256(%rbp), %rdi
.LEHB242:
	call	_ZN3Upp8CallbackD1Ev
	movq	$_ZN13WorkspaceWork7DelFileEv, -512(%rbp)
	movq	$0, -504(%rbp)
	leaq	-240(%rbp), %rdi
	movq	-512(%rbp), %rdx
	movq	-504(%rbp), %rcx
	movq	-712(%rbp), %rsi
	call	_ZN3Upp8callbackI13WorkspaceWorkS1_EENS_8CallbackEPT_MT0_FvvE
.LEHE242:
	movq	-712(%rbp), %rdi
	addq	$2120, %rdi
	call	_ZNK3Upp10ColumnList8IsCursorEv
	xorl	$1, %eax
	testb	%al, %al
	jne	.L1796
	jmp	.L1797
.L1850:
	movq	%rax, -912(%rbp)
.L1798:
	movq	-912(%rbp), %rbx
	leaq	-256(%rbp), %rdi
	call	_ZN3Upp8CallbackD1Ev
	movq	%rbx, -912(%rbp)
	movq	-912(%rbp), %rdi
.LEHB243:
	call	_Unwind_Resume
.LEHE243:
.L1797:
	movzbl	-162(%rbp), %eax
	xorl	$1, %eax
	xorl	$1, %eax
	testb	%al, %al
	jne	.L1796
	movb	$1, -817(%rbp)
	jmp	.L1800
.L1796:
	movb	$0, -817(%rbp)
.L1800:
	movzbl	-817(%rbp), %esi
	leaq	-240(%rbp), %rcx
	movq	-720(%rbp), %rdi
	movl	$.LC28, %edx
.LEHB244:
	call	_ZN3Upp3Bar3AddEbPKcNS_8CallbackE
	movq	%rax, %rdi
	movq	(%rdi), %rax
	addq	$64, %rax
	movq	(%rax), %rax
	movl	$.LC29, %esi
	call	*%rax
.LEHE244:
	leaq	-240(%rbp), %rdi
.LEHB245:
	call	_ZN3Upp8CallbackD1Ev
	movq	-720(%rbp), %rax
	movq	(%rax), %rax
	addq	$664, %rax
	movq	(%rax), %rax
	movq	-720(%rbp), %rdi
	call	*%rax
	movq	$_ZN13WorkspaceWork8MoveFileEi, -496(%rbp)
	movq	$0, -488(%rbp)
	leaq	-224(%rbp), %rdi
	movq	-496(%rbp), %rdx
	movq	-488(%rbp), %rcx
	movq	-712(%rbp), %rsi
	movl	$-1, %r8d
	call	_ZN3Upp9callback1I13WorkspaceWorkS1_iiEENS_8CallbackEPT_MT0_FvT1_ET2_
.LEHE245:
	movq	-712(%rbp), %rdi
	addq	$2120, %rdi
	call	_ZNK3Upp10ColumnList9GetCursorEv
	testl	%eax, %eax
	setg	%al
	movzbl	%al, %esi
	leaq	-224(%rbp), %rcx
	movq	-720(%rbp), %rdi
	movl	$.LC30, %edx
.LEHB246:
	call	_ZN3Upp3Bar3AddEbPKcNS_8CallbackE
.LEHE246:
	movq	%rax, -808(%rbp)
	jmp	.L1801
.L1849:
	movq	%rax, -912(%rbp)
.L1802:
	movq	-912(%rbp), %rbx
	leaq	-240(%rbp), %rdi
	call	_ZN3Upp8CallbackD1Ev
	movq	%rbx, -912(%rbp)
	movq	-912(%rbp), %rdi
.LEHB247:
	call	_Unwind_Resume
.LEHE247:
.L1801:
	movq	-808(%rbp), %rax
	movq	%rax, -816(%rbp)
	movq	-816(%rbp), %rdx
	movq	(%rdx), %rax
	addq	$8, %rax
	movq	(%rax), %rax
	movq	%rax, -800(%rbp)
	movq	-712(%rbp), %rax
	movzbl	4760(%rax), %eax
	testb	%al, %al
	je	.L1803
	movl	$261970, -792(%rbp)
	jmp	.L1805
.L1803:
	movl	$524114, -792(%rbp)
.L1805:
	movl	-792(%rbp), %esi
	movq	-816(%rbp), %rdi
.LEHB248:
	call	*-800(%rbp)
	movq	%rax, %rdi
	movq	(%rdi), %rax
	addq	$64, %rax
	movq	(%rax), %rax
	movl	$.LC31, %esi
	call	*%rax
.LEHE248:
	leaq	-224(%rbp), %rdi
.LEHB249:
	call	_ZN3Upp8CallbackD1Ev
	movq	$_ZN13WorkspaceWork8MoveFileEi, -480(%rbp)
	movq	$0, -472(%rbp)
	leaq	-208(%rbp), %rdi
	movq	-480(%rbp), %rdx
	movq	-472(%rbp), %rcx
	movq	-712(%rbp), %rsi
	movl	$1, %r8d
	call	_ZN3Upp9callback1I13WorkspaceWorkS1_iiEENS_8CallbackEPT_MT0_FvT1_ET2_
.LEHE249:
	movq	-712(%rbp), %rdi
	addq	$2120, %rdi
	call	_ZNK3Upp10ColumnList8IsCursorEv
	xorl	$1, %eax
	testb	%al, %al
	jne	.L1806
	jmp	.L1807
.L1848:
	movq	%rax, -912(%rbp)
.L1808:
	movq	-912(%rbp), %rbx
	leaq	-224(%rbp), %rdi
	call	_ZN3Upp8CallbackD1Ev
	movq	%rbx, -912(%rbp)
	movq	-912(%rbp), %rdi
.LEHB250:
	call	_Unwind_Resume
.LEHE250:
.L1807:
	movq	-712(%rbp), %rdi
	addq	$2120, %rdi
	call	_ZNK3Upp10ColumnList9GetCursorEv
	movl	%eax, %ebx
	movq	-712(%rbp), %rdi
	addq	$2120, %rdi
	call	_ZNK3Upp10ColumnList8GetCountEv
	subl	$1, %eax
	cmpl	%eax, %ebx
	jge	.L1806
	movb	$1, -785(%rbp)
	jmp	.L1810
.L1806:
	movb	$0, -785(%rbp)
.L1810:
	movzbl	-785(%rbp), %esi
	leaq	-208(%rbp), %rcx
	movq	-720(%rbp), %rdi
	movl	$.LC32, %edx
.LEHB251:
	call	_ZN3Upp3Bar3AddEbPKcNS_8CallbackE
	movq	%rax, -784(%rbp)
	movq	-784(%rbp), %rdx
	movq	(%rdx), %rax
	addq	$8, %rax
	movq	(%rax), %rax
	movq	%rax, -776(%rbp)
	movq	-712(%rbp), %rax
	movzbl	4760(%rax), %eax
	testb	%al, %al
	je	.L1811
	movl	$261972, -768(%rbp)
	jmp	.L1813
.L1811:
	movl	$524116, -768(%rbp)
.L1813:
	movl	-768(%rbp), %esi
	movq	-784(%rbp), %rdi
	call	*-776(%rbp)
	movq	%rax, %rdi
	movq	(%rdi), %rax
	addq	$64, %rax
	movq	(%rax), %rax
	movl	$.LC33, %esi
	call	*%rax
.LEHE251:
	leaq	-208(%rbp), %rdi
.LEHB252:
	call	_ZN3Upp8CallbackD1Ev
.LEHE252:
	movq	-712(%rbp), %rdi
	call	_ZNK13WorkspaceWork12IsActiveFileEv
	testb	%al, %al
	jne	.L1814
	jmp	.L1815
.L1847:
	movq	%rax, -912(%rbp)
.L1816:
	movq	-912(%rbp), %rbx
	leaq	-208(%rbp), %rdi
	call	_ZN3Upp8CallbackD1Ev
	movq	%rbx, -912(%rbp)
	movq	-912(%rbp), %rdi
.LEHB253:
	call	_Unwind_Resume
.L1814:
	movq	-720(%rbp), %rax
	movq	(%rax), %rax
	addq	$664, %rax
	movq	(%rax), %rax
	movq	-720(%rbp), %rdi
	call	*%rax
	leaq	-112(%rbp), %rdi
	movq	-712(%rbp), %rsi
	call	_ZNK13WorkspaceWork17GetActiveFilePathEv
.LEHE253:
	movb	$0, -762(%rbp)
	movb	$0, -761(%rbp)
	leaq	-112(%rbp), %rdi
	call	_ZNK3Upp7AStringINS_7String0EEcvPKcEv
	movq	%rax, %rsi
	leaq	-80(%rbp), %rdi
.LEHB254:
	call	_ZN3Upp10GetFileExtEPKc
	movb	$1, -762(%rbp)
	leaq	-80(%rbp), %rdi
	movl	$.LC34, %esi
	call	_ZN3UppeqERKNS_6StringEPKc
	xorl	$1, %eax
	testb	%al, %al
	jne	.L1817
	leaq	-112(%rbp), %rsi
	leaq	-64(%rbp), %rdi
	call	_ZN3Upp6StringC1ERKS0_
	movb	$1, -761(%rbp)
	leaq	-64(%rbp), %rdi
	call	_ZN3Upp8IsFolderENS_6StringE
.LEHE254:
	xorl	$1, %eax
	testb	%al, %al
	jne	.L1817
	movb	$1, -763(%rbp)
	jmp	.L1820
.L1817:
	movb	$0, -763(%rbp)
.L1820:
	movzbl	-763(%rbp), %eax
	movb	%al, -764(%rbp)
	cmpb	$0, -761(%rbp)
	jne	.L1821
	jmp	.L1822
.L1844:
	movq	%rax, -912(%rbp)
.L1823:
	movq	-912(%rbp), %rdx
	movq	%rdx, -736(%rbp)
	cmpb	$0, -761(%rbp)
	je	.L1824
	leaq	-64(%rbp), %rdi
	call	_ZN3Upp6StringD1Ev
.L1824:
	movq	-736(%rbp), %rax
	movq	%rax, -912(%rbp)
	jmp	.L1828
.L1821:
	leaq	-64(%rbp), %rdi
	call	_ZN3Upp6StringD1Ev
.L1822:
	cmpb	$0, -762(%rbp)
	jne	.L1826
	jmp	.L1827
.L1845:
.L1828:
	movq	-912(%rbp), %rdx
	movq	%rdx, -728(%rbp)
	cmpb	$0, -762(%rbp)
	je	.L1829
	leaq	-80(%rbp), %rdi
	call	_ZN3Upp6StringD1Ev
.L1829:
	movq	-728(%rbp), %rax
	movq	%rax, -912(%rbp)
	jmp	.L1838
.L1826:
	leaq	-80(%rbp), %rdi
	call	_ZN3Upp6StringD1Ev
.L1827:
	cmpb	$0, -764(%rbp)
	je	.L1831
	movq	$_ZN13WorkspaceWork17ToggleIncludeableEv, -464(%rbp)
	movq	$0, -456(%rbp)
	leaq	-192(%rbp), %rdi
	movq	-464(%rbp), %rdx
	movq	-456(%rbp), %rcx
	movq	-712(%rbp), %rsi
.LEHB255:
	call	_ZN3Upp8callbackI13WorkspaceWorkS1_EENS_8CallbackEPT_MT0_FvvE
.LEHE255:
	leaq	-192(%rbp), %rdx
	movq	-720(%rbp), %rdi
	movl	$.LC35, %esi
.LEHB256:
	call	_ZN3Upp3Bar3AddEPKcNS_8CallbackE
	movq	%rax, -760(%rbp)
	movq	-760(%rbp), %rdx
	movq	(%rdx), %rax
	addq	$32, %rax
	movq	(%rax), %rax
	movq	%rax, -752(%rbp)
	leaq	-48(%rbp), %rdi
	leaq	-112(%rbp), %rsi
	movl	$.LC36, %edx
	call	_ZN3Upp14AppendFileNameERKNS_6StringEPKc
.LEHE256:
	leaq	-48(%rbp), %rdi
	call	_ZNK3Upp7AStringINS_7String0EEcvPKcEv
	movq	%rax, %rdi
.LEHB257:
	call	_ZN3Upp10FileExistsEPKc
	movzbl	%al, %esi
	movq	-760(%rbp), %rdi
	call	*-752(%rbp)
.LEHE257:
	leaq	-48(%rbp), %rdi
	call	_ZN3Upp6StringD1Ev
	leaq	-192(%rbp), %rdi
.LEHB258:
	call	_ZN3Upp8CallbackD1Ev
.LEHE258:
	jmp	.L1836
.L1842:
	movq	%rax, -912(%rbp)
.L1834:
	movq	-912(%rbp), %rbx
	leaq	-48(%rbp), %rdi
	call	_ZN3Upp6StringD1Ev
	movq	%rbx, -912(%rbp)
	jmp	.L1835
.L1843:
	movq	%rax, -912(%rbp)
.L1835:
	movq	-912(%rbp), %rbx
	leaq	-192(%rbp), %rdi
	call	_ZN3Upp8CallbackD1Ev
	movq	%rbx, -912(%rbp)
	jmp	.L1838
.L1831:
	movq	$_ZN13WorkspaceWork15ToggleFileSpeedEv, -448(%rbp)
	movq	$0, -440(%rbp)
	leaq	-176(%rbp), %rdi
	movq	-448(%rbp), %rdx
	movq	-440(%rbp), %rcx
	movq	-712(%rbp), %rsi
.LEHB259:
	call	_ZN3Upp8callbackI13WorkspaceWorkS1_EENS_8CallbackEPT_MT0_FvvE
.LEHE259:
	leaq	-176(%rbp), %rdx
	movq	-720(%rbp), %rdi
	movl	$.LC6, %esi
.LEHB260:
	call	_ZN3Upp3Bar3AddEPKcNS_8CallbackE
	movq	%rax, %rbx
	movq	(%rbx), %rax
	addq	$32, %rax
	movq	(%rax), %r12
	movq	-712(%rbp), %rdi
	call	_ZN13WorkspaceWork10ActiveFileEv
	movl	96(%rax), %eax
	testl	%eax, %eax
	setne	%al
	movzbl	%al, %esi
	movq	%rbx, %rdi
	call	*%r12
.LEHE260:
	leaq	-176(%rbp), %rdi
.LEHB261:
	call	_ZN3Upp8CallbackD1Ev
.LEHE261:
	jmp	.L1836
.L1841:
	movq	%rax, -912(%rbp)
.L1837:
	movq	-912(%rbp), %rbx
	leaq	-176(%rbp), %rdi
	call	_ZN3Upp8CallbackD1Ev
	movq	%rbx, -912(%rbp)
	jmp	.L1838
.L1836:
	leaq	-112(%rbp), %rdi
	call	_ZN3Upp6StringD1Ev
	jmp	.L1815
.L1846:
	movq	%rax, -912(%rbp)
.L1838:
	movq	-912(%rbp), %rbx
	leaq	-112(%rbp), %rdi
	call	_ZN3Upp6StringD1Ev
	movq	%rbx, -912(%rbp)
	movq	-912(%rbp), %rdi
.LEHB262:
	call	_Unwind_Resume
.L1815:
	movq	-712(%rbp), %rax
	movq	(%rax), %rax
	addq	$32, %rax
	movq	(%rax), %rax
	movq	-720(%rbp), %rsi
	movq	-712(%rbp), %rdi
	call	*%rax
.LEHE262:
	movq	-24(%rbp), %rax
	xorq	%fs:40, %rax
	je	.L1840
	call	__stack_chk_fail
.L1840:
	addq	$896, %rsp
	popq	%rbx
	popq	%r12
	leave
	ret
.LFE7988:
	.size	_ZN13WorkspaceWork8FileMenuERN3Upp3BarE, .-_ZN13WorkspaceWork8FileMenuERN3Upp3BarE
	.section	.gcc_except_table
.LLSDA7988:
	.byte	0xff
	.byte	0xff
	.byte	0x1
	.uleb128 .LLSDACSE7988-.LLSDACSB7988
.LLSDACSB7988:
	.uleb128 .LEHB203-.LFB7988
	.uleb128 .LEHE203-.LEHB203
	.uleb128 0x0
	.uleb128 0x0
	.uleb128 .LEHB204-.LFB7988
	.uleb128 .LEHE204-.LEHB204
	.uleb128 .L1863-.LFB7988
	.uleb128 0x0
	.uleb128 .LEHB205-.LFB7988
	.uleb128 .LEHE205-.LEHB205
	.uleb128 0x0
	.uleb128 0x0
	.uleb128 .LEHB206-.LFB7988
	.uleb128 .LEHE206-.LEHB206
	.uleb128 .L1862-.LFB7988
	.uleb128 0x0
	.uleb128 .LEHB207-.LFB7988
	.uleb128 .LEHE207-.LEHB207
	.uleb128 0x0
	.uleb128 0x0
	.uleb128 .LEHB208-.LFB7988
	.uleb128 .LEHE208-.LEHB208
	.uleb128 .L1861-.LFB7988
	.uleb128 0x0
	.uleb128 .LEHB209-.LFB7988
	.uleb128 .LEHE209-.LEHB209
	.uleb128 0x0
	.uleb128 0x0
	.uleb128 .LEHB210-.LFB7988
	.uleb128 .LEHE210-.LEHB210
	.uleb128 .L1861-.LFB7988
	.uleb128 0x0
	.uleb128 .LEHB211-.LFB7988
	.uleb128 .LEHE211-.LEHB211
	.uleb128 0x0
	.uleb128 0x0
	.uleb128 .LEHB212-.LFB7988
	.uleb128 .LEHE212-.LEHB212
	.uleb128 .L1860-.LFB7988
	.uleb128 0x0
	.uleb128 .LEHB213-.LFB7988
	.uleb128 .LEHE213-.LEHB213
	.uleb128 0x0
	.uleb128 0x0
	.uleb128 .LEHB214-.LFB7988
	.uleb128 .LEHE214-.LEHB214
	.uleb128 .L1860-.LFB7988
	.uleb128 0x0
	.uleb128 .LEHB215-.LFB7988
	.uleb128 .LEHE215-.LEHB215
	.uleb128 0x0
	.uleb128 0x0
	.uleb128 .LEHB216-.LFB7988
	.uleb128 .LEHE216-.LEHB216
	.uleb128 0x0
	.uleb128 0x0
	.uleb128 .LEHB217-.LFB7988
	.uleb128 .LEHE217-.LEHB217
	.uleb128 .L1858-.LFB7988
	.uleb128 0x0
	.uleb128 .LEHB218-.LFB7988
	.uleb128 .LEHE218-.LEHB218
	.uleb128 0x0
	.uleb128 0x0
	.uleb128 .LEHB219-.LFB7988
	.uleb128 .LEHE219-.LEHB219
	.uleb128 .L1857-.LFB7988
	.uleb128 0x0
	.uleb128 .LEHB220-.LFB7988
	.uleb128 .LEHE220-.LEHB220
	.uleb128 0x0
	.uleb128 0x0
	.uleb128 .LEHB221-.LFB7988
	.uleb128 .LEHE221-.LEHB221
	.uleb128 .L1857-.LFB7988
	.uleb128 0x0
	.uleb128 .LEHB222-.LFB7988
	.uleb128 .LEHE222-.LEHB222
	.uleb128 0x0
	.uleb128 0x0
	.uleb128 .LEHB223-.LFB7988
	.uleb128 .LEHE223-.LEHB223
	.uleb128 .L1856-.LFB7988
	.uleb128 0x0
	.uleb128 .LEHB224-.LFB7988
	.uleb128 .LEHE224-.LEHB224
	.uleb128 0x0
	.uleb128 0x0
	.uleb128 .LEHB225-.LFB7988
	.uleb128 .LEHE225-.LEHB225
	.uleb128 .L1856-.LFB7988
	.uleb128 0x0
	.uleb128 .LEHB226-.LFB7988
	.uleb128 .LEHE226-.LEHB226
	.uleb128 0x0
	.uleb128 0x0
	.uleb128 .LEHB227-.LFB7988
	.uleb128 .LEHE227-.LEHB227
	.uleb128 0x0
	.uleb128 0x0
	.uleb128 .LEHB228-.LFB7988
	.uleb128 .LEHE228-.LEHB228
	.uleb128 .L1855-.LFB7988
	.uleb128 0x0
	.uleb128 .LEHB229-.LFB7988
	.uleb128 .LEHE229-.LEHB229
	.uleb128 .L1854-.LFB7988
	.uleb128 0x0
	.uleb128 .LEHB230-.LFB7988
	.uleb128 .LEHE230-.LEHB230
	.uleb128 0x0
	.uleb128 0x0
	.uleb128 .LEHB231-.LFB7988
	.uleb128 .LEHE231-.LEHB231
	.uleb128 0x0
	.uleb128 0x0
	.uleb128 .LEHB232-.LFB7988
	.uleb128 .LEHE232-.LEHB232
	.uleb128 .L1853-.LFB7988
	.uleb128 0x0
	.uleb128 .LEHB233-.LFB7988
	.uleb128 .LEHE233-.LEHB233
	.uleb128 0x0
	.uleb128 0x0
	.uleb128 .LEHB234-.LFB7988
	.uleb128 .LEHE234-.LEHB234
	.uleb128 .L1852-.LFB7988
	.uleb128 0x0
	.uleb128 .LEHB235-.LFB7988
	.uleb128 .LEHE235-.LEHB235
	.uleb128 0x0
	.uleb128 0x0
	.uleb128 .LEHB236-.LFB7988
	.uleb128 .LEHE236-.LEHB236
	.uleb128 0x0
	.uleb128 0x0
	.uleb128 .LEHB237-.LFB7988
	.uleb128 .LEHE237-.LEHB237
	.uleb128 .L1851-.LFB7988
	.uleb128 0x0
	.uleb128 .LEHB238-.LFB7988
	.uleb128 .LEHE238-.LEHB238
	.uleb128 0x0
	.uleb128 0x0
	.uleb128 .LEHB239-.LFB7988
	.uleb128 .LEHE239-.LEHB239
	.uleb128 .L1850-.LFB7988
	.uleb128 0x0
	.uleb128 .LEHB240-.LFB7988
	.uleb128 .LEHE240-.LEHB240
	.uleb128 0x0
	.uleb128 0x0
	.uleb128 .LEHB241-.LFB7988
	.uleb128 .LEHE241-.LEHB241
	.uleb128 .L1850-.LFB7988
	.uleb128 0x0
	.uleb128 .LEHB242-.LFB7988
	.uleb128 .LEHE242-.LEHB242
	.uleb128 0x0
	.uleb128 0x0
	.uleb128 .LEHB243-.LFB7988
	.uleb128 .LEHE243-.LEHB243
	.uleb128 0x0
	.uleb128 0x0
	.uleb128 .LEHB244-.LFB7988
	.uleb128 .LEHE244-.LEHB244
	.uleb128 .L1849-.LFB7988
	.uleb128 0x0
	.uleb128 .LEHB245-.LFB7988
	.uleb128 .LEHE245-.LEHB245
	.uleb128 0x0
	.uleb128 0x0
	.uleb128 .LEHB246-.LFB7988
	.uleb128 .LEHE246-.LEHB246
	.uleb128 .L1848-.LFB7988
	.uleb128 0x0
	.uleb128 .LEHB247-.LFB7988
	.uleb128 .LEHE247-.LEHB247
	.uleb128 0x0
	.uleb128 0x0
	.uleb128 .LEHB248-.LFB7988
	.uleb128 .LEHE248-.LEHB248
	.uleb128 .L1848-.LFB7988
	.uleb128 0x0
	.uleb128 .LEHB249-.LFB7988
	.uleb128 .LEHE249-.LEHB249
	.uleb128 0x0
	.uleb128 0x0
	.uleb128 .LEHB250-.LFB7988
	.uleb128 .LEHE250-.LEHB250
	.uleb128 0x0
	.uleb128 0x0
	.uleb128 .LEHB251-.LFB7988
	.uleb128 .LEHE251-.LEHB251
	.uleb128 .L1847-.LFB7988
	.uleb128 0x0
	.uleb128 .LEHB252-.LFB7988
	.uleb128 .LEHE252-.LEHB252
	.uleb128 0x0
	.uleb128 0x0
	.uleb128 .LEHB253-.LFB7988
	.uleb128 .LEHE253-.LEHB253
	.uleb128 0x0
	.uleb128 0x0
	.uleb128 .LEHB254-.LFB7988
	.uleb128 .LEHE254-.LEHB254
	.uleb128 .L1844-.LFB7988
	.uleb128 0x0
	.uleb128 .LEHB255-.LFB7988
	.uleb128 .LEHE255-.LEHB255
	.uleb128 .L1846-.LFB7988
	.uleb128 0x0
	.uleb128 .LEHB256-.LFB7988
	.uleb128 .LEHE256-.LEHB256
	.uleb128 .L1843-.LFB7988
	.uleb128 0x0
	.uleb128 .LEHB257-.LFB7988
	.uleb128 .LEHE257-.LEHB257
	.uleb128 .L1842-.LFB7988
	.uleb128 0x0
	.uleb128 .LEHB258-.LFB7988
	.uleb128 .LEHE258-.LEHB258
	.uleb128 .L1846-.LFB7988
	.uleb128 0x0
	.uleb128 .LEHB259-.LFB7988
	.uleb128 .LEHE259-.LEHB259
	.uleb128 .L1846-.LFB7988
	.uleb128 0x0
	.uleb128 .LEHB260-.LFB7988
	.uleb128 .LEHE260-.LEHB260
	.uleb128 .L1841-.LFB7988
	.uleb128 0x0
	.uleb128 .LEHB261-.LFB7988
	.uleb128 .LEHE261-.LEHB261
	.uleb128 .L1846-.LFB7988
	.uleb128 0x0
	.uleb128 .LEHB262-.LFB7988
	.uleb128 .LEHE262-.LEHB262
	.uleb128 0x0
	.uleb128 0x0
.LLSDACSE7988:
	.text
	.section	.text._Z8MoveFilePKcS0_,"axG",@progbits,_Z8MoveFilePKcS0_,comdat
	.align 2
	.weak	_Z8MoveFilePKcS0_
	.type	_Z8MoveFilePKcS0_, @function
_Z8MoveFilePKcS0_:
.LFB7766:
	pushq	%rbp
.LCFI1471:
	movq	%rsp, %rbp
.LCFI1472:
	subq	$16, %rsp
.LCFI1473:
	movq	%rdi, -8(%rbp)
	movq	%rsi, -16(%rbp)
	movq	-16(%rbp), %rsi
	movq	-8(%rbp), %rdi
	call	rename
	testl	%eax, %eax
	sete	%al
	movzbl	%al, %eax
	leave
	ret
.LFE7766:
	.size	_Z8MoveFilePKcS0_, .-_Z8MoveFilePKcS0_
	.section	.text._ZN3Upp12GetLastErrorEv,"axG",@progbits,_ZN3Upp12GetLastErrorEv,comdat
	.align 2
	.weak	_ZN3Upp12GetLastErrorEv
	.type	_ZN3Upp12GetLastErrorEv, @function
_ZN3Upp12GetLastErrorEv:
.LFB3813:
	pushq	%rbp
.LCFI1474:
	movq	%rsp, %rbp
.LCFI1475:
	call	__errno_location
	movl	(%rax), %eax
	leave
	ret
.LFE3813:
	.size	_ZN3Upp12GetLastErrorEv, .-_ZN3Upp12GetLastErrorEv
	.section	.text._ZN3Upp10DeleteFileEPKc,"axG",@progbits,_ZN3Upp10DeleteFileEPKc,comdat
	.align 2
	.weak	_ZN3Upp10DeleteFileEPKc
	.type	_ZN3Upp10DeleteFileEPKc, @function
_ZN3Upp10DeleteFileEPKc:
.LFB1619:
	pushq	%rbp
.LCFI1476:
	movq	%rsp, %rbp
.LCFI1477:
	subq	$16, %rsp
.LCFI1478:
	movq	%rdi, -8(%rbp)
	movq	-8(%rbp), %rdi
	call	unlink
	testl	%eax, %eax
	sete	%al
	movzbl	%al, %eax
	leave
	ret
.LFE1619:
	.size	_ZN3Upp10DeleteFileEPKc, .-_ZN3Upp10DeleteFileEPKc
	.section	.text._ZN3Upp9EditValueINS_7WStringENS_13ConvertStringEED2Ev,"axG",@progbits,_ZN3Upp9EditValueINS_7WStringENS_13ConvertStringEED2Ev,comdat
	.align 2
	.weak	_ZN3Upp9EditValueINS_7WStringENS_13ConvertStringEED2Ev
	.type	_ZN3Upp9EditValueINS_7WStringENS_13ConvertStringEED2Ev, @function
_ZN3Upp9EditValueINS_7WStringENS_13ConvertStringEED2Ev:
.LFB5673:
	pushq	%rbp
.LCFI1479:
	movq	%rsp, %rbp
.LCFI1480:
	subq	$16, %rsp
.LCFI1481:
	movq	%rdi, -8(%rbp)
	movl	$_ZTVN3Upp9EditValueINS_7WStringENS_13ConvertStringEEE+16, %edx
	movq	-8(%rbp), %rax
	movq	%rdx, (%rax)
	movl	$_ZTVN3Upp9EditValueINS_7WStringENS_13ConvertStringEEE+672, %edx
	movq	-8(%rbp), %rax
	movq	%rdx, 152(%rax)
	movl	$_ZTVN3Upp9EditValueINS_7WStringENS_13ConvertStringEEE+720, %edx
	movq	-8(%rbp), %rax
	movq	%rdx, 352(%rax)
	movl	$352, %eax
	addq	-8(%rbp), %rax
	movq	%rax, %rdi
	call	_ZN3Upp13ConvertStringD2Ev
	movq	-8(%rbp), %rdi
	call	_ZN3Upp9EditFieldD2Ev
	movl	$0, %eax
	testb	%al, %al
	je	.L1874
	movq	-8(%rbp), %rdi
	call	_ZdlPv
.L1874:
	leave
	ret
.LFE5673:
	.size	_ZN3Upp9EditValueINS_7WStringENS_13ConvertStringEED2Ev, .-_ZN3Upp9EditValueINS_7WStringENS_13ConvertStringEED2Ev
	.section	.text._ZN3Upp10EditStringD0Ev,"axG",@progbits,_ZN3Upp10EditStringD0Ev,comdat
	.align 2
	.weak	_ZThn352_N3Upp10EditStringD0Ev
	.type	_ZThn352_N3Upp10EditStringD0Ev, @function
_ZThn352_N3Upp10EditStringD0Ev:
	addq	$-352, %rdi
	jmp	.LTHUNK2
	.size	_ZThn352_N3Upp10EditStringD0Ev, .-_ZThn352_N3Upp10EditStringD0Ev
	.align 2
	.weak	_ZThn152_N3Upp10EditStringD0Ev
	.type	_ZThn152_N3Upp10EditStringD0Ev, @function
_ZThn152_N3Upp10EditStringD0Ev:
	addq	$-152, %rdi
	jmp	.LTHUNK3
	.size	_ZThn152_N3Upp10EditStringD0Ev, .-_ZThn152_N3Upp10EditStringD0Ev
	.align 2
	.weak	_ZN3Upp10EditStringD0Ev
	.type	_ZN3Upp10EditStringD0Ev, @function
_ZN3Upp10EditStringD0Ev:
.LFB5689:
	pushq	%rbp
.LCFI1482:
	movq	%rsp, %rbp
.LCFI1483:
	subq	$16, %rsp
.LCFI1484:
	movq	%rdi, -8(%rbp)
	movl	$_ZTVN3Upp10EditStringE+16, %edx
	movq	-8(%rbp), %rax
	movq	%rdx, (%rax)
	movl	$_ZTVN3Upp10EditStringE+672, %edx
	movq	-8(%rbp), %rax
	movq	%rdx, 152(%rax)
	movl	$_ZTVN3Upp10EditStringE+720, %edx
	movq	-8(%rbp), %rax
	movq	%rdx, 352(%rax)
	movq	-8(%rbp), %rdi
	call	_ZN3Upp9EditValueINS_7WStringENS_13ConvertStringEED2Ev
	movl	$1, %eax
	testb	%al, %al
	je	.L1879
	movq	-8(%rbp), %rdi
	call	_ZdlPv
.L1879:
	leave
	ret
.LFE5689:
	.size	_ZN3Upp10EditStringD0Ev, .-_ZN3Upp10EditStringD0Ev
	.section	.text._ZN3Upp10EditStringD1Ev,"axG",@progbits,_ZN3Upp10EditStringD1Ev,comdat
	.align 2
	.weak	_ZThn352_N3Upp10EditStringD1Ev
	.type	_ZThn352_N3Upp10EditStringD1Ev, @function
_ZThn352_N3Upp10EditStringD1Ev:
	addq	$-352, %rdi
	jmp	.LTHUNK4
	.size	_ZThn352_N3Upp10EditStringD1Ev, .-_ZThn352_N3Upp10EditStringD1Ev
	.align 2
	.weak	_ZThn152_N3Upp10EditStringD1Ev
	.type	_ZThn152_N3Upp10EditStringD1Ev, @function
_ZThn152_N3Upp10EditStringD1Ev:
	addq	$-152, %rdi
	jmp	.LTHUNK5
	.size	_ZThn152_N3Upp10EditStringD1Ev, .-_ZThn152_N3Upp10EditStringD1Ev
	.align 2
	.weak	_ZN3Upp10EditStringD1Ev
	.type	_ZN3Upp10EditStringD1Ev, @function
_ZN3Upp10EditStringD1Ev:
.LFB5688:
	pushq	%rbp
.LCFI1485:
	movq	%rsp, %rbp
.LCFI1486:
	subq	$16, %rsp
.LCFI1487:
	movq	%rdi, -8(%rbp)
	movl	$_ZTVN3Upp10EditStringE+16, %edx
	movq	-8(%rbp), %rax
	movq	%rdx, (%rax)
	movl	$_ZTVN3Upp10EditStringE+672, %edx
	movq	-8(%rbp), %rax
	movq	%rdx, 152(%rax)
	movl	$_ZTVN3Upp10EditStringE+720, %edx
	movq	-8(%rbp), %rax
	movq	%rdx, 352(%rax)
	movq	-8(%rbp), %rdi
	call	_ZN3Upp9EditValueINS_7WStringENS_13ConvertStringEED2Ev
	movl	$0, %eax
	testb	%al, %al
	je	.L1884
	movq	-8(%rbp), %rdi
	call	_ZdlPv
.L1884:
	leave
	ret
.LFE5688:
	.size	_ZN3Upp10EditStringD1Ev, .-_ZN3Upp10EditStringD1Ev
	.section	.text._ZN13WithTppLayoutIN3Upp9TopWindowEED0Ev,"axG",@progbits,_ZN13WithTppLayoutIN3Upp9TopWindowEED0Ev,comdat
	.align 2
	.weak	_ZN13WithTppLayoutIN3Upp9TopWindowEED0Ev
	.type	_ZN13WithTppLayoutIN3Upp9TopWindowEED0Ev, @function
_ZN13WithTppLayoutIN3Upp9TopWindowEED0Ev:
.LFB7968:
	pushq	%rbp
.LCFI1488:
	movq	%rsp, %rbp
.LCFI1489:
	pushq	%rbx
.LCFI1490:
	subq	$72, %rsp
.LCFI1491:
	movq	%rdi, -16(%rbp)
	movl	$_ZTV13WithTppLayoutIN3Upp9TopWindowEE+16, %eax
	movq	-16(%rbp), %rdx
	movq	%rax, (%rdx)
	movq	-16(%rbp), %rdi
	addq	$5160, %rdi
.LEHB263:
	call	_ZN3Upp6ButtonD1Ev
.LEHE263:
	movq	-16(%rbp), %rax
	addq	$4936, %rax
	movq	%rax, -64(%rbp)
	movq	-64(%rbp), %rdi
.LEHB264:
	call	_ZN3Upp6ButtonD1Ev
.LEHE264:
	jmp	.L1886
.L1901:
	movq	%rax, -72(%rbp)
.L1887:
	movq	-72(%rbp), %rbx
	movq	-16(%rbp), %rax
	addq	$4936, %rax
	movq	%rax, -64(%rbp)
	movq	-64(%rbp), %rdi
	call	_ZN3Upp6ButtonD1Ev
	movq	%rbx, -72(%rbp)
	jmp	.L1889
.L1886:
	movq	-16(%rbp), %rax
	addq	$4656, %rax
	movq	%rax, -56(%rbp)
	movq	-56(%rbp), %rdi
.LEHB265:
	call	_ZN3Upp5LabelD1Ev
.LEHE265:
	jmp	.L1888
.L1902:
	movq	%rax, -72(%rbp)
.L1889:
	movq	-72(%rbp), %rbx
	movq	-16(%rbp), %rax
	addq	$4656, %rax
	movq	%rax, -56(%rbp)
	movq	-56(%rbp), %rdi
	call	_ZN3Upp5LabelD1Ev
	movq	%rbx, -72(%rbp)
	jmp	.L1891
.L1888:
	movq	-16(%rbp), %rax
	addq	$4288, %rax
	movq	%rax, -48(%rbp)
	movq	-48(%rbp), %rdi
.LEHB266:
	call	_ZN3Upp10EditStringD1Ev
.LEHE266:
	jmp	.L1890
.L1903:
	movq	%rax, -72(%rbp)
.L1891:
	movq	-72(%rbp), %rbx
	movq	-16(%rbp), %rax
	addq	$4288, %rax
	movq	%rax, -48(%rbp)
	movq	-48(%rbp), %rdi
	call	_ZN3Upp10EditStringD1Ev
	movq	%rbx, -72(%rbp)
	jmp	.L1893
.L1890:
	movq	-16(%rbp), %rax
	addq	$4008, %rax
	movq	%rax, -40(%rbp)
	movq	-40(%rbp), %rdi
.LEHB267:
	call	_ZN3Upp5LabelD1Ev
.LEHE267:
	jmp	.L1892
.L1904:
	movq	%rax, -72(%rbp)
.L1893:
	movq	-72(%rbp), %rbx
	movq	-16(%rbp), %rax
	addq	$4008, %rax
	movq	%rax, -40(%rbp)
	movq	-40(%rbp), %rdi
	call	_ZN3Upp5LabelD1Ev
	movq	%rbx, -72(%rbp)
	jmp	.L1895
.L1892:
	movq	-16(%rbp), %rax
	addq	$376, %rax
	movq	%rax, -32(%rbp)
	movq	-32(%rbp), %rdi
.LEHB268:
	call	_ZN3Upp9ArrayCtrlD1Ev
.LEHE268:
	jmp	.L1894
.L1905:
	movq	%rax, -72(%rbp)
.L1895:
	movq	-72(%rbp), %rbx
	movq	-16(%rbp), %rax
	addq	$376, %rax
	movq	%rax, -32(%rbp)
	movq	-32(%rbp), %rdi
	call	_ZN3Upp9ArrayCtrlD1Ev
	movq	%rbx, -72(%rbp)
	jmp	.L1897
.L1894:
	movq	-16(%rbp), %rax
	movq	%rax, -24(%rbp)
	movq	-24(%rbp), %rdi
.LEHB269:
	call	_ZN3Upp9TopWindowD2Ev
.LEHE269:
	jmp	.L1896
.L1906:
	movq	%rax, -72(%rbp)
.L1897:
	movq	-72(%rbp), %rbx
	movq	-16(%rbp), %rax
	movq	%rax, -24(%rbp)
	movq	-24(%rbp), %rdi
	call	_ZN3Upp9TopWindowD2Ev
	movq	%rbx, -72(%rbp)
	movq	-72(%rbp), %rdi
.LEHB270:
	call	_Unwind_Resume
.LEHE270:
.L1896:
	movl	$1, %eax
	testb	%al, %al
	je	.L1900
	movq	-16(%rbp), %rdi
	call	_ZdlPv
.L1900:
	addq	$72, %rsp
	popq	%rbx
	leave
	ret
.LFE7968:
	.size	_ZN13WithTppLayoutIN3Upp9TopWindowEED0Ev, .-_ZN13WithTppLayoutIN3Upp9TopWindowEED0Ev
	.section	.gcc_except_table
.LLSDA7968:
	.byte	0xff
	.byte	0xff
	.byte	0x1
	.uleb128 .LLSDACSE7968-.LLSDACSB7968
.LLSDACSB7968:
	.uleb128 .LEHB263-.LFB7968
	.uleb128 .LEHE263-.LEHB263
	.uleb128 .L1901-.LFB7968
	.uleb128 0x0
	.uleb128 .LEHB264-.LFB7968
	.uleb128 .LEHE264-.LEHB264
	.uleb128 .L1902-.LFB7968
	.uleb128 0x0
	.uleb128 .LEHB265-.LFB7968
	.uleb128 .LEHE265-.LEHB265
	.uleb128 .L1903-.LFB7968
	.uleb128 0x0
	.uleb128 .LEHB266-.LFB7968
	.uleb128 .LEHE266-.LEHB266
	.uleb128 .L1904-.LFB7968
	.uleb128 0x0
	.uleb128 .LEHB267-.LFB7968
	.uleb128 .LEHE267-.LEHB267
	.uleb128 .L1905-.LFB7968
	.uleb128 0x0
	.uleb128 .LEHB268-.LFB7968
	.uleb128 .LEHE268-.LEHB268
	.uleb128 .L1906-.LFB7968
	.uleb128 0x0
	.uleb128 .LEHB269-.LFB7968
	.uleb128 .LEHE269-.LEHB269
	.uleb128 0x0
	.uleb128 0x0
	.uleb128 .LEHB270-.LFB7968
	.uleb128 .LEHE270-.LEHB270
	.uleb128 0x0
	.uleb128 0x0
.LLSDACSE7968:
	.section	.text._ZN13WithTppLayoutIN3Upp9TopWindowEED0Ev,"axG",@progbits,_ZN13WithTppLayoutIN3Upp9TopWindowEED0Ev,comdat
	.section	.text._ZN13WithTppLayoutIN3Upp9TopWindowEED1Ev,"axG",@progbits,_ZN13WithTppLayoutIN3Upp9TopWindowEED1Ev,comdat
	.align 2
	.weak	_ZN13WithTppLayoutIN3Upp9TopWindowEED1Ev
	.type	_ZN13WithTppLayoutIN3Upp9TopWindowEED1Ev, @function
_ZN13WithTppLayoutIN3Upp9TopWindowEED1Ev:
.LFB7967:
	pushq	%rbp
.LCFI1492:
	movq	%rsp, %rbp
.LCFI1493:
	pushq	%rbx
.LCFI1494:
	subq	$72, %rsp
.LCFI1495:
	movq	%rdi, -16(%rbp)
	movl	$_ZTV13WithTppLayoutIN3Upp9TopWindowEE+16, %eax
	movq	-16(%rbp), %rdx
	movq	%rax, (%rdx)
	movq	-16(%rbp), %rdi
	addq	$5160, %rdi
.LEHB271:
	call	_ZN3Upp6ButtonD1Ev
.LEHE271:
	movq	-16(%rbp), %rax
	addq	$4936, %rax
	movq	%rax, -64(%rbp)
	movq	-64(%rbp), %rdi
.LEHB272:
	call	_ZN3Upp6ButtonD1Ev
.LEHE272:
	jmp	.L1908
.L1923:
	movq	%rax, -72(%rbp)
.L1909:
	movq	-72(%rbp), %rbx
	movq	-16(%rbp), %rax
	addq	$4936, %rax
	movq	%rax, -64(%rbp)
	movq	-64(%rbp), %rdi
	call	_ZN3Upp6ButtonD1Ev
	movq	%rbx, -72(%rbp)
	jmp	.L1911
.L1908:
	movq	-16(%rbp), %rax
	addq	$4656, %rax
	movq	%rax, -56(%rbp)
	movq	-56(%rbp), %rdi
.LEHB273:
	call	_ZN3Upp5LabelD1Ev
.LEHE273:
	jmp	.L1910
.L1924:
	movq	%rax, -72(%rbp)
.L1911:
	movq	-72(%rbp), %rbx
	movq	-16(%rbp), %rax
	addq	$4656, %rax
	movq	%rax, -56(%rbp)
	movq	-56(%rbp), %rdi
	call	_ZN3Upp5LabelD1Ev
	movq	%rbx, -72(%rbp)
	jmp	.L1913
.L1910:
	movq	-16(%rbp), %rax
	addq	$4288, %rax
	movq	%rax, -48(%rbp)
	movq	-48(%rbp), %rdi
.LEHB274:
	call	_ZN3Upp10EditStringD1Ev
.LEHE274:
	jmp	.L1912
.L1925:
	movq	%rax, -72(%rbp)
.L1913:
	movq	-72(%rbp), %rbx
	movq	-16(%rbp), %rax
	addq	$4288, %rax
	movq	%rax, -48(%rbp)
	movq	-48(%rbp), %rdi
	call	_ZN3Upp10EditStringD1Ev
	movq	%rbx, -72(%rbp)
	jmp	.L1915
.L1912:
	movq	-16(%rbp), %rax
	addq	$4008, %rax
	movq	%rax, -40(%rbp)
	movq	-40(%rbp), %rdi
.LEHB275:
	call	_ZN3Upp5LabelD1Ev
.LEHE275:
	jmp	.L1914
.L1926:
	movq	%rax, -72(%rbp)
.L1915:
	movq	-72(%rbp), %rbx
	movq	-16(%rbp), %rax
	addq	$4008, %rax
	movq	%rax, -40(%rbp)
	movq	-40(%rbp), %rdi
	call	_ZN3Upp5LabelD1Ev
	movq	%rbx, -72(%rbp)
	jmp	.L1917
.L1914:
	movq	-16(%rbp), %rax
	addq	$376, %rax
	movq	%rax, -32(%rbp)
	movq	-32(%rbp), %rdi
.LEHB276:
	call	_ZN3Upp9ArrayCtrlD1Ev
.LEHE276:
	jmp	.L1916
.L1927:
	movq	%rax, -72(%rbp)
.L1917:
	movq	-72(%rbp), %rbx
	movq	-16(%rbp), %rax
	addq	$376, %rax
	movq	%rax, -32(%rbp)
	movq	-32(%rbp), %rdi
	call	_ZN3Upp9ArrayCtrlD1Ev
	movq	%rbx, -72(%rbp)
	jmp	.L1919
.L1916:
	movq	-16(%rbp), %rax
	movq	%rax, -24(%rbp)
	movq	-24(%rbp), %rdi
.LEHB277:
	call	_ZN3Upp9TopWindowD2Ev
.LEHE277:
	jmp	.L1918
.L1928:
	movq	%rax, -72(%rbp)
.L1919:
	movq	-72(%rbp), %rbx
	movq	-16(%rbp), %rax
	movq	%rax, -24(%rbp)
	movq	-24(%rbp), %rdi
	call	_ZN3Upp9TopWindowD2Ev
	movq	%rbx, -72(%rbp)
	movq	-72(%rbp), %rdi
.LEHB278:
	call	_Unwind_Resume
.LEHE278:
.L1918:
	movl	$0, %eax
	testb	%al, %al
	je	.L1922
	movq	-16(%rbp), %rdi
	call	_ZdlPv
.L1922:
	addq	$72, %rsp
	popq	%rbx
	leave
	ret
.LFE7967:
	.size	_ZN13WithTppLayoutIN3Upp9TopWindowEED1Ev, .-_ZN13WithTppLayoutIN3Upp9TopWindowEED1Ev
	.section	.gcc_except_table
.LLSDA7967:
	.byte	0xff
	.byte	0xff
	.byte	0x1
	.uleb128 .LLSDACSE7967-.LLSDACSB7967
.LLSDACSB7967:
	.uleb128 .LEHB271-.LFB7967
	.uleb128 .LEHE271-.LEHB271
	.uleb128 .L1923-.LFB7967
	.uleb128 0x0
	.uleb128 .LEHB272-.LFB7967
	.uleb128 .LEHE272-.LEHB272
	.uleb128 .L1924-.LFB7967
	.uleb128 0x0
	.uleb128 .LEHB273-.LFB7967
	.uleb128 .LEHE273-.LEHB273
	.uleb128 .L1925-.LFB7967
	.uleb128 0x0
	.uleb128 .LEHB274-.LFB7967
	.uleb128 .LEHE274-.LEHB274
	.uleb128 .L1926-.LFB7967
	.uleb128 0x0
	.uleb128 .LEHB275-.LFB7967
	.uleb128 .LEHE275-.LEHB275
	.uleb128 .L1927-.LFB7967
	.uleb128 0x0
	.uleb128 .LEHB276-.LFB7967
	.uleb128 .LEHE276-.LEHB276
	.uleb128 .L1928-.LFB7967
	.uleb128 0x0
	.uleb128 .LEHB277-.LFB7967
	.uleb128 .LEHE277-.LEHB277
	.uleb128 0x0
	.uleb128 0x0
	.uleb128 .LEHB278-.LFB7967
	.uleb128 .LEHE278-.LEHB278
	.uleb128 0x0
	.uleb128 0x0
.LLSDACSE7967:
	.section	.text._ZN13WithTppLayoutIN3Upp9TopWindowEED1Ev,"axG",@progbits,_ZN13WithTppLayoutIN3Upp9TopWindowEED1Ev,comdat
	.section	.text._ZN13WithTppLayoutIN3Upp9TopWindowEED2Ev,"axG",@progbits,_ZN13WithTppLayoutIN3Upp9TopWindowEED2Ev,comdat
	.align 2
	.weak	_ZN13WithTppLayoutIN3Upp9TopWindowEED2Ev
	.type	_ZN13WithTppLayoutIN3Upp9TopWindowEED2Ev, @function
_ZN13WithTppLayoutIN3Upp9TopWindowEED2Ev:
.LFB7966:
	pushq	%rbp
.LCFI1496:
	movq	%rsp, %rbp
.LCFI1497:
	pushq	%rbx
.LCFI1498:
	subq	$72, %rsp
.LCFI1499:
	movq	%rdi, -16(%rbp)
	movl	$_ZTV13WithTppLayoutIN3Upp9TopWindowEE+16, %eax
	movq	-16(%rbp), %rdx
	movq	%rax, (%rdx)
	movq	-16(%rbp), %rdi
	addq	$5160, %rdi
.LEHB279:
	call	_ZN3Upp6ButtonD1Ev
.LEHE279:
	movq	-16(%rbp), %rax
	addq	$4936, %rax
	movq	%rax, -64(%rbp)
	movq	-64(%rbp), %rdi
.LEHB280:
	call	_ZN3Upp6ButtonD1Ev
.LEHE280:
	jmp	.L1930
.L1945:
	movq	%rax, -72(%rbp)
.L1931:
	movq	-72(%rbp), %rbx
	movq	-16(%rbp), %rax
	addq	$4936, %rax
	movq	%rax, -64(%rbp)
	movq	-64(%rbp), %rdi
	call	_ZN3Upp6ButtonD1Ev
	movq	%rbx, -72(%rbp)
	jmp	.L1933
.L1930:
	movq	-16(%rbp), %rax
	addq	$4656, %rax
	movq	%rax, -56(%rbp)
	movq	-56(%rbp), %rdi
.LEHB281:
	call	_ZN3Upp5LabelD1Ev
.LEHE281:
	jmp	.L1932
.L1946:
	movq	%rax, -72(%rbp)
.L1933:
	movq	-72(%rbp), %rbx
	movq	-16(%rbp), %rax
	addq	$4656, %rax
	movq	%rax, -56(%rbp)
	movq	-56(%rbp), %rdi
	call	_ZN3Upp5LabelD1Ev
	movq	%rbx, -72(%rbp)
	jmp	.L1935
.L1932:
	movq	-16(%rbp), %rax
	addq	$4288, %rax
	movq	%rax, -48(%rbp)
	movq	-48(%rbp), %rdi
.LEHB282:
	call	_ZN3Upp10EditStringD1Ev
.LEHE282:
	jmp	.L1934
.L1947:
	movq	%rax, -72(%rbp)
.L1935:
	movq	-72(%rbp), %rbx
	movq	-16(%rbp), %rax
	addq	$4288, %rax
	movq	%rax, -48(%rbp)
	movq	-48(%rbp), %rdi
	call	_ZN3Upp10EditStringD1Ev
	movq	%rbx, -72(%rbp)
	jmp	.L1937
.L1934:
	movq	-16(%rbp), %rax
	addq	$4008, %rax
	movq	%rax, -40(%rbp)
	movq	-40(%rbp), %rdi
.LEHB283:
	call	_ZN3Upp5LabelD1Ev
.LEHE283:
	jmp	.L1936
.L1948:
	movq	%rax, -72(%rbp)
.L1937:
	movq	-72(%rbp), %rbx
	movq	-16(%rbp), %rax
	addq	$4008, %rax
	movq	%rax, -40(%rbp)
	movq	-40(%rbp), %rdi
	call	_ZN3Upp5LabelD1Ev
	movq	%rbx, -72(%rbp)
	jmp	.L1939
.L1936:
	movq	-16(%rbp), %rax
	addq	$376, %rax
	movq	%rax, -32(%rbp)
	movq	-32(%rbp), %rdi
.LEHB284:
	call	_ZN3Upp9ArrayCtrlD1Ev
.LEHE284:
	jmp	.L1938
.L1949:
	movq	%rax, -72(%rbp)
.L1939:
	movq	-72(%rbp), %rbx
	movq	-16(%rbp), %rax
	addq	$376, %rax
	movq	%rax, -32(%rbp)
	movq	-32(%rbp), %rdi
	call	_ZN3Upp9ArrayCtrlD1Ev
	movq	%rbx, -72(%rbp)
	jmp	.L1941
.L1938:
	movq	-16(%rbp), %rax
	movq	%rax, -24(%rbp)
	movq	-24(%rbp), %rdi
.LEHB285:
	call	_ZN3Upp9TopWindowD2Ev
.LEHE285:
	jmp	.L1940
.L1950:
	movq	%rax, -72(%rbp)
.L1941:
	movq	-72(%rbp), %rbx
	movq	-16(%rbp), %rax
	movq	%rax, -24(%rbp)
	movq	-24(%rbp), %rdi
	call	_ZN3Upp9TopWindowD2Ev
	movq	%rbx, -72(%rbp)
	movq	-72(%rbp), %rdi
.LEHB286:
	call	_Unwind_Resume
.LEHE286:
.L1940:
	movl	$0, %eax
	testb	%al, %al
	je	.L1944
	movq	-16(%rbp), %rdi
	call	_ZdlPv
.L1944:
	addq	$72, %rsp
	popq	%rbx
	leave
	ret
.LFE7966:
	.size	_ZN13WithTppLayoutIN3Upp9TopWindowEED2Ev, .-_ZN13WithTppLayoutIN3Upp9TopWindowEED2Ev
	.section	.gcc_except_table
.LLSDA7966:
	.byte	0xff
	.byte	0xff
	.byte	0x1
	.uleb128 .LLSDACSE7966-.LLSDACSB7966
.LLSDACSB7966:
	.uleb128 .LEHB279-.LFB7966
	.uleb128 .LEHE279-.LEHB279
	.uleb128 .L1945-.LFB7966
	.uleb128 0x0
	.uleb128 .LEHB280-.LFB7966
	.uleb128 .LEHE280-.LEHB280
	.uleb128 .L1946-.LFB7966
	.uleb128 0x0
	.uleb128 .LEHB281-.LFB7966
	.uleb128 .LEHE281-.LEHB281
	.uleb128 .L1947-.LFB7966
	.uleb128 0x0
	.uleb128 .LEHB282-.LFB7966
	.uleb128 .LEHE282-.LEHB282
	.uleb128 .L1948-.LFB7966
	.uleb128 0x0
	.uleb128 .LEHB283-.LFB7966
	.uleb128 .LEHE283-.LEHB283
	.uleb128 .L1949-.LFB7966
	.uleb128 0x0
	.uleb128 .LEHB284-.LFB7966
	.uleb128 .LEHE284-.LEHB284
	.uleb128 .L1950-.LFB7966
	.uleb128 0x0
	.uleb128 .LEHB285-.LFB7966
	.uleb128 .LEHE285-.LEHB285
	.uleb128 0x0
	.uleb128 0x0
	.uleb128 .LEHB286-.LFB7966
	.uleb128 .LEHE286-.LEHB286
	.uleb128 0x0
	.uleb128 0x0
.LLSDACSE7966:
	.section	.text._ZN13WithTppLayoutIN3Upp9TopWindowEED2Ev,"axG",@progbits,_ZN13WithTppLayoutIN3Upp9TopWindowEED2Ev,comdat
	.section	.text._ZN3TppD0Ev,"axG",@progbits,_ZN3TppD0Ev,comdat
	.align 2
	.weak	_ZN3TppD0Ev
	.type	_ZN3TppD0Ev, @function
_ZN3TppD0Ev:
.LFB7975:
	pushq	%rbp
.LCFI1500:
	movq	%rsp, %rbp
.LCFI1501:
	subq	$16, %rsp
.LCFI1502:
	movq	%rdi, -8(%rbp)
	movl	$_ZTV3Tpp+16, %edx
	movq	-8(%rbp), %rax
	movq	%rdx, (%rax)
	movq	-8(%rbp), %rdi
	call	_ZN13WithTppLayoutIN3Upp9TopWindowEED2Ev
	movl	$1, %eax
	testb	%al, %al
	je	.L1955
	movq	-8(%rbp), %rdi
	call	_ZdlPv
.L1955:
	leave
	ret
.LFE7975:
	.size	_ZN3TppD0Ev, .-_ZN3TppD0Ev
	.section	.text._ZN3TppD1Ev,"axG",@progbits,_ZN3TppD1Ev,comdat
	.align 2
	.weak	_ZN3TppD1Ev
	.type	_ZN3TppD1Ev, @function
_ZN3TppD1Ev:
.LFB7974:
	pushq	%rbp
.LCFI1503:
	movq	%rsp, %rbp
.LCFI1504:
	subq	$16, %rsp
.LCFI1505:
	movq	%rdi, -8(%rbp)
	movl	$_ZTV3Tpp+16, %edx
	movq	-8(%rbp), %rax
	movq	%rdx, (%rax)
	movq	-8(%rbp), %rdi
	call	_ZN13WithTppLayoutIN3Upp9TopWindowEED2Ev
	movl	$0, %eax
	testb	%al, %al
	je	.L1960
	movq	-8(%rbp), %rdi
	call	_ZdlPv
.L1960:
	leave
	ret
.LFE7974:
	.size	_ZN3TppD1Ev, .-_ZN3TppD1Ev
	.section	.text._ZN3Upp9EditValueINS_7WStringENS_13ConvertStringEED0Ev,"axG",@progbits,_ZN3Upp9EditValueINS_7WStringENS_13ConvertStringEED0Ev,comdat
	.align 2
	.weak	_ZThn352_N3Upp9EditValueINS_7WStringENS_13ConvertStringEED0Ev
	.type	_ZThn352_N3Upp9EditValueINS_7WStringENS_13ConvertStringEED0Ev, @function
_ZThn352_N3Upp9EditValueINS_7WStringENS_13ConvertStringEED0Ev:
	addq	$-352, %rdi
	jmp	.LTHUNK6
	.size	_ZThn352_N3Upp9EditValueINS_7WStringENS_13ConvertStringEED0Ev, .-_ZThn352_N3Upp9EditValueINS_7WStringENS_13ConvertStringEED0Ev
	.align 2
	.weak	_ZThn152_N3Upp9EditValueINS_7WStringENS_13ConvertStringEED0Ev
	.type	_ZThn152_N3Upp9EditValueINS_7WStringENS_13ConvertStringEED0Ev, @function
_ZThn152_N3Upp9EditValueINS_7WStringENS_13ConvertStringEED0Ev:
	addq	$-152, %rdi
	jmp	.LTHUNK7
	.size	_ZThn152_N3Upp9EditValueINS_7WStringENS_13ConvertStringEED0Ev, .-_ZThn152_N3Upp9EditValueINS_7WStringENS_13ConvertStringEED0Ev
	.align 2
	.weak	_ZN3Upp9EditValueINS_7WStringENS_13ConvertStringEED0Ev
	.type	_ZN3Upp9EditValueINS_7WStringENS_13ConvertStringEED0Ev, @function
_ZN3Upp9EditValueINS_7WStringENS_13ConvertStringEED0Ev:
.LFB5675:
	pushq	%rbp
.LCFI1506:
	movq	%rsp, %rbp
.LCFI1507:
	subq	$16, %rsp
.LCFI1508:
	movq	%rdi, -8(%rbp)
	movl	$_ZTVN3Upp9EditValueINS_7WStringENS_13ConvertStringEEE+16, %edx
	movq	-8(%rbp), %rax
	movq	%rdx, (%rax)
	movl	$_ZTVN3Upp9EditValueINS_7WStringENS_13ConvertStringEEE+672, %edx
	movq	-8(%rbp), %rax
	movq	%rdx, 152(%rax)
	movl	$_ZTVN3Upp9EditValueINS_7WStringENS_13ConvertStringEEE+720, %edx
	movq	-8(%rbp), %rax
	movq	%rdx, 352(%rax)
	movl	$352, %eax
	addq	-8(%rbp), %rax
	movq	%rax, %rdi
	call	_ZN3Upp13ConvertStringD2Ev
	movq	-8(%rbp), %rdi
	call	_ZN3Upp9EditFieldD2Ev
	movl	$1, %eax
	testb	%al, %al
	je	.L1965
	movq	-8(%rbp), %rdi
	call	_ZdlPv
.L1965:
	leave
	ret
.LFE5675:
	.size	_ZN3Upp9EditValueINS_7WStringENS_13ConvertStringEED0Ev, .-_ZN3Upp9EditValueINS_7WStringENS_13ConvertStringEED0Ev
	.section	.text._ZN3Upp9EditValueINS_7WStringENS_13ConvertStringEED1Ev,"axG",@progbits,_ZN3Upp9EditValueINS_7WStringENS_13ConvertStringEED1Ev,comdat
	.align 2
	.weak	_ZThn352_N3Upp9EditValueINS_7WStringENS_13ConvertStringEED1Ev
	.type	_ZThn352_N3Upp9EditValueINS_7WStringENS_13ConvertStringEED1Ev, @function
_ZThn352_N3Upp9EditValueINS_7WStringENS_13ConvertStringEED1Ev:
	addq	$-352, %rdi
	jmp	.LTHUNK8
	.size	_ZThn352_N3Upp9EditValueINS_7WStringENS_13ConvertStringEED1Ev, .-_ZThn352_N3Upp9EditValueINS_7WStringENS_13ConvertStringEED1Ev
	.align 2
	.weak	_ZThn152_N3Upp9EditValueINS_7WStringENS_13ConvertStringEED1Ev
	.type	_ZThn152_N3Upp9EditValueINS_7WStringENS_13ConvertStringEED1Ev, @function
_ZThn152_N3Upp9EditValueINS_7WStringENS_13ConvertStringEED1Ev:
	addq	$-152, %rdi
	jmp	.LTHUNK9
	.size	_ZThn152_N3Upp9EditValueINS_7WStringENS_13ConvertStringEED1Ev, .-_ZThn152_N3Upp9EditValueINS_7WStringENS_13ConvertStringEED1Ev
	.align 2
	.weak	_ZN3Upp9EditValueINS_7WStringENS_13ConvertStringEED1Ev
	.type	_ZN3Upp9EditValueINS_7WStringENS_13ConvertStringEED1Ev, @function
_ZN3Upp9EditValueINS_7WStringENS_13ConvertStringEED1Ev:
.LFB5674:
	pushq	%rbp
.LCFI1509:
	movq	%rsp, %rbp
.LCFI1510:
	subq	$16, %rsp
.LCFI1511:
	movq	%rdi, -8(%rbp)
	movl	$_ZTVN3Upp9EditValueINS_7WStringENS_13ConvertStringEEE+16, %edx
	movq	-8(%rbp), %rax
	movq	%rdx, (%rax)
	movl	$_ZTVN3Upp9EditValueINS_7WStringENS_13ConvertStringEEE+672, %edx
	movq	-8(%rbp), %rax
	movq	%rdx, 152(%rax)
	movl	$_ZTVN3Upp9EditValueINS_7WStringENS_13ConvertStringEEE+720, %edx
	movq	-8(%rbp), %rax
	movq	%rdx, 352(%rax)
	movl	$352, %eax
	addq	-8(%rbp), %rax
	movq	%rax, %rdi
	call	_ZN3Upp13ConvertStringD2Ev
	movq	-8(%rbp), %rdi
	call	_ZN3Upp9EditFieldD2Ev
	movl	$0, %eax
	testb	%al, %al
	je	.L1970
	movq	-8(%rbp), %rdi
	call	_ZdlPv
.L1970:
	leave
	ret
.LFE5674:
	.size	_ZN3Upp9EditValueINS_7WStringENS_13ConvertStringEED1Ev, .-_ZN3Upp9EditValueINS_7WStringENS_13ConvertStringEED1Ev
	.section	.text._ZN3Upp9EditValueINS_7WStringENS_13ConvertStringEEC2Ev,"axG",@progbits,_ZN3Upp9EditValueINS_7WStringENS_13ConvertStringEEC2Ev,comdat
	.align 2
	.weak	_ZN3Upp9EditValueINS_7WStringENS_13ConvertStringEEC2Ev
	.type	_ZN3Upp9EditValueINS_7WStringENS_13ConvertStringEEC2Ev, @function
_ZN3Upp9EditValueINS_7WStringENS_13ConvertStringEEC2Ev:
.LFB8491:
	pushq	%rbp
.LCFI1512:
	movq	%rsp, %rbp
.LCFI1513:
	subq	$16, %rsp
.LCFI1514:
	movq	%rdi, -8(%rbp)
	movq	-8(%rbp), %rdi
	call	_ZN3Upp9EditFieldC2Ev
	movq	-8(%rbp), %rdi
	addq	$352, %rdi
	movl	$0, %edx
	movl	$2147483647, %esi
	call	_ZN3Upp13ConvertStringC2Eib
	movl	$_ZTVN3Upp9EditValueINS_7WStringENS_13ConvertStringEEE+16, %edx
	movq	-8(%rbp), %rax
	movq	%rdx, (%rax)
	movl	$_ZTVN3Upp9EditValueINS_7WStringENS_13ConvertStringEEE+672, %edx
	movq	-8(%rbp), %rax
	movq	%rdx, 152(%rax)
	movl	$_ZTVN3Upp9EditValueINS_7WStringENS_13ConvertStringEEE+720, %edx
	movq	-8(%rbp), %rax
	movq	%rdx, 352(%rax)
	movq	-8(%rbp), %rsi
	addq	$352, %rsi
	movq	-8(%rbp), %rdi
	call	_ZN3Upp9EditField10SetConvertERKNS_7ConvertE
	leave
	ret
.LFE8491:
	.size	_ZN3Upp9EditValueINS_7WStringENS_13ConvertStringEEC2Ev, .-_ZN3Upp9EditValueINS_7WStringENS_13ConvertStringEEC2Ev
	.section	.text._ZN3Upp10EditStringC1Ev,"axG",@progbits,_ZN3Upp10EditStringC1Ev,comdat
	.align 2
	.weak	_ZN3Upp10EditStringC1Ev
	.type	_ZN3Upp10EditStringC1Ev, @function
_ZN3Upp10EditStringC1Ev:
.LFB5677:
	pushq	%rbp
.LCFI1515:
	movq	%rsp, %rbp
.LCFI1516:
	subq	$16, %rsp
.LCFI1517:
	movq	%rdi, -8(%rbp)
	movq	-8(%rbp), %rdi
	call	_ZN3Upp9EditValueINS_7WStringENS_13ConvertStringEEC2Ev
	movl	$_ZTVN3Upp10EditStringE+16, %edx
	movq	-8(%rbp), %rax
	movq	%rdx, (%rax)
	movl	$_ZTVN3Upp10EditStringE+672, %edx
	movq	-8(%rbp), %rax
	movq	%rdx, 152(%rax)
	movl	$_ZTVN3Upp10EditStringE+720, %edx
	movq	-8(%rbp), %rax
	movq	%rdx, 352(%rax)
	leave
	ret
.LFE5677:
	.size	_ZN3Upp10EditStringC1Ev, .-_ZN3Upp10EditStringC1Ev
	.section	.text._ZN13WithTppLayoutIN3Upp9TopWindowEEC2Ev,"axG",@progbits,_ZN13WithTppLayoutIN3Upp9TopWindowEEC2Ev,comdat
	.align 2
	.weak	_ZN13WithTppLayoutIN3Upp9TopWindowEEC2Ev
	.type	_ZN13WithTppLayoutIN3Upp9TopWindowEEC2Ev, @function
_ZN13WithTppLayoutIN3Upp9TopWindowEEC2Ev:
.LFB7963:
	pushq	%rbp
.LCFI1518:
	movq	%rsp, %rbp
.LCFI1519:
	pushq	%rbx
.LCFI1520:
	subq	$24, %rsp
.LCFI1521:
	movq	%rdi, -16(%rbp)
	movq	-16(%rbp), %rdi
.LEHB287:
	call	_ZN3Upp9TopWindowC2Ev
.LEHE287:
	movq	-16(%rbp), %rdi
	call	_ZN16TppLayout__layidC2Ev
	movl	$_ZTV13WithTppLayoutIN3Upp9TopWindowEE+16, %edx
	movq	-16(%rbp), %rax
	movq	%rdx, (%rax)
	movq	-16(%rbp), %rdi
	addq	$376, %rdi
.LEHB288:
	call	_ZN3Upp9ArrayCtrlC1Ev
.LEHE288:
	movq	-16(%rbp), %rdi
	addq	$4008, %rdi
.LEHB289:
	call	_ZN3Upp5LabelC1Ev
.LEHE289:
	movq	-16(%rbp), %rdi
	addq	$4288, %rdi
.LEHB290:
	call	_ZN3Upp10EditStringC1Ev
.LEHE290:
	movq	-16(%rbp), %rdi
	addq	$4656, %rdi
.LEHB291:
	call	_ZN3Upp5LabelC1Ev
.LEHE291:
	movq	-16(%rbp), %rdi
	addq	$4936, %rdi
.LEHB292:
	call	_ZN3Upp6ButtonC1Ev
.LEHE292:
	movq	-16(%rbp), %rdi
	addq	$5160, %rdi
.LEHB293:
	call	_ZN3Upp6ButtonC1Ev
.LEHE293:
	jmp	.L1982
.L1983:
	movq	%rax, -24(%rbp)
.L1976:
	movq	-24(%rbp), %rbx
	movq	-16(%rbp), %rdi
	addq	$4936, %rdi
	call	_ZN3Upp6ButtonD1Ev
	movq	%rbx, -24(%rbp)
	jmp	.L1977
.L1984:
	movq	%rax, -24(%rbp)
.L1977:
	movq	-24(%rbp), %rbx
	movq	-16(%rbp), %rdi
	addq	$4656, %rdi
	call	_ZN3Upp5LabelD1Ev
	movq	%rbx, -24(%rbp)
	jmp	.L1978
.L1985:
	movq	%rax, -24(%rbp)
.L1978:
	movq	-24(%rbp), %rbx
	movq	-16(%rbp), %rdi
	addq	$4288, %rdi
	call	_ZN3Upp10EditStringD1Ev
	movq	%rbx, -24(%rbp)
	jmp	.L1979
.L1986:
	movq	%rax, -24(%rbp)
.L1979:
	movq	-24(%rbp), %rbx
	movq	-16(%rbp), %rdi
	addq	$4008, %rdi
	call	_ZN3Upp5LabelD1Ev
	movq	%rbx, -24(%rbp)
	jmp	.L1980
.L1987:
	movq	%rax, -24(%rbp)
.L1980:
	movq	-24(%rbp), %rbx
	movq	-16(%rbp), %rdi
	addq	$376, %rdi
	call	_ZN3Upp9ArrayCtrlD1Ev
	movq	%rbx, -24(%rbp)
	jmp	.L1981
.L1988:
	movq	%rax, -24(%rbp)
.L1981:
	movq	-24(%rbp), %rbx
	movq	-16(%rbp), %rdi
	call	_ZN3Upp9TopWindowD2Ev
	movq	%rbx, -24(%rbp)
	movq	-24(%rbp), %rdi
.LEHB294:
	call	_Unwind_Resume
.LEHE294:
.L1982:
	addq	$24, %rsp
	popq	%rbx
	leave
	ret
.LFE7963:
	.size	_ZN13WithTppLayoutIN3Upp9TopWindowEEC2Ev, .-_ZN13WithTppLayoutIN3Upp9TopWindowEEC2Ev
	.section	.gcc_except_table
.LLSDA7963:
	.byte	0xff
	.byte	0xff
	.byte	0x1
	.uleb128 .LLSDACSE7963-.LLSDACSB7963
.LLSDACSB7963:
	.uleb128 .LEHB287-.LFB7963
	.uleb128 .LEHE287-.LEHB287
	.uleb128 0x0
	.uleb128 0x0
	.uleb128 .LEHB288-.LFB7963
	.uleb128 .LEHE288-.LEHB288
	.uleb128 .L1988-.LFB7963
	.uleb128 0x0
	.uleb128 .LEHB289-.LFB7963
	.uleb128 .LEHE289-.LEHB289
	.uleb128 .L1987-.LFB7963
	.uleb128 0x0
	.uleb128 .LEHB290-.LFB7963
	.uleb128 .LEHE290-.LEHB290
	.uleb128 .L1986-.LFB7963
	.uleb128 0x0
	.uleb128 .LEHB291-.LFB7963
	.uleb128 .LEHE291-.LEHB291
	.uleb128 .L1985-.LFB7963
	.uleb128 0x0
	.uleb128 .LEHB292-.LFB7963
	.uleb128 .LEHE292-.LEHB292
	.uleb128 .L1984-.LFB7963
	.uleb128 0x0
	.uleb128 .LEHB293-.LFB7963
	.uleb128 .LEHE293-.LEHB293
	.uleb128 .L1983-.LFB7963
	.uleb128 0x0
	.uleb128 .LEHB294-.LFB7963
	.uleb128 .LEHE294-.LEHB294
	.uleb128 0x0
	.uleb128 0x0
.LLSDACSE7963:
	.section	.text._ZN13WithTppLayoutIN3Upp9TopWindowEEC2Ev,"axG",@progbits,_ZN13WithTppLayoutIN3Upp9TopWindowEEC2Ev,comdat
	.section	.text._ZN3Upp4Ctrl3AddERS0_,"axG",@progbits,_ZN3Upp4Ctrl3AddERS0_,comdat
	.align 2
	.weak	_ZN3Upp4Ctrl3AddERS0_
	.type	_ZN3Upp4Ctrl3AddERS0_, @function
_ZN3Upp4Ctrl3AddERS0_:
.LFB4700:
	pushq	%rbp
.LCFI1522:
	movq	%rsp, %rbp
.LCFI1523:
	subq	$16, %rsp
.LCFI1524:
	movq	%rdi, -8(%rbp)
	movq	%rsi, -16(%rbp)
	movq	-16(%rbp), %rsi
	movq	-8(%rbp), %rdi
	call	_ZN3Upp4Ctrl8AddChildEPS0_
	leave
	ret
.LFE4700:
	.size	_ZN3Upp4Ctrl3AddERS0_, .-_ZN3Upp4Ctrl3AddERS0_
	.section	.rodata
.LC37:
	.string	"TppLayout"
.LC38:
	.string	"group"
.LC39:
	.string	"Other:"
.LC40:
	.string	"name_lbl"
.LC41:
	.string	"name"
.LC42:
	.string	"name_tpp"
.LC43:
	.string	"OK"
.LC44:
	.string	"ok"
.LC45:
	.string	"Cancel"
.LC46:
	.string	"cancel"
	.section	.text._Z10InitLayoutI3TppS0_EvRN3Upp4CtrlERT_RT0_R16TppLayout__layid,"axG",@progbits,_Z10InitLayoutI3TppS0_EvRN3Upp4CtrlERT_RT0_R16TppLayout__layid,comdat
	.align 2
	.weak	_Z10InitLayoutI3TppS0_EvRN3Upp4CtrlERT_RT0_R16TppLayout__layid
	.type	_Z10InitLayoutI3TppS0_EvRN3Upp4CtrlERT_RT0_R16TppLayout__layid, @function
_Z10InitLayoutI3TppS0_EvRN3Upp4CtrlERT_RT0_R16TppLayout__layid:
.LFB10158:
	pushq	%rbp
.LCFI1525:
	movq	%rsp, %rbp
.LCFI1526:
	subq	$32, %rsp
.LCFI1527:
	movq	%rdi, -8(%rbp)
	movq	%rsi, -16(%rbp)
	movq	%rdx, -24(%rbp)
	movq	%rcx, -32(%rbp)
	movq	-8(%rbp), %rdi
	movl	$.LC37, %esi
	call	_ZN3Upp4Ctrl8LayoutIdEPKc
	movq	-16(%rbp), %rdi
	addq	$376, %rdi
	movl	$132, %edx
	movl	$8, %esi
	call	_ZN3Upp4Ctrl8LeftPosZEii
	movq	%rax, %rdi
	movl	$212, %edx
	movl	$4, %esi
	call	_ZN3Upp4Ctrl7TopPosZEii
	movq	-16(%rbp), %rdi
	addq	$376, %rdi
	movl	$.LC38, %esi
	call	_ZN3Upp4Ctrl8LayoutIdEPKc
	movq	-16(%rbp), %rsi
	addq	$376, %rsi
	movq	-8(%rbp), %rdi
	call	_ZN3Upp4Ctrl3AddERS0_
	movl	$.LC39, %edi
	call	_ZN3Upp14t_GetLngStringEPKc
	movq	%rax, %rsi
	movq	-16(%rbp), %rdi
	addq	$4008, %rdi
	call	_ZN3Upp5Label8SetLabelEPKc
	movq	%rax, %rdi
	movl	$36, %edx
	movl	$8, %esi
	call	_ZN3Upp4Ctrl8LeftPosZEii
	movq	%rax, %rdi
	movl	$19, %edx
	movl	$224, %esi
	call	_ZN3Upp4Ctrl7TopPosZEii
	movq	-16(%rbp), %rdi
	addq	$4008, %rdi
	movl	$.LC40, %esi
	call	_ZN3Upp4Ctrl8LayoutIdEPKc
	movq	-16(%rbp), %rsi
	addq	$4008, %rsi
	movq	-8(%rbp), %rdi
	call	_ZN3Upp4Ctrl3AddERS0_
	movq	-16(%rbp), %rdi
	addq	$4288, %rdi
	movl	$68, %edx
	movl	$44, %esi
	call	_ZN3Upp4Ctrl8LeftPosZEii
	movq	%rax, %rdi
	movl	$19, %edx
	movl	$224, %esi
	call	_ZN3Upp4Ctrl7TopPosZEii
	movq	-16(%rbp), %rdi
	addq	$4288, %rdi
	movl	$.LC41, %esi
	call	_ZN3Upp4Ctrl8LayoutIdEPKc
	movq	-16(%rbp), %rsi
	addq	$4288, %rsi
	movq	-8(%rbp), %rdi
	call	_ZN3Upp4Ctrl3AddERS0_
	movl	$.LC34, %edi
	call	_ZN3Upp14t_GetLngStringEPKc
	movq	%rax, %rsi
	movq	-16(%rbp), %rdi
	addq	$4656, %rdi
	call	_ZN3Upp5Label8SetLabelEPKc
	movq	%rax, %rdi
	movl	$25, %edx
	movl	$116, %esi
	call	_ZN3Upp4Ctrl8LeftPosZEii
	movq	%rax, %rdi
	movl	$19, %edx
	movl	$224, %esi
	call	_ZN3Upp4Ctrl7TopPosZEii
	movq	-16(%rbp), %rdi
	addq	$4656, %rdi
	movl	$.LC42, %esi
	call	_ZN3Upp4Ctrl8LayoutIdEPKc
	movq	-16(%rbp), %rsi
	addq	$4656, %rsi
	movq	-8(%rbp), %rdi
	call	_ZN3Upp4Ctrl3AddERS0_
	movl	$.LC43, %edi
	call	_ZN3Upp14t_GetLngStringEPKc
	movq	%rax, %rsi
	movq	-16(%rbp), %rdi
	addq	$4936, %rdi
	call	_ZN3Upp6Pusher8SetLabelEPKc
	movq	%rax, %rdi
	movl	$64, %edx
	movl	$8, %esi
	call	_ZN3Upp4Ctrl8LeftPosZEii
	movq	%rax, %rdi
	movl	$24, %edx
	movl	$252, %esi
	call	_ZN3Upp4Ctrl7TopPosZEii
	movq	-16(%rbp), %rdi
	addq	$4936, %rdi
	movl	$.LC44, %esi
	call	_ZN3Upp4Ctrl8LayoutIdEPKc
	movq	-16(%rbp), %rsi
	addq	$4936, %rsi
	movq	-8(%rbp), %rdi
	call	_ZN3Upp4Ctrl3AddERS0_
	movl	$.LC45, %edi
	call	_ZN3Upp14t_GetLngStringEPKc
	movq	%rax, %rsi
	movq	-16(%rbp), %rdi
	addq	$5160, %rdi
	call	_ZN3Upp6Pusher8SetLabelEPKc
	movq	%rax, %rdi
	movl	$64, %edx
	movl	$76, %esi
	call	_ZN3Upp4Ctrl8LeftPosZEii
	movq	%rax, %rdi
	movl	$24, %edx
	movl	$252, %esi
	call	_ZN3Upp4Ctrl7TopPosZEii
	movq	-16(%rbp), %rdi
	addq	$5160, %rdi
	movl	$.LC46, %esi
	call	_ZN3Upp4Ctrl8LayoutIdEPKc
	movq	-16(%rbp), %rsi
	addq	$5160, %rsi
	movq	-8(%rbp), %rdi
	call	_ZN3Upp4Ctrl3AddERS0_
	leave
	ret
.LFE10158:
	.size	_Z10InitLayoutI3TppS0_EvRN3Upp4CtrlERT_RT0_R16TppLayout__layid, .-_Z10InitLayoutI3TppS0_EvRN3Upp4CtrlERT_RT0_R16TppLayout__layid
	.section	.text._ZN13WithTppLayoutIN3Upp9TopWindowEE13GetLayoutSizeEv,"axG",@progbits,_ZN13WithTppLayoutIN3Upp9TopWindowEE13GetLayoutSizeEv,comdat
	.align 2
	.weak	_ZN13WithTppLayoutIN3Upp9TopWindowEE13GetLayoutSizeEv
	.type	_ZN13WithTppLayoutIN3Upp9TopWindowEE13GetLayoutSizeEv, @function
_ZN13WithTppLayoutIN3Upp9TopWindowEE13GetLayoutSizeEv:
.LFB10159:
	pushq	%rbp
.LCFI1528:
	movq	%rsp, %rbp
.LCFI1529:
	pushq	%rbx
.LCFI1530:
	subq	$8, %rsp
.LCFI1531:
	movq	%rdi, %rbx
	movq	%rbx, %rdi
	movl	$284, %edx
	movl	$148, %esi
	call	_ZN3Upp4Ctrl10LayoutZoomEii
	movq	%rbx, %rax
	addq	$8, %rsp
	popq	%rbx
	leave
	ret
.LFE10159:
	.size	_ZN13WithTppLayoutIN3Upp9TopWindowEE13GetLayoutSizeEv, .-_ZN13WithTppLayoutIN3Upp9TopWindowEE13GetLayoutSizeEv
	.section	.text._ZNK3Upp4Ctrl12AddFrameSizeENS_5Size_IiEE,"axG",@progbits,_ZNK3Upp4Ctrl12AddFrameSizeENS_5Size_IiEE,comdat
	.align 2
	.weak	_ZNK3Upp4Ctrl12AddFrameSizeENS_5Size_IiEE
	.type	_ZNK3Upp4Ctrl12AddFrameSizeENS_5Size_IiEE, @function
_ZNK3Upp4Ctrl12AddFrameSizeENS_5Size_IiEE:
.LFB4665:
	pushq	%rbp
.LCFI1532:
	movq	%rsp, %rbp
.LCFI1533:
	pushq	%rbx
.LCFI1534:
	subq	$24, %rsp
.LCFI1535:
	movq	%rdi, %rbx
	movq	%rsi, -16(%rbp)
	movq	%rdx, -24(%rbp)
	movq	%rbx, %rdi
	movq	-24(%rbp), %rax
	movl	4(%rax), %ecx
	movq	-24(%rbp), %rax
	movl	(%rax), %edx
	movq	-16(%rbp), %rsi
	call	_ZNK3Upp4Ctrl12AddFrameSizeEii
	movq	%rbx, %rax
	addq	$24, %rsp
	popq	%rbx
	leave
	ret
.LFE4665:
	.size	_ZNK3Upp4Ctrl12AddFrameSizeENS_5Size_IiEE, .-_ZNK3Upp4Ctrl12AddFrameSizeENS_5Size_IiEE
	.section	.text._ZN3Upp10CtrlLayoutI3TppEEvRT_,"axG",@progbits,_ZN3Upp10CtrlLayoutI3TppEEvRT_,comdat
	.align 2
	.weak	_ZN3Upp10CtrlLayoutI3TppEEvRT_
	.type	_ZN3Upp10CtrlLayoutI3TppEEvRT_, @function
_ZN3Upp10CtrlLayoutI3TppEEvRT_:
.LFB10117:
	pushq	%rbp
.LCFI1536:
	movq	%rsp, %rbp
.LCFI1537:
	subq	$96, %rsp
.LCFI1538:
	movq	%rdi, -88(%rbp)
	movq	-88(%rbp), %rcx
	movq	-88(%rbp), %rdi
	movq	-88(%rbp), %rdx
	movq	-88(%rbp), %rsi
	call	_Z10InitLayoutI3TppS0_EvRN3Upp4CtrlERT_RT0_R16TppLayout__layid
	leaq	-48(%rbp), %rdi
	call	_ZN13WithTppLayoutIN3Upp9TopWindowEE13GetLayoutSizeEv
	movq	-88(%rbp), %rsi
	leaq	-64(%rbp), %rdi
	leaq	-48(%rbp), %rdx
	call	_ZNK3Upp4Ctrl12AddFrameSizeENS_5Size_IiEE
	leaq	-64(%rbp), %rsi
	leaq	-32(%rbp), %rdi
	call	_ZN3Upp5Size_IiEC1ERKS1_
	movq	-88(%rbp), %rdi
	leaq	-32(%rbp), %rsi
	call	_ZN3Upp9TopWindow10SetMinSizeENS_5Size_IiEE
	leaq	-64(%rbp), %rsi
	leaq	-16(%rbp), %rdi
	call	_ZN3Upp5Size_IiEC1ERKS1_
	leaq	-16(%rbp), %rsi
	leaq	-80(%rbp), %rdi
	call	_ZN3Upp5Rect_IiEC1ENS_5Size_IiEE
	movq	-88(%rbp), %rdi
	leaq	-80(%rbp), %rsi
	call	_ZN3Upp4Ctrl7SetRectERKNS_5Rect_IiEE
	leave
	ret
.LFE10117:
	.size	_ZN3Upp10CtrlLayoutI3TppEEvRT_, .-_ZN3Upp10CtrlLayoutI3TppEEvRT_
	.section	.text._ZN3Upp10CtrlLayoutI3TppEEvRT_PKc,"axG",@progbits,_ZN3Upp10CtrlLayoutI3TppEEvRT_PKc,comdat
	.align 2
	.weak	_ZN3Upp10CtrlLayoutI3TppEEvRT_PKc
	.type	_ZN3Upp10CtrlLayoutI3TppEEvRT_PKc, @function
_ZN3Upp10CtrlLayoutI3TppEEvRT_PKc:
.LFB10014:
	pushq	%rbp
.LCFI1539:
	movq	%rsp, %rbp
.LCFI1540:
	subq	$16, %rsp
.LCFI1541:
	movq	%rdi, -8(%rbp)
	movq	%rsi, -16(%rbp)
	movq	-8(%rbp), %rdi
	call	_ZN3Upp10CtrlLayoutI3TppEEvRT_
	movq	-8(%rbp), %rdi
	movq	-16(%rbp), %rsi
	call	_ZN3Upp9TopWindow5TitleEPKc
	leave
	ret
.LFE10014:
	.size	_ZN3Upp10CtrlLayoutI3TppEEvRT_PKc, .-_ZN3Upp10CtrlLayoutI3TppEEvRT_PKc
	.section	.text._ZN3Upp12CtrlLayoutOKI3TppEEvRT_PKc,"axG",@progbits,_ZN3Upp12CtrlLayoutOKI3TppEEvRT_PKc,comdat
	.align 2
	.weak	_ZN3Upp12CtrlLayoutOKI3TppEEvRT_PKc
	.type	_ZN3Upp12CtrlLayoutOKI3TppEEvRT_PKc, @function
_ZN3Upp12CtrlLayoutOKI3TppEEvRT_PKc:
.LFB9591:
	pushq	%rbp
.LCFI1542:
	movq	%rsp, %rbp
.LCFI1543:
	subq	$16, %rsp
.LCFI1544:
	movq	%rdi, -8(%rbp)
	movq	%rsi, -16(%rbp)
	movq	-16(%rbp), %rsi
	movq	-8(%rbp), %rdi
	call	_ZN3Upp10CtrlLayoutI3TppEEvRT_PKc
	movq	-8(%rbp), %rsi
	addq	$4936, %rsi
	movq	-8(%rbp), %rdi
	movl	$1, %edx
	call	_ZN3Upp9TopWindow8AcceptorERNS_4CtrlEi
	movq	-8(%rbp), %rdi
	addq	$4936, %rdi
	call	_ZN3Upp6Button2OkEv
	leave
	ret
.LFE9591:
	.size	_ZN3Upp12CtrlLayoutOKI3TppEEvRT_PKc, .-_ZN3Upp12CtrlLayoutOKI3TppEEvRT_PKc
	.section	.text._ZN3Upp18CtrlLayoutOKCancelI3TppEEvRT_PKc,"axG",@progbits,_ZN3Upp18CtrlLayoutOKCancelI3TppEEvRT_PKc,comdat
	.align 2
	.weak	_ZN3Upp18CtrlLayoutOKCancelI3TppEEvRT_PKc
	.type	_ZN3Upp18CtrlLayoutOKCancelI3TppEEvRT_PKc, @function
_ZN3Upp18CtrlLayoutOKCancelI3TppEEvRT_PKc:
.LFB9028:
	pushq	%rbp
.LCFI1545:
	movq	%rsp, %rbp
.LCFI1546:
	subq	$16, %rsp
.LCFI1547:
	movq	%rdi, -8(%rbp)
	movq	%rsi, -16(%rbp)
	movq	-16(%rbp), %rsi
	movq	-8(%rbp), %rdi
	call	_ZN3Upp12CtrlLayoutOKI3TppEEvRT_PKc
	movq	-8(%rbp), %rsi
	addq	$5160, %rsi
	movq	-8(%rbp), %rdi
	movl	$2, %edx
	call	_ZN3Upp9TopWindow8RejectorERNS_4CtrlEi
	movq	-8(%rbp), %rdi
	addq	$5160, %rdi
	call	_ZN3Upp6Button6CancelEv
	movq	-8(%rbp), %rsi
	addq	$5160, %rsi
	movq	-8(%rbp), %rdi
	addq	$4936, %rdi
	call	_ZN3Upp15ArrangeOKCancelERNS_4CtrlES1_
	leave
	ret
.LFE9028:
	.size	_ZN3Upp18CtrlLayoutOKCancelI3TppEEvRT_PKc, .-_ZN3Upp18CtrlLayoutOKCancelI3TppEEvRT_PKc
	.section	.text._ZN3Upp9ArrayCtrl6AddKeyEv,"axG",@progbits,_ZN3Upp9ArrayCtrl6AddKeyEv,comdat
	.align 2
	.weak	_ZN3Upp9ArrayCtrl6AddKeyEv
	.type	_ZN3Upp9ArrayCtrl6AddKeyEv, @function
_ZN3Upp9ArrayCtrl6AddKeyEv:
.LFB5946:
	pushq	%rbp
.LCFI1548:
	movq	%rsp, %rbp
.LCFI1549:
	subq	$16, %rsp
.LCFI1550:
	movq	%rdi, -8(%rbp)
	movq	-8(%rbp), %rdi
	call	_ZN3Upp9ArrayCtrl8AddIndexEv
	leave
	ret
.LFE5946:
	.size	_ZN3Upp9ArrayCtrl6AddKeyEv, .-_ZN3Upp9ArrayCtrl6AddKeyEv
	.section	.rodata
.LC47:
	.string	"Insert topic group"
.LC48:
	.string	"Group"
	.section	.text._ZN3TppC1Ev,"axG",@progbits,_ZN3TppC1Ev,comdat
	.align 2
	.weak	_ZN3TppC1Ev
	.type	_ZN3TppC1Ev, @function
_ZN3TppC1Ev:
.LFB7970:
	pushq	%rbp
.LCFI1551:
	movq	%rsp, %rbp
.LCFI1552:
	pushq	%rbx
.LCFI1553:
	subq	$56, %rsp
.LCFI1554:
	movq	%rdi, -56(%rbp)
	movq	-56(%rbp), %rdi
.LEHB295:
	call	_ZN13WithTppLayoutIN3Upp9TopWindowEEC2Ev
.LEHE295:
	movl	$_ZTV3Tpp+16, %edx
	movq	-56(%rbp), %rax
	movq	%rdx, (%rax)
	movq	-56(%rbp), %rdi
	movl	$.LC47, %esi
.LEHB296:
	call	_ZN3Upp18CtrlLayoutOKCancelI3TppEEvRT_PKc
	movq	-56(%rbp), %rdi
	addq	$376, %rdi
	call	_ZN3Upp9ArrayCtrl6AddKeyEv
	movq	-56(%rbp), %rdi
	addq	$376, %rdi
	movl	$0, %edx
	movl	$.LC48, %esi
	call	_ZN3Upp9ArrayCtrl9AddColumnEPKci
	movq	$_ZN3Tpp4SyncEv, -48(%rbp)
	movq	$0, -40(%rbp)
	leaq	-32(%rbp), %rdi
	movq	-48(%rbp), %rdx
	movq	-40(%rbp), %rcx
	movq	-56(%rbp), %rsi
	call	_ZN3Upp8callbackI3TppS1_EENS_8CallbackEPT_MT0_FvvE
.LEHE296:
	movq	-56(%rbp), %rdi
	addq	$3928, %rdi
	leaq	-32(%rbp), %rsi
.LEHB297:
	call	_ZN3Upp8CallbackaSERKS0_
.LEHE297:
	leaq	-32(%rbp), %rdi
.LEHB298:
	call	_ZN3Upp8CallbackD1Ev
.LEHE298:
	jmp	.L2008
.L2012:
	movq	%rax, -64(%rbp)
.L2009:
	movq	-64(%rbp), %rbx
	leaq	-32(%rbp), %rdi
	call	_ZN3Upp8CallbackD1Ev
	movq	%rbx, -64(%rbp)
	jmp	.L2010
.L2008:
	movq	-56(%rbp), %rdi
	addq	$4288, %rdi
	movl	$_ZN3Upp15CharFilterAlphaEi, %esi
	call	_ZN3Upp9EditField9SetFilterEPFiiE
	jmp	.L2011
.L2013:
	movq	%rax, -64(%rbp)
.L2010:
	movq	-64(%rbp), %rbx
	movq	-56(%rbp), %rdi
	call	_ZN13WithTppLayoutIN3Upp9TopWindowEED2Ev
	movq	%rbx, -64(%rbp)
	movq	-64(%rbp), %rdi
.LEHB299:
	call	_Unwind_Resume
.LEHE299:
.L2011:
	addq	$56, %rsp
	popq	%rbx
	leave
	ret
.LFE7970:
	.size	_ZN3TppC1Ev, .-_ZN3TppC1Ev
	.section	.gcc_except_table
.LLSDA7970:
	.byte	0xff
	.byte	0xff
	.byte	0x1
	.uleb128 .LLSDACSE7970-.LLSDACSB7970
.LLSDACSB7970:
	.uleb128 .LEHB295-.LFB7970
	.uleb128 .LEHE295-.LEHB295
	.uleb128 0x0
	.uleb128 0x0
	.uleb128 .LEHB296-.LFB7970
	.uleb128 .LEHE296-.LEHB296
	.uleb128 .L2013-.LFB7970
	.uleb128 0x0
	.uleb128 .LEHB297-.LFB7970
	.uleb128 .LEHE297-.LEHB297
	.uleb128 .L2012-.LFB7970
	.uleb128 0x0
	.uleb128 .LEHB298-.LFB7970
	.uleb128 .LEHE298-.LEHB298
	.uleb128 .L2013-.LFB7970
	.uleb128 0x0
	.uleb128 .LEHB299-.LFB7970
	.uleb128 .LEHE299-.LEHB299
	.uleb128 0x0
	.uleb128 0x0
.LLSDACSE7970:
	.section	.text._ZN3TppC1Ev,"axG",@progbits,_ZN3TppC1Ev,comdat
	.section	.text._ZN3Tpp4SyncEv,"axG",@progbits,_ZN3Tpp4SyncEv,comdat
	.align 2
	.weak	_ZN3Tpp4SyncEv
	.type	_ZN3Tpp4SyncEv, @function
_ZN3Tpp4SyncEv:
.LFB7952:
	pushq	%rbp
.LCFI1555:
	movq	%rsp, %rbp
.LCFI1556:
	subq	$48, %rsp
.LCFI1557:
	movq	%rdi, -24(%rbp)
	movb	$0, -33(%rbp)
	movq	-24(%rbp), %rdi
	addq	$376, %rdi
	call	_ZNK3Upp9ArrayCtrl8IsCursorEv
	xorl	$1, %eax
	testb	%al, %al
	jne	.L2015
	movq	-24(%rbp), %rsi
	addq	$376, %rsi
	leaq	-16(%rbp), %rdi
.LEHB300:
	call	_ZNK3Upp9ArrayCtrl6GetKeyEv
	movb	$1, -33(%rbp)
	leaq	-16(%rbp), %rdi
	call	_ZN3Upp6IsNullERKNS_5ValueE
.LEHE300:
	xorl	$1, %eax
	testb	%al, %al
	jne	.L2015
	movb	$1, -34(%rbp)
	jmp	.L2018
.L2015:
	movb	$0, -34(%rbp)
.L2018:
	movzbl	-34(%rbp), %eax
	movb	%al, -1(%rbp)
	cmpb	$0, -33(%rbp)
	jne	.L2019
	jmp	.L2020
.L2025:
