(dp1
S'obj/xed-operand-element-xtype-enum.h'
p2
S'3b003047ab3b19bf3bb6bc146fc112ab4861dc75'
p3
sS'obj/xed-category-enum.c'
p4
S'2a79ad89898d23923a2a222a0a5fb057534f1f5d'
p5
sS'obj/xed-extension-enum.h'
p6
S'3fa1e9a2bc59143eaebf2e53e65b3aa90decf30c'
p7
sS'obj/xed-operand-element-xtype-enum.c'
p8
S'b1875e6a3d99210d5e429dbe3e6a6333cbaa0eb2'
p9
sS'obj/include-private/xed3-phash-lu-vv3.h'
p10
S'e1a2c11025f09ce94305c5405116e8c05fae04da'
p11
sS'obj/xed-extension-enum.c'
p12
S'3c609eac32b605c9b6b81b10c8c788a8fb03e05e'
p13
sS'obj/xed-category-enum.h'
p14
S'2ab6c1c63b28e75e886e095afb4587a1a36e9c41'
p15
sS'obj/xed-attributes-list.c'
p16
S'4e41a4a3e9cac91f30b8e3315e1738fb726d5cdb'
p17
sS'obj/xed-init-inst-table-data.c'
p18
S'67e68e7669c9ae7386aecf5eafd86bf3f8cb6e18'
p19
sS'obj/xed-operand-ctype-map.c'
p20
S'03f1a10e2f8d28254214679a4a177effcf09e626'
p21
sS'obj/include-private/xed-ild-imm-bytes.h'
p22
S'ba5b24b7d7502af38ca2186101335d2c2e3cd44c'
p23
sS'obj/xed-operand-ctype-map.h'
p24
S'8c33b9964a008e941da5325156c2c78aeda47197'
p25
sS'obj/xed-init-inst-table-0.c'
p26
S'eabc856b159b2c7d8a48a305dcfb6bc9277d22f2'
p27
sS'obj/ild_easz_debug_header.txt'
p28
S'b8e92433ab67fa81c25724931e47ffcb2dfff824'
p29
sS'obj/xed-init-operand-sequences.c'
p30
S'209a8ed48f125c5078ed704dbb05f1ececf9cee1'
p31
sS'obj/xed-operand-action-enum.h'
p32
S'1391b7ac83954d7f2f9a29dd3183f3a76a721b05'
p33
sS'obj/xed-iclass-enum.h'
p34
S'48e6188145c4dfdcf61fc391a0311155af5a6da0'
p35
sS'obj/xed-chip-features-table.c'
p36
S'4d3d20a2e7b6afea4ab7505f004fcdab50c19ed2'
p37
sS'obj/xed-ild-disp-l3.c'
p38
S'e3bd26b4078f8ede0f7e3ddb4f71b44560591856'
p39
sS'obj/xed-iclass-enum.c'
p40
S'd163cd7f55aade988f3174c56b747c4cdfd49b69'
p41
sS'obj/xed-reg-enum.h'
p42
S'4a393b4502b2a6f8ccb3a34f5b9f288fc91f8300'
p43
sS'obj/xed-cpuid-bit-enum.c'
p44
S'a6ca47a1a462522b09f204a496229e29f6ffadac'
p45
sS'obj/include-private/xed-ild-easz.h'
p46
S'1848e780b5d4a02b0b4f8f795df87f1ca1e8355b'
p47
sS'obj/xed-cpuid-bit-enum.h'
p48
S'9fc20fa098751902432301e3a6f23d6ca93b1dd9'
p49
sS'obj/xed-flags-simple.c'
p50
S'fae3da08cd16034ce690b438008565b3f776de9d'
p51
sS'obj/xed-error-enum.h'
p52
S'9f760eea88c1d5e7052fb3741d232833b4b0ac33'
p53
sS'obj/xed-init-operand-type-mappings.c'
p54
S'92422b86cc1ee78f4f07a2a7c5cb980e1c8928b0'
p55
sS'obj/xed-init-operand-data.c'
p56
S'df7c3eaebaab9e9ab9d81877cf55316807fec988'
p57
sS'obj/xed-flag-action-enum.h'
p58
S'd1fd709202cd329082a66b4a1e17bb8127700a0f'
p59
sS'obj/xed-error-enum.c'
p60
S'def87968715bb5d74bfc25fef83189b073ac364f'
p61
sS'obj/xed-flag-action-enum.c'
p62
S'eeea81dcbb7541207aa66c0b853cb2d82ba02775'
p63
sS'obj/include-private/xed3-op-chain-capture.h'
p64
S'b4151bb654e93217b13638c9fa9b0ff5d03920b7'
p65
sS'obj/include-private/xed3-phash-lu-vv1.h'
p66
S'59a32dcfac2815c4a69fbed1dc9941a32e66a919'
p67
sS'obj/ild_eosz_debug_header.txt'
p68
S'4fd8d051dd5060f28f199b14521119e94b6cb495'
p69
sS'obj/xed-operand-convert-init.c'
p70
S'c933b8f1d497a8e5054ff3662a1f1818b9889812'
p71
sS'obj/include-private/xed3-chain-capture.h'
p72
S'8e061a778966e2e23bd4dcbdac16362de7dfe59f'
p73
sS'obj/include-private/xed-ild-imm-l3.h'
p74
S'cce40fecc66c493f79b6fc5848826b05fe319083'
p75
sS'obj/include-private/xed-ild-disp-l1.h'
p76
S'df24ddc8a192addadda8bc8375bb3f44ef6b4d37'
p77
sS'obj/xed-ild-eosz.c'
p78
S'db80fc4b786358052f8da570e109d4b4e9599b65'
p79
sS'obj/include-private/xed-ild-imm-l1.h'
p80
S'b919bafbbe0aaf7c0c4baca15a759c25f4b5c2f5'
p81
sS'obj/xed-operand-enum.c'
p82
S'5d87771086008a45bdf8aaabc0e2e46b6c955afc'
p83
sS'obj/xed3-phash-lu-vv2.c'
p84
S'7e566a26375b73392ede454c0ac701441dc56dc8'
p85
sS'obj/xed-reg-role-enum.h'
p86
S'c7fa06fafb254bc2224d6c9f03c8828b3c7e3cd8'
p87
sS'obj/xed-iclass-string.c'
p88
S'e75197c67a1a8bdc4edb2652c711e22a376603ef'
p89
sS'obj/xed3-phash-lu-vv0.c'
p90
S'ea5e3272c3657745c6ed8b0856f03c01e48f969e'
p91
sS'obj/xed-reg-role-enum.c'
p92
S'1f672ff196f9eb43c33fbe34032274ad4c0d600f'
p93
sS'obj/xed-iformfl-enum.c'
p94
S'12457690c547c038d4bfabad6c4657792aa71bff'
p95
sS'obj/include-private/xed-ild-imm-l2.h'
p96
S'78b8913b7b52e666ebbe5cdfc605d24432afdfba'
p97
sS'obj/xed-init-inst-table.c'
p98
S'7374c3d62c19d57989265d297bc4234a357e13f1'
p99
sS'obj/xed-iform-enum.h'
p100
S'182fe7807946486f21442f0b3d5b0e44b3e4b7ad'
p101
sS'obj/xed-iform-enum.c'
p102
S'adbf011f666b51a726edd4e18f72d171ec3b7725'
p103
sS'obj/include-private/xed3-phash-vv3.h'
p104
S'c31753ef4d8ae81b969ac4df20c11c12ebd1b73b'
p105
sS'obj/xed-iformfl-enum.h'
p106
S'1e42e240de504a1efc198169815ef4a6f817b6df'
p107
sS'obj/include-private/xed3-phash-lu-vv2.h'
p108
S'2f3ff9da5aca483ade09ce032d25f56ef2c02531'
p109
sS'obj/include-private/xed-chip-features-table.h'
p110
S'32db278a89d1d66e369b178b25efabeb5926154e'
p111
sS'obj/xed-reg-class-enum.h'
p112
S'2951a8e51647eb57469f9ced09c92bbe25a3a168'
p113
sS'obj/xed-operand-type-enum.c'
p114
S'45f191c60528714e52e3d53813f9f9d55a06ce43'
p115
sS'obj/include-private/xed3-phash-lu-vv0.h'
p116
S'7e35f52a3f7fcaac65d6f5cd76458df5a8bc693e'
p117
sS'obj/xed-attribute-enum.c'
p118
S'948884013f6d11fe6b362b463b13a4f0cf378c1b'
p119
sS'obj/cdata.txt'
p120
S'ae78973e9623aefc7a989d290e8bfa102e248844'
p121
sS'obj/xed-init-pointer-names.h'
p122
S'e26ddaa2cd3e8c302f76f2cd07321e26f4ea8624'
p123
sS'obj/xed-rep-map.c'
p124
S'11621e678e3151ed7f282af95ca40f102d007aa8'
p125
sS'obj/xed-init-pointer-names.c'
p126
S'328767991ed505618ad3fa44e23ca1cfdca30b98'
p127
sS'obj/include-private/xed3-nt-capture.h'
p128
S'1f99288a84ef23d330d0d07d636da627cc3e917b'
p129
sS'obj/xed-machine-mode-enum.c'
p130
S'ce05c0cd5f1f74189ea0a92a02043f23f0572f88'
p131
sS'obj/include-private/xed3-phash-vv1.h'
p132
S'59d9027964d838272a49bba09ad7089652de7129'
p133
sS'obj/xed-cpuid-tables.c'
p134
S'67eb5395cb1c68ffd05480fd9577c683532ac95b'
p135
sS'obj/xed-machine-mode-enum.h'
p136
S'd1ad5a8f0d6f399595043be041b7e3cfad8e7523'
p137
sS'obj/include-private/xed3-dynamic-part1-capture.h'
p138
S'ceede764ea416cd6ae872138db743e52c26a2e84'
p139
sS'obj/xed-gen-table-defs.h'
p140
S'56902279ff29f6eb63fe6f2d853ed7d32c3dcb0b'
p141
sS'obj/xed-operand-width-enum.h'
p142
S'c9d440fa37ae8cc4154ad02575e9f5fff633a375'
p143
sS'obj/xed-iform-max.c'
p144
S'9a5092bd4ae26c1f66ac0b07c4bca0e4f3e46201'
p145
sS'obj/xed3-phash-lu-vv3.c'
p146
S'fccfb75a0f1dd5e660c57bfd114e52971ab3bf8b'
p147
sS'obj/xed-operand-enum.h'
p148
S'd699e7c011c4401a2977874fb1e87a954f3b1c62'
p149
sS'obj/ild_easz_debug.txt'
p150
S'42ed829a2a50f07a7cd410b393d5698f39b89b7a'
p151
sS'obj/xed-operand-width-enum.c'
p152
S'84084f744922cff4663ed5cbdea8a2f284704245'
p153
sS'obj/xed-reg-enum.c'
p154
S'361997a44db0eb62a254b7683d35a675552c0aea'
p155
sS'obj/xed-syntax-enum.h'
p156
S'0e9e5ad65002287dddce7b827acea3c5e3f8a424'
p157
sS'obj/xed-reg-class-enum.c'
p158
S'322dc94e382c6442059077d34502a730e648dac8'
p159
sS'obj/include-private/xed-ild-eosz-getters.h'
p160
S'4aa84b6b5da0de6e4b856a19512fe5185775f8e5'
p161
sS'obj/xed-init-width.c'
p162
S'1d807d5e6d9f48660146185354846443053c8d4a'
p163
sS'obj/xed-operand-ctype-enum.c'
p164
S'd2a1652d209887ae7aa9f87a02e3367359d39790'
p165
sS'obj/xed-operand-element-type-enum.c'
p166
S'416b87eeea4601e12dcc2201123ad21f4413742b'
p167
sS'obj/xed-operand-visibility-enum.h'
p168
S'924c8dc24e1c3ce50ef297061ccca77823cd05a6'
p169
sS'obj/xed-operand-visibility-enum.c'
p170
S'9120601344b4bb8f7b4a81eba071fac79ca5d9d8'
p171
sS'obj/xed-operand-element-type-enum.h'
p172
S'b8ade889367e8326d71cc909f43578d140f079b7'
p173
sS'obj/xed-operand-ctype-enum.h'
p174
S'0ade18b8dda10c7430e13722e9e5aa9032354772'
p175
sS'obj/xed-chip-enum.c'
p176
S'62282e4e3fa76c1f0baa42981c038eb412d55f83'
p177
sS'obj/xed-iform-map-init.c'
p178
S'ce49d7184495521e57ee802b3da7b27aa7e1a96a'
p179
sS'obj/xed-chip-enum.h'
p180
S'7c965d74557e1ec9b74492524b848c59461a49e7'
p181
sS'obj/xed-operand-action-enum.c'
p182
S'c3d7f75cae7eea8af72d1369cc720f83e252730a'
p183
sS'obj/xed-attribute-enum.h'
p184
S'532742417ffa5b0e464f4aca50c26deeba101017'
p185
sS'obj/xed3-operand-lu.c'
p186
S'69b982b870a3a1d3a6842dc44f0de6019f22d424'
p187
sS'obj/xed-exception-enum.c'
p188
S'd8ae48895026f7ce2b0c9d18b6974f340c520d78'
p189
sS'obj/include-private/xed-ild-disp-l2.h'
p190
S'179bc7ca37174a55cb2085ba2c765ff444efdc24'
p191
sS'obj/xed-exception-enum.h'
p192
S'5aae2af2011589350425ed2d87bd03c432334e9f'
p193
sS'obj/xed-classifiers.c'
p194
S'122f5d949273fd6a78c3e0422265db4e1716285a'
p195
sS'obj/include-private/xed-ild-modrm.h'
p196
S'872424d6576744a8ce663f3db133c77ed5f15440'
p197
sS'obj/include-private/xed3-phash-vv0.h'
p198
S'1e4ac61095865a3bee87f04be644c1226d6a257a'
p199
sS'obj/xed-operand-type-enum.h'
p200
S'b17dc4b0391ff6edecf3932cd1fc3aa091609598'
p201
sS'obj/include-private/xed-ild-eosz.h'
p202
S'550efd39c78831f784c09af2bc49eb8f883fdc7f'
p203
sS'obj/xed-isa-set-enum.c'
p204
S'3a7cc3ed9427c78933d749345a838b85664d2727'
p205
sS'obj/xed-flag-enum.h'
p206
S'4adf7786275463eb143a470392dbda8729fefe7f'
p207
sS'obj/xed-isa-set-enum.h'
p208
S'7ba184c28389c15fd3b466f5bdf5babfe7f751a5'
p209
sS'obj/include-private/xed-ild-disp-l3.h'
p210
S'095bb92bd1ed1bc7eb74e5021c13b56d52343dc2'
p211
sS'obj/ild_oesz_debug.txt'
p212
S'096caf7b24425a750fbd2d3cdce70805157f235f'
p213
sS'obj/xed-flags-actions.c'
p214
S'70f9eb5b15b7e468f7df9a48dce904c0a239d833'
p215
sS'obj/xed-address-width-enum.h'
p216
S'be12a03c946ffe144df690b8dd4c5f1708a98dad'
p217
sS'obj/xed-address-width-enum.c'
p218
S'b4ed3a2f60e0fa8fc25f37ddfd6410e4e5859f0f'
p219
sS'obj/include-private/xed-ild-disp-bytes.h'
p220
S'f2fc59daf0e175064bb8dd23d88452a0a5bce5ff'
p221
sS'obj/xed3-phash-lu-vv1.c'
p222
S'980a6cffe5a5e39a02a917791b2bc64d036676b9'
p223
sS'obj/include-private/xed-ild-easz-getters.h'
p224
S'0c3dede3de2030fff65821c1e9ce9f0874b96c8d'
p225
sS'obj/xed-syntax-enum.c'
p226
S'2128545e93964d51305b7e9bfdcb2e61d4dadb25'
p227
sS'obj/include-private/xed3-phash.h'
p228
S'db0ff93b3fac64e06a1a220e5c4393f0e2aedc1e'
p229
sS'obj/include-private/xed3-operand-lu.h'
p230
S'80e5768db0af43e3ef566f5db0134003ee04f823'
p231
sS'obj/xed-ild-easz.c'
p232
S'aeb4ed2fc0058fe6b6dc0badbb6728b27652fdd2'
p233
sS'obj/xed-flag-enum.c'
p234
S'261897f834b796f42e4d06dedc35bf52dbd0ff65'
p235
sS'obj/xed-ild-imm-l3.c'
p236
S'019b929abb587672d41aa6118351e0e0a3c22d63'
p237
sS'obj/xed-init-reg-class.c'
p238
S'dd82bd1ec984f5d0183410d8988fc71f43316c09'
p239
sS'obj/xed-nonterminal-enum.c'
p240
S'9fdc789b712681489fe7c48fbf88bd90088c5780'
p241
sS'obj/include-private/xed3-phash-vv2.h'
p242
S'c1baac3ac7359afaf22cfcd67af818a2987acecd'
p243
sS'obj/xed-flags-complex.c'
p244
S'e149ba85d1511d5d16d291eac3dc6e037e6e0808'
p245
sS'obj/xed-nonterminal-enum.h'
p246
S'5d72262fae9fa285ad45fc6152c6218664f718ee'
p247
s.