(dp1
S'obj/xed-encoder-iforms-init.c'
p2
S'd97d4c61157bdae32906d40fb9254b88ac3b499d'
p3
sS'obj/xed-enc-patterns.c'
p4
S'8278d78e92cd2b2c74fd9080e6a5e03e17be4187'
p5
sS'obj/xed-enc-groups.c'
p6
S'7702792f60201f485dd42af7ba2cb1f725484564'
p7
sS'obj/xed-encoder-4.c'
p8
S'365ecb19da86167fe06c63d59c5a201a3ea5415b'
p9
sS'obj/include-private/xed-enc-groups.h'
p10
S'3fb4329ec62b9b095e20df150adf76be5acaad39'
p11
sS'obj/xed-encoder-order-init.c'
p12
S'6a32130d64a25092016f5dbcdaab3e5efb092ec8'
p13
sS'obj/xed-encoder-init.c'
p14
S'ac84cb3925889a063386cb5fa1313f3cd248edd2'
p15
sS'obj/xed-encoder-0.c'
p16
S'd188f1b072fe36b7863236e4ef21bc60397cb350'
p17
sS'obj/xed-encoder-pattern-lu.c'
p18
S'c271747eaafb74360520704707da96241d7f1eab'
p19
sS'obj/xed-encoder-1.c'
p20
S'6df8d4de9de51f1b68516562c2682a85c09c5224'
p21
sS'obj/xed-enc-operand-lu.c'
p22
S'52842848787a6122f9ffe816bc3ef12c01d4113a'
p23
sS'obj/xed-encoder-gen-defs.h'
p24
S'6cced30cd0a995acb135f687dbfab65623a44b69'
p25
sS'obj/include-private/xed-enc-operand-lu.h'
p26
S'0e8ff0d0dd85d8e44e9deb6d7ade41f7eef5d432'
p27
sS'obj/xed-encoder-2.c'
p28
S'2660c386eeaff94bb4b6667b584888984c327493'
p29
sS'obj/include-private/xed-enc-patterns.h'
p30
S'be53dc7bd87a589c49d8f0dad700c2f9659c237b'
p31
sS'obj/xed-encoder-3.c'
p32
S'ef8209f4a068dae6b5d4261cfbfa4539b583fa84'
p33
sS'obj/include-private/xed-encoder.h'
p34
S'eda3b10e0d09a1925610f114a232a77c92af82d3'
p35
sS'obj/xed-encoder-iforms.h'
p36
S'823864a9a920ee5ef4ed17076c216eeabfa2730b'
p37
s.