(dp1
S'/home/massimo/sources/xed/datafiles/cnl/cnl-chips.txt'
p2
ccopy_reg
_reconstructor
p3
(cmbuild.dag
_mbuild_storage_object_t
p4
c__builtin__
object
p5
NtRp6
(dp7
S'signature'
p8
S'a8df32ef39c047115d390a137832defe71e27a0d'
p9
sbsS'/home/massimo/sources/xed/datafiles/rdrand/rdrand-isa.xed.txt'
p10
g3
(g4
g5
NtRp11
(dp12
g8
S'a1981b1a3588c9a998096ebcf8bf6b2c6941d1c6'
p13
sbsS'/home/massimo/sources/xed/datafiles/avx/avx-movnt-store.txt'
p14
g3
(g4
g5
NtRp15
(dp16
g8
S'99b59e05799311a841503f14c1479a7b2d77a3cd'
p17
sbsS'/home/massimo/sources/xed/datafiles/amdxop/cpuid.xed.txt'
p18
g3
(g4
g5
NtRp19
(dp20
g8
S'5349637615b3b0cff2f488a926b7108fcb8f65c4'
p21
sbsS'/home/massimo/sources/xed/datafiles/avx512f/avx512-reg-table-mask.txt'
p22
g3
(g4
g5
NtRp23
(dp24
g8
S'5b07051b80653a7621fa2c0c3af9d5fc7d0361e8'
p25
sbsS'/home/massimo/sources/xed/datafiles/gfni-vaes-vpcl/gfni-sse-isa.xed.txt'
p26
g3
(g4
g5
NtRp27
(dp28
g8
S'409d72aaac327b5fec1c73526a4ad8545c081c82'
p29
sbsS'/home/massimo/sources/xed/datafiles/knc/uisa-state-bits.txt'
p30
g3
(g4
g5
NtRp31
(dp32
g8
S'c2390821a2ea7d1d8bfbadd1ec19abc30dce05b6'
p33
sbsS'/home/massimo/sources/xed/datafiles/xed-gpr8-dec-reg-table.txt'
p34
g3
(g4
g5
NtRp35
(dp36
g8
S'a4ff912fd8a7d3fea45b4df9cf9b5fea307a2882'
p37
sbsS'/home/massimo/sources/xed/datafiles/mpx/mpx-fields.txt'
p38
g3
(g4
g5
NtRp39
(dp40
g8
S'9913d8125e354f34a99f816c746946a2caae7e82'
p41
sbsS'/home/massimo/sources/xed/pysrc/opnds.py'
p42
g3
(g4
g5
NtRp43
(dp44
g8
S'f4ad63706cea3848cee909c6b608758994db372e'
p45
sbsS'/home/massimo/sources/xed/datafiles/xed-regs.txt'
p46
g3
(g4
g5
NtRp47
(dp48
g8
S'a4d53c6baa232ba065f2858c2816a918dd40d0c5'
p49
sbsS'/home/massimo/sources/xed/datafiles/avx512f/avx512-reg-tables-n3.txt'
p50
g3
(g4
g5
NtRp51
(dp52
g8
S'5fa343afddc7bf7314a8a945ed8202e130d582c6'
p53
sbsS'/home/massimo/sources/xed/datafiles/avx512f/avx512-reg-tables-b3.txt'
p54
g3
(g4
g5
NtRp55
(dp56
g8
S'409e978079dc6ad6790b1482b3e9639e6407929b'
p57
sbsS'/home/massimo/sources/xed/pysrc/ild_storage_data.py'
p58
g3
(g4
g5
NtRp59
(dp60
g8
S'4fdb496be9d5cfd0b67864bc7ce9f223b8071797'
p61
sbsS'/home/massimo/sources/xed/datafiles/avx512f/avx512-disp8.txt'
p62
g3
(g4
g5
NtRp63
(dp64
g8
S'60454d6198bc73e4a1a8bd63df1785f33074d03a'
p65
sbsS'/home/massimo/sources/xed/datafiles/xed-eOSZ.txt'
p66
g3
(g4
g5
NtRp67
(dp68
g8
S'6f3a3c8a5b27e24eb94302957b9776aea1fd526b'
p69
sbsS'/home/massimo/sources/xed/datafiles/cet/cet-nop-remove.xed.txt'
p70
g3
(g4
g5
NtRp71
(dp72
g8
S'5e0a8e583c6095a893cd96cb0d091c70e88a765f'
p73
sbsS'/home/massimo/sources/xed/datafiles/skl/skl-chips.txt'
p74
g3
(g4
g5
NtRp75
(dp76
g8
S'8b4c9f7fc970f20174ac618a301406e7636b9c44'
p77
sbsS'/home/massimo/sources/xed/pysrc/enum_txt_writer.py'
p78
g3
(g4
g5
NtRp79
(dp80
g8
S'39a88055a4578c73be815704d3638a08a42c03fe'
p81
sbsS'/home/massimo/sources/xed/mfile.py'
p82
g3
(g4
g5
NtRp83
(dp84
g8
S'92b1ffc6e92d698a16fbcd04ce09a6933c6349ca'
p85
sbsS'/home/massimo/sources/xed/datafiles/avx/avx-reg-table.txt'
p86
g3
(g4
g5
NtRp87
(dp88
g8
S'39b55e67cff4b168b27f40c24e883db1f7303e24'
p89
sbsS'/home/massimo/sources/xed/pysrc/ins_emit.py'
p90
g3
(g4
g5
NtRp91
(dp92
g8
S'e6103ea0cbd1135759b4376fd443efa842d6c020'
p93
sbsS'/home/massimo/sources/xed/datafiles/movdir/movdir-isa.xed.txt'
p94
g3
(g4
g5
NtRp95
(dp96
g8
S'2832548717228b04f44a5858df4ab43ae78c2c4d'
p97
sbsS'/home/massimo/sources/xed/datafiles/avx512cd/vconflict-isa.xed.txt'
p98
g3
(g4
g5
NtRp99
(dp100
g8
S'2ba589bddebf3b4bba94d84cf590130ee7b4b3fa'
p101
sbsS'/home/massimo/sources/xed/pysrc/constraint_vec_gen.py'
p102
g3
(g4
g5
NtRp103
(dp104
g8
S'ffc23e376a1e8355130b0480129674ec7aac04c9'
p105
sbsS'/home/massimo/sources/xed/datafiles/knc/uisa-splitter.txt'
p106
g3
(g4
g5
NtRp107
(dp108
g8
S'3a014b561c73c75b8aaf12b912c5bae6ff427445'
p109
sbsS'/home/massimo/sources/xed/datafiles/gfni-vaes-vpcl/vaes-evex-isa.xed.txt'
p110
g3
(g4
g5
NtRp111
(dp112
g8
S'd8c3cc042a8cc66383cb71509e77545d2fc88022'
p113
sbsS'/home/massimo/sources/xed/datafiles/xsaves/cpuid.xed.txt'
p114
g3
(g4
g5
NtRp115
(dp116
g8
S'f7dc61ae20209d577e0debcfb5f9b12262c81495'
p117
sbsS'/home/massimo/sources/xed/datafiles/xed-ild-scanners.txt'
p118
g3
(g4
g5
NtRp119
(dp120
g8
S'd1c6f15d565ac9e3b99594f0b9dc0d9bfcecd448'
p121
sbsS'/home/massimo/sources/xed/datafiles/avx512f/avx512-addressing-dec.txt'
p122
g3
(g4
g5
NtRp123
(dp124
g8
S'4dfc5dccdbc2212c208c55298cf4a898924018ec'
p125
sbsS'/home/massimo/sources/xed/datafiles/avx/avx-state-bits.txt'
p126
g3
(g4
g5
NtRp127
(dp128
g8
S'2bae52267d6743a223ab1bc9f77198cc44007acf'
p129
sbsS'/home/massimo/sources/xed/datafiles/avx/avx-isa-supp-enc.txt'
p130
g3
(g4
g5
NtRp131
(dp132
g8
S'10a272bec31190516c64243dd076d74e15d906c9'
p133
sbsS'/home/massimo/sources/xed/datafiles/icl/icl-chips.txt'
p134
g3
(g4
g5
NtRp135
(dp136
g8
S'ebde24f3acd91175a3a13919adec3060543a6cfa'
p137
sbsS'/home/massimo/sources/xed/datafiles/cpuid.xed.txt'
p138
g3
(g4
g5
NtRp139
(dp140
g8
S'56d8b72785ed1f52131c88a7b01dc4c104494d6b'
p141
sbsS'/home/massimo/sources/xed/datafiles/4fmaps-512/cpuid.xed.txt'
p142
g3
(g4
g5
NtRp143
(dp144
g8
S'95c506e8b4ecea5abad649517881579179e73527'
p145
sbsS'/home/massimo/sources/xed/datafiles/rdpid/cpuid.xed.txt'
p146
g3
(g4
g5
NtRp147
(dp148
g8
S'60a5c7629ed4fa8cff606005274c88e0e00ae140'
p149
sbsS'/home/massimo/sources/xed/pysrc/codegen.py'
p150
g3
(g4
g5
NtRp151
(dp152
g8
S'9a251b15908db0a8ea12f57667f5eda3c06d804f'
p153
sbsS'/home/massimo/sources/xed/datafiles/rdrand/cpuid.xed.txt'
p154
g3
(g4
g5
NtRp155
(dp156
g8
S'7e6141d4eea62a78691c7c6bf676f36dd19830f5'
p157
sbsS'/home/massimo/sources/xed/datafiles/xed-amd-prefetch.txt'
p158
g3
(g4
g5
NtRp159
(dp160
g8
S'92abb5efa62f9ddd05dea886c0bdb424eaaf8dc0'
p161
sbsS'/home/massimo/sources/xed/datafiles/cet/cet-regs.txt'
p162
g3
(g4
g5
NtRp163
(dp164
g8
S'3f86c855ac5d47dadc66442f1113e3da7285ce16'
p165
sbsS'/home/massimo/sources/xed/datafiles/pconfig/cpuid.xed.txt'
p166
g3
(g4
g5
NtRp167
(dp168
g8
S'52feb1eb1346eab097b15791ab85e7e18c25b2be'
p169
sbsS'/home/massimo/sources/xed/datafiles/pt/cpuid.xed.txt'
p170
g3
(g4
g5
NtRp171
(dp172
g8
S'99915b83ca3e1a1d6c3165e972cbb305e4f15d71'
p173
sbsS'/home/massimo/sources/xed/datafiles/amdxop/amd-xop-isa.txt'
p174
g3
(g4
g5
NtRp175
(dp176
g8
S'1a6352ca8ab780d4127d277f1efbe0923b9d9265'
p177
sbsS'/home/massimo/sources/xed/datafiles/avx/avx-operand-width.txt'
p178
g3
(g4
g5
NtRp179
(dp180
g8
S'0f63baf0b59eb8285faa64b47f5cc53ed297ff4d'
p181
sbsS'/home/massimo/sources/xed/datafiles/4fmaps-512/4fmaps-512-isa.xed.txt'
p182
g3
(g4
g5
NtRp183
(dp184
g8
S'2d66f9a0674b32dbc4286a1d97f41da61b55a2e0'
p185
sbsS'/home/massimo/sources/xed/datafiles/hsw/rtm-isa.xed.txt'
p186
g3
(g4
g5
NtRp187
(dp188
g8
S'14168454dd3823678aabf1c3caa24105a5e4210a'
p189
sbsS'/home/massimo/sources/xed/datafiles/sha/cpuid.xed.txt'
p190
g3
(g4
g5
NtRp191
(dp192
g8
S'1d5e47818407bf8a943ee0bac9c4896ec5fcfefa'
p193
sbsS'/home/massimo/sources/xed/datafiles/xed-operand-element-type-enum-base.txt'
p194
g3
(g4
g5
NtRp195
(dp196
g8
S'af34532c9af7a7e908c2bb0e1e0de4b62156be8b'
p197
sbsS'/home/massimo/sources/xed/datafiles/avx/avx-aes-isa.txt'
p198
g3
(g4
g5
NtRp199
(dp200
g8
S'd006a4a2663486e88b45751cfda335cbd201ff1f'
p201
sbsS'/home/massimo/sources/xed/datafiles/amdxop/xop-state-bits.txt'
p202
g3
(g4
g5
NtRp203
(dp204
g8
S'e7d21a324c7c8822ad42081334cc0a5ef3353879'
p205
sbsS'/home/massimo/sources/xed/pysrc/enumer.py'
p206
g3
(g4
g5
NtRp207
(dp208
g8
S'051e56dfd15f495ccf52de40d4b93f6d2c069de4'
p209
sbsS'/home/massimo/sources/xed/datafiles/clflushopt/clflushopt.xed.txt'
p210
g3
(g4
g5
NtRp211
(dp212
g8
S'00920d227c16826672fa91604cf841d200ab9d15'
p213
sbsS'/home/massimo/sources/xed/datafiles/avx512f/avx512-reg-tables-r3.txt'
p214
g3
(g4
g5
NtRp215
(dp216
g8
S'43a013275fc4596f1b96ccd530d1ca9f68278c12'
p217
sbsS'/home/massimo/sources/xed/datafiles/ivbavx/fp16-element-type-enum.txt'
p218
g3
(g4
g5
NtRp219
(dp220
g8
S'2d1fe434f0317385bea58090c9fa3648167656d1'
p221
sbsS'/home/massimo/sources/xed/pysrc/hashlin.py'
p222
g3
(g4
g5
NtRp223
(dp224
g8
S'71ace1018995d4880530ec4a3ccf51b887e14e9b'
p225
sbsS'/home/massimo/sources/xed/pysrc/hashmul.py'
p226
g3
(g4
g5
NtRp227
(dp228
g8
S'29a39d63c2acf08790186b2bcd2c251aa662bb2d'
p229
sbsS'/home/massimo/sources/xed/datafiles/knl/cpuid.xed.txt'
p230
g3
(g4
g5
NtRp231
(dp232
g8
S'7479279b5639e4daf80e6981994ec233380b4f77'
p233
sbsS'/home/massimo/sources/xed/datafiles/avx512vbmi/cpuid.xed.txt'
p234
g3
(g4
g5
NtRp235
(dp236
g8
S'de306dcd1d20ddf397eedcc1a2106ccfcb228802'
p237
sbsS'/home/massimo/sources/xed/datafiles/avx/avx-pclmul-isa.txt'
p238
g3
(g4
g5
NtRp239
(dp240
g8
S'0e645de24c885e4654597818588cf81858687b5c'
p241
sbsS'/home/massimo/sources/xed/pysrc/xed3_nt.py'
p242
g3
(g4
g5
NtRp243
(dp244
g8
S'843884528e0bb7660fb988b68fe717aa6858a2db'
p245
sbsS'/home/massimo/sources/xed/datafiles/cldemote/cldemote-isa.xed.txt'
p246
g3
(g4
g5
NtRp247
(dp248
g8
S'ce298efd80ef3c62ec0c5d2e8c74ebb00f858972'
p249
sbsS'/home/massimo/sources/xed/datafiles/xed-fields.txt'
p250
g3
(g4
g5
NtRp251
(dp252
g8
S'475aff6e74b420903ae7c085b4e66d3dd5d2f06d'
p253
sbsS'/home/massimo/sources/xed/datafiles/avx512f/avx512-reg-table-gpr.txt'
p254
g3
(g4
g5
NtRp255
(dp256
g8
S'6055f67231e6cd65c3e51e5f535e0a885054e7c8'
p257
sbsS'/home/massimo/sources/xed/datafiles/xed-amd-base.txt'
p258
g3
(g4
g5
NtRp259
(dp260
g8
S'0daf89b2bea300dd56c7ff497c87e0658739cc6b'
p261
sbsS'/home/massimo/sources/xed/datafiles/xsavec/cpuid.xed.txt'
p262
g3
(g4
g5
NtRp263
(dp264
g8
S'3377e9dcc396db50757cfb0dfe727cbad974b4f0'
p265
sbsS'/home/massimo/sources/xed/pysrc/flag_gen.py'
p266
g3
(g4
g5
NtRp267
(dp268
g8
S'0fefebed45f5d32dc8758cbb127a9594c4660947'
p269
sbsS'/home/massimo/sources/xed/datafiles/xed-amd-sse4a.txt'
p270
g3
(g4
g5
NtRp271
(dp272
g8
S'd42a7e7c1ec235b069a192253a64bd07e8d643c0'
p273
sbsS'/home/massimo/sources/xed/datafiles/clwb/clwb.xed.txt'
p274
g3
(g4
g5
NtRp275
(dp276
g8
S'd33617f5b24cd4ad522ddf9bf771827f45c9e636'
p277
sbsS'/home/massimo/sources/xed/datafiles/cpuid-amd.xed.txt'
p278
g3
(g4
g5
NtRp279
(dp280
g8
S'dbb14e28f9f96d04225ac951a4463f0623015db1'
p281
sbsS'/home/massimo/sources/xed/datafiles/cet/cet-isa.xed.txt'
p282
g3
(g4
g5
NtRp283
(dp284
g8
S'4843d34b684669e8e773c7dbb2144fa714fcbc54'
p285
sbsS'/home/massimo/sources/xed/datafiles/movdir/cpuid.xed.txt'
p286
g3
(g4
g5
NtRp287
(dp288
g8
S'97e22b7ff16aca97b9a5176a38c08e6bffc182a3'
p289
sbsS'/home/massimo/sources/xed/datafiles/xed-reg-role.enum.txt'
p290
g3
(g4
g5
NtRp291
(dp292
g8
S'76c8c9606902282f054a562e5610e2c5878a5d1e'
p293
sbsS'/home/massimo/sources/xed/datafiles/mpx/mpx-reg-check.txt'
p294
g3
(g4
g5
NtRp295
(dp296
g8
S'58723084d7fc4a85f78e3aa364047527a5e10fb8'
p297
sbsS'/home/massimo/sources/xed/datafiles/sha/sha-isa.xed.txt'
p298
g3
(g4
g5
NtRp299
(dp300
g8
S'3c768834cd75d69f8ce2dbde98df592cca897ace'
p301
sbsS'/home/massimo/sources/xed/datafiles/hsw/invpcid-isa.xed.txt'
p302
g3
(g4
g5
NtRp303
(dp304
g8
S'aaa1502d62bcbd2f7f2fa95b4a79a76e07a13654'
p305
sbsS'/home/massimo/sources/xed/datafiles/hswbmi/hsw-bmi-vex-isa.xed.txt'
p306
g3
(g4
g5
NtRp307
(dp308
g8
S'f960ffdb3c83104a22687a58cd23b5f7198c97fe'
p309
sbsS'/home/massimo/sources/xed/datafiles/xsaveopt/xsaveopt-isa.txt'
p310
g3
(g4
g5
NtRp311
(dp312
g8
S'f037e9793545ac2118fa812e459562f812e2d4b1'
p313
sbsS'/home/massimo/sources/xed/datafiles/bitalg/bitalg-isa.xed.txt'
p314
g3
(g4
g5
NtRp315
(dp316
g8
S'099c2fb221855e4db35ff1d005f72ccd6f8cb2b6'
p317
sbsS'/home/massimo/sources/xed/datafiles/mpx/mpx-isa.txt'
p318
g3
(g4
g5
NtRp319
(dp320
g8
S'e993cfef9a24fc91199c809ff4742b30618ee2b1'
p321
sbsS'/home/massimo/sources/xed/datafiles/vbmi2/cpuid.xed.txt'
p322
g3
(g4
g5
NtRp323
(dp324
g8
S'414707b10237f7a1feb121a31724a7cac068687f'
p325
sbsS'/home/massimo/sources/xed/datafiles/avx512f/avx512-foundation-isa.xed.txt'
p326
g3
(g4
g5
NtRp327
(dp328
g8
S'89e6fe794013709c7d022d207327064129132948'
p329
sbsS'/home/massimo/sources/xed/datafiles/pku/cpuid.xed.txt'
p330
g3
(g4
g5
NtRp331
(dp332
g8
S'8df27233924f7c665c14434b190373b5b2065737'
p333
sbsS'/home/massimo/sources/xed/datafiles/hswavx/hsw-int256-isa.txt'
p334
g3
(g4
g5
NtRp335
(dp336
g8
S'9f088fef364316b02084bbbdf113e72c3cb0c685'
p337
sbsS'/home/massimo/sources/xed/datafiles/hswavx/movnt-load-isa.txt'
p338
g3
(g4
g5
NtRp339
(dp340
g8
S'4ffeef8bee9f3e9ff7b47853a1222d47eba34a38'
p341
sbsS'/home/massimo/sources/xed/datafiles/cldemote/cpuid.xed.txt'
p342
g3
(g4
g5
NtRp343
(dp344
g8
S'6b1fa65a5fd29f2f6b1a4de9a792e3b307980e52'
p345
sbsS'/home/massimo/sources/xed/datafiles/knm/knm-disp8.txt'
p346
g3
(g4
g5
NtRp347
(dp348
g8
S'dc35938c73bdbac903b7e02d7e8df07f8f6b7abd'
p349
sbsS'/home/massimo/sources/xed/datafiles/xed-flag-enum.txt'
p350
g3
(g4
g5
NtRp351
(dp352
g8
S'2a49099a58c7eecea0665af48ffc4ffcfde7936b'
p353
sbsS'/home/massimo/sources/xed/datafiles/xed-nops.txt'
p354
g3
(g4
g5
NtRp355
(dp356
g8
S'7d6481d08f930335ff5fae4dc503986f390c8ae8'
p357
sbsS'/home/massimo/sources/xed/datafiles/avx/cpuid.xed.txt'
p358
g3
(g4
g5
NtRp359
(dp360
g8
S'fc9c8449c5e6e374c0e52b326d7fc222e91d7461'
p361
sbsS'/home/massimo/sources/xed/datafiles/xed-immediates.txt'
p362
g3
(g4
g5
NtRp363
(dp364
g8
S'723d074a2b6df0c36056a41771e71160c1f2b3d5'
p365
sbsS'/home/massimo/sources/xed/datafiles/xed-error-enum.txt'
p366
g3
(g4
g5
NtRp367
(dp368
g8
S'6183e84e1f6b238873fb669d1c05fdd90755a079'
p369
sbsS'/home/massimo/sources/xed/datafiles/cldemote/cldemote-fields.txt'
p370
g3
(g4
g5
NtRp371
(dp372
g8
S'8251a57bd17eb77462873c62b9f16630cc8d1eae'
p373
sbsS'/home/massimo/sources/xed/datafiles/knl/knl-chips.txt'
p374
g3
(g4
g5
NtRp375
(dp376
g8
S'4fa3ca974b329c69c6903e3ab7ed74f3f3dd7a70'
p377
sbsS'/home/massimo/sources/xed/datafiles/mpx/cpuid.xed.txt'
p378
g3
(g4
g5
NtRp379
(dp380
g8
S'8778854bb78aaf7112a775b288fb932f46b47e4a'
p381
sbsS'/home/massimo/sources/xed/datafiles/xed-syntax-enum.txt'
p382
g3
(g4
g5
NtRp383
(dp384
g8
S'acf8093dedd6a968e8998b8528b01e06a90326e8'
p385
sbsS'/home/massimo/sources/xed/pysrc/ctables.py'
p386
g3
(g4
g5
NtRp387
(dp388
g8
S'1a5397f2401d681ea3c02522bc8395070fdb1afe'
p389
sbsS'/home/massimo/sources/xed/datafiles/wbnoinvd/cpuid.xed.txt'
p390
g3
(g4
g5
NtRp391
(dp392
g8
S'1ae3d956357d805b078f9ca8893c2f7f753c038f'
p393
sbsS'/home/massimo/sources/xed/datafiles/avx512f/cpuid.xed.txt'
p394
g3
(g4
g5
NtRp395
(dp396
g8
S'41f33fe8ee3c5a61a0794d6fab99208e9db1ebd1'
p397
sbsS'/home/massimo/sources/xed/datafiles/4vnniw-512/cpuid.xed.txt'
p398
g3
(g4
g5
NtRp399
(dp400
g8
S'32dc705eb9a1972698eb830ca7bd5dd46524535c'
p401
sbsS'/home/massimo/sources/xed/datafiles/avx/avx-imm-enc.txt'
p402
g3
(g4
g5
NtRp403
(dp404
g8
S'4c5731a16b44c51396239d648af20eb575a51ca2'
p405
sbsS'/home/massimo/sources/xed/datafiles/oc2-extras.txt'
p406
g3
(g4
g5
NtRp407
(dp408
g8
S'0a4ee8f42479e045e2dff13a5c4506fd8e9c1562'
p409
sbsS'/home/massimo/sources/xed/datafiles/smap/smap-isa.xed.txt'
p410
g3
(g4
g5
NtRp411
(dp412
g8
S'2105b298bb8d5c912f8354fccad68ab9ccdca647'
p413
sbsS'/home/massimo/sources/xed/datafiles/xsaveopt/cpuid.xed.txt'
p414
g3
(g4
g5
NtRp415
(dp416
g8
S'ddd207377d1fed5fe46f4cffffe1195fdb1d5161'
p417
sbsS'/home/massimo/sources/xed/datafiles/bdw/adox-adcx-isa.xed.txt'
p418
g3
(g4
g5
NtRp419
(dp420
g8
S'6b59238eb314df1a3f69e6afcca3b1e51bdf9457'
p421
sbsS'/home/massimo/sources/xed/datafiles/vpopcntdq-512/vpopcntdq-512-isa.xed.txt'
p422
g3
(g4
g5
NtRp423
(dp424
g8
S'57103b9405eba5135d4a23ac60dfcdafb035bf4b'
p425
sbsS'/home/massimo/sources/xed/datafiles/xed-eASZ.txt'
p426
g3
(g4
g5
NtRp427
(dp428
g8
S'dea8b4d29691c2df8ac657d96fb255f6fd0251b5'
p429
sbsS'/home/massimo/sources/xed/datafiles/knc-kregs.txt'
p430
g3
(g4
g5
NtRp431
(dp432
g8
S'24de41763ef29552b7f079bbfd5a87b941f3abad'
p433
sbsS'/home/massimo/sources/xed/datafiles/avx512-skx/skx-state-bits.txt'
p434
g3
(g4
g5
NtRp435
(dp436
g8
S'f5605400ce1f3b791431dc36f90b7abcb9f4d815'
p437
sbsS'/home/massimo/sources/xed/datafiles/sgx/sgx-isa.xed.txt'
p438
g3
(g4
g5
NtRp439
(dp440
g8
S'ffe0509338ca10a9504d68f8cd9ac83113f4bd5b'
p441
sbsS'/home/massimo/sources/xed/datafiles/avx/avx-isa.txt'
p442
g3
(g4
g5
NtRp443
(dp444
g8
S'db1a6aa4547b6d39014d7be444e72e4f5afc6221'
p445
sbsS'/home/massimo/sources/xed/datafiles/ivbavx/cpuid.xed.txt'
p446
g3
(g4
g5
NtRp447
(dp448
g8
S'e8229d68a955e8860f668d3bb2ed51f8d6a3ec6e'
p449
sbsS'/home/massimo/sources/xed/datafiles/hsw/lzcnt-isa.xed.txt'
p450
g3
(g4
g5
NtRp451
(dp452
g8
S'4ddc97a2a07b66f9a501353d58eb72de9c45bf3f'
p453
sbsS'/home/massimo/sources/xed/obj/prep-inputs'
p454
g3
(g4
g5
NtRp455
(dp456
g8
S'0790f05d158dfed4b64fd43e4202e260c0eae003'
p457
sbsS'/home/massimo/sources/xed/datafiles/fsgsbase/fsgsbase-isa.xed.txt'
p458
g3
(g4
g5
NtRp459
(dp460
g8
S'2f97bd09cafbbc12529cfc433d892fd950b506a4'
p461
sbsS'/home/massimo/sources/xed/datafiles/avx/avx-fields.txt'
p462
g3
(g4
g5
NtRp463
(dp464
g8
S'7b55249041be0c7a51544082710515971c332e8c'
p465
sbsS'/home/massimo/sources/xed/datafiles/vpopcntdq-512/cpuid.xed.txt'
p466
g3
(g4
g5
NtRp467
(dp468
g8
S'712b8ae7f6c23ecf860a1c27de42f297a1d1190b'
p469
sbsS'/home/massimo/sources/xed/datafiles/clwb/cpuid.xed.txt'
p470
g3
(g4
g5
NtRp471
(dp472
g8
S'cbfe2f139568e0b3bee059e92ea551a4e15f23e0'
p473
sbsS'/home/massimo/sources/xed/datafiles/xed-regs-enc.txt'
p474
g3
(g4
g5
NtRp475
(dp476
g8
S'3c3ceb768a0866164dfc0381ea477caf4836932f'
p477
sbsS'/home/massimo/sources/xed/pysrc/hashfks.py'
p478
g3
(g4
g5
NtRp479
(dp480
g8
S'c74b88da0135a8e7a62ec7e310c247ac449f5603'
p481
sbsS'/home/massimo/sources/xed/datafiles/knm/knm-disp8-enc.txt'
p482
g3
(g4
g5
NtRp483
(dp484
g8
S'de2da532e3e72c29a501ee5678cc06df53120458'
p485
sbsS'/home/massimo/sources/xed/datafiles/xed-isa.txt'
p486
g3
(g4
g5
NtRp487
(dp488
g8
S'6d9458f0834df184927cad9879a9cb9f14f435e8'
p489
sbsS'/home/massimo/sources/xed/datafiles/avx/avx-regs.txt'
p490
g3
(g4
g5
NtRp491
(dp492
g8
S'6e4bfc7e736a57853f9bba874ed6ba2189c21dac'
p493
sbsS'/home/massimo/sources/xed/datafiles/hsw/vmfunc-isa.xed.txt'
p494
g3
(g4
g5
NtRp495
(dp496
g8
S'185f1daaf4d3e573fb82d7d039c39fd0db4ea405'
p497
sbsS'/home/massimo/sources/xed/datafiles/hswavx/gather-isa.txt'
p498
g3
(g4
g5
NtRp499
(dp500
g8
S'67c6bcc4cf6ceb5995d6cdfae0c20b900d5bd3d9'
p501
sbsS'/home/massimo/sources/xed/datafiles/xed-modrm-encode.txt'
p502
g3
(g4
g5
NtRp503
(dp504
g8
S'59db0aa6bf450d2e7e573c455f1eab99facc4979'
p505
sbsS'/home/massimo/sources/xed/pysrc/patterns.py'
p506
g3
(g4
g5
NtRp507
(dp508
g8
S'3e83b263aacf1c5b2c2b1996d728de5dfed10eda'
p509
sbsS'/home/massimo/sources/xed/datafiles/hswavx/vsib-addressing-enc.txt'
p510
g3
(g4
g5
NtRp511
(dp512
g8
S'97eb8b0fa1268e899a1982aa83703a76679a079d'
p513
sbsS'/home/massimo/sources/xed/datafiles/xed-chips.txt'
p514
g3
(g4
g5
NtRp515
(dp516
g8
S'7bd347630f01198d8d4d76de00b63fb09f2d8e6a'
p517
sbsS'/home/massimo/sources/xed/datafiles/clflushopt/cpuid.xed.txt'
p518
g3
(g4
g5
NtRp519
(dp520
g8
S'6f26ca828eb44a87aaba947549488ccd4e9a5b3a'
p521
sbsS'/home/massimo/sources/xed/datafiles/avx/avx-imm.txt'
p522
g3
(g4
g5
NtRp523
(dp524
g8
S'9a3778cc1b827f73a3eacf8663281ee2221f919e'
p525
sbsS'/home/massimo/sources/xed/datafiles/avx512ifma/cpuid.xed.txt'
p526
g3
(g4
g5
NtRp527
(dp528
g8
S'11975a19040bc2ffd96e33187da4bb8a8dd40707'
p529
sbsS'/home/massimo/sources/xed/datafiles/avx512f/avx512-kregs.txt'
p530
g3
(g4
g5
NtRp531
(dp532
g8
S'fcf0f8af40110cfe082cf981188cb21866500cf9'
p533
sbsS'/home/massimo/sources/xed/datafiles/xed-reg-tables-xmm.txt'
p534
g3
(g4
g5
NtRp535
(dp536
g8
S'5a0f1b5a421bd6b971acb19ed23238ae0c01c49e'
p537
sbsS'/home/massimo/sources/xed/datafiles/avx512f/avx512-addressing-enc.txt'
p538
g3
(g4
g5
NtRp539
(dp540
g8
S'98a8ac70429d5a2b4d2f30ae1f35fa3215cb54c5'
p541
sbsS'/home/massimo/sources/xed/datafiles/avx512-skx/cpuid.xed.txt'
p542
g3
(g4
g5
NtRp543
(dp544
g8
S'102073db6e0c4b1c5e82a9e5a8f9535cda664b54'
p545
sbsS'/home/massimo/sources/xed/datafiles/xed-convert.txt'
p546
g3
(g4
g5
NtRp547
(dp548
g8
S'776ec67b5eeec69f15268393ba6ba6b72d1c8153'
p549
sbsS'/home/massimo/sources/xed/datafiles/wbnoinvd/wbnoinvd-isa.xed.txt'
p550
g3
(g4
g5
NtRp551
(dp552
g8
S'4c1112369be6c6561d99703b9e2c5b918a937877'
p553
sbsS'/home/massimo/sources/xed/pysrc/verbosity.py'
p554
g3
(g4
g5
NtRp555
(dp556
g8
S'0cb86b351fd5b657f5445d8bfb21618f7086ea84'
p557
sbsS'/home/massimo/sources/xed/datafiles/xed-amd-clzero.txt'
p558
g3
(g4
g5
NtRp559
(dp560
g8
S'1fc7b59e6150da1e59df7ac49331bbdc09f5e250'
p561
sbsS'/home/massimo/sources/xed/pysrc/tup2int.py'
p562
g3
(g4
g5
NtRp563
(dp564
g8
S'd45bebf62ee1aaf39485fd6c83dbfbb56c213352'
p565
sbsS'/home/massimo/sources/xed/datafiles/avx512f/avx512-disp8-enc.txt'
p566
g3
(g4
g5
NtRp567
(dp568
g8
S'c76a81f3af2c07ccec2ef572d183b7a1925ca948'
p569
sbsS'/home/massimo/sources/xed/datafiles/hswavx/cpuid.xed.txt'
p570
g3
(g4
g5
NtRp571
(dp572
g8
S'15b50c26387b41d09d5129accabcda7b2dfa28b9'
p573
sbsS'/home/massimo/sources/xed/datafiles/gfni-vaes-vpcl/cpuid.xed.txt'
p574
g3
(g4
g5
NtRp575
(dp576
g8
S'513856b033b0eb243ee5da9dda167fa927318d0b'
p577
sbsS'/home/massimo/sources/xed/datafiles/fsgsbase/fsgsbase-regs.xed.txt'
p578
g3
(g4
g5
NtRp579
(dp580
g8
S'7e6aba93faa7f80d412e0d894b1b0b0fdb6fbb35'
p581
sbsS'/home/massimo/sources/xed/datafiles/amdxop/amd-vpermil2-isa.txt'
p582
g3
(g4
g5
NtRp583
(dp584
g8
S'5618ca6825ff700ad92d59883ac2fd54b44f70e1'
p585
sbsS'/home/massimo/sources/xed/pysrc/ild_nt.py'
p586
g3
(g4
g5
NtRp587
(dp588
g8
S'57debe7c9ca4e9889de46e1156e601a1df31889a'
p589
sbsS'/home/massimo/sources/xed/pysrc/encutil.py'
p590
g3
(g4
g5
NtRp591
(dp592
g8
S'b42a78c9f7fcb206d178d9ab1ba796434df381e6'
p593
sbsS'/home/massimo/sources/xed/datafiles/avx512f/avx512-evex-enc.txt'
p594
g3
(g4
g5
NtRp595
(dp596
g8
S'410f68db499b5a97b761c0dcca711679cd037b46'
p597
sbsS'/home/massimo/sources/xed/pysrc/genutil.py'
p598
g3
(g4
g5
NtRp599
(dp600
g8
S'907f9bbcdee55bb24d9b62f213e84342fb3029fe'
p601
sbsS'/home/massimo/sources/xed/datafiles/hswbmi/hsw-reg-table.txt'
p602
g3
(g4
g5
NtRp603
(dp604
g8
S'9a4ccbd01ca8bab84ef852eab0bf7e99430f05da'
p605
sbsS'/home/massimo/sources/xed/datafiles/gfni-vaes-vpcl/cpuid-sse.xed.txt'
p606
g3
(g4
g5
NtRp607
(dp608
g8
S'9a7b24304f4deda1e9ff8f6f0434aea204e9671b'
p609
sbsS'/home/massimo/sources/xed/datafiles/bitalg/cpuid.xed.txt'
p610
g3
(g4
g5
NtRp611
(dp612
g8
S'1f15a2fd3421307ee10acf98e34422dedd323003'
p613
sbsS'/home/massimo/sources/xed/datafiles/hswbmi/cpuid.xed.txt'
p614
g3
(g4
g5
NtRp615
(dp616
g8
S'0e36e15ee7cffed38a6562727657b8086421eb80'
p617
sbsS'/home/massimo/sources/xed/datafiles/xsavec/xsavec-isa.txt'
p618
g3
(g4
g5
NtRp619
(dp620
g8
S'36e8dc3876987bfe949acd72ccf4af0b2220f808'
p621
sbsS'/home/massimo/sources/xed/datafiles/bdw/bdw-chips.txt'
p622
g3
(g4
g5
NtRp623
(dp624
g8
S'5f6904d34ae1c36016219776d434cf2347ee2169'
p625
sbsS'/home/massimo/sources/xed/datafiles/knc/uisa-spine.txt'
p626
g3
(g4
g5
NtRp627
(dp628
g8
S'8db5646aef6de44ae54e150f788c2003da6ccfca'
p629
sbsS'/home/massimo/sources/xed/datafiles/cet/cpuid.xed.txt'
p630
g3
(g4
g5
NtRp631
(dp632
g8
S'42a09b8e98481b4ccf182e12e82df6c37905759c'
p633
sbsS'/home/massimo/sources/xed/datafiles/gfni-vaes-vpcl/gfni-vex-isa.xed.txt'
p634
g3
(g4
g5
NtRp635
(dp636
g8
S'787a0de633767c5f31fb38280d71ab8f61caed28'
p637
sbsS'/home/massimo/sources/xed/datafiles/waitpkg/cpuid.xed.txt'
p638
g3
(g4
g5
NtRp639
(dp640
g8
S'8d2c8401325b89c79c03255cbfbce94a558cc7a8'
p641
sbsS'/home/massimo/sources/xed/datafiles/avx/avx-pointer-width.txt'
p642
g3
(g4
g5
NtRp643
(dp644
g8
S'c604fab97d22df66a8c914a20d0d7c58d3df4151'
p645
sbsS'/home/massimo/sources/xed/datafiles/avx/avx-vex.txt'
p646
g3
(g4
g5
NtRp647
(dp648
g8
S'b8cb59b67f73fd287f8b2d7be27094a232f47493'
p649
sbsS'/home/massimo/sources/xed/datafiles/ivbavx/fp16-isa.txt'
p650
g3
(g4
g5
NtRp651
(dp652
g8
S'3596a1b07114d03fd204518b39caf33d3202fa8f'
p653
sbsS'/home/massimo/sources/xed/pysrc/ild_disp.py'
p654
g3
(g4
g5
NtRp655
(dp656
g8
S'0218b4165864dfe118facec28c3856a79ec4fe9b'
p657
sbsS'/home/massimo/sources/xed/datafiles/avx512-skx/skx-isa.xed.txt'
p658
g3
(g4
g5
NtRp659
(dp660
g8
S'94246c3774cd325a50d21369c9b775349d661cb5'
p661
sbsS'/home/massimo/sources/xed/datafiles/avx512cd/cpuid.xed.txt'
p662
g3
(g4
g5
NtRp663
(dp664
g8
S'45a919bbd9bb0a6246140a67a560241bfba96af2'
p665
sbsS'/home/massimo/sources/xed/pysrc/scatter.py'
p666
g3
(g4
g5
NtRp667
(dp668
g8
S'bb060b62ea024c17f861750baf96ecdf4c7ec247'
p669
sbsS'/home/massimo/sources/xed/datafiles/xed-machine-modes-enum.txt'
p670
g3
(g4
g5
NtRp671
(dp672
g8
S'c4ecfdc16aeaa14615b865e7c4026c819f5b58ff'
p673
sbsS'/home/massimo/sources/xed/pysrc/refine_regs.py'
p674
g3
(g4
g5
NtRp675
(dp676
g8
S'33703242b1fba214a9ab4cf8d867911c04dc8c7a'
p677
sbsS'/home/massimo/sources/xed/datafiles/hswavx/vsib-addressing-dec.txt'
p678
g3
(g4
g5
NtRp679
(dp680
g8
S'eff1f41a31ad4e320363afc2d2dffb41c4c886d9'
p681
sbsS'/home/massimo/sources/xed/pysrc/ild_phash.py'
p682
g3
(g4
g5
NtRp683
(dp684
g8
S'07bf0103f7f45cb47d44e2063c14f792c2543470'
p685
sbsS'/home/massimo/sources/xed/datafiles/cldemote/cldemote-nop-mod.xed.txt'
p686
g3
(g4
g5
NtRp687
(dp688
g8
S'324551b2a27d8b081a3f8131588abac3f0f19919'
p689
sbsS'/home/massimo/sources/xed/datafiles/avx/avx-vex-enc.txt'
p690
g3
(g4
g5
NtRp691
(dp692
g8
S'2ac73f2a206906a06feb62b59838b6607c80e2b4'
p693
sbsS'/home/massimo/sources/xed/datafiles/avx512f/avx512-operand-widths.txt'
p694
g3
(g4
g5
NtRp695
(dp696
g8
S'f138950763f6847b4bee5ce4337b1205c4390429'
p697
sbsS'/home/massimo/sources/xed/pysrc/xedhash.py'
p698
g3
(g4
g5
NtRp699
(dp700
g8
S'a22ed368a9b682a520f88d6b6b231866c71f3a2b'
p701
sbsS'/home/massimo/sources/xed/datafiles/xed-operand-action-enum.txt'
p702
g3
(g4
g5
NtRp703
(dp704
g8
S'3d60bdaf61e2f5737935bc0d607dc0da8a4a6175'
p705
sbsS'/home/massimo/sources/xed/datafiles/avx512vbmi/vbmi-isa.xed.txt'
p706
g3
(g4
g5
NtRp707
(dp708
g8
S'c12d9067daa034dc289149d474c9b727cdaf9d2b'
p709
sbsS'/home/massimo/sources/xed/datafiles/vbmi2/vbmi2-isa.xed.txt'
p710
g3
(g4
g5
NtRp711
(dp712
g8
S'0c55c5023ebcb929ea8a88c726565adcdb4d8fe4'
p713
sbsS'/home/massimo/sources/xed/datafiles/waitpkg/asize-rm-table.xed.txt'
p714
g3
(g4
g5
NtRp715
(dp716
g8
S'ac62a22a80aba853d1916e7fd6495e784a867e26'
p717
sbsS'/home/massimo/sources/xed/obj/ENCGEN-OUTPUT-FILES.txt'
p718
g3
(g4
g5
NtRp719
(dp720
g8
S'a175ccd131a3903217be883448f2247d8d5e6d37'
p721
sbsS'/home/massimo/sources/xed/pysrc/hlist.py'
p722
g3
(g4
g5
NtRp723
(dp724
g8
S'66f4dab6c5a318c5909a87ccbff5b399a50bc78d'
p725
sbsS'/home/massimo/sources/xed/datafiles/avx512ifma/ifma-isa.xed.txt'
p726
g3
(g4
g5
NtRp727
(dp728
g8
S'2ecfcf3bcafaf653075c123165a4c0c698c6141d'
p729
sbsS'/home/massimo/sources/xed/datafiles/avx512f/avx512-evex-dec.txt'
p730
g3
(g4
g5
NtRp731
(dp732
g8
S'0e96cb349ce09a02f472bbd9e33687a20b75a583'
p733
sbsS'/home/massimo/sources/xed/datafiles/pconfig/pconfig-isa.xed.txt'
p734
g3
(g4
g5
NtRp735
(dp736
g8
S'1a3e164694a4a9b3dd8f03ab4de2b1c9ced5040b'
p737
sbsS'/home/massimo/sources/xed/datafiles/xsaves/xsaves-isa.txt'
p738
g3
(g4
g5
NtRp739
(dp740
g8
S'318a08a4a622d6ba20aa8c6bba5807b345c1142a'
p741
sbsS'/home/massimo/sources/xed/datafiles/xed-amd-monitorx.txt'
p742
g3
(g4
g5
NtRp743
(dp744
g8
S'e5b1c62d935903f5f2db3208939678b0e893791a'
p745
sbsS'/home/massimo/sources/xed/datafiles/4vnniw-512/4vnniw-512-isa.xed.txt'
p746
g3
(g4
g5
NtRp747
(dp748
g8
S'41519953127e61ef496f5941372c7c028aa435c5'
p749
sbsS'/home/massimo/sources/xed/datafiles/vnni/cpuid.xed.txt'
p750
g3
(g4
g5
NtRp751
(dp752
g8
S'250ec8c326c87b29bd617095fe6a05d1028648b4'
p753
sbsS'/home/massimo/sources/xed/datafiles/xed-operand-width.txt'
p754
g3
(g4
g5
NtRp755
(dp756
g8
S'8509147c8603f1820ba668d3ac6d619db362b1f8'
p757
sbsS'/home/massimo/sources/xed/pysrc/ild_info.py'
p758
g3
(g4
g5
NtRp759
(dp760
g8
S'e02df34418c70796f7730487a40cb73f1ff0630c'
p761
sbsS'/home/massimo/sources/xed/datafiles/sgx-enclv/sgx-enclv-isa.xed.txt'
p762
g3
(g4
g5
NtRp763
(dp764
g8
S'3f083aae13bdc3240a0e5fe36760fd7a6703a421'
p765
sbsS'/home/massimo/sources/xed/datafiles/xed-amd-chips.txt'
p766
g3
(g4
g5
NtRp767
(dp768
g8
S'a5b767a507c8bdadf30204f545f3ef568895c847'
p769
sbsS'/home/massimo/sources/xed/datafiles/avx512f/avx512-fields.txt'
p770
g3
(g4
g5
NtRp771
(dp772
g8
S'8990403b1203c2fe792843ebf69c9f75ab806f91'
p773
sbsS'/home/massimo/sources/xed/pysrc/operand_storage.py'
p774
g3
(g4
g5
NtRp775
(dp776
g8
S'6ea47dfcfe2e7dcd61579490bc2b97ffdb10c825'
p777
sbsS'/home/massimo/sources/xed/datafiles/glm/glm-chips.txt'
p778
g3
(g4
g5
NtRp779
(dp780
g8
S'59508511ff3cd897ebd49a4db45f9f86d81c29cc'
p781
sbsS'/home/massimo/sources/xed/datafiles/amdxop/amd-fma4-isa.txt'
p782
g3
(g4
g5
NtRp783
(dp784
g8
S'60575e2ec460b7b3c412e4bfa64f9884a3c7be88'
p785
sbsS'/home/massimo/sources/xed/datafiles/rdpid/rdpid-isa.xed.txt'
p786
g3
(g4
g5
NtRp787
(dp788
g8
S'3c70af934a3826c4f4f1bfdc5680dc13e83d0c3b'
p789
sbsS'/home/massimo/sources/xed/pysrc/ild_codegen.py'
p790
g3
(g4
g5
NtRp791
(dp792
g8
S'84b3be6849cb6d68d2dd7c4ddbfd57d2a0a9f287'
p793
sbsS'/home/massimo/sources/xed/datafiles/vpopcntdq-vl/vpopcntdq-vl-isa.xed.txt'
p794
g3
(g4
g5
NtRp795
(dp796
g8
S'9cbcb5a47b09946ab7306d814b4aa4623ce0b968'
p797
sbsS'/home/massimo/sources/xed/datafiles/wbnoinvd/wbnoinvd-fields.txt'
p798
g3
(g4
g5
NtRp799
(dp800
g8
S'e7e0bf29df8b404d100333a86d651592dbc54970'
p801
sbsS'/home/massimo/sources/xed/datafiles/xed-operand-types.txt'
p802
g3
(g4
g5
NtRp803
(dp804
g8
S'2647733374347181c82f47b9b0650366538718b1'
p805
sbsS'/home/massimo/sources/xed/datafiles/cet/cet-fields.txt'
p806
g3
(g4
g5
NtRp807
(dp808
g8
S'71b5b9df1bb36ffdebbf450f25fd1f2c636f874d'
p809
sbsS'/home/massimo/sources/xed/datafiles/rdseed/cpuid.xed.txt'
p810
g3
(g4
g5
NtRp811
(dp812
g8
S'580458d8345cec9308beaa965b50bd7f6eda2514'
p813
sbsS'/home/massimo/sources/xed/datafiles/ivbavx/fp16-operand-types.txt'
p814
g3
(g4
g5
NtRp815
(dp816
g8
S'f6bc107b768450bc955049eae3bc9082234de189'
p817
sbsS'/home/massimo/sources/xed/datafiles/smap/cpuid.xed.txt'
p818
g3
(g4
g5
NtRp819
(dp820
g8
S'ea7d63a381b7735cfcd8c35ec839b39b1a23ff51'
p821
sbsS'/home/massimo/sources/xed/datafiles/hswavx/hsw-vshift-isa.txt'
p822
g3
(g4
g5
NtRp823
(dp824
g8
S'66e08eae1a361c1f5225a67ff129807b9aa3e143'
p825
sbsS'/home/massimo/sources/xed/datafiles/waitpkg/waitpkg-isa.xed.txt'
p826
g3
(g4
g5
NtRp827
(dp828
g8
S'04a320a369532f12ed129e7d62e87486adea555c'
p829
sbsS'/home/massimo/sources/xed/pysrc/ild_cdict.py'
p830
g3
(g4
g5
NtRp831
(dp832
g8
S'67a8b44fb6ea0de9f1e658707f521770618d9372'
p833
sbsS'/home/massimo/sources/xed/datafiles/vpopcntdq-vl/cpuid.xed.txt'
p834
g3
(g4
g5
NtRp835
(dp836
g8
S'845150554be3c2edac615fc83dd19db46cbce465'
p837
sbsS'/home/massimo/sources/xed/datafiles/pt/intelpt-isa.xed.txt'
p838
g3
(g4
g5
NtRp839
(dp840
g8
S'6db92dde535387ad3f70340176f57ddc55b63944'
p841
sbsS'/home/massimo/sources/xed/datafiles/xed-prefixes-encode.txt'
p842
g3
(g4
g5
NtRp843
(dp844
g8
S'd592a98dec36f8b6c356f7040a3c3b5f0f891396'
p845
sbsS'/home/massimo/sources/xed/datafiles/avx/avx-isa-supp.txt'
p846
g3
(g4
g5
NtRp847
(dp848
g8
S'2d888c088f890e55a73207b2720e147d5514472f'
p849
sbsS'/home/massimo/sources/xed/pysrc/chipmodel.py'
p850
g3
(g4
g5
NtRp851
(dp852
g8
S'5d0c513c398e791699904287939b8a84d59fabf4'
p853
sbsS'/home/massimo/sources/xed/datafiles/hswavx/avx-fma-isa.xed.txt'
p854
g3
(g4
g5
NtRp855
(dp856
g8
S'e0578c48dfd0c16ba03edf5319b492030eb37cee'
p857
sbsS'/home/massimo/sources/xed/datafiles/avx512f/avx512-strings.txt'
p858
g3
(g4
g5
NtRp859
(dp860
g8
S'28349e3a74405e89c2c84ccc0154367ab753e0e1'
p861
sbsS'/home/massimo/sources/xed/datafiles/xed-operand-visibility-enum.txt'
p862
g3
(g4
g5
NtRp863
(dp864
g8
S'654e9f3f5ab642d0ac0a05a63bb75d9dee725507'
p865
sbsS'/home/massimo/sources/xed/datafiles/pku/pku-isa.xed.txt'
p866
g3
(g4
g5
NtRp867
(dp868
g8
S'5eb8ba86438bcdaeb1c28da15bd55ba992fec444'
p869
sbsS'/home/massimo/sources/xed/pysrc/ild_easz.py'
p870
g3
(g4
g5
NtRp871
(dp872
g8
S'12ec16c99642089c9dcecf9799f37947a83869f8'
p873
sbsS'/home/massimo/sources/xed/datafiles/tremont/tremont-chips.txt'
p874
g3
(g4
g5
NtRp875
(dp876
g8
S'8bffe9a6e184559ca29d159136f0a416c435fa58'
p877
sbsS'/home/massimo/sources/xed/pysrc/ild_eosz.py'
p878
g3
(g4
g5
NtRp879
(dp880
g8
S'3713d1edb2cb2dfd267f2546d95e50085c1c2c23'
p881
sbsS'/home/massimo/sources/xed/datafiles/avx/avx-chips.txt'
p882
g3
(g4
g5
NtRp883
(dp884
g8
S'0c64af8730c128401bd09307f0b88dec0d281199'
p885
sbsS'/home/massimo/sources/xed/datafiles/xed-gpr8-enc-reg-table.txt'
p886
g3
(g4
g5
NtRp887
(dp888
g8
S'a0d834cda23aae1b3092f2ef8cb1c9a450cf795f'
p889
sbsS'/home/massimo/sources/xed/obj/DECGEN-OUTPUT-FILES.txt'
p890
g3
(g4
g5
NtRp891
(dp892
g8
S'2f083557e3ea42e7f0f04fba4a111392421294d0'
p893
sbsS'/home/massimo/sources/xed/datafiles/xed-prefixes.txt'
p894
g3
(g4
g5
NtRp895
(dp896
g8
S'dd3d0bc520da2d6d776a255e9d4d7b44fda391cf'
p897
sbsS'/home/massimo/sources/xed/pysrc/actions_codegen.py'
p898
g3
(g4
g5
NtRp899
(dp900
g8
S'3a744d14db0fc6be3c248e8fd4e62f6fc294fa2f'
p901
sbsS'/home/massimo/sources/xed/datafiles/xed-amd-svm.txt'
p902
g3
(g4
g5
NtRp903
(dp904
g8
S'd0dd204e56b1af5c16fc3be9b373c79ec99ceae4'
p905
sbsS'/home/massimo/sources/xed/datafiles/xed-flag-action-enum.txt'
p906
g3
(g4
g5
NtRp907
(dp908
g8
S'38eb7035aad7192c513528959b43d42fa9d66a4b'
p909
sbsS'/home/massimo/sources/xed/datafiles/skx/skx-chips.txt'
p910
g3
(g4
g5
NtRp911
(dp912
g8
S'b3777ae6069d089bbfd63d11f365f6ab9d17c3bc'
p913
sbsS'/home/massimo/sources/xed/datafiles/bdw/cpuid.xed.txt'
p914
g3
(g4
g5
NtRp915
(dp916
g8
S'00e1dbccc7e10fb84612adb92705b0a9f9154a3b'
p917
sbsS'/home/massimo/sources/xed/datafiles/fsgsbase/cpuid.xed.txt'
p918
g3
(g4
g5
NtRp919
(dp920
g8
S'f3c1e10f5aa5760ae29e45d2c0b986869c430b5d'
p921
sbsS'/home/massimo/sources/xed/datafiles/hswbmi/tzcnt-isa.xed.txt'
p922
g3
(g4
g5
NtRp923
(dp924
g8
S'716a764dd143e80baa48b3c9b405232f4b10cd33'
p925
sbsS'/home/massimo/sources/xed/datafiles/ivbavx/ivb-chips.txt'
p926
g3
(g4
g5
NtRp927
(dp928
g8
S'40fb870b9d635e2a91c24d499382b00375bfa17e'
p929
sbsS'/home/massimo/sources/xed/datafiles/knm/knm-chips.txt'
p930
g3
(g4
g5
NtRp931
(dp932
g8
S'9bfa12ac0c7850db9d2ee2250b244ce6de0d54c0'
p933
sbsS'/home/massimo/sources/xed/datafiles/knc/lrb2-regs.txt'
p934
g3
(g4
g5
NtRp935
(dp936
g8
S'a3853858fee4e7e25004e681c346c63ad5340635'
p937
sbsS'/home/massimo/sources/xed/datafiles/knl/knl-fixup.txt'
p938
g3
(g4
g5
NtRp939
(dp940
g8
S'69b173bbc30227d901a248bac50ddbe384f558c3'
p941
sbsS'/home/massimo/sources/xed/datafiles/avx512f/avx512-regs.txt'
p942
g3
(g4
g5
NtRp943
(dp944
g8
S'88ec91a5e39c879473034ff64ec2ab5325dff778'
p945
sbsS'/home/massimo/sources/xed/pysrc/classifier.py'
p946
g3
(g4
g5
NtRp947
(dp948
g8
S'ca2986fc74d43dee4c7607a33b82f8d558bb62b6'
p949
sbsS'/home/massimo/sources/xed/datafiles/sgx/cpuid.xed.txt'
p950
g3
(g4
g5
NtRp951
(dp952
g8
S'87e23b8a03630f3ede3b2ae2e7bb1a80ffd887cf'
p953
sbsS'/home/massimo/sources/xed/datafiles/rdseed/rdseed-isa.xed.txt'
p954
g3
(g4
g5
NtRp955
(dp956
g8
S'f8e7cc6cbae84766c3d09148a12756fa0d717612'
p957
sbsS'/home/massimo/sources/xed/datafiles/xed-amd-3dnow.txt'
p958
g3
(g4
g5
NtRp959
(dp960
g8
S'05c5c9b3dee46cebf9734b4f3a128d2cc1dfd12e'
p961
sbsS'/home/massimo/sources/xed/pysrc/metaenum.py'
p962
g3
(g4
g5
NtRp963
(dp964
g8
S'1e233eebf915dfab0383c520c99258d755438863'
p965
sbsS'/home/massimo/sources/xed/pysrc/ild_storage.py'
p966
g3
(g4
g5
NtRp967
(dp968
g8
S'294f4a770f2338df161c2ca7bfd482704ef80d77'
p969
sbsS'/home/massimo/sources/xed/pysrc/slash_expand.py'
p970
g3
(g4
g5
NtRp971
(dp972
g8
S'0a92a0f65ac7fb12215373627e81bf5e4846431f'
p973
sbsS'/home/massimo/sources/xed/datafiles/knl/knl-isa.xed.txt'
p974
g3
(g4
g5
NtRp975
(dp976
g8
S'df8a61121e97d7b2012cfb5939c6842408b286e5'
p977
sbsS'/home/massimo/sources/xed/obj/dummy-prep'
p978
g3
(g4
g5
NtRp979
(dp980
g8
S'da39a3ee5e6b4b0d3255bfef95601890afd80709'
p981
sbsS'/home/massimo/sources/xed/pysrc/ild_imm.py'
p982
g3
(g4
g5
NtRp983
(dp984
g8
S'55da52d9540119deb14392584be52617af60cdee'
p985
sbsS'/home/massimo/sources/xed/datafiles/vnni/vnni-isa.xed.txt'
p986
g3
(g4
g5
NtRp987
(dp988
g8
S'66ae979e8f7d42a5aac664b95c7d776457676f0c'
p989
sbsS'/home/massimo/sources/xed/pysrc/ild_modrm.py'
p990
g3
(g4
g5
NtRp991
(dp992
g8
S'3890f8b6e564a3549e24c98063bdcbe883249ac4'
p993
sbsS'/home/massimo/sources/xed/pysrc/nt_func_gen.py'
p994
g3
(g4
g5
NtRp995
(dp996
g8
S'90fd48999adf0ae117c41abd73745375417c3135'
p997
sbsS'/home/massimo/sources/xed/datafiles/xed-addressing-modes-new.txt'
p998
g3
(g4
g5
NtRp999
(dp1000
g8
S'ccf7aa2a14c69132e228da157653d1ed650e17a4'
p1001
sbsS'/home/massimo/sources/xed/datafiles/amdxop/amd-xop-dec.txt'
p1002
g3
(g4
g5
NtRp1003
(dp1004
g8
S'f20083ae1dd6eccf0d75710bf374403e0e5f5e19'
p1005
sbsS'/home/massimo/sources/xed/datafiles/gfni-vaes-vpcl/gfni-evex-isa.xed.txt'
p1006
g3
(g4
g5
NtRp1007
(dp1008
g8
S'61b5f0f1171abda0dc37aa241ff21e4dee5be0ab'
p1009
sbsS'/home/massimo/sources/xed/pysrc/func_gen.py'
p1010
g3
(g4
g5
NtRp1011
(dp1012
g8
S'b342ce4e3d28a5d1633156f40ea99dead24d1033'
p1013
sbsS'/home/massimo/sources/xed/pysrc/actions.py'
p1014
g3
(g4
g5
NtRp1015
(dp1016
g8
S'b963016c4181800b084ca283a61fb92bb7d01543'
p1017
sbsS'/home/massimo/sources/xed/datafiles/xed-state-bits.txt'
p1018
g3
(g4
g5
NtRp1019
(dp1020
g8
S'6a3275bb2e381db1c3a304c370fee68b1b949452'
p1021
sbsS'/home/massimo/sources/xed/datafiles/hswavx/hsw-state-bits.txt'
p1022
g3
(g4
g5
NtRp1023
(dp1024
g8
S'5c7be6c5687927818776dd2ec9550410437f2267'
p1025
sbsS'/home/massimo/sources/xed/datafiles/xed-pointer-width.txt'
p1026
g3
(g4
g5
NtRp1027
(dp1028
g8
S'8f340abf19639ecc57fd69ae5d4d9d4924685d34'
p1029
sbsS'/home/massimo/sources/xed/datafiles/mpx/mpx-reg-tables.txt'
p1030
g3
(g4
g5
NtRp1031
(dp1032
g8
S'f72ae7cb1c4a6ce02224b0d0ab875286493563e8'
p1033
sbsS'/home/massimo/sources/xed/datafiles/avx512f/avx512-pointer-width.txt'
p1034
g3
(g4
g5
NtRp1035
(dp1036
g8
S'11686f129f272570621e5aff23363e274876e92e'
p1037
sbsS'/home/massimo/sources/xed/datafiles/amdxop/amd-xop-enc.txt'
p1038
g3
(g4
g5
NtRp1039
(dp1040
g8
S'290a1a190942aa4ee72162890ae6aaf7fe36e773'
p1041
sbsS'/home/massimo/sources/xed/datafiles/future/future-chips.txt'
p1042
g3
(g4
g5
NtRp1043
(dp1044
g8
S'1495d40dbcaa4a773adb4d63a4cca0a8028cbcf6'
p1045
sbsS'/home/massimo/sources/xed/datafiles/hsw/hsw-chips.txt'
p1046
g3
(g4
g5
NtRp1047
(dp1048
g8
S'4595d3e21fbf1a41d2dc9f5358246dc09aadbf01'
p1049
sbsS'/home/massimo/sources/xed/datafiles/xed-reg-tables.txt'
p1050
g3
(g4
g5
NtRp1051
(dp1052
g8
S'2a035396de1a18e5671ef9fff00720770160d08c'
p1053
sbsS'/home/massimo/sources/xed/datafiles/avx512f/avx512-state-bits.txt'
p1054
g3
(g4
g5
NtRp1055
(dp1056
g8
S'c9ea1ed7d99a71f60047a1668fdb8e4a2378eb5f'
p1057
sbsS'/home/massimo/sources/xed/pysrc/ild.py'
p1058
g3
(g4
g5
NtRp1059
(dp1060
g8
S'e27daee49984b48aa51a9264b6cbf92e7fef301f'
p1061
sbsS'/home/massimo/sources/xed/pysrc/opnd_types.py'
p1062
g3
(g4
g5
NtRp1063
(dp1064
g8
S'70681f91c50dc9fca9cb99c3a7fff91e06b776e8'
p1065
sbsS'/home/massimo/sources/xed/datafiles/hsw/cpuid.xed.txt'
p1066
g3
(g4
g5
NtRp1067
(dp1068
g8
S'ba0a4933ee37e48dedd7fa74b023fd177e8e9334'
p1069
sbsS'/home/massimo/sources/xed/datafiles/mpx/mpx-reg-check-enc.txt'
p1070
g3
(g4
g5
NtRp1071
(dp1072
g8
S'b816688ea6458ce49949afe1d3595050e9354733'
p1073
sbsS'/home/massimo/sources/xed/datafiles/movdir/asize-reg-table.xed.txt'
p1074
g3
(g4
g5
NtRp1075
(dp1076
g8
S'f89f69437120e41fcaca5c66c1f153b72207ae72'
p1077
sbsS'/home/massimo/sources/xed/datafiles/xed-addr-width-enum.txt'
p1078
g3
(g4
g5
NtRp1079
(dp1080
g8
S'9ca3f6d76d84ffbd259d4868d42811d09c0725ef'
p1081
sbsS'/home/massimo/sources/xed/datafiles/mpx/mpx-regs.txt'
p1082
g3
(g4
g5
NtRp1083
(dp1084
g8
S'b23be566d95f4251026c74198f01fff66852135d'
p1085
sbsS'/home/massimo/sources/xed/datafiles/gfni-vaes-vpcl/vaes-vex-isa.xed.txt'
p1086
g3
(g4
g5
NtRp1087
(dp1088
g8
S'b9e21b6ddf48e1a0c51a26d8a1f78d3b88588529'
p1089
sbs.