(dp1
S'/home/massimo/sources/xed/obj/xed-reg-class-enum.o'
p2
ccopy_reg
_reconstructor
p3
(cmbuild.dag
_mbuild_storage_object_t
p4
c__builtin__
object
p5
NtRp6
(dp7
S'signature'
p8
S'e24d55197354e5c9ff76636b29b6c37af741b746'
p9
sbsS'/home/massimo/sources/xed/src/common/xed-isa-set.c'
p10
g3
(g4
g5
NtRp11
(dp12
g8
S'f14a23552680e17856ab7993c5d7c8d5e2f8714e'
p13
sbsS'/home/massimo/sources/xed/obj/xed-reg-class-enum.h'
p14
g3
(g4
g5
NtRp15
(dp16
g8
S'2951a8e51647eb57469f9ced09c92bbe25a3a168'
p17
sbsS'/home/massimo/sources/xed/obj/xed-encoder-init.c'
p18
g3
(g4
g5
NtRp19
(dp20
g8
S'ac84cb3925889a063386cb5fa1313f3cd248edd2'
p21
sbsS'/home/massimo/sources/xed/obj/xed-reg-class-enum.c'
p22
g3
(g4
g5
NtRp23
(dp24
g8
S'322dc94e382c6442059077d34502a730e648dac8'
p25
sbsS'/home/massimo/sources/xed/obj/xed-rep-map.o'
p26
g3
(g4
g5
NtRp27
(dp28
g8
S'5bdb556d9ea7b2983d0b93e3264a4ff08d41ed89'
p29
sbsS'/home/massimo/sources/xed/obj/xed3-static-decode.o'
p30
g3
(g4
g5
NtRp31
(dp32
g8
S'80455a874a18b04ddac47b38e87108bf03fe21f4'
p33
sbsS'/home/massimo/sources/xed/obj/xed-rep-map.c'
p34
g3
(g4
g5
NtRp35
(dp36
g8
S'11621e678e3151ed7f282af95ca40f102d007aa8'
p37
sbsS'/home/massimo/sources/xed/obj/xed-agen.o'
p38
g3
(g4
g5
NtRp39
(dp40
g8
S'b6e331cc1ec9a5afe6caaa0e3dcf50c4dd32bd39'
p41
sbsS'/home/massimo/sources/xed/obj/xed-encode.o'
p42
g3
(g4
g5
NtRp43
(dp44
g8
S'2d49b2fb8df55a92f7f0f44d9391169a0fbc674c'
p45
sbsS'/home/massimo/sources/xed/include/public/xed/xed-operand-action.h'
p46
g3
(g4
g5
NtRp47
(dp48
g8
S'8debddcfe9329117447970da7434f65df0914bcd'
p49
sbsS'/home/massimo/sources/xed/include/public/xed/xed-disas.h'
p50
g3
(g4
g5
NtRp51
(dp52
g8
S'07063e559954858f97b73e8f7b33e101d7cc659c'
p53
sbsVMBUILD_COMMAND_KEY gcc -I./include/private -I./include/public -I./include/public/xed -Iobj -Iobj/include-private        -m64  -std=c99  -pedantic  -Wall -Werror -Wno-long-long -Wno-unknown-pragmas -fmessage-length=0 -pipe -fomit-frame-pointer -fno-exceptions -Wstrict-prototypes -Wwrite-strings -Wredundant-decls -DXED_GIT_VERSION="v10.0-298-g2be2d28" -DXED_AMD_ENABLED -DXED_AVX -DXED_SUPPORTS_AVX512 -DXED_MPX -DXED_CET -DXED_SUPPORTS_SHA -DXED_SUPPORTS_WBNOINVD -DXED_DECODER -DXED_ENCODER -DXED_SUPPORTS_LZCNT_TZCNT -DXED_BUILD -c -o obj/xed-attributes-list.o /home/massimo/sources/xed/obj/xed-attributes-list.c
p54
g3
(g4
g5
NtRp55
(dp56
g8
S'f611e9cda6c4aa112e3c1690d19753b6b7619636'
p57
sbsS'/home/massimo/sources/xed/include/public/xed/xed-rep-prefix.h'
p58
g3
(g4
g5
NtRp59
(dp60
g8
S'f78a1e9984d4c2ab5966f0a286daa8403d4e6cb1'
p61
sbsS'/home/massimo/sources/xed/obj/xed-encoder-iforms.h'
p62
g3
(g4
g5
NtRp63
(dp64
g8
S'823864a9a920ee5ef4ed17076c216eeabfa2730b'
p65
sbsVMBUILD_COMMAND_KEY gcc -I./include/private -I./include/public -I./include/public/xed -Iobj -Iobj/include-private        -m64  -std=c99  -pedantic  -Wall -Werror -Wno-long-long -Wno-unknown-pragmas -fmessage-length=0 -pipe -fomit-frame-pointer -fno-exceptions -Wstrict-prototypes -Wwrite-strings -Wredundant-decls -DXED_GIT_VERSION="v10.0-298-g2be2d28" -DXED_AMD_ENABLED -DXED_AVX -DXED_SUPPORTS_AVX512 -DXED_MPX -DXED_CET -DXED_SUPPORTS_SHA -DXED_SUPPORTS_WBNOINVD -DXED_DECODER -DXED_ENCODER -DXED_SUPPORTS_LZCNT_TZCNT -DXED_BUILD -c -o obj/xed-operand-convert-init.o /home/massimo/sources/xed/obj/xed-operand-convert-init.c
p66
g3
(g4
g5
NtRp67
(dp68
g8
S'c581575a20e7c8c343098207af0b11e003922f12'
p69
sbsS'/home/massimo/sources/xed/obj/xed3-dynamic-decode.o'
p70
g3
(g4
g5
NtRp71
(dp72
g8
S'd46870082f17c5ff926fa6354f143ef5a7bae10d'
p73
sbsVMBUILD_COMMAND_KEY gcc -I./include/private -I./include/public -I./include/public/xed -Iobj -Iobj/include-private        -m64  -std=c99  -pedantic  -Wall -Werror -Wno-long-long -Wno-unknown-pragmas -fmessage-length=0 -pipe -fomit-frame-pointer -fno-exceptions -Wstrict-prototypes -Wwrite-strings -Wredundant-decls -DXED_GIT_VERSION="v10.0-298-g2be2d28" -DXED_AMD_ENABLED -DXED_AVX -DXED_SUPPORTS_AVX512 -DXED_MPX -DXED_CET -DXED_SUPPORTS_SHA -DXED_SUPPORTS_WBNOINVD -DXED_DECODER -DXED_ENCODER -DXED_SUPPORTS_LZCNT_TZCNT -DXED_BUILD -c -o obj/xed-flags-actions.o /home/massimo/sources/xed/obj/xed-flags-actions.c
p74
g3
(g4
g5
NtRp75
(dp76
g8
S'fd7e525c120cdd7480bc267921ad7912a6bda7e9'
p77
sbsS'/home/massimo/sources/xed/include/public/xed/xed-ild.h'
p78
g3
(g4
g5
NtRp79
(dp80
g8
S'576474fb44e8097ed5d8ad1b7059fb6469cfcc21'
p81
sbsS'/home/massimo/sources/xed/src/common/xed-util.c'
p82
g3
(g4
g5
NtRp83
(dp84
g8
S'b3aeb104fe33db81d99f70342186818337da020f'
p85
sbsS'/home/massimo/sources/xed/obj/xed3-phash-lu-vv3.o'
p86
g3
(g4
g5
NtRp87
(dp88
g8
S'ce8c6679dacd432a3ffcee3973d5dbf757b8e9fa'
p89
sbsS'/home/massimo/sources/xed/include/public/xed/xed-print-info.h'
p90
g3
(g4
g5
NtRp91
(dp92
g8
S'c5b088ea50bc4ea92df7db5899b0d6da3ce98851'
p93
sbsS'/home/massimo/sources/xed/obj/xed3-phash-lu-vv3.c'
p94
g3
(g4
g5
NtRp95
(dp96
g8
S'fccfb75a0f1dd5e660c57bfd114e52971ab3bf8b'
p97
sbsVMBUILD_COMMAND_KEY gcc -I./include/private -I./include/public -I./include/public/xed -Iobj -Iobj/include-private        -m64  -std=c99  -pedantic  -Wall -Werror -Wno-long-long -Wno-unknown-pragmas -fmessage-length=0 -pipe -fomit-frame-pointer -fno-exceptions -Wstrict-prototypes -Wwrite-strings -Wredundant-decls -DXED_GIT_VERSION="v10.0-298-g2be2d28" -DXED_AMD_ENABLED -DXED_AVX -DXED_SUPPORTS_AVX512 -DXED_MPX -DXED_CET -DXED_SUPPORTS_SHA -DXED_SUPPORTS_WBNOINVD -DXED_DECODER -DXED_ENCODER -DXED_SUPPORTS_LZCNT_TZCNT -DXED_BUILD -c -o obj/xed-encoder-hl.o /home/massimo/sources/xed/src/enc/xed-encoder-hl.c
p98
g3
(g4
g5
NtRp99
(dp100
g8
S'240cfefe83412dd7bac152ddf1422d811f2d7826'
p101
sbsS'/home/massimo/sources/xed/obj/include-private/xed-ild-disp-l2.h'
p102
g3
(g4
g5
NtRp103
(dp104
g8
S'179bc7ca37174a55cb2085ba2c765ff444efdc24'
p105
sbsS'/home/massimo/sources/xed/include/public/xed/xed-decoded-inst-api.h'
p106
g3
(g4
g5
NtRp107
(dp108
g8
S'77f7aeb780b9ae3cd25b7790d06a189389831584'
p109
sbsVMBUILD_COMMAND_KEY gcc -I./include/private -I./include/public -I./include/public/xed -Iobj -Iobj/include-private        -m64  -std=c99  -pedantic  -Wall -Werror -Wno-long-long -Wno-unknown-pragmas -fmessage-length=0 -pipe -fomit-frame-pointer -fno-exceptions -Wstrict-prototypes -Wwrite-strings -Wredundant-decls -DXED_GIT_VERSION="v10.0-298-g2be2d28" -DXED_AMD_ENABLED -DXED_AVX -DXED_SUPPORTS_AVX512 -DXED_MPX -DXED_CET -DXED_SUPPORTS_SHA -DXED_SUPPORTS_WBNOINVD -DXED_DECODER -DXED_ENCODER -DXED_SUPPORTS_LZCNT_TZCNT -DXED_BUILD -c -o obj/xed-flags-simple.o /home/massimo/sources/xed/obj/xed-flags-simple.c
p110
g3
(g4
g5
NtRp111
(dp112
g8
S'd0c36fc7557ad465c894a49775bd18847fe67fd5'
p113
sbsS'/home/massimo/sources/xed/obj/xed-enc-patterns.c'
p114
g3
(g4
g5
NtRp115
(dp116
g8
S'8278d78e92cd2b2c74fd9080e6a5e03e17be4187'
p117
sbsVMBUILD_COMMAND_KEY gcc -I./include/private -I./include/public -I./include/public/xed -Iobj -Iobj/include-private        -m64  -std=c99  -pedantic  -Wall -Werror -Wno-long-long -Wno-unknown-pragmas -fmessage-length=0 -pipe -fomit-frame-pointer -fno-exceptions -Wstrict-prototypes -Wwrite-strings -Wredundant-decls -DXED_GIT_VERSION="v10.0-298-g2be2d28" -DXED_AMD_ENABLED -DXED_AVX -DXED_SUPPORTS_AVX512 -DXED_MPX -DXED_CET -DXED_SUPPORTS_SHA -DXED_SUPPORTS_WBNOINVD -DXED_DECODER -DXED_ENCODER -DXED_SUPPORTS_LZCNT_TZCNT -DXED_BUILD -c -o obj/xed-operand-ctype-enum.o /home/massimo/sources/xed/obj/xed-operand-ctype-enum.c
p118
g3
(g4
g5
NtRp119
(dp120
g8
S'33b8fa873b21c5e9a571c5e20fc95253ee406343'
p121
sbsS'/home/massimo/sources/xed/src/dec/xed-decoded-init.c'
p122
g3
(g4
g5
NtRp123
(dp124
g8
S'5399be2fef764aa0e039a699817959bfb390317b'
p125
sbsS'/home/massimo/sources/xed/include/private/xed-inst-defs.h'
p126
g3
(g4
g5
NtRp127
(dp128
g8
S'4c6569aa04848c1504041b870a8ab44471452bc9'
p129
sbsS'/home/massimo/sources/xed/obj/include-private/xed-ild-disp-bytes.h'
p130
g3
(g4
g5
NtRp131
(dp132
g8
S'f2fc59daf0e175064bb8dd23d88452a0a5bce5ff'
p133
sbsS'/home/massimo/sources/xed/obj/xed3-phash-lu-vv1.c'
p134
g3
(g4
g5
NtRp135
(dp136
g8
S'980a6cffe5a5e39a02a917791b2bc64d036676b9'
p137
sbsS'/home/massimo/sources/xed/include/public/xed/xed-iform-map.h'
p138
g3
(g4
g5
NtRp139
(dp140
g8
S'135386429ef6448c4e7c28c0f054a4f638a0e235'
p141
sbsS'/home/massimo/sources/xed/obj/xed-iclass-string.c'
p142
g3
(g4
g5
NtRp143
(dp144
g8
S'e75197c67a1a8bdc4edb2652c711e22a376603ef'
p145
sbsS'/home/massimo/sources/xed/obj/xed-machine-mode-enum.c'
p146
g3
(g4
g5
NtRp147
(dp148
g8
S'ce05c0cd5f1f74189ea0a92a02043f23f0572f88'
p149
sbsS'/home/massimo/sources/xed/obj/xed-machine-mode-enum.o'
p150
g3
(g4
g5
NtRp151
(dp152
g8
S'03bf5f5d7d97bb816dea4618aeff62c02f74cebc'
p153
sbsS'/home/massimo/sources/xed/obj/xed-encoder-2.o'
p154
g3
(g4
g5
NtRp155
(dp156
g8
S'a47a00f64291809ad86f5f297e407b3dba2a2a30'
p157
sbsS'/home/massimo/sources/xed/obj/xed-machine-mode-enum.h'
p158
g3
(g4
g5
NtRp159
(dp160
g8
S'd1ad5a8f0d6f399595043be041b7e3cfad8e7523'
p161
sbsS'/home/massimo/sources/xed/obj/xed-iclass-string.o'
p162
g3
(g4
g5
NtRp163
(dp164
g8
S'dd1eb8c02469ce92f04e15f17bbd8cdc1ef91770'
p165
sbsS'/home/massimo/sources/xed/obj/xed-encoder-order-init.c'
p166
g3
(g4
g5
NtRp167
(dp168
g8
S'6a32130d64a25092016f5dbcdaab3e5efb092ec8'
p169
sbsS'/home/massimo/sources/xed/obj/xed-encoder-order-init.o'
p170
g3
(g4
g5
NtRp171
(dp172
g8
S'2db042e640c570c9054c736ee01365c356906281'
p173
sbsS'/home/massimo/sources/xed/obj/xed-iform-enum.o'
p174
g3
(g4
g5
NtRp175
(dp176
g8
S'e87d74df7d2011aed24fc613e94030e4c78a0a3a'
p177
sbsS'/home/massimo/sources/xed/obj/xed-encoder-4.c'
p178
g3
(g4
g5
NtRp179
(dp180
g8
S'365ecb19da86167fe06c63d59c5a201a3ea5415b'
p181
sbsS'/home/massimo/sources/xed/obj/xed-encoder-4.o'
p182
g3
(g4
g5
NtRp183
(dp184
g8
S'9bec7e2ad64a7c6b01b2555a0ccb98f6c09d80c4'
p185
sbsS'/home/massimo/sources/xed/obj/xed-iform-enum.c'
p186
g3
(g4
g5
NtRp187
(dp188
g8
S'adbf011f666b51a726edd4e18f72d171ec3b7725'
p189
sbsS'/home/massimo/sources/xed/obj/xed-portability.o'
p190
g3
(g4
g5
NtRp191
(dp192
g8
S'c45711e617809875a9033fa725ac96168a896d05'
p193
sbsS'/home/massimo/sources/xed/obj/xed-operand-accessors.o'
p194
g3
(g4
g5
NtRp195
(dp196
g8
S'ade7c3fbf5dbad5aad82b17f8542b802ad9e6e9c'
p197
sbsS'/home/massimo/sources/xed/obj/libxed.a'
p198
g3
(g4
g5
NtRp199
(dp200
g8
S'84c2c28523e7c00fb4d975892f3924d147b6e69e'
p201
sbsVMBUILD_COMMAND_KEY gcc -I./include/private -I./include/public -I./include/public/xed -Iobj -Iobj/include-private        -m64  -std=c99  -pedantic  -Wall -Werror -Wno-long-long -Wno-unknown-pragmas -fmessage-length=0 -pipe -fomit-frame-pointer -fno-exceptions -Wstrict-prototypes -Wwrite-strings -Wredundant-decls -DXED_GIT_VERSION="v10.0-298-g2be2d28" -DXED_AMD_ENABLED -DXED_AVX -DXED_SUPPORTS_AVX512 -DXED_MPX -DXED_CET -DXED_SUPPORTS_SHA -DXED_SUPPORTS_WBNOINVD -DXED_DECODER -DXED_ENCODER -DXED_SUPPORTS_LZCNT_TZCNT -DXED_BUILD -c -o obj/xed-enc-dec.o /home/massimo/sources/xed/src/encdec/xed-enc-dec.c
p202
g3
(g4
g5
NtRp203
(dp204
g8
S'60ffa6551d2a32e563e697430170e73d4b4434bb'
p205
sbsS'/home/massimo/sources/xed/obj/xed-address-width-enum.c'
p206
g3
(g4
g5
NtRp207
(dp208
g8
S'b4ed3a2f60e0fa8fc25f37ddfd6410e4e5859f0f'
p209
sbsS'/home/massimo/sources/xed/obj/xed-ild-easz.o'
p210
g3
(g4
g5
NtRp211
(dp212
g8
S'32a41b1edb096cb79049eb230ee4a8b6ef019a6a'
p213
sbsS'/home/massimo/sources/xed/obj/xed-operand-accessors.h'
p214
g3
(g4
g5
NtRp215
(dp216
g8
S'09003f97bbe6ee130c2846eb09c152570dd6a44d'
p217
sbsS'/home/massimo/sources/xed/obj/xed-address-width-enum.o'
p218
g3
(g4
g5
NtRp219
(dp220
g8
S'ffe4af7ddb9283bfdedba4c31e7990405cfa005e'
p221
sbsS'/home/massimo/sources/xed/obj/xed-enc-groups.c'
p222
g3
(g4
g5
NtRp223
(dp224
g8
S'7702792f60201f485dd42af7ba2cb1f725484564'
p225
sbsS'/home/massimo/sources/xed/obj/xed-operand-accessors.c'
p226
g3
(g4
g5
NtRp227
(dp228
g8
S'b472e97a016f4805241af2bbe4b1adf2868388b9'
p229
sbsS'/home/massimo/sources/xed/obj/xed-address-width-enum.h'
p230
g3
(g4
g5
NtRp231
(dp232
g8
S'be12a03c946ffe144df690b8dd4c5f1708a98dad'
p233
sbsVMBUILD_COMMAND_KEY gcc -I./include/private -I./include/public -I./include/public/xed -Iobj -Iobj/include-private        -m64  -std=c99  -pedantic  -Wall -Werror -Wno-long-long -Wno-unknown-pragmas -fmessage-length=0 -pipe -fomit-frame-pointer -fno-exceptions -Wstrict-prototypes -Wwrite-strings -Wredundant-decls -DXED_GIT_VERSION="v10.0-298-g2be2d28" -DXED_AMD_ENABLED -DXED_AVX -DXED_SUPPORTS_AVX512 -DXED_MPX -DXED_CET -DXED_SUPPORTS_SHA -DXED_SUPPORTS_WBNOINVD -DXED_DECODER -DXED_ENCODER -DXED_SUPPORTS_LZCNT_TZCNT -DXED_BUILD -c -o obj/xed-enc-operand-lu.o /home/massimo/sources/xed/obj/xed-enc-operand-lu.c
p234
g3
(g4
g5
NtRp235
(dp236
g8
S'374814bb2241a3cd912dd21cacbf0d037286c0f3'
p237
sbsS'/home/massimo/sources/xed/include/public/xed/xed-immdis.h'
p238
g3
(g4
g5
NtRp239
(dp240
g8
S'6dc8910296a068c1380f3556bc758c5b70d5fa55'
p241
sbsS'/home/massimo/sources/xed/obj/include-private/xed3-op-chain-capture-lu.h'
p242
g3
(g4
g5
NtRp243
(dp244
g8
S'fe764bbddc4ba8f46aeff45148305e0707188ad6'
p245
sbsS'/home/massimo/sources/xed/include/public/xed/xed-reg-class.h'
p246
g3
(g4
g5
NtRp247
(dp248
g8
S'efeb6081be3173f3201d6f7347c5f2a7ee2a4bb6'
p249
sbsS'/home/massimo/sources/xed/obj/xed-encoder-hl.o'
p250
g3
(g4
g5
NtRp251
(dp252
g8
S'1ab958760c602e75ef449d5b58e40d5b54f93007'
p253
sbsS'/home/massimo/sources/xed/obj/xed-operand-storage.h'
p254
g3
(g4
g5
NtRp255
(dp256
g8
S'377a8d39dff8ec0a32874e37d14dd9158ab2de03'
p257
sbsS'/home/massimo/sources/xed/obj/include-private/xed-ild-eosz.h'
p258
g3
(g4
g5
NtRp259
(dp260
g8
S'550efd39c78831f784c09af2bc49eb8f883fdc7f'
p261
sbsS'/home/massimo/sources/xed/include/public/xed/xed-agen.h'
p262
g3
(g4
g5
NtRp263
(dp264
g8
S'794bc4754d50e49ee8e48af5df3ff5e0eb4e9b83'
p265
sbsS'/home/massimo/sources/xed/obj/include-private/xed3-nt-capture.h'
p266
g3
(g4
g5
NtRp267
(dp268
g8
S'1f99288a84ef23d330d0d07d636da627cc3e917b'
p269
sbsVMBUILD_COMMAND_KEY gcc -I./include/private -I./include/public -I./include/public/xed -Iobj -Iobj/include-private        -m64  -std=c99  -pedantic  -Wall -Werror -Wno-long-long -Wno-unknown-pragmas -fmessage-length=0 -pipe -fomit-frame-pointer -fno-exceptions -Wstrict-prototypes -Wwrite-strings -Wredundant-decls -DXED_GIT_VERSION="v10.0-298-g2be2d28" -DXED_AMD_ENABLED -DXED_AVX -DXED_SUPPORTS_AVX512 -DXED_MPX -DXED_CET -DXED_SUPPORTS_SHA -DXED_SUPPORTS_WBNOINVD -DXED_DECODER -DXED_ENCODER -DXED_SUPPORTS_LZCNT_TZCNT -DXED_BUILD -c -o obj/xed-iformfl-enum.o /home/massimo/sources/xed/obj/xed-iformfl-enum.c
p270
g3
(g4
g5
NtRp271
(dp272
g8
S'ab68c58885d6fada8ed0011d787b639520fb9c2d'
p273
sbsS'/home/massimo/sources/xed/datafiles/knc/xed-operand-values-interface-uisa.c'
p274
g3
(g4
g5
NtRp275
(dp276
g8
S'b5c5f65edb5ec632c968eca8c71dce4082a19d82'
p277
sbsVMBUILD_COMMAND_KEY gcc -I./include/private -I./include/public -I./include/public/xed -Iobj -Iobj/include-private        -m64  -std=c99  -pedantic  -Wall -Werror -Wno-long-long -Wno-unknown-pragmas -fmessage-length=0 -pipe -fomit-frame-pointer -fno-exceptions -Wstrict-prototypes -Wwrite-strings -Wredundant-decls -DXED_GIT_VERSION="v10.0-298-g2be2d28" -DXED_AMD_ENABLED -DXED_AVX -DXED_SUPPORTS_AVX512 -DXED_MPX -DXED_CET -DXED_SUPPORTS_SHA -DXED_SUPPORTS_WBNOINVD -DXED_DECODER -DXED_ENCODER -DXED_SUPPORTS_LZCNT_TZCNT -DXED_BUILD -c -o obj/xed-operand-action.o /home/massimo/sources/xed/src/common/xed-operand-action.c
p278
g3
(g4
g5
NtRp279
(dp280
g8
S'353e551e5e391d68284f3b6fb43cc15d0d4530f6'
p281
sbsVMBUILD_COMMAND_KEY gcc -I./include/private -I./include/public -I./include/public/xed -Iobj -Iobj/include-private        -m64  -std=c99  -pedantic  -Wall -Werror -Wno-long-long -Wno-unknown-pragmas -fmessage-length=0 -pipe -fomit-frame-pointer -fno-exceptions -Wstrict-prototypes -Wwrite-strings -Wredundant-decls -DXED_GIT_VERSION="v10.0-298-g2be2d28" -DXED_AMD_ENABLED -DXED_AVX -DXED_SUPPORTS_AVX512 -DXED_MPX -DXED_CET -DXED_SUPPORTS_SHA -DXED_SUPPORTS_WBNOINVD -DXED_DECODER -DXED_ENCODER -DXED_SUPPORTS_LZCNT_TZCNT -DXED_BUILD -c -o obj/xed-operand-ctype-map.o /home/massimo/sources/xed/obj/xed-operand-ctype-map.c
p282
g3
(g4
g5
NtRp283
(dp284
g8
S'ee13ef166c1a6c52b03a9df08fb806adbec4649b'
p285
sbsS'/home/massimo/sources/xed/obj/xed-operand-width-enum.c'
p286
g3
(g4
g5
NtRp287
(dp288
g8
S'84084f744922cff4663ed5cbdea8a2f284704245'
p289
sbsS'/home/massimo/sources/xed/obj/xed-init-inst-table-data.o'
p290
g3
(g4
g5
NtRp291
(dp292
g8
S'a6d69246008e2a3230c822f9cbfc4f5e1e7e4120'
p293
sbsS'/home/massimo/sources/xed/obj/xed-operand-type-enum.h'
p294
g3
(g4
g5
NtRp295
(dp296
g8
S'b17dc4b0391ff6edecf3932cd1fc3aa091609598'
p297
sbsS'/home/massimo/sources/xed/obj/xed-init-operand-sequences.c'
p298
g3
(g4
g5
NtRp299
(dp300
g8
S'209a8ed48f125c5078ed704dbb05f1ececf9cee1'
p301
sbsVMBUILD_COMMAND_KEY gcc -I./include/private -I./include/public -I./include/public/xed -Iobj -Iobj/include-private        -m64  -std=c99  -pedantic  -Wall -Werror -Wno-long-long -Wno-unknown-pragmas -fmessage-length=0 -pipe -fomit-frame-pointer -fno-exceptions -Wstrict-prototypes -Wwrite-strings -Wredundant-decls -DXED_GIT_VERSION="v10.0-298-g2be2d28" -DXED_AMD_ENABLED -DXED_AVX -DXED_SUPPORTS_AVX512 -DXED_MPX -DXED_CET -DXED_SUPPORTS_SHA -DXED_SUPPORTS_WBNOINVD -DXED_DECODER -DXED_ENCODER -DXED_SUPPORTS_LZCNT_TZCNT -DXED_BUILD -c -o obj/xed-error-enum.o /home/massimo/sources/xed/obj/xed-error-enum.c
p302
g3
(g4
g5
NtRp303
(dp304
g8
S'd720eae312596e6a9b5f700d1c99168eb3248943'
p305
sbsS'/home/massimo/sources/xed/obj/xed-operand-type-enum.o'
p306
g3
(g4
g5
NtRp307
(dp308
g8
S'01fb65f872510ec036613743ac5e2afbf349c834'
p309
sbsS'/home/massimo/sources/xed/obj/xed-init-operand-sequences.o'
p310
g3
(g4
g5
NtRp311
(dp312
g8
S'940fa5028d6dbd0745772c1ff705a13a37712a5c'
p313
sbsS'/home/massimo/sources/xed/obj/xed-operand-type-enum.c'
p314
g3
(g4
g5
NtRp315
(dp316
g8
S'45f191c60528714e52e3d53813f9f9d55a06ce43'
p317
sbsS'/home/massimo/sources/xed/obj/xed-init-inst-table-data.c'
p318
g3
(g4
g5
NtRp319
(dp320
g8
S'67e68e7669c9ae7386aecf5eafd86bf3f8cb6e18'
p321
sbsS'/home/massimo/sources/xed/include/public/xed/xed-format-options.h'
p322
g3
(g4
g5
NtRp323
(dp324
g8
S'77785583be869db3a6af35b17ef63d37a4df6195'
p325
sbsS'/home/massimo/sources/xed/src/common/xed-operand-values-interface.c'
p326
g3
(g4
g5
NtRp327
(dp328
g8
S'ba6913b83d2cff0cb25d5f0515247e728f73fa42'
p329
sbsS'/home/massimo/sources/xed/obj/xed-ild-support.o'
p330
g3
(g4
g5
NtRp331
(dp332
g8
S'5c9bc85658cf84e4472d6293c55d5787053371e8'
p333
sbsS'/home/massimo/sources/xed/src/common/xed-flags.c'
p334
g3
(g4
g5
NtRp335
(dp336
g8
S'e6cbcad6c409bc232967a422b558ff85a8c08ae2'
p337
sbsS'/home/massimo/sources/xed/obj/xed-operand-convert-enum.c'
p338
g3
(g4
g5
NtRp339
(dp340
g8
S'6c8144dfb4b10dacf092709fe88b96e9c9cae848'
p341
sbsVMBUILD_COMMAND_KEY gcc -I./include/private -I./include/public -I./include/public/xed -Iobj -Iobj/include-private        -m64  -std=c99  -pedantic  -Wall -Werror -Wno-long-long -Wno-unknown-pragmas -fmessage-length=0 -pipe -fomit-frame-pointer -fno-exceptions -Wstrict-prototypes -Wwrite-strings -Wredundant-decls -DXED_GIT_VERSION="v10.0-298-g2be2d28" -DXED_AMD_ENABLED -DXED_AVX -DXED_SUPPORTS_AVX512 -DXED_MPX -DXED_CET -DXED_SUPPORTS_SHA -DXED_SUPPORTS_WBNOINVD -DXED_DECODER -DXED_ENCODER -DXED_SUPPORTS_LZCNT_TZCNT -DXED_BUILD -c -o obj/xed-iclass-enum.o /home/massimo/sources/xed/obj/xed-iclass-enum.c
p342
g3
(g4
g5
NtRp343
(dp344
g8
S'e2ce1cf60200c116b41e053e524b1b0a69e5f3b1'
p345
sbsS'/home/massimo/sources/xed/obj/xed-operand-convert-enum.o'
p346
g3
(g4
g5
NtRp347
(dp348
g8
S'df01b398eb08d8ee1b279e5a3c5858bcadfdb168'
p349
sbsS'/home/massimo/sources/xed/src/common/xed-operand-action.c'
p350
g3
(g4
g5
NtRp351
(dp352
g8
S'19ee9ba3479b8b1fe21fe3376e015c952e00151c'
p353
sbsS'/home/massimo/sources/xed/obj/xed-operand-convert-enum.h'
p354
g3
(g4
g5
NtRp355
(dp356
g8
S'dc7e252e6a4fa458cf0b6caf75798515719e823f'
p357
sbsVMBUILD_COMMAND_KEY gcc -I./include/private -I./include/public -I./include/public/xed -Iobj -Iobj/include-private        -m64  -std=c99  -pedantic  -Wall -Werror -Wno-long-long -Wno-unknown-pragmas -fmessage-length=0 -pipe -fomit-frame-pointer -fno-exceptions -Wstrict-prototypes -Wwrite-strings -Wredundant-decls -DXED_GIT_VERSION="v10.0-298-g2be2d28" -DXED_AMD_ENABLED -DXED_AVX -DXED_SUPPORTS_AVX512 -DXED_MPX -DXED_CET -DXED_SUPPORTS_SHA -DXED_SUPPORTS_WBNOINVD -DXED_DECODER -DXED_ENCODER -DXED_SUPPORTS_LZCNT_TZCNT -DXED_BUILD -c -o obj/xed3-dynamic-decode.o /home/massimo/sources/xed/src/dec/xed3-dynamic-decode.c
p358
g3
(g4
g5
NtRp359
(dp360
g8
S'b4b49c8b1375e3e42727d239a6f7fd6ea80a05d4'
p361
sbsS'/home/massimo/sources/xed/obj/xed-encoder-0.c'
p362
g3
(g4
g5
NtRp363
(dp364
g8
S'd188f1b072fe36b7863236e4ef21bc60397cb350'
p365
sbsS'/home/massimo/sources/xed/obj/xed-operand-values-interface.o'
p366
g3
(g4
g5
NtRp367
(dp368
g8
S'24f63151ef99dea9c921e2112062d91815f0e485'
p369
sbsS'/home/massimo/sources/xed/obj/xed-encoder-0.o'
p370
g3
(g4
g5
NtRp371
(dp372
g8
S'32ea70d70106f9e6622d74c71863f0adf67117f8'
p373
sbsS'/home/massimo/sources/xed/include/public/xed/xed-operand-values-interface.h'
p374
g3
(g4
g5
NtRp375
(dp376
g8
S'029545737b0b492a060f696d41ac28367e4b4696'
p377
sbsVMBUILD_COMMAND_KEY gcc -I./include/private -I./include/public -I./include/public/xed -Iobj -Iobj/include-private        -m64  -std=c99  -pedantic  -Wall -Werror -Wno-long-long -Wno-unknown-pragmas -fmessage-length=0 -pipe -fomit-frame-pointer -fno-exceptions -Wstrict-prototypes -Wwrite-strings -Wredundant-decls -DXED_GIT_VERSION="v10.0-298-g2be2d28" -DXED_AMD_ENABLED -DXED_AVX -DXED_SUPPORTS_AVX512 -DXED_MPX -DXED_CET -DXED_SUPPORTS_SHA -DXED_SUPPORTS_WBNOINVD -DXED_DECODER -DXED_ENCODER -DXED_SUPPORTS_LZCNT_TZCNT -DXED_BUILD -c -o obj/xed-isa-set-enum.o /home/massimo/sources/xed/obj/xed-isa-set-enum.c
p378
g3
(g4
g5
NtRp379
(dp380
g8
S'ff6fac584dc2467e4227d7357947953e7a5ffe04'
p381
sbsS'/home/massimo/sources/xed/obj/xed-operand-convert-init.c'
p382
g3
(g4
g5
NtRp383
(dp384
g8
S'c933b8f1d497a8e5054ff3662a1f1818b9889812'
p385
sbsS'/home/massimo/sources/xed/obj/xed-flag-action-enum.h'
p386
g3
(g4
g5
NtRp387
(dp388
g8
S'd1fd709202cd329082a66b4a1e17bb8127700a0f'
p389
sbsS'/home/massimo/sources/xed/obj/xed-flag-action-enum.o'
p390
g3
(g4
g5
NtRp391
(dp392
g8
S'290e8385a49eccf626b3a5879a9eb2bd8640941b'
p393
sbsS'/home/massimo/sources/xed/include/public/xed/xed-chip-features.h'
p394
g3
(g4
g5
NtRp395
(dp396
g8
S'2eaf1aea29e9ca3e81251ba9319ca06c10aed8c1'
p397
sbsS'/home/massimo/sources/xed/obj/xed-error-enum.c'
p398
g3
(g4
g5
NtRp399
(dp400
g8
S'def87968715bb5d74bfc25fef83189b073ac364f'
p401
sbsS'/home/massimo/sources/xed/obj/xed-flag-action-enum.c'
p402
g3
(g4
g5
NtRp403
(dp404
g8
S'eeea81dcbb7541207aa66c0b853cb2d82ba02775'
p405
sbsS'/home/massimo/sources/xed/obj/xed-operand-width-enum.o'
p406
g3
(g4
g5
NtRp407
(dp408
g8
S'92b8004d56f3566684c1da2d9f11d3da0af8870e'
p409
sbsS'/home/massimo/sources/xed/obj/xed-error-enum.o'
p410
g3
(g4
g5
NtRp411
(dp412
g8
S'48678078e015f4138fcea4d2e68308594c2164f4'
p413
sbsS'/home/massimo/sources/xed/obj/xed-error-enum.h'
p414
g3
(g4
g5
NtRp415
(dp416
g8
S'9f760eea88c1d5e7052fb3741d232833b4b0ac33'
p417
sbsS'/home/massimo/sources/xed/obj/xed-operand-convert-init.o'
p418
g3
(g4
g5
NtRp419
(dp420
g8
S'6ad6277179dc6c1523c77605a1685d11670657ff'
p421
sbsS'/home/massimo/sources/xed/obj/xed-operand-width-enum.h'
p422
g3
(g4
g5
NtRp423
(dp424
g8
S'c9d440fa37ae8cc4154ad02575e9f5fff633a375'
p425
sbsVMBUILD_COMMAND_KEY gcc -I./include/private -I./include/public -I./include/public/xed -Iobj -Iobj/include-private        -m64  -std=c99  -pedantic  -Wall -Werror -Wno-long-long -Wno-unknown-pragmas -fmessage-length=0 -pipe -fomit-frame-pointer -fno-exceptions -Wstrict-prototypes -Wwrite-strings -Wredundant-decls -DXED_GIT_VERSION="v10.0-298-g2be2d28" -DXED_AMD_ENABLED -DXED_AVX -DXED_SUPPORTS_AVX512 -DXED_MPX -DXED_CET -DXED_SUPPORTS_SHA -DXED_SUPPORTS_WBNOINVD -DXED_DECODER -DXED_ENCODER -DXED_SUPPORTS_LZCNT_TZCNT -DXED_BUILD -c -o obj/xed-nonterminal-enum.o /home/massimo/sources/xed/obj/xed-nonterminal-enum.c
p426
g3
(g4
g5
NtRp427
(dp428
g8
S'c900c0b8c203d762c1452a775eca5ac623b5269b'
p429
sbsS'/home/massimo/sources/xed/include/private/xed-encode-tables.h'
p430
g3
(g4
g5
NtRp431
(dp432
g8
S'8e0b5ffefdb255419cf2e552f3a21bd304b78c0f'
p433
sbsS'/home/massimo/sources/xed/obj/xed-enc-operand-lu.o'
p434
g3
(g4
g5
NtRp435
(dp436
g8
S'13681d81e5086c5aeda60de90f73b3cac1672fe2'
p437
sbsVMBUILD_COMMAND_KEY gcc -I./include/private -I./include/public -I./include/public/xed -Iobj -Iobj/include-private        -m64  -std=c99  -pedantic  -Wall -Werror -Wno-long-long -Wno-unknown-pragmas -fmessage-length=0 -pipe -fomit-frame-pointer -fno-exceptions -Wstrict-prototypes -Wwrite-strings -Wredundant-decls -DXED_GIT_VERSION="v10.0-298-g2be2d28" -DXED_AMD_ENABLED -DXED_AVX -DXED_SUPPORTS_AVX512 -DXED_MPX -DXED_CET -DXED_SUPPORTS_SHA -DXED_SUPPORTS_WBNOINVD -DXED_DECODER -DXED_ENCODER -DXED_SUPPORTS_LZCNT_TZCNT -DXED_BUILD -c -o obj/xed-init-ild.o /home/massimo/sources/xed/src/ild/xed-init-ild.c
p438
g3
(g4
g5
NtRp439
(dp440
g8
S'0e991ac3d335f081bd9c916c0a492bf823ca1c27'
p441
sbsS'/home/massimo/sources/xed/obj/xed-enc-operand-lu.c'
p442
g3
(g4
g5
NtRp443
(dp444
g8
S'52842848787a6122f9ffe816bc3ef12c01d4113a'
p445
sbsVMBUILD_COMMAND_KEY gcc -I./include/private -I./include/public -I./include/public/xed -Iobj -Iobj/include-private        -m64  -std=c99  -pedantic  -Wall -Werror -Wno-long-long -Wno-unknown-pragmas -fmessage-length=0 -pipe -fomit-frame-pointer -fno-exceptions -Wstrict-prototypes -Wwrite-strings -Wredundant-decls -DXED_GIT_VERSION="v10.0-298-g2be2d28" -DXED_AMD_ENABLED -DXED_AVX -DXED_SUPPORTS_AVX512 -DXED_MPX -DXED_CET -DXED_SUPPORTS_SHA -DXED_SUPPORTS_WBNOINVD -DXED_DECODER -DXED_ENCODER -DXED_SUPPORTS_LZCNT_TZCNT -DXED_BUILD -c -o obj/xed-enc-patterns.o /home/massimo/sources/xed/obj/xed-enc-patterns.c
p446
g3
(g4
g5
NtRp447
(dp448
g8
S'07490cb6b60152cdff9d15d594059dbde3f93ace'
p449
sbsVMBUILD_COMMAND_KEY gcc -I./include/private -I./include/public -I./include/public/xed -Iobj -Iobj/include-private        -m64  -std=c99  -pedantic  -Wall -Werror -Wno-long-long -Wno-unknown-pragmas -fmessage-length=0 -pipe -fomit-frame-pointer -fno-exceptions -Wstrict-prototypes -Wwrite-strings -Wredundant-decls -DXED_GIT_VERSION="v10.0-298-g2be2d28" -DXED_AMD_ENABLED -DXED_AVX -DXED_SUPPORTS_AVX512 -DXED_MPX -DXED_CET -DXED_SUPPORTS_SHA -DXED_SUPPORTS_WBNOINVD -DXED_DECODER -DXED_ENCODER -DXED_SUPPORTS_LZCNT_TZCNT -DXED_BUILD -c -o obj/xed-table-sizes.o /home/massimo/sources/xed/src/common/xed-table-sizes.c
p450
g3
(g4
g5
NtRp451
(dp452
g8
S'b5e078a2fadae9d35d2adcd322fe120a9db49f89'
p453
sbsVMBUILD_COMMAND_KEY gcc -I./include/private -I./include/public -I./include/public/xed -Iobj -Iobj/include-private        -m64  -std=c99  -pedantic  -Wall -Werror -Wno-long-long -Wno-unknown-pragmas -fmessage-length=0 -pipe -fomit-frame-pointer -fno-exceptions -Wstrict-prototypes -Wwrite-strings -Wredundant-decls -DXED_GIT_VERSION="v10.0-298-g2be2d28" -DXED_AMD_ENABLED -DXED_AVX -DXED_SUPPORTS_AVX512 -DXED_MPX -DXED_CET -DXED_SUPPORTS_SHA -DXED_SUPPORTS_WBNOINVD -DXED_DECODER -DXED_ENCODER -DXED_SUPPORTS_LZCNT_TZCNT -DXED_BUILD -c -o obj/xed-chip-features-table.o /home/massimo/sources/xed/obj/xed-chip-features-table.c
p454
g3
(g4
g5
NtRp455
(dp456
g8
S'5dbacd6c7030806ec729135b2f4708f6efe4901c'
p457
sbsS'/home/massimo/sources/xed/obj/xed-operand-visibility-enum.c'
p458
g3
(g4
g5
NtRp459
(dp460
g8
S'9120601344b4bb8f7b4a81eba071fac79ca5d9d8'
p461
sbsS'/home/massimo/sources/xed/obj/xed-operand-visibility-enum.h'
p462
g3
(g4
g5
NtRp463
(dp464
g8
S'924c8dc24e1c3ce50ef297061ccca77823cd05a6'
p465
sbsS'/home/massimo/sources/xed/obj/xed-operand-visibility-enum.o'
p466
g3
(g4
g5
NtRp467
(dp468
g8
S'73ef230096abfba4b69d9d89e2f5b24834e4b81f'
p469
sbsS'/home/massimo/sources/xed/obj/xed-init-operand-data.o'
p470
g3
(g4
g5
NtRp471
(dp472
g8
S'c99518e2e71def953d47765583eafb8c2c7321d7'
p473
sbsS'/home/massimo/sources/xed/src/dec/xed-iform-map.c'
p474
g3
(g4
g5
NtRp475
(dp476
g8
S'ee4331ba9e000e82464ccbfc752cd27ebd6396a7'
p477
sbsS'/home/massimo/sources/xed/obj/xed-flags-actions.o'
p478
g3
(g4
g5
NtRp479
(dp480
g8
S'5cf641ab39332755853748f71bd2599b35a51043'
p481
sbsVMBUILD_COMMAND_KEY gcc -I./include/private -I./include/public -I./include/public/xed -Iobj -Iobj/include-private        -m64  -std=c99  -pedantic  -Wall -Werror -Wno-long-long -Wno-unknown-pragmas -fmessage-length=0 -pipe -fomit-frame-pointer -fno-exceptions -Wstrict-prototypes -Wwrite-strings -Wredundant-decls -DXED_GIT_VERSION="v10.0-298-g2be2d28" -DXED_AMD_ENABLED -DXED_AVX -DXED_SUPPORTS_AVX512 -DXED_MPX -DXED_CET -DXED_SUPPORTS_SHA -DXED_SUPPORTS_WBNOINVD -DXED_DECODER -DXED_ENCODER -DXED_SUPPORTS_LZCNT_TZCNT -DXED_BUILD -c -o obj/xed-attributes-init.o /home/massimo/sources/xed/obj/xed-attributes-init.c
p482
g3
(g4
g5
NtRp483
(dp484
g8
S'0497cbc3e785d4b079177308d0f807b3c4a5bf6e'
p485
sbsS'/home/massimo/sources/xed/obj/xed-chip-features-table.o'
p486
g3
(g4
g5
NtRp487
(dp488
g8
S'5869535ff81f7a4d1883b9ef1f5f8732cbb47d2d'
p489
sbsS'/home/massimo/sources/xed/include/public/xed/xed-immed.h'
p490
g3
(g4
g5
NtRp491
(dp492
g8
S'785933455d5adeab206c3d93bd47182bc3ef213a'
p493
sbsVMBUILD_COMMAND_KEY gcc -I./include/private -I./include/public -I./include/public/xed -Iobj -Iobj/include-private        -m64  -std=c99  -pedantic  -Wall -Werror -Wno-long-long -Wno-unknown-pragmas -fmessage-length=0 -pipe -fomit-frame-pointer -fno-exceptions -Wstrict-prototypes -Wwrite-strings -Wredundant-decls -DXED_GIT_VERSION="v10.0-298-g2be2d28" -DXED_AMD_ENABLED -DXED_AVX -DXED_SUPPORTS_AVX512 -DXED_MPX -DXED_CET -DXED_SUPPORTS_SHA -DXED_SUPPORTS_WBNOINVD -DXED_DECODER -DXED_ENCODER -DXED_SUPPORTS_LZCNT_TZCNT -DXED_BUILD -c -o obj/xed-init-width.o /home/massimo/sources/xed/obj/xed-init-width.c
p494
g3
(g4
g5
NtRp495
(dp496
g8
S'7be506a7d82c3aa147e48c2c371ab5aa7e6e4561'
p497
sbsS'/home/massimo/sources/xed/obj/xed-build-defines.h'
p498
g3
(g4
g5
NtRp499
(dp500
g8
S'0e029bd50c4ecabd7811c5883f041e99364af1d2'
p501
sbsVMBUILD_COMMAND_KEY gcc -I./include/private -I./include/public -I./include/public/xed -Iobj -Iobj/include-private        -m64  -std=c99  -pedantic  -Wall -Werror -Wno-long-long -Wno-unknown-pragmas -fmessage-length=0 -pipe -fomit-frame-pointer -fno-exceptions -Wstrict-prototypes -Wwrite-strings -Wredundant-decls -DXED_GIT_VERSION="v10.0-298-g2be2d28" -DXED_AMD_ENABLED -DXED_AVX -DXED_SUPPORTS_AVX512 -DXED_MPX -DXED_CET -DXED_SUPPORTS_SHA -DXED_SUPPORTS_WBNOINVD -DXED_DECODER -DXED_ENCODER -DXED_SUPPORTS_LZCNT_TZCNT -DXED_BUILD -c -o obj/xed-convert-table-init.o /home/massimo/sources/xed/obj/xed-convert-table-init.c
p502
g3
(g4
g5
NtRp503
(dp504
g8
S'1d24171d8c1947e493708484c4cba6fbf80ad908'
p505
sbsS'/home/massimo/sources/xed/include/public/xed/xed-encode.h'
p506
g3
(g4
g5
NtRp507
(dp508
g8
S'2a44333762d49d1cebf5050f8d54349066af67ec'
p509
sbsS'/home/massimo/sources/xed/obj/include-private/xed-ild-imm-l1.h'
p510
g3
(g4
g5
NtRp511
(dp512
g8
S'b919bafbbe0aaf7c0c4baca15a759c25f4b5c2f5'
p513
sbsS'/home/massimo/sources/xed/obj/xed-init-inst-table-0.o'
p514
g3
(g4
g5
NtRp515
(dp516
g8
S'e0b60464b37304438b05ae4586ede6427850cff3'
p517
sbsS'/home/massimo/sources/xed/include/public/xed/xed-decoded-inst.h'
p518
g3
(g4
g5
NtRp519
(dp520
g8
S'ee8add87713517c3c3b020f5c17ddae9b768dc9c'
p521
sbsS'/home/massimo/sources/xed/obj/xed-init-inst-table-0.c'
p522
g3
(g4
g5
NtRp523
(dp524
g8
S'eabc856b159b2c7d8a48a305dcfb6bc9277d22f2'
p525
sbsS'/home/massimo/sources/xed/include/private/xed-internal-header.h'
p526
g3
(g4
g5
NtRp527
(dp528
g8
S'630363f24547ae4811e7e34d2b9a41fa9d041f8a'
p529
sbsS'/home/massimo/sources/xed/obj/xed-reg-enum.c'
p530
g3
(g4
g5
NtRp531
(dp532
g8
S'361997a44db0eb62a254b7683d35a675552c0aea'
p533
sbsS'/home/massimo/sources/xed/obj/xed-reg-enum.h'
p534
g3
(g4
g5
NtRp535
(dp536
g8
S'4a393b4502b2a6f8ccb3a34f5b9f288fc91f8300'
p537
sbsS'/home/massimo/sources/xed/obj/xed-reg-enum.o'
p538
g3
(g4
g5
NtRp539
(dp540
g8
S'9e859ac9ad786330c28b93b114f56c2d4cf14bb2'
p541
sbsS'/home/massimo/sources/xed/obj/include-private/xed-ild-easz.h'
p542
g3
(g4
g5
NtRp543
(dp544
g8
S'1848e780b5d4a02b0b4f8f795df87f1ca1e8355b'
p545
sbsS'/home/massimo/sources/xed/include/private/xed-encode-private.h'
p546
g3
(g4
g5
NtRp547
(dp548
g8
S'c6ade5addb57b4829cb8445f114199f0cb9139f7'
p549
sbsS'/home/massimo/sources/xed/obj/xed-extension-enum.o'
p550
g3
(g4
g5
NtRp551
(dp552
g8
S'0e8716303f5da9b928b491514664c44152bad3e0'
p553
sbsVMBUILD_COMMAND_KEY gcc -I./include/private -I./include/public -I./include/public/xed -Iobj -Iobj/include-private        -m64  -std=c99  -pedantic  -Wall -Werror -Wno-long-long -Wno-unknown-pragmas -fmessage-length=0 -pipe -fomit-frame-pointer -fno-exceptions -Wstrict-prototypes -Wwrite-strings -Wredundant-decls -DXED_GIT_VERSION="v10.0-298-g2be2d28" -DXED_AMD_ENABLED -DXED_AVX -DXED_SUPPORTS_AVX512 -DXED_MPX -DXED_CET -DXED_SUPPORTS_SHA -DXED_SUPPORTS_WBNOINVD -DXED_DECODER -DXED_ENCODER -DXED_SUPPORTS_LZCNT_TZCNT -DXED_BUILD -c -o obj/xed-reg-enum.o /home/massimo/sources/xed/obj/xed-reg-enum.c
p554
g3
(g4
g5
NtRp555
(dp556
g8
S'10ff2e0845fb2c72fffad562cfc08eba5a1a0ee9'
p557
sbsS'/home/massimo/sources/xed/obj/xed-operand-element-type-enum.h'
p558
g3
(g4
g5
NtRp559
(dp560
g8
S'b8ade889367e8326d71cc909f43578d140f079b7'
p561
sbsVMBUILD_COMMAND_KEY gcc -I./include/private -I./include/public -I./include/public/xed -Iobj -Iobj/include-private        -m64  -std=c99  -pedantic  -Wall -Werror -Wno-long-long -Wno-unknown-pragmas -fmessage-length=0 -pipe -fomit-frame-pointer -fno-exceptions -Wstrict-prototypes -Wwrite-strings -Wredundant-decls -DXED_GIT_VERSION="v10.0-298-g2be2d28" -DXED_AMD_ENABLED -DXED_AVX -DXED_SUPPORTS_AVX512 -DXED_MPX -DXED_CET -DXED_SUPPORTS_SHA -DXED_SUPPORTS_WBNOINVD -DXED_DECODER -DXED_ENCODER -DXED_SUPPORTS_LZCNT_TZCNT -DXED_BUILD -c -o obj/xed-exception-enum.o /home/massimo/sources/xed/obj/xed-exception-enum.c
p562
g3
(g4
g5
NtRp563
(dp564
g8
S'd071e55fc566c881d61c35ff2ace861f6502242f'
p565
sbsS'/home/massimo/sources/xed/obj/include-private/xed-ild-imm-l3.h'
p566
g3
(g4
g5
NtRp567
(dp568
g8
S'cce40fecc66c493f79b6fc5848826b05fe319083'
p569
sbsS'/home/massimo/sources/xed/obj/xed-operand-element-type-enum.o'
p570
g3
(g4
g5
NtRp571
(dp572
g8
S'acc7dfb232e019292b0505533b549b41b73995de'
p573
sbsS'/home/massimo/sources/xed/obj/xed-extension-enum.h'
p574
g3
(g4
g5
NtRp575
(dp576
g8
S'3fa1e9a2bc59143eaebf2e53e65b3aa90decf30c'
p577
sbsS'/home/massimo/sources/xed/obj/xed-operand-element-type-enum.c'
p578
g3
(g4
g5
NtRp579
(dp580
g8
S'416b87eeea4601e12dcc2201123ad21f4413742b'
p581
sbsS'/home/massimo/sources/xed/obj/xed-extension-enum.c'
p582
g3
(g4
g5
NtRp583
(dp584
g8
S'3c609eac32b605c9b6b81b10c8c788a8fb03e05e'
p585
sbsS'/home/massimo/sources/xed/include/public/xed/xed-encoder-hl.h'
p586
g3
(g4
g5
NtRp587
(dp588
g8
S'2231da9be3983deb5146f509d398126b9ea6517e'
p589
sbsS'/home/massimo/sources/xed/obj/include-private/xed3-phash-vv0.h'
p590
g3
(g4
g5
NtRp591
(dp592
g8
S'1e4ac61095865a3bee87f04be644c1226d6a257a'
p593
sbsVMBUILD_COMMAND_KEY gcc -I./include/private -I./include/public -I./include/public/xed -Iobj -Iobj/include-private        -m64  -std=c99  -pedantic  -Wall -Werror -Wno-long-long -Wno-unknown-pragmas -fmessage-length=0 -pipe -fomit-frame-pointer -fno-exceptions -Wstrict-prototypes -Wwrite-strings -Wredundant-decls -DXED_GIT_VERSION="v10.0-298-g2be2d28" -DXED_AMD_ENABLED -DXED_AVX -DXED_SUPPORTS_AVX512 -DXED_MPX -DXED_CET -DXED_SUPPORTS_SHA -DXED_SUPPORTS_WBNOINVD -DXED_DECODER -DXED_ENCODER -DXED_SUPPORTS_LZCNT_TZCNT -DXED_BUILD -c -o obj/xed-encoder-iforms-init.o /home/massimo/sources/xed/obj/xed-encoder-iforms-init.c
p594
g3
(g4
g5
NtRp595
(dp596
g8
S'91cdd61fcca38f3e207c2c48ace932e3313afb85'
p597
sbsS'/home/massimo/sources/xed/include/private/xed-decode-supp.h'
p598
g3
(g4
g5
NtRp599
(dp600
g8
S'fb1ad1160b9eb07f176870742b428af2313c5317'
p601
sbsVMBUILD_COMMAND_KEY gcc -I./include/private -I./include/public -I./include/public/xed -Iobj -Iobj/include-private        -m64  -std=c99  -pedantic  -Wall -Werror -Wno-long-long -Wno-unknown-pragmas -fmessage-length=0 -pipe -fomit-frame-pointer -fno-exceptions -Wstrict-prototypes -Wwrite-strings -Wredundant-decls -DXED_GIT_VERSION="v10.0-298-g2be2d28" -DXED_AMD_ENABLED -DXED_AVX -DXED_SUPPORTS_AVX512 -DXED_MPX -DXED_CET -DXED_SUPPORTS_SHA -DXED_SUPPORTS_WBNOINVD -DXED_DECODER -DXED_ENCODER -DXED_SUPPORTS_LZCNT_TZCNT -DXED_BUILD -c -o obj/xed-init-inst-table.o /home/massimo/sources/xed/obj/xed-init-inst-table.c
p602
g3
(g4
g5
NtRp603
(dp604
g8
S'8b52a42db6f76642bd39699ac6cb56c37e6495e1'
p605
sbsS'/home/massimo/sources/xed/obj/xed-encoder-pattern-lu.c'
p606
g3
(g4
g5
NtRp607
(dp608
g8
S'c271747eaafb74360520704707da96241d7f1eab'
p609
sbsVMBUILD_COMMAND_KEY gcc -I./include/private -I./include/public -I./include/public/xed -Iobj -Iobj/include-private        -m64  -std=c99  -pedantic  -Wall -Werror -Wno-long-long -Wno-unknown-pragmas -fmessage-length=0 -pipe -fomit-frame-pointer -fno-exceptions -Wstrict-prototypes -Wwrite-strings -Wredundant-decls -DXED_GIT_VERSION="v10.0-298-g2be2d28" -DXED_AMD_ENABLED -DXED_AVX -DXED_SUPPORTS_AVX512 -DXED_MPX -DXED_CET -DXED_SUPPORTS_SHA -DXED_SUPPORTS_WBNOINVD -DXED_DECODER -DXED_ENCODER -DXED_SUPPORTS_LZCNT_TZCNT -DXED_BUILD -c -o obj/xed-machine-mode-enum.o /home/massimo/sources/xed/obj/xed-machine-mode-enum.c
p610
g3
(g4
g5
NtRp611
(dp612
g8
S'd3caad8943aedc1dd17a99dbbcbb7ade63ecb029'
p613
sbsS'/home/massimo/sources/xed/obj/xed-encoder-pattern-lu.o'
p614
g3
(g4
g5
NtRp615
(dp616
g8
S'a96e2798111b0d067170b3ab694ed75dc8b8bbdb'
p617
sbsS'/home/massimo/sources/xed/obj/include-private/xed3-operand-lu.h'
p618
g3
(g4
g5
NtRp619
(dp620
g8
S'80e5768db0af43e3ef566f5db0134003ee04f823'
p621
sbsVMBUILD_COMMAND_KEY gcc -I./include/private -I./include/public -I./include/public/xed -Iobj -Iobj/include-private        -m64  -std=c99  -pedantic  -Wall -Werror -Wno-long-long -Wno-unknown-pragmas -fmessage-length=0 -pipe -fomit-frame-pointer -fno-exceptions -Wstrict-prototypes -Wwrite-strings -Wredundant-decls -DXED_GIT_VERSION="v10.0-298-g2be2d28" -DXED_AMD_ENABLED -DXED_AVX -DXED_SUPPORTS_AVX512 -DXED_MPX -DXED_CET -DXED_SUPPORTS_SHA -DXED_SUPPORTS_WBNOINVD -DXED_DECODER -DXED_ENCODER -DXED_SUPPORTS_LZCNT_TZCNT -DXED_BUILD -c -o obj/xed-operand-width-enum.o /home/massimo/sources/xed/obj/xed-operand-width-enum.c
p622
g3
(g4
g5
NtRp623
(dp624
g8
S'bd5ce158bd903b48c6cfd26ebbc0f58d9430e5da'
p625
sbsVMBUILD_COMMAND_KEY gcc -I./include/private -I./include/public -I./include/public/xed -Iobj -Iobj/include-private        -m64  -std=c99  -pedantic  -Wall -Werror -Wno-long-long -Wno-unknown-pragmas -fmessage-length=0 -pipe -fomit-frame-pointer -fno-exceptions -Wstrict-prototypes -Wwrite-strings -Wredundant-decls -DXED_GIT_VERSION="v10.0-298-g2be2d28" -DXED_AMD_ENABLED -DXED_AVX -DXED_SUPPORTS_AVX512 -DXED_MPX -DXED_CET -DXED_SUPPORTS_SHA -DXED_SUPPORTS_WBNOINVD -DXED_DECODER -DXED_ENCODER -DXED_SUPPORTS_LZCNT_TZCNT -DXED_BUILD -c -o obj/xed-encoder-1.o /home/massimo/sources/xed/obj/xed-encoder-1.c
p626
g3
(g4
g5
NtRp627
(dp628
g8
S'910ec8847ea646b2023951d20ee7fa6b9c9a2d1f'
p629
sbsS'/home/massimo/sources/xed/obj/include-private/xed3-phash-vv2.h'
p630
g3
(g4
g5
NtRp631
(dp632
g8
S'c1baac3ac7359afaf22cfcd67af818a2987acecd'
p633
sbsS'/home/massimo/sources/xed/include/public/xed/xed-flags.h'
p634
g3
(g4
g5
NtRp635
(dp636
g8
S'cb5e9f660cff784555aa89f2e6fd5be964af6a7d'
p637
sbsVMBUILD_COMMAND_KEY gcc -I./include/private -I./include/public -I./include/public/xed -Iobj -Iobj/include-private        -m64  -std=c99  -pedantic  -Wall -Werror -Wno-long-long -Wno-unknown-pragmas -fmessage-length=0 -pipe -fomit-frame-pointer -fno-exceptions -Wstrict-prototypes -Wwrite-strings -Wredundant-decls -DXED_GIT_VERSION="v10.0-298-g2be2d28" -DXED_AMD_ENABLED -DXED_AVX -DXED_SUPPORTS_AVX512 -DXED_MPX -DXED_CET -DXED_SUPPORTS_SHA -DXED_SUPPORTS_WBNOINVD -DXED_DECODER -DXED_ENCODER -DXED_SUPPORTS_LZCNT_TZCNT -DXED_BUILD -c -o obj/xed-cpuid-bit-enum.o /home/massimo/sources/xed/obj/xed-cpuid-bit-enum.c
p638
g3
(g4
g5
NtRp639
(dp640
g8
S'8e1a0e695b5b39fdb4e1194a5eee08581d43a9d8'
p641
sbsS'/home/massimo/sources/xed/obj/xed3-operand-lu.c'
p642
g3
(g4
g5
NtRp643
(dp644
g8
S'69b982b870a3a1d3a6842dc44f0de6019f22d424'
p645
sbsS'/home/massimo/sources/xed/obj/xed3-operand-lu.o'
p646
g3
(g4
g5
NtRp647
(dp648
g8
S'15302d4bd474bb2385746793f4b9bc5564152595'
p649
sbsS'/home/massimo/sources/xed/obj/xed-init-inst-table.o'
p650
g3
(g4
g5
NtRp651
(dp652
g8
S'94b35aa10bcab9587bd7c9ede028c90dff4cce29'
p653
sbsS'/home/massimo/sources/xed/obj/xed-iformfl-enum.h'
p654
g3
(g4
g5
NtRp655
(dp656
g8
S'1e42e240de504a1efc198169815ef4a6f817b6df'
p657
sbsS'/home/massimo/sources/xed/obj/xed-iformfl-enum.o'
p658
g3
(g4
g5
NtRp659
(dp660
g8
S'682dd1ddab39cff6f665ddcdffad99c62f9ecd54'
p661
sbsVMBUILD_COMMAND_KEY gcc -I./include/private -I./include/public -I./include/public/xed -Iobj -Iobj/include-private        -m64  -std=c99  -pedantic  -Wall -Werror -Wno-long-long -Wno-unknown-pragmas -fmessage-length=0 -pipe -fomit-frame-pointer -fno-exceptions -Wstrict-prototypes -Wwrite-strings -Wredundant-decls -DXED_GIT_VERSION="v10.0-298-g2be2d28" -DXED_AMD_ENABLED -DXED_AVX -DXED_SUPPORTS_AVX512 -DXED_MPX -DXED_CET -DXED_SUPPORTS_SHA -DXED_SUPPORTS_WBNOINVD -DXED_DECODER -DXED_ENCODER -DXED_SUPPORTS_LZCNT_TZCNT -DXED_BUILD -c -o obj/xed-operand-action-enum.o /home/massimo/sources/xed/obj/xed-operand-action-enum.c
p662
g3
(g4
g5
NtRp663
(dp664
g8
S'9d571cfc9733d786523de9ca06afc3fe1e5b3a82'
p665
sbsS'/home/massimo/sources/xed/obj/xed-iformfl-enum.c'
p666
g3
(g4
g5
NtRp667
(dp668
g8
S'12457690c547c038d4bfabad6c4657792aa71bff'
p669
sbsVMBUILD_COMMAND_KEY gcc -I./include/private -I./include/public -I./include/public/xed -Iobj -Iobj/include-private        -m64  -std=c99  -pedantic  -Wall -Werror -Wno-long-long -Wno-unknown-pragmas -fmessage-length=0 -pipe -fomit-frame-pointer -fno-exceptions -Wstrict-prototypes -Wwrite-strings -Wredundant-decls -DXED_GIT_VERSION="v10.0-298-g2be2d28" -DXED_AMD_ENABLED -DXED_AVX -DXED_SUPPORTS_AVX512 -DXED_MPX -DXED_CET -DXED_SUPPORTS_SHA -DXED_SUPPORTS_WBNOINVD -DXED_DECODER -DXED_ENCODER -DXED_SUPPORTS_LZCNT_TZCNT -DXED_BUILD -c -o obj/xed-operand-values-interface.o /home/massimo/sources/xed/src/common/xed-operand-values-interface.c
p670
g3
(g4
g5
NtRp671
(dp672
g8
S'f62d8f11ed3d41f8db5d3ab342c72cc8929f8248'
p673
sbsVMBUILD_COMMAND_KEY gcc -I./include/private -I./include/public -I./include/public/xed -Iobj -Iobj/include-private        -m64  -std=c99  -pedantic  -Wall -Werror -Wno-long-long -Wno-unknown-pragmas -fmessage-length=0 -pipe -fomit-frame-pointer -fno-exceptions -Wstrict-prototypes -Wwrite-strings -Wredundant-decls -DXED_GIT_VERSION="v10.0-298-g2be2d28" -DXED_AMD_ENABLED -DXED_AVX -DXED_SUPPORTS_AVX512 -DXED_MPX -DXED_CET -DXED_SUPPORTS_SHA -DXED_SUPPORTS_WBNOINVD -DXED_DECODER -DXED_ENCODER -DXED_SUPPORTS_LZCNT_TZCNT -DXED_BUILD -c -o obj/xed-init-pointer-names.o /home/massimo/sources/xed/obj/xed-init-pointer-names.c
p674
g3
(g4
g5
NtRp675
(dp676
g8
S'b7fd4edaff74167e16cc472138b955b7d6b7e5d9'
p677
sbsS'/home/massimo/sources/xed/obj/xed-init-inst-table.c'
p678
g3
(g4
g5
NtRp679
(dp680
g8
S'7374c3d62c19d57989265d297bc4234a357e13f1'
p681
sbsS'/home/massimo/sources/xed/obj/include-private/xed-ild-modrm.h'
p682
g3
(g4
g5
NtRp683
(dp684
g8
S'872424d6576744a8ce663f3db133c77ed5f15440'
p685
sbsVMBUILD_COMMAND_KEY gcc -I./include/private -I./include/public -I./include/public/xed -Iobj -Iobj/include-private        -m64  -std=c99  -pedantic  -Wall -Werror -Wno-long-long -Wno-unknown-pragmas -fmessage-length=0 -pipe -fomit-frame-pointer -fno-exceptions -Wstrict-prototypes -Wwrite-strings -Wredundant-decls -DXED_GIT_VERSION="v10.0-298-g2be2d28" -DXED_AMD_ENABLED -DXED_AVX -DXED_SUPPORTS_AVX512 -DXED_MPX -DXED_CET -DXED_SUPPORTS_SHA -DXED_SUPPORTS_WBNOINVD -DXED_DECODER -DXED_ENCODER -DXED_SUPPORTS_LZCNT_TZCNT -DXED_BUILD -c -o obj/xed-chip-modes-override.o /home/massimo/sources/xed/src/common/xed-chip-modes-override.c
p686
g3
(g4
g5
NtRp687
(dp688
g8
S'6c3ea19d146636fd208b47ee0fb772b42e7896fe'
p689
sbsS'/home/massimo/sources/xed/obj/include-private/xed-enc-groups.h'
p690
g3
(g4
g5
NtRp691
(dp692
g8
S'3fb4329ec62b9b095e20df150adf76be5acaad39'
p693
sbsVMBUILD_COMMAND_KEY gcc -I./include/private -I./include/public -I./include/public/xed -Iobj -Iobj/include-private        -m64  -std=c99  -pedantic  -Wall -Werror -Wno-long-long -Wno-unknown-pragmas -fmessage-length=0 -pipe -fomit-frame-pointer -fno-exceptions -Wstrict-prototypes -Wwrite-strings -Wredundant-decls -DXED_GIT_VERSION="v10.0-298-g2be2d28" -DXED_AMD_ENABLED -DXED_AVX -DXED_SUPPORTS_AVX512 -DXED_MPX -DXED_CET -DXED_SUPPORTS_SHA -DXED_SUPPORTS_WBNOINVD -DXED_DECODER -DXED_ENCODER -DXED_SUPPORTS_LZCNT_TZCNT -DXED_BUILD -c -o obj/xed-disas.o /home/massimo/sources/xed/src/dec/xed-disas.c
p694
g3
(g4
g5
NtRp695
(dp696
g8
S'1a814992121d27e2e8f4a879c557a48cd2b11e6a'
p697
sbsS'/home/massimo/sources/xed/obj/xed-enc-patterns.o'
p698
g3
(g4
g5
NtRp699
(dp700
g8
S'5264cee96de2c11c35c32ff1796a1034d0df5e8f'
p701
sbsS'/home/massimo/sources/xed/obj/xed-flags-complex.o'
p702
g3
(g4
g5
NtRp703
(dp704
g8
S'52968ec4c3ded30e2e7cc6476192c1efa0346e90'
p705
sbsS'/home/massimo/sources/xed/include/private/xed3-static-decode.h'
p706
g3
(g4
g5
NtRp707
(dp708
g8
S'b425aef39e029a3be600b9966db2a3eaa2ac0767'
p709
sbsS'/home/massimo/sources/xed/obj/xed-flags-complex.c'
p710
g3
(g4
g5
NtRp711
(dp712
g8
S'e149ba85d1511d5d16d291eac3dc6e037e6e0808'
p713
sbsS'/home/massimo/sources/xed/include/public/xed/xed-attributes.h'
p714
g3
(g4
g5
NtRp715
(dp716
g8
S'cf4dd6745341bf74f17a833d7a1e3f11a567dda8'
p717
sbsS'/home/massimo/sources/xed/obj/xed3-phash-lu-vv1.o'
p718
g3
(g4
g5
NtRp719
(dp720
g8
S'4bbdb45b9053528cfb29b9f42edc02641d6bbdec'
p721
sbsS'/home/massimo/sources/xed/obj/xed-init-reg-class.c'
p722
g3
(g4
g5
NtRp723
(dp724
g8
S'dd82bd1ec984f5d0183410d8988fc71f43316c09'
p725
sbsS'/home/massimo/sources/xed/include/public/xed/xed-version.h'
p726
g3
(g4
g5
NtRp727
(dp728
g8
S'0aa6c64082c6e14499a4e2c05062a5e16dd6a5d5'
p729
sbsS'/home/massimo/sources/xed/obj/xed-init-reg-class.o'
p730
g3
(g4
g5
NtRp731
(dp732
g8
S'072d66df4845d191b557db656a070d1743b3b33b'
p733
sbsVMBUILD_COMMAND_KEY gcc -I./include/private -I./include/public -I./include/public/xed -Iobj -Iobj/include-private        -m64  -std=c99  -pedantic  -Wall -Werror -Wno-long-long -Wno-unknown-pragmas -fmessage-length=0 -pipe -fomit-frame-pointer -fno-exceptions -Wstrict-prototypes -Wwrite-strings -Wredundant-decls -DXED_GIT_VERSION="v10.0-298-g2be2d28" -DXED_AMD_ENABLED -DXED_AVX -DXED_SUPPORTS_AVX512 -DXED_MPX -DXED_CET -DXED_SUPPORTS_SHA -DXED_SUPPORTS_WBNOINVD -DXED_DECODER -DXED_ENCODER -DXED_SUPPORTS_LZCNT_TZCNT -DXED_BUILD -c -o obj/xed-encoder-4.o /home/massimo/sources/xed/obj/xed-encoder-4.c
p734
g3
(g4
g5
NtRp735
(dp736
g8
S'0befe7c709936f1a1ca24e59313db62c28a8a161'
p737
sbsVMBUILD_COMMAND_KEY gcc -I./include/private -I./include/public -I./include/public/xed -Iobj -Iobj/include-private        -m64  -std=c99  -pedantic  -Wall -Werror -Wno-long-long -Wno-unknown-pragmas -fmessage-length=0 -pipe -fomit-frame-pointer -fno-exceptions -Wstrict-prototypes -Wwrite-strings -Wredundant-decls -DXED_GIT_VERSION="v10.0-298-g2be2d28" -DXED_AMD_ENABLED -DXED_AVX -DXED_SUPPORTS_AVX512 -DXED_MPX -DXED_CET -DXED_SUPPORTS_SHA -DXED_SUPPORTS_WBNOINVD -DXED_DECODER -DXED_ENCODER -DXED_SUPPORTS_LZCNT_TZCNT -DXED_BUILD -c -o obj/xed-reg-class-enum.o /home/massimo/sources/xed/obj/xed-reg-class-enum.c
p738
g3
(g4
g5
NtRp739
(dp740
g8
S'20406f03bf9db9fb5e4086c788f06d78fd75d00b'
p741
sbsVMBUILD_COMMAND_KEY gcc -I./include/private -I./include/public -I./include/public/xed -Iobj -Iobj/include-private        -m64  -std=c99  -pedantic  -Wall -Werror -Wno-long-long -Wno-unknown-pragmas -fmessage-length=0 -pipe -fomit-frame-pointer -fno-exceptions -Wstrict-prototypes -Wwrite-strings -Wredundant-decls -DXED_GIT_VERSION="v10.0-298-g2be2d28" -DXED_AMD_ENABLED -DXED_AVX -DXED_SUPPORTS_AVX512 -DXED_MPX -DXED_CET -DXED_SUPPORTS_SHA -DXED_SUPPORTS_WBNOINVD -DXED_DECODER -DXED_ENCODER -DXED_SUPPORTS_LZCNT_TZCNT -DXED_BUILD -c -o obj/xed3-phash-lu-vv3.o /home/massimo/sources/xed/obj/xed3-phash-lu-vv3.c
p742
g3
(g4
g5
NtRp743
(dp744
g8
S'ef0bd611480f4aa9b1e3b59d7b3d8fef4bfec18d'
p745
sbsS'/home/massimo/sources/xed/obj/include-private/xed-ild-disp-l1.h'
p746
g3
(g4
g5
NtRp747
(dp748
g8
S'df24ddc8a192addadda8bc8375bb3f44ef6b4d37'
p749
sbsVMBUILD_COMMAND_KEY gcc -I./include/private -I./include/public -I./include/public/xed -Iobj -Iobj/include-private        -m64  -std=c99  -pedantic  -Wall -Werror -Wno-long-long -Wno-unknown-pragmas -fmessage-length=0 -pipe -fomit-frame-pointer -fno-exceptions -Wstrict-prototypes -Wwrite-strings -Wredundant-decls -DXED_GIT_VERSION="v10.0-298-g2be2d28" -DXED_AMD_ENABLED -DXED_AVX -DXED_SUPPORTS_AVX512 -DXED_MPX -DXED_CET -DXED_SUPPORTS_SHA -DXED_SUPPORTS_WBNOINVD -DXED_DECODER -DXED_ENCODER -DXED_SUPPORTS_LZCNT_TZCNT -DXED_BUILD -c -o obj/xed-portability.o /home/massimo/sources/xed/src/common/xed-portability.c
p750
g3
(g4
g5
NtRp751
(dp752
g8
S'd1c7b0dc20d4a75d8c1635ba8ca71a6900eb3f1d'
p753
sbsVMBUILD_COMMAND_KEY gcc -I./include/private -I./include/public -I./include/public/xed -Iobj -Iobj/include-private        -m64  -std=c99  -pedantic  -Wall -Werror -Wno-long-long -Wno-unknown-pragmas -fmessage-length=0 -pipe -fomit-frame-pointer -fno-exceptions -Wstrict-prototypes -Wwrite-strings -Wredundant-decls -DXED_GIT_VERSION="v10.0-298-g2be2d28" -DXED_AMD_ENABLED -DXED_AVX -DXED_SUPPORTS_AVX512 -DXED_MPX -DXED_CET -DXED_SUPPORTS_SHA -DXED_SUPPORTS_WBNOINVD -DXED_DECODER -DXED_ENCODER -DXED_SUPPORTS_LZCNT_TZCNT -DXED_BUILD -c -o obj/xed-chip-enum.o /home/massimo/sources/xed/obj/xed-chip-enum.c
p754
g3
(g4
g5
NtRp755
(dp756
g8
S'0c0eaa16c3ea73a2211692073f3e407a74529405'
p757
sbsS'/home/massimo/sources/xed/src/dec/xed3-static-decode.c'
p758
g3
(g4
g5
NtRp759
(dp760
g8
S'e81a73744c854142cc50b8b1a9690f71e046e175'
p761
sbsS'/home/massimo/sources/xed/obj/xed-operand-ctype-enum.o'
p762
g3
(g4
g5
NtRp763
(dp764
g8
S'0740cf1dff3650d444902606dfa78e4ed5cf43d3'
p765
sbsS'/home/massimo/sources/xed/src/common/xed-version.c'
p766
g3
(g4
g5
NtRp767
(dp768
g8
S'a2ea89e043a36c230971ce2bf508ad0640487e05'
p769
sbsS'/home/massimo/sources/xed/obj/xed-chip-enum.h'
p770
g3
(g4
g5
NtRp771
(dp772
g8
S'7c965d74557e1ec9b74492524b848c59461a49e7'
p773
sbsS'/home/massimo/sources/xed/obj/xed-chip-enum.o'
p774
g3
(g4
g5
NtRp775
(dp776
g8
S'e676e1189be75cfe45ae7ce3d1c57891de275101'
p777
sbsS'/home/massimo/sources/xed/obj/xed-init-operand-type-mappings.c'
p778
g3
(g4
g5
NtRp779
(dp780
g8
S'92422b86cc1ee78f4f07a2a7c5cb980e1c8928b0'
p781
sbsS'/home/massimo/sources/xed/obj/xed-operand-ctype-enum.h'
p782
g3
(g4
g5
NtRp783
(dp784
g8
S'0ade18b8dda10c7430e13722e9e5aa9032354772'
p785
sbsS'/home/massimo/sources/xed/obj/xed-chip-enum.c'
p786
g3
(g4
g5
NtRp787
(dp788
g8
S'62282e4e3fa76c1f0baa42981c038eb412d55f83'
p789
sbsS'/home/massimo/sources/xed/obj/xed-init-operand-type-mappings.o'
p790
g3
(g4
g5
NtRp791
(dp792
g8
S'b49f190760267834b5b6648b2f0b1159fc933341'
p793
sbsS'/home/massimo/sources/xed/obj/xed-flags-actions.c'
p794
g3
(g4
g5
NtRp795
(dp796
g8
S'70f9eb5b15b7e468f7df9a48dce904c0a239d833'
p797
sbsS'/home/massimo/sources/xed/obj/xed-operand-ctype-enum.c'
p798
g3
(g4
g5
NtRp799
(dp800
g8
S'd2a1652d209887ae7aa9f87a02e3367359d39790'
p801
sbsVMBUILD_COMMAND_KEY gcc -I./include/private -I./include/public -I./include/public/xed -Iobj -Iobj/include-private        -m64  -std=c99  -pedantic  -Wall -Werror -Wno-long-long -Wno-unknown-pragmas -fmessage-length=0 -pipe -fomit-frame-pointer -fno-exceptions -Wstrict-prototypes -Wwrite-strings -Wredundant-decls -DXED_GIT_VERSION="v10.0-298-g2be2d28" -DXED_AMD_ENABLED -DXED_AVX -DXED_SUPPORTS_AVX512 -DXED_MPX -DXED_CET -DXED_SUPPORTS_SHA -DXED_SUPPORTS_WBNOINVD -DXED_DECODER -DXED_ENCODER -DXED_SUPPORTS_LZCNT_TZCNT -DXED_BUILD -c -o obj/xed-operand-element-type-enum.o /home/massimo/sources/xed/obj/xed-operand-element-type-enum.c
p802
g3
(g4
g5
NtRp803
(dp804
g8
S'5af7efefc78ef6121c58b3faa4a565a6a55fb576'
p805
sbsS'/home/massimo/sources/xed/obj/xed-encoder-2.c'
p806
g3
(g4
g5
NtRp807
(dp808
g8
S'2660c386eeaff94bb4b6667b584888984c327493'
p809
sbsVMBUILD_COMMAND_KEY gcc -I./include/private -I./include/public -I./include/public/xed -Iobj -Iobj/include-private        -m64  -std=c99  -pedantic  -Wall -Werror -Wno-long-long -Wno-unknown-pragmas -fmessage-length=0 -pipe -fomit-frame-pointer -fno-exceptions -Wstrict-prototypes -Wwrite-strings -Wredundant-decls -DXED_GIT_VERSION="v10.0-298-g2be2d28" -DXED_AMD_ENABLED -DXED_AVX -DXED_SUPPORTS_AVX512 -DXED_MPX -DXED_CET -DXED_SUPPORTS_SHA -DXED_SUPPORTS_WBNOINVD -DXED_DECODER -DXED_ENCODER -DXED_SUPPORTS_LZCNT_TZCNT -DXED_BUILD -c -o obj/xed-init-inst-table-0.o /home/massimo/sources/xed/obj/xed-init-inst-table-0.c
p810
g3
(g4
g5
NtRp811
(dp812
g8
S'7832a202bc37266d1cd2b6936071c4467da24fdf'
p813
sbsS'/home/massimo/sources/xed/include/private/xed-operand-type-info.h'
p814
g3
(g4
g5
NtRp815
(dp816
g8
S'4e9ef8cfb399c689fe739fe89e5e9a82aa444b1b'
p817
sbsS'/home/massimo/sources/xed/obj/xed-enc-dec.o'
p818
g3
(g4
g5
NtRp819
(dp820
g8
S'fae92800a42f6c07c8ef2eea21ae93b224b954ef'
p821
sbsVMBUILD_COMMAND_KEY gcc -I./include/private -I./include/public -I./include/public/xed -Iobj -Iobj/include-private        -m64  -std=c99  -pedantic  -Wall -Werror -Wno-long-long -Wno-unknown-pragmas -fmessage-length=0 -pipe -fomit-frame-pointer -fno-exceptions -Wstrict-prototypes -Wwrite-strings -Wredundant-decls -DXED_GIT_VERSION="v10.0-298-g2be2d28" -DXED_AMD_ENABLED -DXED_AVX -DXED_SUPPORTS_AVX512 -DXED_MPX -DXED_CET -DXED_SUPPORTS_SHA -DXED_SUPPORTS_WBNOINVD -DXED_DECODER -DXED_ENCODER -DXED_SUPPORTS_LZCNT_TZCNT -DXED_BUILD -c -o obj/xed3-phash-lu-vv0.o /home/massimo/sources/xed/obj/xed3-phash-lu-vv0.c
p822
g3
(g4
g5
NtRp823
(dp824
g8
S'd12e0253c2d8c6b6873ce5b1ce7ebc908721b916'
p825
sbsVMBUILD_COMMAND_KEY gcc -I./include/private -I./include/public -I./include/public/xed -Iobj -Iobj/include-private        -m64  -std=c99  -pedantic  -Wall -Werror -Wno-long-long -Wno-unknown-pragmas -fmessage-length=0 -pipe -fomit-frame-pointer -fno-exceptions -Wstrict-prototypes -Wwrite-strings -Wredundant-decls -DXED_GIT_VERSION="v10.0-298-g2be2d28" -DXED_AMD_ENABLED -DXED_AVX -DXED_SUPPORTS_AVX512 -DXED_MPX -DXED_CET -DXED_SUPPORTS_SHA -DXED_SUPPORTS_WBNOINVD -DXED_DECODER -DXED_ENCODER -DXED_SUPPORTS_LZCNT_TZCNT -DXED_BUILD -c -o obj/xed-operand-type-enum.o /home/massimo/sources/xed/obj/xed-operand-type-enum.c
p826
g3
(g4
g5
NtRp827
(dp828
g8
S'fedfe9c6bea8e241f5b12ecdd9af0ff3abbee272'
p829
sbsVMBUILD_COMMAND_KEY gcc -I./include/private -I./include/public -I./include/public/xed -Iobj -Iobj/include-private        -m64  -std=c99  -pedantic  -Wall -Werror -Wno-long-long -Wno-unknown-pragmas -fmessage-length=0 -pipe -fomit-frame-pointer -fno-exceptions -Wstrict-prototypes -Wwrite-strings -Wredundant-decls -DXED_GIT_VERSION="v10.0-298-g2be2d28" -DXED_AMD_ENABLED -DXED_AVX -DXED_SUPPORTS_AVX512 -DXED_MPX -DXED_CET -DXED_SUPPORTS_SHA -DXED_SUPPORTS_WBNOINVD -DXED_DECODER -DXED_ENCODER -DXED_SUPPORTS_LZCNT_TZCNT -DXED_BUILD -c -o obj/xed-init-operand-sequences.o /home/massimo/sources/xed/obj/xed-init-operand-sequences.c
p830
g3
(g4
g5
NtRp831
(dp832
g8
S'0c00652ca9039441522e4eb2cc79e52862422670'
p833
sbsS'/home/massimo/sources/xed/obj/xed-attributes-init.c'
p834
g3
(g4
g5
NtRp835
(dp836
g8
S'e93beae883d29c517bf1b82321b829f826273d97'
p837
sbsS'/home/massimo/sources/xed/obj/xed-attributes-init.o'
p838
g3
(g4
g5
NtRp839
(dp840
g8
S'4612d933d9ed804ca1d95f42cf98c230e1d3eb78'
p841
sbsS'/home/massimo/sources/xed/include/public/xed/xed-init.h'
p842
g3
(g4
g5
NtRp843
(dp844
g8
S'db44041a4ff9d2db5b50e6857b9171339c3a521b'
p845
sbsS'/home/massimo/sources/xed/obj/xed-version.o'
p846
g3
(g4
g5
NtRp847
(dp848
g8
S'04ada7f55bd847d312cca37c0897eab780f8609b'
p849
sbsVMBUILD_COMMAND_KEY gcc -I./include/private -I./include/public -I./include/public/xed -Iobj -Iobj/include-private        -m64  -std=c99  -pedantic  -Wall -Werror -Wno-long-long -Wno-unknown-pragmas -fmessage-length=0 -pipe -fomit-frame-pointer -fno-exceptions -Wstrict-prototypes -Wwrite-strings -Wredundant-decls -DXED_GIT_VERSION="v10.0-298-g2be2d28" -DXED_AMD_ENABLED -DXED_AVX -DXED_SUPPORTS_AVX512 -DXED_MPX -DXED_CET -DXED_SUPPORTS_SHA -DXED_SUPPORTS_WBNOINVD -DXED_DECODER -DXED_ENCODER -DXED_SUPPORTS_LZCNT_TZCNT -DXED_BUILD -c -o obj/xed-address-width-enum.o /home/massimo/sources/xed/obj/xed-address-width-enum.c
p850
g3
(g4
g5
NtRp851
(dp852
g8
S'f6c0a121d1d06ee6894d2afff38046babf1348a9'
p853
sbsVMBUILD_COMMAND_KEY gcc -I./include/private -I./include/public -I./include/public/xed -Iobj -Iobj/include-private        -m64  -std=c99  -pedantic  -Wall -Werror -Wno-long-long -Wno-unknown-pragmas -fmessage-length=0 -pipe -fomit-frame-pointer -fno-exceptions -Wstrict-prototypes -Wwrite-strings -Wredundant-decls -DXED_GIT_VERSION="v10.0-298-g2be2d28" -DXED_AMD_ENABLED -DXED_AVX -DXED_SUPPORTS_AVX512 -DXED_MPX -DXED_CET -DXED_SUPPORTS_SHA -DXED_SUPPORTS_WBNOINVD -DXED_DECODER -DXED_ENCODER -DXED_SUPPORTS_LZCNT_TZCNT -DXED_BUILD -c -o obj/xed-operand-enum.o /home/massimo/sources/xed/obj/xed-operand-enum.c
p854
g3
(g4
g5
NtRp855
(dp856
g8
S'8041e62992182477ca37cd4cd81a043fe377d5e7'
p857
sbsS'/home/massimo/sources/xed/include/private/xed-ild-private.h'
p858
g3
(g4
g5
NtRp859
(dp860
g8
S'48b140d38e2d4b8a457c576d8472501cd740e90d'
p861
sbsVMBUILD_COMMAND_KEY gcc -I./include/private -I./include/public -I./include/public/xed -Iobj -Iobj/include-private        -m64  -std=c99  -pedantic  -Wall -Werror -Wno-long-long -Wno-unknown-pragmas -fmessage-length=0 -pipe -fomit-frame-pointer -fno-exceptions -Wstrict-prototypes -Wwrite-strings -Wredundant-decls -DXED_GIT_VERSION="v10.0-298-g2be2d28" -DXED_AMD_ENABLED -DXED_AVX -DXED_SUPPORTS_AVX512 -DXED_MPX -DXED_CET -DXED_SUPPORTS_SHA -DXED_SUPPORTS_WBNOINVD -DXED_DECODER -DXED_ENCODER -DXED_SUPPORTS_LZCNT_TZCNT -DXED_BUILD -c -o obj/xed-cpuid-tables.o /home/massimo/sources/xed/obj/xed-cpuid-tables.c
p862
g3
(g4
g5
NtRp863
(dp864
g8
S'7e43e2625e41c31cac69b524ff7d0a899e834da7'
p865
sbsS'/home/massimo/sources/xed/src/common/xed-state.c'
p866
g3
(g4
g5
NtRp867
(dp868
g8
S'4d2a65eb6927fd9697b43218b5b9e17ed73ab9f3'
p869
sbsS'/home/massimo/sources/xed/obj/xed-ild.o'
p870
g3
(g4
g5
NtRp871
(dp872
g8
S'2cd38c57eb86ba4b1275aeb68861f042cbd4357f'
p873
sbsS'/home/massimo/sources/xed/obj/xed-isa-set.o'
p874
g3
(g4
g5
NtRp875
(dp876
g8
S'3900e5d62632aa8949ac44ac4c1e7a8e8dcd3d2f'
p877
sbsS'/home/massimo/sources/xed/obj/xed-flags.o'
p878
g3
(g4
g5
NtRp879
(dp880
g8
S'423a2467472b64e26c1eb4cab092afaf9d620973'
p881
sbsS'/home/massimo/sources/xed/obj/xed-category-enum.c'
p882
g3
(g4
g5
NtRp883
(dp884
g8
S'2a79ad89898d23923a2a222a0a5fb057534f1f5d'
p885
sbsS'/home/massimo/sources/xed/include/private/xed-encode-types.h'
p886
g3
(g4
g5
NtRp887
(dp888
g8
S'ff8b0dfafb7c9d66e52bae6ab7eca66023e4cde1'
p889
sbsS'/home/massimo/sources/xed/obj/xed-category-enum.o'
p890
g3
(g4
g5
NtRp891
(dp892
g8
S'df6af6dbf5a7e548e1ccc66faf4a3845e96ecddc'
p893
sbsS'/home/massimo/sources/xed/obj/xed-category-enum.h'
p894
g3
(g4
g5
NtRp895
(dp896
g8
S'2ab6c1c63b28e75e886e095afb4587a1a36e9c41'
p897
sbsS'/home/massimo/sources/xed/include/public/xed/xed-patch.h'
p898
g3
(g4
g5
NtRp899
(dp900
g8
S'b7bd218c24bfcffb6012a0c5c4200a475a38a223'
p901
sbsVMBUILD_COMMAND_KEY gcc -I./include/private -I./include/public -I./include/public/xed -Iobj -Iobj/include-private        -m64  -std=c99  -pedantic  -Wall -Werror -Wno-long-long -Wno-unknown-pragmas -fmessage-length=0 -pipe -fomit-frame-pointer -fno-exceptions -Wstrict-prototypes -Wwrite-strings -Wredundant-decls -DXED_GIT_VERSION="v10.0-298-g2be2d28" -DXED_AMD_ENABLED -DXED_AVX -DXED_SUPPORTS_AVX512 -DXED_MPX -DXED_CET -DXED_SUPPORTS_SHA -DXED_SUPPORTS_WBNOINVD -DXED_DECODER -DXED_ENCODER -DXED_SUPPORTS_LZCNT_TZCNT -DXED_BUILD -c -o obj/xed-operand-convert-enum.o /home/massimo/sources/xed/obj/xed-operand-convert-enum.c
p902
g3
(g4
g5
NtRp903
(dp904
g8
S'663e51e917a297782bc1e1acc6a3621a96ff2525'
p905
sbsS'/home/massimo/sources/xed/obj/xed-iclass-enum.h'
p906
g3
(g4
g5
NtRp907
(dp908
g8
S'48e6188145c4dfdcf61fc391a0311155af5a6da0'
p909
sbsS'/home/massimo/sources/xed/src/dec/xed-decoded-inst.c'
p910
g3
(g4
g5
NtRp911
(dp912
g8
S'aed1caf4192b59cb14c5b4f953aafec1a3dc63e1'
p913
sbsS'/home/massimo/sources/xed/src/common/xed-portability.c'
p914
g3
(g4
g5
NtRp915
(dp916
g8
S'2bb8887d79ed10cfe8fae5610d02512711b6613f'
p917
sbsS'/home/massimo/sources/xed/src/dec/xed3-dynamic-decode.c'
p918
g3
(g4
g5
NtRp919
(dp920
g8
S'70c1bffaf6193a2492d4f7f49c77826817180cb6'
p921
sbsS'/home/massimo/sources/xed/include/private/xed3-dynamic-decode.h'
p922
g3
(g4
g5
NtRp923
(dp924
g8
S'548798d407dcb770c57be5ae5adc5f2f7fae2843'
p925
sbsS'/home/massimo/sources/xed/obj/xed-immdis.o'
p926
g3
(g4
g5
NtRp927
(dp928
g8
S'e900efbd2f5f56e86461f49e2fc2960d4d6bdfce'
p929
sbsS'/home/massimo/sources/xed/obj/xed-operand-values-interface-uisa.o'
p930
g3
(g4
g5
NtRp931
(dp932
g8
S'aaf0fd0b23fa4c3be1b9f86821f040219e1cd436'
p933
sbsVMBUILD_COMMAND_KEY gcc -I./include/private -I./include/public -I./include/public/xed -Iobj -Iobj/include-private        -m64  -std=c99  -pedantic  -Wall -Werror -Wno-long-long -Wno-unknown-pragmas -fmessage-length=0 -pipe -fomit-frame-pointer -fno-exceptions -Wstrict-prototypes -Wwrite-strings -Wredundant-decls -DXED_GIT_VERSION="v10.0-298-g2be2d28" -DXED_AMD_ENABLED -DXED_AVX -DXED_SUPPORTS_AVX512 -DXED_MPX -DXED_CET -DXED_SUPPORTS_SHA -DXED_SUPPORTS_WBNOINVD -DXED_DECODER -DXED_ENCODER -DXED_SUPPORTS_LZCNT_TZCNT -DXED_BUILD -c -o obj/xed-encoder-pattern-lu.o /home/massimo/sources/xed/obj/xed-encoder-pattern-lu.c
p934
g3
(g4
g5
NtRp935
(dp936
g8
S'739a33ae6f250bbad46246f09ad839217de764ef'
p937
sbsVMBUILD_COMMAND_KEY gcc -I./include/private -I./include/public -I./include/public/xed -Iobj -Iobj/include-private        -m64  -std=c99  -pedantic  -Wall -Werror -Wno-long-long -Wno-unknown-pragmas -fmessage-length=0 -pipe -fomit-frame-pointer -fno-exceptions -Wstrict-prototypes -Wwrite-strings -Wredundant-decls -DXED_GIT_VERSION="v10.0-298-g2be2d28" -DXED_AMD_ENABLED -DXED_AVX -DXED_SUPPORTS_AVX512 -DXED_MPX -DXED_CET -DXED_SUPPORTS_SHA -DXED_SUPPORTS_WBNOINVD -DXED_DECODER -DXED_ENCODER -DXED_SUPPORTS_LZCNT_TZCNT -DXED_BUILD -c -o obj/xed-util.o /home/massimo/sources/xed/src/common/xed-util.c
p938
g3
(g4
g5
NtRp939
(dp940
g8
S'3f5c3d118e9dda52a8f7ff192fd72a4933c1132e'
p941
sbsS'/home/massimo/sources/xed/include/private/xed-tables-decl.h'
p942
g3
(g4
g5
NtRp943
(dp944
g8
S'1e6d2d58f35d84b279c58b155264d0e30e2d1757'
p945
sbsVMBUILD_COMMAND_KEY gcc -I./include/private -I./include/public -I./include/public/xed -Iobj -Iobj/include-private        -m64  -std=c99  -pedantic  -Wall -Werror -Wno-long-long -Wno-unknown-pragmas -fmessage-length=0 -pipe -fomit-frame-pointer -fno-exceptions -Wstrict-prototypes -Wwrite-strings -Wredundant-decls -DXED_GIT_VERSION="v10.0-298-g2be2d28" -DXED_AMD_ENABLED -DXED_AVX -DXED_SUPPORTS_AVX512 -DXED_MPX -DXED_CET -DXED_SUPPORTS_SHA -DXED_SUPPORTS_WBNOINVD -DXED_DECODER -DXED_ENCODER -DXED_SUPPORTS_LZCNT_TZCNT -DXED_BUILD -c -o obj/xed-encode.o /home/massimo/sources/xed/src/enc/xed-encode.c
p946
g3
(g4
g5
NtRp947
(dp948
g8
S'a1bd762eed5739c774506c9d989fd5018c5e1036'
p949
sbsS'/home/massimo/sources/xed/obj/xed3-phash-lu-vv2.o'
p950
g3
(g4
g5
NtRp951
(dp952
g8
S'122fb255762123540f27ffcb49d4ff828fac1723'
p953
sbsVMBUILD_COMMAND_KEY gcc -I./include/private -I./include/public -I./include/public/xed -Iobj -Iobj/include-private        -m64  -std=c99  -pedantic  -Wall -Werror -Wno-long-long -Wno-unknown-pragmas -fmessage-length=0 -pipe -fomit-frame-pointer -fno-exceptions -Wstrict-prototypes -Wwrite-strings -Wredundant-decls -DXED_GIT_VERSION="v10.0-298-g2be2d28" -DXED_AMD_ENABLED -DXED_AVX -DXED_SUPPORTS_AVX512 -DXED_MPX -DXED_CET -DXED_SUPPORTS_SHA -DXED_SUPPORTS_WBNOINVD -DXED_DECODER -DXED_ENCODER -DXED_SUPPORTS_LZCNT_TZCNT -DXED_BUILD -c -o obj/xed-iform-map-init.o /home/massimo/sources/xed/obj/xed-iform-map-init.c
p954
g3
(g4
g5
NtRp955
(dp956
g8
S'4028ef24a12c3876829603e67750b8ef11d77580'
p957
sbsS'/home/massimo/sources/xed/obj/xed3-phash-lu-vv2.c'
p958
g3
(g4
g5
NtRp959
(dp960
g8
S'7e566a26375b73392ede454c0ac701441dc56dc8'
p961
sbsS'/home/massimo/sources/xed/obj/xed-operand-enum.o'
p962
g3
(g4
g5
NtRp963
(dp964
g8
S'5201684f20b31b85da9c3060300510aa0c05712e'
p965
sbsS'/home/massimo/sources/xed/include/public/xed/xed-cpuid-rec.h'
p966
g3
(g4
g5
NtRp967
(dp968
g8
S'0e223119b2b64133e684f4c7f33d9b42be26e90e'
p969
sbsS'/home/massimo/sources/xed/obj/xed-operand-enum.h'
p970
g3
(g4
g5
NtRp971
(dp972
g8
S'd699e7c011c4401a2977874fb1e87a954f3b1c62'
p973
sbsS'/home/massimo/sources/xed/obj/xed-gen-table-defs.h'
p974
g3
(g4
g5
NtRp975
(dp976
g8
S'56902279ff29f6eb63fe6f2d853ed7d32c3dcb0b'
p977
sbsS'/home/massimo/sources/xed/src/common/xed-cpuid.c'
p978
g3
(g4
g5
NtRp979
(dp980
g8
S'58e7db08ea0a96798fbfda874783188afad9ae38'
p981
sbsS'/home/massimo/sources/xed/include/private/xed-tables-extern.h'
p982
g3
(g4
g5
NtRp983
(dp984
g8
S'ff4684e66cbf584de72ad6d84e87662e04fe7c68'
p985
sbsS'/home/massimo/sources/xed/obj/include-private/xed3-phash-lu-vv0.h'
p986
g3
(g4
g5
NtRp987
(dp988
g8
S'7e35f52a3f7fcaac65d6f5cd76458df5a8bc693e'
p989
sbsVMBUILD_COMMAND_KEY gcc -I./include/private -I./include/public -I./include/public/xed -Iobj -Iobj/include-private        -m64  -std=c99  -pedantic  -Wall -Werror -Wno-long-long -Wno-unknown-pragmas -fmessage-length=0 -pipe -fomit-frame-pointer -fno-exceptions -Wstrict-prototypes -Wwrite-strings -Wredundant-decls -DXED_GIT_VERSION="v10.0-298-g2be2d28" -DXED_AMD_ENABLED -DXED_AVX -DXED_SUPPORTS_AVX512 -DXED_MPX -DXED_CET -DXED_SUPPORTS_SHA -DXED_SUPPORTS_WBNOINVD -DXED_DECODER -DXED_ENCODER -DXED_SUPPORTS_LZCNT_TZCNT -DXED_BUILD -c -o obj/xed-iform-map.o /home/massimo/sources/xed/src/dec/xed-iform-map.c
p990
g3
(g4
g5
NtRp991
(dp992
g8
S'f6b3abb1878690b50363be814ddda4500f1cb7ef'
p993
sbsVMBUILD_COMMAND_KEY gcc -I./include/private -I./include/public -I./include/public/xed -Iobj -Iobj/include-private        -m64  -std=c99  -pedantic  -Wall -Werror -Wno-long-long -Wno-unknown-pragmas -fmessage-length=0 -pipe -fomit-frame-pointer -fno-exceptions -Wstrict-prototypes -Wwrite-strings -Wredundant-decls -DXED_GIT_VERSION="v10.0-298-g2be2d28" -DXED_AMD_ENABLED -DXED_AVX -DXED_SUPPORTS_AVX512 -DXED_MPX -DXED_CET -DXED_SUPPORTS_SHA -DXED_SUPPORTS_WBNOINVD -DXED_DECODER -DXED_ENCODER -DXED_SUPPORTS_LZCNT_TZCNT -DXED_BUILD -c -o obj/xed-iform-enum.o /home/massimo/sources/xed/obj/xed-iform-enum.c
p994
g3
(g4
g5
NtRp995
(dp996
g8
S'0009e8ca1b47cb4b3528ab2fa5a7e8fb91631be3'
p997
sbsVMBUILD_COMMAND_KEY gcc -I./include/private -I./include/public -I./include/public/xed -Iobj -Iobj/include-private        -m64  -std=c99  -pedantic  -Wall -Werror -Wno-long-long -Wno-unknown-pragmas -fmessage-length=0 -pipe -fomit-frame-pointer -fno-exceptions -Wstrict-prototypes -Wwrite-strings -Wredundant-decls -DXED_GIT_VERSION="v10.0-298-g2be2d28" -DXED_AMD_ENABLED -DXED_AVX -DXED_SUPPORTS_AVX512 -DXED_MPX -DXED_CET -DXED_SUPPORTS_SHA -DXED_SUPPORTS_WBNOINVD -DXED_DECODER -DXED_ENCODER -DXED_SUPPORTS_LZCNT_TZCNT -DXED_BUILD -c -o obj/xed-ild-disp-l3.o /home/massimo/sources/xed/obj/xed-ild-disp-l3.c
p998
g3
(g4
g5
NtRp999
(dp1000
g8
S'462e10522a1f0700eda98bfcd4026fc888023d6d'
p1001
sbsS'/home/massimo/sources/xed/obj/xed-cpuid-tables.o'
p1002
g3
(g4
g5
NtRp1003
(dp1004
g8
S'f2f5548cd5fb08dc58492721f889e1c872aabdfc'
p1005
sbsS'/home/massimo/sources/xed/obj/xed3-phash-lu-vv0.o'
p1006
g3
(g4
g5
NtRp1007
(dp1008
g8
S'72d0534c1aa7044d5f09892a45072b5760177d1b'
p1009
sbsVMBUILD_COMMAND_KEY gcc -I./include/private -I./include/public -I./include/public/xed -Iobj -Iobj/include-private        -m64  -std=c99  -pedantic  -Wall -Werror -Wno-long-long -Wno-unknown-pragmas -fmessage-length=0 -pipe -fomit-frame-pointer -fno-exceptions -Wstrict-prototypes -Wwrite-strings -Wredundant-decls -DXED_GIT_VERSION="v10.0-298-g2be2d28" -DXED_AMD_ENABLED -DXED_AVX -DXED_SUPPORTS_AVX512 -DXED_MPX -DXED_CET -DXED_SUPPORTS_SHA -DXED_SUPPORTS_WBNOINVD -DXED_DECODER -DXED_ENCODER -DXED_SUPPORTS_LZCNT_TZCNT -DXED_BUILD -c -o obj/xed-decode.o /home/massimo/sources/xed/src/dec/xed-decode.c
p1010
g3
(g4
g5
NtRp1011
(dp1012
g8
S'95352f9757f7a3ed2f0ace7f23bea30b01a0c174'
p1013
sbsS'/home/massimo/sources/xed/obj/include-private/xed3-phash-lu-vv2.h'
p1014
g3
(g4
g5
NtRp1015
(dp1016
g8
S'2f3ff9da5aca483ade09ce032d25f56ef2c02531'
p1017
sbsS'/home/massimo/sources/xed/obj/xed-cpuid-bit-enum.h'
p1018
g3
(g4
g5
NtRp1019
(dp1020
g8
S'9fc20fa098751902432301e3a6f23d6ca93b1dd9'
p1021
sbsS'/home/massimo/sources/xed/obj/xed-cpuid-bit-enum.o'
p1022
g3
(g4
g5
NtRp1023
(dp1024
g8
S'8fa944655355063a99d5a68434d592e53c5e0e8b'
p1025
sbsS'/home/massimo/sources/xed/obj/xed-exception-enum.c'
p1026
g3
(g4
g5
NtRp1027
(dp1028
g8
S'd8ae48895026f7ce2b0c9d18b6974f340c520d78'
p1029
sbsS'/home/massimo/sources/xed/obj/xed3-phash-lu-vv0.c'
p1030
g3
(g4
g5
NtRp1031
(dp1032
g8
S'ea5e3272c3657745c6ed8b0856f03c01e48f969e'
p1033
sbsS'/home/massimo/sources/xed/obj/xed-encoder-1.o'
p1034
g3
(g4
g5
NtRp1035
(dp1036
g8
S'49d4951ceb585335f5fb84f525f7219f93cbb72d'
p1037
sbsS'/home/massimo/sources/xed/obj/xed-iclass-enum.c'
p1038
g3
(g4
g5
NtRp1039
(dp1040
g8
S'd163cd7f55aade988f3174c56b747c4cdfd49b69'
p1041
sbsS'/home/massimo/sources/xed/obj/xed-encoder-gen-defs.h'
p1042
g3
(g4
g5
NtRp1043
(dp1044
g8
S'6cced30cd0a995acb135f687dbfab65623a44b69'
p1045
sbsS'/home/massimo/sources/xed/obj/xed-encoder-1.c'
p1046
g3
(g4
g5
NtRp1047
(dp1048
g8
S'6df8d4de9de51f1b68516562c2682a85c09c5224'
p1049
sbsS'/home/massimo/sources/xed/obj/xed-encoder-3.o'
p1050
g3
(g4
g5
NtRp1051
(dp1052
g8
S'8b544035b0bfeacd69f0fa49afc1172ed245f13b'
p1053
sbsS'/home/massimo/sources/xed/include/private/xed-tables.h'
p1054
g3
(g4
g5
NtRp1055
(dp1056
g8
S'7f3d3ed809b61ef04d70dc856a769f259df4c868'
p1057
sbsS'/home/massimo/sources/xed/obj/xed-encoder-3.c'
p1058
g3
(g4
g5
NtRp1059
(dp1060
g8
S'ef8209f4a068dae6b5d4261cfbfa4539b583fa84'
p1061
sbsS'/home/massimo/sources/xed/obj/xed-init-pointer-names.o'
p1062
g3
(g4
g5
NtRp1063
(dp1064
g8
S'0df139f556d53d9067b06d76cbbb39e85cb119ec'
p1065
sbsS'/home/massimo/sources/xed/include/public/xed/xed-portability.h'
p1066
g3
(g4
g5
NtRp1067
(dp1068
g8
S'a853997f5512ebbab40afb72c283ccb445694002'
p1069
sbsS'/home/massimo/sources/xed/include/public/xed/xed-isa-set.h'
p1070
g3
(g4
g5
NtRp1071
(dp1072
g8
S'e60d86c24aa541d0374ff299bdc695a8d9a4a37c'
p1073
sbsVMBUILD_COMMAND_KEY gcc -I./include/private -I./include/public -I./include/public/xed -Iobj -Iobj/include-private        -m64  -std=c99  -pedantic  -Wall -Werror -Wno-long-long -Wno-unknown-pragmas -fmessage-length=0 -pipe -fomit-frame-pointer -fno-exceptions -Wstrict-prototypes -Wwrite-strings -Wredundant-decls -DXED_GIT_VERSION="v10.0-298-g2be2d28" -DXED_AMD_ENABLED -DXED_AVX -DXED_SUPPORTS_AVX512 -DXED_MPX -DXED_CET -DXED_SUPPORTS_SHA -DXED_SUPPORTS_WBNOINVD -DXED_DECODER -DXED_ENCODER -DXED_SUPPORTS_LZCNT_TZCNT -DXED_BUILD -c -o obj/xed-category-enum.o /home/massimo/sources/xed/obj/xed-category-enum.c
p1074
g3
(g4
g5
NtRp1075
(dp1076
g8
S'5d2c6d23a2f812e7b87af21989627c941ea2440b'
p1077
sbsS'/home/massimo/sources/xed/src/dec/xed-chip-features.c'
p1078
g3
(g4
g5
NtRp1079
(dp1080
g8
S'181bdef5a0c6176904e4661c1eb7ab7d8db424e1'
p1081
sbsS'/home/massimo/sources/xed/obj/libxed-ild.a'
p1082
g3
(g4
g5
NtRp1083
(dp1084
g8
S'2e4793c8e5713773591f72824e8e5f5e6f41bb73'
p1085
sbsVMBUILD_COMMAND_KEY gcc -I./include/private -I./include/public -I./include/public/xed -Iobj -Iobj/include-private        -m64  -std=c99  -pedantic  -Wall -Werror -Wno-long-long -Wno-unknown-pragmas -fmessage-length=0 -pipe -fomit-frame-pointer -fno-exceptions -Wstrict-prototypes -Wwrite-strings -Wredundant-decls -DXED_GIT_VERSION="v10.0-298-g2be2d28" -DXED_AMD_ENABLED -DXED_AVX -DXED_SUPPORTS_AVX512 -DXED_MPX -DXED_CET -DXED_SUPPORTS_SHA -DXED_SUPPORTS_WBNOINVD -DXED_DECODER -DXED_ENCODER -DXED_SUPPORTS_LZCNT_TZCNT -DXED_BUILD -c -o obj/xed-cpuid.o /home/massimo/sources/xed/src/common/xed-cpuid.c
p1086
g3
(g4
g5
NtRp1087
(dp1088
g8
S'153576b575fe5f1ba72c9ca04e35429d5f24b503'
p1089
sbsS'/home/massimo/sources/xed/obj/xed-init-operand-data.c'
p1090
g3
(g4
g5
NtRp1091
(dp1092
g8
S'df7c3eaebaab9e9ab9d81877cf55316807fec988'
p1093
sbsS'/home/massimo/sources/xed/obj/xed-iform-enum.h'
p1094
g3
(g4
g5
NtRp1095
(dp1096
g8
S'182fe7807946486f21442f0b3d5b0e44b3e4b7ad'
p1097
sbsVMBUILD_COMMAND_KEY gcc -I./include/private -I./include/public -I./include/public/xed -Iobj -Iobj/include-private        -m64  -std=c99  -pedantic  -Wall -Werror -Wno-long-long -Wno-unknown-pragmas -fmessage-length=0 -pipe -fomit-frame-pointer -fno-exceptions -Wstrict-prototypes -Wwrite-strings -Wredundant-decls -DXED_GIT_VERSION="v10.0-298-g2be2d28" -DXED_AMD_ENABLED -DXED_AVX -DXED_SUPPORTS_AVX512 -DXED_MPX -DXED_CET -DXED_SUPPORTS_SHA -DXED_SUPPORTS_WBNOINVD -DXED_DECODER -DXED_ENCODER -DXED_SUPPORTS_LZCNT_TZCNT -DXED_BUILD -c -o obj/xed-reg-role-enum.o /home/massimo/sources/xed/obj/xed-reg-role-enum.c
p1098
g3
(g4
g5
NtRp1099
(dp1100
g8
S'c42a12b2bb374be4e7684ca35885d1e773a95dba'
p1101
sbsS'/home/massimo/sources/xed/obj/xed-operand-action.o'
p1102
g3
(g4
g5
NtRp1103
(dp1104
g8
S'6a10437933362ebb8feb84353307aad4732ef36a'
p1105
sbsS'/home/massimo/sources/xed/obj/include-private/xed-enc-patterns.h'
p1106
g3
(g4
g5
NtRp1107
(dp1108
g8
S'be53dc7bd87a589c49d8f0dad700c2f9659c237b'
p1109
sbsS'/home/massimo/sources/xed/include/private/xed-inst-private.h'
p1110
g3
(g4
g5
NtRp1111
(dp1112
g8
S'7682475e65af89bbe1ffaa38cd8a30fcbba7d0f0'
p1113
sbsVMBUILD_COMMAND_KEY gcc -I./include/private -I./include/public -I./include/public/xed -Iobj -Iobj/include-private        -m64  -std=c99  -pedantic  -Wall -Werror -Wno-long-long -Wno-unknown-pragmas -fmessage-length=0 -pipe -fomit-frame-pointer -fno-exceptions -Wstrict-prototypes -Wwrite-strings -Wredundant-decls -DXED_GIT_VERSION="v10.0-298-g2be2d28" -DXED_AMD_ENABLED -DXED_AVX -DXED_SUPPORTS_AVX512 -DXED_MPX -DXED_CET -DXED_SUPPORTS_SHA -DXED_SUPPORTS_WBNOINVD -DXED_DECODER -DXED_ENCODER -DXED_SUPPORTS_LZCNT_TZCNT -DXED_BUILD -c -o obj/xed-iform-max.o /home/massimo/sources/xed/obj/xed-iform-max.c
p1114
g3
(g4
g5
NtRp1115
(dp1116
g8
S'4281bd75b44c054dea000ce03f5f0b654847cf80'
p1117
sbsS'/home/massimo/sources/xed/obj/xed-cpuid.o'
p1118
g3
(g4
g5
NtRp1119
(dp1120
g8
S'972f415e6a9debf72e012ba0a4a22c9ed230ad5c'
p1121
sbsS'/home/massimo/sources/xed/obj/xed-inst.o'
p1122
g3
(g4
g5
NtRp1123
(dp1124
g8
S'b40bc5d61d87a91ab81cdbea013a812abc18fa82'
p1125
sbsVMBUILD_COMMAND_KEY gcc -I./include/private -I./include/public -I./include/public/xed -Iobj -Iobj/include-private        -m64  -std=c99  -pedantic  -Wall -Werror -Wno-long-long -Wno-unknown-pragmas -fmessage-length=0 -pipe -fomit-frame-pointer -fno-exceptions -Wstrict-prototypes -Wwrite-strings -Wredundant-decls -DXED_GIT_VERSION="v10.0-298-g2be2d28" -DXED_AMD_ENABLED -DXED_AVX -DXED_SUPPORTS_AVX512 -DXED_MPX -DXED_CET -DXED_SUPPORTS_SHA -DXED_SUPPORTS_WBNOINVD -DXED_DECODER -DXED_ENCODER -DXED_SUPPORTS_LZCNT_TZCNT -DXED_BUILD -c -o obj/xed-isa-set.o /home/massimo/sources/xed/src/common/xed-isa-set.c
p1126
g3
(g4
g5
NtRp1127
(dp1128
g8
S'bbc46509ded384e52c795154df1231958edb5e62'
p1129
sbsS'/home/massimo/sources/xed/obj/include-private/xed-ild-eosz-getters.h'
p1130
g3
(g4
g5
NtRp1131
(dp1132
g8
S'4aa84b6b5da0de6e4b856a19512fe5185775f8e5'
p1133
sbsVMBUILD_COMMAND_KEY gcc -I./include/private -I./include/public -I./include/public/xed -Iobj -Iobj/include-private        -m64  -std=c99  -pedantic  -Wall -Werror -Wno-long-long -Wno-unknown-pragmas -fmessage-length=0 -pipe -fomit-frame-pointer -fno-exceptions -Wstrict-prototypes -Wwrite-strings -Wredundant-decls -DXED_GIT_VERSION="v10.0-298-g2be2d28" -DXED_AMD_ENABLED -DXED_AVX -DXED_SUPPORTS_AVX512 -DXED_MPX -DXED_CET -DXED_SUPPORTS_SHA -DXED_SUPPORTS_WBNOINVD -DXED_DECODER -DXED_ENCODER -DXED_SUPPORTS_LZCNT_TZCNT -DXED_BUILD -c -o obj/xed-ild-support.o /home/massimo/sources/xed/src/ild/xed-ild-support.c
p1134
g3
(g4
g5
NtRp1135
(dp1136
g8
S'6ef91002ea76c9223f41f2e9af459789e7ff783e'
p1137
sbsS'/home/massimo/sources/xed/src/dec/xed-disas.c'
p1138
g3
(g4
g5
NtRp1139
(dp1140
g8
S'c7cd552b3c1ff5fdeffd18aa2e1aafe104e6f086'
p1141
sbsVMBUILD_COMMAND_KEY gcc -I./include/private -I./include/public -I./include/public/xed -Iobj -Iobj/include-private        -m64  -std=c99  -pedantic  -Wall -Werror -Wno-long-long -Wno-unknown-pragmas -fmessage-length=0 -pipe -fomit-frame-pointer -fno-exceptions -Wstrict-prototypes -Wwrite-strings -Wredundant-decls -DXED_GIT_VERSION="v10.0-298-g2be2d28" -DXED_AMD_ENABLED -DXED_AVX -DXED_SUPPORTS_AVX512 -DXED_MPX -DXED_CET -DXED_SUPPORTS_SHA -DXED_SUPPORTS_WBNOINVD -DXED_DECODER -DXED_ENCODER -DXED_SUPPORTS_LZCNT_TZCNT -DXED_BUILD -c -o obj/xed-encoder-init.o /home/massimo/sources/xed/obj/xed-encoder-init.c
p1142
g3
(g4
g5
NtRp1143
(dp1144
g8
S'8f739828d35cabe4b751e63459057cd2ae655599'
p1145
sbsS'/home/massimo/sources/xed/obj/xed-enc-groups.o'
p1146
g3
(g4
g5
NtRp1147
(dp1148
g8
S'6957263091d7f55ba19e7f39d77d24326d23c01f'
p1149
sbsS'/home/massimo/sources/xed/obj/xed-chip-modes-override.o'
p1150
g3
(g4
g5
NtRp1151
(dp1152
g8
S'aff0bb35230da6178de022ea2ca2408d95f9f0d4'
p1153
sbsVMBUILD_COMMAND_KEY gcc -I./include/private -I./include/public -I./include/public/xed -Iobj -Iobj/include-private        -m64  -std=c99  -pedantic  -Wall -Werror -Wno-long-long -Wno-unknown-pragmas -fmessage-length=0 -pipe -fomit-frame-pointer -fno-exceptions -Wstrict-prototypes -Wwrite-strings -Wredundant-decls -DXED_GIT_VERSION="v10.0-298-g2be2d28" -DXED_AMD_ENABLED -DXED_AVX -DXED_SUPPORTS_AVX512 -DXED_MPX -DXED_CET -DXED_SUPPORTS_SHA -DXED_SUPPORTS_WBNOINVD -DXED_DECODER -DXED_ENCODER -DXED_SUPPORTS_LZCNT_TZCNT -DXED_BUILD -c -o obj/xed-init-operand-type-mappings.o /home/massimo/sources/xed/obj/xed-init-operand-type-mappings.c
p1154
g3
(g4
g5
NtRp1155
(dp1156
g8
S'26c03e54333b74a4cc21cc9b1bc259d32339597e'
p1157
sbsS'/home/massimo/sources/xed/obj/xed-ild-easz.c'
p1158
g3
(g4
g5
NtRp1159
(dp1160
g8
S'aeb4ed2fc0058fe6b6dc0badbb6728b27652fdd2'
p1161
sbsS'/home/massimo/sources/xed/include/private/xed-util-private.h'
p1162
g3
(g4
g5
NtRp1163
(dp1164
g8
S'2eca81a35f16764b6bbefe56d83a843713983b42'
p1165
sbsS'/home/massimo/sources/xed/obj/xed-nonterminal-enum.h'
p1166
g3
(g4
g5
NtRp1167
(dp1168
g8
S'5d72262fae9fa285ad45fc6152c6218664f718ee'
p1169
sbsS'/home/massimo/sources/xed/obj/xed-nonterminal-enum.o'
p1170
g3
(g4
g5
NtRp1171
(dp1172
g8
S'205ebb2201a09085f6d7876dcc3cd69bc76ee95c'
p1173
sbsS'/home/massimo/sources/xed/obj/xed-iform-max.c'
p1174
g3
(g4
g5
NtRp1175
(dp1176
g8
S'9a5092bd4ae26c1f66ac0b07c4bca0e4f3e46201'
p1177
sbsS'/home/massimo/sources/xed/obj/xed-nonterminal-enum.c'
p1178
g3
(g4
g5
NtRp1179
(dp1180
g8
S'9fdc789b712681489fe7c48fbf88bd90088c5780'
p1181
sbsS'/home/massimo/sources/xed/obj/xed-iform-max.o'
p1182
g3
(g4
g5
NtRp1183
(dp1184
g8
S'7f21068d19b22f806c92c507e40ddb9688528d34'
p1185
sbsS'/home/massimo/sources/xed/obj/xed-flags-simple.c'
p1186
g3
(g4
g5
NtRp1187
(dp1188
g8
S'fae3da08cd16034ce690b438008565b3f776de9d'
p1189
sbsS'/home/massimo/sources/xed/obj/include-private/xed-ild-disp-l3.h'
p1190
g3
(g4
g5
NtRp1191
(dp1192
g8
S'095bb92bd1ed1bc7eb74e5021c13b56d52343dc2'
p1193
sbsS'/home/massimo/sources/xed/obj/xed-flags-simple.o'
p1194
g3
(g4
g5
NtRp1195
(dp1196
g8
S'83dbc76e399ad0465aae014c996d58755742919c'
p1197
sbsS'/home/massimo/sources/xed/include/private/xed-decoded-inst-private.h'
p1198
g3
(g4
g5
NtRp1199
(dp1200
g8
S'9bdea020641995b53484696ccaccf72c5166e291'
p1201
sbsVMBUILD_COMMAND_KEY gcc -I./include/private -I./include/public -I./include/public/xed -Iobj -Iobj/include-private        -m64  -std=c99  -pedantic  -Wall -Werror -Wno-long-long -Wno-unknown-pragmas -fmessage-length=0 -pipe -fomit-frame-pointer -fno-exceptions -Wstrict-prototypes -Wwrite-strings -Wredundant-decls -DXED_GIT_VERSION="v10.0-298-g2be2d28" -DXED_AMD_ENABLED -DXED_AVX -DXED_SUPPORTS_AVX512 -DXED_MPX -DXED_CET -DXED_SUPPORTS_SHA -DXED_SUPPORTS_WBNOINVD -DXED_DECODER -DXED_ENCODER -DXED_SUPPORTS_LZCNT_TZCNT -DXED_BUILD -c -o obj/xed-ild-eosz.o /home/massimo/sources/xed/obj/xed-ild-eosz.c
p1202
g3
(g4
g5
NtRp1203
(dp1204
g8
S'5dc8f421dbb20451c30cfd7f780eb0876a1ca9fd'
p1205
sbsS'/home/massimo/sources/xed/obj/xed-immed.o'
p1206
g3
(g4
g5
NtRp1207
(dp1208
g8
S'6f2df58cb9d4966262c1fb542a0b0f061b8257ae'
p1209
sbsS'/home/massimo/sources/xed/include/private/xed-internal-header-2.h'
p1210
g3
(g4
g5
NtRp1211
(dp1212
g8
S'0dbf743067be20c9ecc4b8ef4591ab091e8aee6f'
p1213
sbsVMBUILD_COMMAND_KEY gcc -I./include/private -I./include/public -I./include/public/xed -Iobj -Iobj/include-private        -m64  -std=c99  -pedantic  -Wall -Werror -Wno-long-long -Wno-unknown-pragmas -fmessage-length=0 -pipe -fomit-frame-pointer -fno-exceptions -Wstrict-prototypes -Wwrite-strings -Wredundant-decls -DXED_GIT_VERSION="v10.0-298-g2be2d28" -DXED_AMD_ENABLED -DXED_AVX -DXED_SUPPORTS_AVX512 -DXED_MPX -DXED_CET -DXED_SUPPORTS_SHA -DXED_SUPPORTS_WBNOINVD -DXED_DECODER -DXED_ENCODER -DXED_SUPPORTS_LZCNT_TZCNT -DXED_BUILD -c -o obj/xed3-static-decode.o /home/massimo/sources/xed/src/dec/xed3-static-decode.c
p1214
g3
(g4
g5
NtRp1215
(dp1216
g8
S'38b9f10786ac8f5a605d5a8647aa9eeebc098ff8'
p1217
sbsS'/home/massimo/sources/xed/obj/xed-flag-enum.h'
p1218
g3
(g4
g5
NtRp1219
(dp1220
g8
S'4adf7786275463eb143a470392dbda8729fefe7f'
p1221
sbsS'/home/massimo/sources/xed/obj/xed-flag-enum.o'
p1222
g3
(g4
g5
NtRp1223
(dp1224
g8
S'17da96ce1e973c848d8ce0d4fe17ca8fab3e9297'
p1225
sbsS'/home/massimo/sources/xed/obj/xed-flag-enum.c'
p1226
g3
(g4
g5
NtRp1227
(dp1228
g8
S'261897f834b796f42e4d06dedc35bf52dbd0ff65'
p1229
sbsS'/home/massimo/sources/xed/src/enc/xed-encode.c'
p1230
g3
(g4
g5
NtRp1231
(dp1232
g8
S'6817dbee4d655fc87d0592b9bf39f5e306bf80a0'
p1233
sbsVMBUILD_COMMAND_KEY gcc -I./include/private -I./include/public -I./include/public/xed -Iobj -Iobj/include-private        -m64  -std=c99  -pedantic  -Wall -Werror -Wno-long-long -Wno-unknown-pragmas -fmessage-length=0 -pipe -fomit-frame-pointer -fno-exceptions -Wstrict-prototypes -Wwrite-strings -Wredundant-decls -DXED_GIT_VERSION="v10.0-298-g2be2d28" -DXED_AMD_ENABLED -DXED_AVX -DXED_SUPPORTS_AVX512 -DXED_MPX -DXED_CET -DXED_SUPPORTS_SHA -DXED_SUPPORTS_WBNOINVD -DXED_DECODER -DXED_ENCODER -DXED_SUPPORTS_LZCNT_TZCNT -DXED_BUILD -c -o obj/xed3-phash-lu-vv1.o /home/massimo/sources/xed/obj/xed3-phash-lu-vv1.c
p1234
g3
(g4
g5
NtRp1235
(dp1236
g8
S'9a09cf5cfc2e01f20ba79f4f8aa61cd858c2ac8b'
p1237
sbsS'/home/massimo/sources/xed/obj/xed-classifiers.o'
p1238
g3
(g4
g5
NtRp1239
(dp1240
g8
S'6c0459d25f366cc588180d407992a3eccf31b0dc'
p1241
sbsS'/home/massimo/sources/xed/obj/xed-init-width.o'
p1242
g3
(g4
g5
NtRp1243
(dp1244
g8
S'af52fb875d798e2427579088b1493bda6171c470'
p1245
sbsS'/home/massimo/sources/xed/obj/xed-classifiers.c'
p1246
g3
(g4
g5
NtRp1247
(dp1248
g8
S'122f5d949273fd6a78c3e0422265db4e1716285a'
p1249
sbsVMBUILD_COMMAND_KEY gcc -I./include/private -I./include/public -I./include/public/xed -Iobj -Iobj/include-private        -m64  -std=c99  -pedantic  -Wall -Werror -Wno-long-long -Wno-unknown-pragmas -fmessage-length=0 -pipe -fomit-frame-pointer -fno-exceptions -Wstrict-prototypes -Wwrite-strings -Wredundant-decls -DXED_GIT_VERSION="v10.0-298-g2be2d28" -DXED_AMD_ENABLED -DXED_AVX -DXED_SUPPORTS_AVX512 -DXED_MPX -DXED_CET -DXED_SUPPORTS_SHA -DXED_SUPPORTS_WBNOINVD -DXED_DECODER -DXED_ENCODER -DXED_SUPPORTS_LZCNT_TZCNT -DXED_BUILD -c -o obj/xed-flag-enum.o /home/massimo/sources/xed/obj/xed-flag-enum.c
p1250
g3
(g4
g5
NtRp1251
(dp1252
g8
S'367bee4d42d9fe2015dca3815b378eae75e8c82c'
p1253
sbsS'/home/massimo/sources/xed/src/common/xed-reg-class.c'
p1254
g3
(g4
g5
NtRp1255
(dp1256
g8
S'f6ef7539b542cc45d69c06ae5b3a74f5f0656ffd'
p1257
sbsS'/home/massimo/sources/xed/obj/xed-init.o'
p1258
g3
(g4
g5
NtRp1259
(dp1260
g8
S'08f5f96c1b918d7c8db3a77f9581a60054a4c5da'
p1261
sbsS'/home/massimo/sources/xed/src/common/xed-table-sizes.c'
p1262
g3
(g4
g5
NtRp1263
(dp1264
g8
S'36af5a45b31151c2e47c0e20733793e21db886d5'
p1265
sbsS'/home/massimo/sources/xed/obj/xed-init-width.c'
p1266
g3
(g4
g5
NtRp1267
(dp1268
g8
S'1d807d5e6d9f48660146185354846443053c8d4a'
p1269
sbsS'/home/massimo/sources/xed/obj/xed-iform-map.o'
p1270
g3
(g4
g5
NtRp1271
(dp1272
g8
S'db263b3126f96e292e2b7ac377b1eb744c322a85'
p1273
sbsS'/home/massimo/sources/xed/obj/include-private/xed3-chain-capture-lu.h'
p1274
g3
(g4
g5
NtRp1275
(dp1276
g8
S'2ae24be2414edda823bba3865319b17ace0187e6'
p1277
sbsS'/home/massimo/sources/xed/include/public/xed/xed-state.h'
p1278
g3
(g4
g5
NtRp1279
(dp1280
g8
S'0fb0034e334f9e5c4b16b9ee612c8577c8a60290'
p1281
sbsVMBUILD_COMMAND_KEY gcc -I./include/private -I./include/public -I./include/public/xed -Iobj -Iobj/include-private        -m64  -std=c99  -pedantic  -Wall -Werror -Wno-long-long -Wno-unknown-pragmas -fmessage-length=0 -pipe -fomit-frame-pointer -fno-exceptions -Wstrict-prototypes -Wwrite-strings -Wredundant-decls -DXED_GIT_VERSION="v10.0-298-g2be2d28" -DXED_AMD_ENABLED -DXED_AVX -DXED_SUPPORTS_AVX512 -DXED_MPX -DXED_CET -DXED_SUPPORTS_SHA -DXED_SUPPORTS_WBNOINVD -DXED_DECODER -DXED_ENCODER -DXED_SUPPORTS_LZCNT_TZCNT -DXED_BUILD -c -o obj/xed-encoder-0.o /home/massimo/sources/xed/obj/xed-encoder-0.c
p1282
g3
(g4
g5
NtRp1283
(dp1284
g8
S'8b2d9b4e08be4e01013a07c62b84e75b5d9495c5'
p1285
sbsS'/home/massimo/sources/xed/src/dec/xed-ild.c'
p1286
g3
(g4
g5
NtRp1287
(dp1288
g8
S'327b0f7a1e3282d17f25f783492730db94a05b96'
p1289
sbsS'/home/massimo/sources/xed/obj/xed-iform-map-init.o'
p1290
g3
(g4
g5
NtRp1291
(dp1292
g8
S'53693e63c5a5279ce2f450853fca66b22bd2a25b'
p1293
sbsS'/home/massimo/sources/xed/obj/xed-iform-map-init.c'
p1294
g3
(g4
g5
NtRp1295
(dp1296
g8
S'ce49d7184495521e57ee802b3da7b27aa7e1a96a'
p1297
sbsS'/home/massimo/sources/xed/src/dec/xed-agen.c'
p1298
g3
(g4
g5
NtRp1299
(dp1300
g8
S'03cc939f48d2553e228569b9c55bef753c61edb5'
p1301
sbsS'/home/massimo/sources/xed/src/common/xed-immdis.c'
p1302
g3
(g4
g5
NtRp1303
(dp1304
g8
S'c6a9cf55565a1ba628970d934dad391e367171d6'
p1305
sbsS'/home/massimo/sources/xed/obj/include-private/xed-ild-getters.h'
p1306
g3
(g4
g5
NtRp1307
(dp1308
g8
S'9e279393a2c20b6ea4fd5b8c2a7bd4639bebd554'
p1309
sbsVMBUILD_COMMAND_KEY gcc -I./include/private -I./include/public -I./include/public/xed -Iobj -Iobj/include-private        -m64  -std=c99  -pedantic  -Wall -Werror -Wno-long-long -Wno-unknown-pragmas -fmessage-length=0 -pipe -fomit-frame-pointer -fno-exceptions -Wstrict-prototypes -Wwrite-strings -Wredundant-decls -DXED_GIT_VERSION="v10.0-298-g2be2d28" -DXED_AMD_ENABLED -DXED_AVX -DXED_SUPPORTS_AVX512 -DXED_MPX -DXED_CET -DXED_SUPPORTS_SHA -DXED_SUPPORTS_WBNOINVD -DXED_DECODER -DXED_ENCODER -DXED_SUPPORTS_LZCNT_TZCNT -DXED_BUILD -c -o obj/xed-flags.o /home/massimo/sources/xed/src/common/xed-flags.c
p1310
g3
(g4
g5
NtRp1311
(dp1312
g8
S'579d140b4fbede85552284eb7dd0b353cd11cbd8'
p1313
sbsS'/home/massimo/sources/xed/obj/xed-rep-prefix.o'
p1314
g3
(g4
g5
NtRp1315
(dp1316
g8
S'4b603bd2d8c0fe8e2ea8ac60abc25ddef8a2babb'
p1317
sbsVMBUILD_COMMAND_KEY gcc -I./include/private -I./include/public -I./include/public/xed -Iobj -Iobj/include-private        -m64  -std=c99  -pedantic  -Wall -Werror -Wno-long-long -Wno-unknown-pragmas -fmessage-length=0 -pipe -fomit-frame-pointer -fno-exceptions -Wstrict-prototypes -Wwrite-strings -Wredundant-decls -DXED_GIT_VERSION="v10.0-298-g2be2d28" -DXED_AMD_ENABLED -DXED_AVX -DXED_SUPPORTS_AVX512 -DXED_MPX -DXED_CET -DXED_SUPPORTS_SHA -DXED_SUPPORTS_WBNOINVD -DXED_DECODER -DXED_ENCODER -DXED_SUPPORTS_LZCNT_TZCNT -DXED_BUILD -c -o obj/xed-state.o /home/massimo/sources/xed/src/common/xed-state.c
p1318
g3
(g4
g5
NtRp1319
(dp1320
g8
S'd2d80fac8a5b3c7e77ed59ee16d670fc634d9256'
p1321
sbsVMBUILD_COMMAND_KEY gcc -I./include/private -I./include/public -I./include/public/xed -Iobj -Iobj/include-private        -m64  -std=c99  -pedantic  -Wall -Werror -Wno-long-long -Wno-unknown-pragmas -fmessage-length=0 -pipe -fomit-frame-pointer -fno-exceptions -Wstrict-prototypes -Wwrite-strings -Wredundant-decls -DXED_GIT_VERSION="v10.0-298-g2be2d28" -DXED_AMD_ENABLED -DXED_AVX -DXED_SUPPORTS_AVX512 -DXED_MPX -DXED_CET -DXED_SUPPORTS_SHA -DXED_SUPPORTS_WBNOINVD -DXED_DECODER -DXED_ENCODER -DXED_SUPPORTS_LZCNT_TZCNT -DXED_BUILD -c -o obj/xed-ild-imm-l3.o /home/massimo/sources/xed/obj/xed-ild-imm-l3.c
p1322
g3
(g4
g5
NtRp1323
(dp1324
g8
S'3fa41421360c2f37abe4dcf535f2cb468e552727'
p1325
sbsS'/home/massimo/sources/xed/obj/include-private/xed3-dynamic-part1-capture.h'
p1326
g3
(g4
g5
NtRp1327
(dp1328
g8
S'ceede764ea416cd6ae872138db743e52c26a2e84'
p1329
sbsVMBUILD_COMMAND_KEY gcc -I./include/private -I./include/public -I./include/public/xed -Iobj -Iobj/include-private        -m64  -std=c99  -pedantic  -Wall -Werror -Wno-long-long -Wno-unknown-pragmas -fmessage-length=0 -pipe -fomit-frame-pointer -fno-exceptions -Wstrict-prototypes -Wwrite-strings -Wredundant-decls -DXED_GIT_VERSION="v10.0-298-g2be2d28" -DXED_AMD_ENABLED -DXED_AVX -DXED_SUPPORTS_AVX512 -DXED_MPX -DXED_CET -DXED_SUPPORTS_SHA -DXED_SUPPORTS_WBNOINVD -DXED_DECODER -DXED_ENCODER -DXED_SUPPORTS_LZCNT_TZCNT -DXED_BUILD -c -o obj/xed-init.o /home/massimo/sources/xed/src/common/xed-init.c
p1330
g3
(g4
g5
NtRp1331
(dp1332
g8
S'b7ee38d51a64f2ec65964d3286266d18d2feef70'
p1333
sbsS'/home/massimo/sources/xed/obj/xed-ild-disp-l3.o'
p1334
g3
(g4
g5
NtRp1335
(dp1336
g8
S'649058057b1f3d1aa7ad817b58b9d38bc7da852d'
p1337
sbsS'/home/massimo/sources/xed/obj/xed-ild-disp-l3.c'
p1338
g3
(g4
g5
NtRp1339
(dp1340
g8
S'e3bd26b4078f8ede0f7e3ddb4f71b44560591856'
p1341
sbsS'/home/massimo/sources/xed/obj/xed-util.o'
p1342
g3
(g4
g5
NtRp1343
(dp1344
g8
S'36d1496decca858a1a74e5320693364465e63239'
p1345
sbsS'/home/massimo/sources/xed/obj/include-private/xed-enc-operand-lu.h'
p1346
g3
(g4
g5
NtRp1347
(dp1348
g8
S'0e8ff0d0dd85d8e44e9deb6d7ade41f7eef5d432'
p1349
sbsS'/home/massimo/sources/xed/obj/xed-decode.o'
p1350
g3
(g4
g5
NtRp1351
(dp1352
g8
S'42cb46e6c56170b2f98017f0a34785bb0642a796'
p1353
sbsVMBUILD_COMMAND_KEY gcc -I./include/private -I./include/public -I./include/public/xed -Iobj -Iobj/include-private        -m64  -std=c99  -pedantic  -Wall -Werror -Wno-long-long -Wno-unknown-pragmas -fmessage-length=0 -pipe -fomit-frame-pointer -fno-exceptions -Wstrict-prototypes -Wwrite-strings -Wredundant-decls -DXED_GIT_VERSION="v10.0-298-g2be2d28" -DXED_AMD_ENABLED -DXED_AVX -DXED_SUPPORTS_AVX512 -DXED_MPX -DXED_CET -DXED_SUPPORTS_SHA -DXED_SUPPORTS_WBNOINVD -DXED_DECODER -DXED_ENCODER -DXED_SUPPORTS_LZCNT_TZCNT -DXED_BUILD -c -o obj/xed-ild.o /home/massimo/sources/xed/src/dec/xed-ild.c
p1354
g3
(g4
g5
NtRp1355
(dp1356
g8
S'95f1b47697ca93b864cf89305e9106bad2969809'
p1357
sbsVMBUILD_COMMAND_KEY gcc -I./include/private -I./include/public -I./include/public/xed -Iobj -Iobj/include-private        -m64  -std=c99  -pedantic  -Wall -Werror -Wno-long-long -Wno-unknown-pragmas -fmessage-length=0 -pipe -fomit-frame-pointer -fno-exceptions -Wstrict-prototypes -Wwrite-strings -Wredundant-decls -DXED_GIT_VERSION="v10.0-298-g2be2d28" -DXED_AMD_ENABLED -DXED_AVX -DXED_SUPPORTS_AVX512 -DXED_MPX -DXED_CET -DXED_SUPPORTS_SHA -DXED_SUPPORTS_WBNOINVD -DXED_DECODER -DXED_ENCODER -DXED_SUPPORTS_LZCNT_TZCNT -DXED_BUILD -c -o obj/xed-agen.o /home/massimo/sources/xed/src/dec/xed-agen.c
p1358
g3
(g4
g5
NtRp1359
(dp1360
g8
S'adc3bf37670291dacf4703bd3998865028bcdcef'
p1361
sbsVMBUILD_COMMAND_KEY gcc -I./include/private -I./include/public -I./include/public/xed -Iobj -Iobj/include-private        -m64  -std=c99  -pedantic  -Wall -Werror -Wno-long-long -Wno-unknown-pragmas -fmessage-length=0 -pipe -fomit-frame-pointer -fno-exceptions -Wstrict-prototypes -Wwrite-strings -Wredundant-decls -DXED_GIT_VERSION="v10.0-298-g2be2d28" -DXED_AMD_ENABLED -DXED_AVX -DXED_SUPPORTS_AVX512 -DXED_MPX -DXED_CET -DXED_SUPPORTS_SHA -DXED_SUPPORTS_WBNOINVD -DXED_DECODER -DXED_ENCODER -DXED_SUPPORTS_LZCNT_TZCNT -DXED_BUILD -c -o obj/xed-classifiers.o /home/massimo/sources/xed/obj/xed-classifiers.c
p1362
g3
(g4
g5
NtRp1363
(dp1364
g8
S'070ec8c4e2d1d335f3ba5e60c51f33429d6dbe4c'
p1365
sbsVMBUILD_COMMAND_KEY gcc -I./include/private -I./include/public -I./include/public/xed -Iobj -Iobj/include-private        -m64  -std=c99  -pedantic  -Wall -Werror -Wno-long-long -Wno-unknown-pragmas -fmessage-length=0 -pipe -fomit-frame-pointer -fno-exceptions -Wstrict-prototypes -Wwrite-strings -Wredundant-decls -DXED_GIT_VERSION="v10.0-298-g2be2d28" -DXED_AMD_ENABLED -DXED_AVX -DXED_SUPPORTS_AVX512 -DXED_MPX -DXED_CET -DXED_SUPPORTS_SHA -DXED_SUPPORTS_WBNOINVD -DXED_DECODER -DXED_ENCODER -DXED_SUPPORTS_LZCNT_TZCNT -DXED_BUILD -c -o obj/xed-init-inst-table-data.o /home/massimo/sources/xed/obj/xed-init-inst-table-data.c
p1366
g3
(g4
g5
NtRp1367
(dp1368
g8
S'99c46074f8d627631ff58bd7fe87c4dc13fa230b'
p1369
sbsS'/home/massimo/sources/xed/src/ild/xed-ild-support.c'
p1370
g3
(g4
g5
NtRp1371
(dp1372
g8
S'cb81b08bb08405aabdaeb20636c6dce9c839333f'
p1373
sbsVMBUILD_COMMAND_KEY gcc -I./include/private -I./include/public -I./include/public/xed -Iobj -Iobj/include-private        -m64  -std=c99  -pedantic  -Wall -Werror -Wno-long-long -Wno-unknown-pragmas -fmessage-length=0 -pipe -fomit-frame-pointer -fno-exceptions -Wstrict-prototypes -Wwrite-strings -Wredundant-decls -DXED_GIT_VERSION="v10.0-298-g2be2d28" -DXED_AMD_ENABLED -DXED_AVX -DXED_SUPPORTS_AVX512 -DXED_MPX -DXED_CET -DXED_SUPPORTS_SHA -DXED_SUPPORTS_WBNOINVD -DXED_DECODER -DXED_ENCODER -DXED_SUPPORTS_LZCNT_TZCNT -DXED_BUILD -c -o obj/xed-version.o /home/massimo/sources/xed/src/common/xed-version.c
p1374
g3
(g4
g5
NtRp1375
(dp1376
g8
S'4646117e7dcecbf5bb12ec185ef9fde90eb9d1d1'
p1377
sbsS'/home/massimo/sources/xed/obj/include-private/xed-ild-imm-bytes.h'
p1378
g3
(g4
g5
NtRp1379
(dp1380
g8
S'ba5b24b7d7502af38ca2186101335d2c2e3cd44c'
p1381
sbsS'/home/massimo/sources/xed/include/public/xed/xed-common-defs.h'
p1382
g3
(g4
g5
NtRp1383
(dp1384
g8
S'15922e166b9e648087213e26e55bbe1c159b2eb0'
p1385
sbsVMBUILD_COMMAND_KEY gcc -I./include/private -I./include/public -I./include/public/xed -Iobj -Iobj/include-private        -m64  -std=c99  -pedantic  -Wall -Werror -Wno-long-long -Wno-unknown-pragmas -fmessage-length=0 -pipe -fomit-frame-pointer -fno-exceptions -Wstrict-prototypes -Wwrite-strings -Wredundant-decls -DXED_GIT_VERSION="v10.0-298-g2be2d28" -DXED_AMD_ENABLED -DXED_AVX -DXED_SUPPORTS_AVX512 -DXED_MPX -DXED_CET -DXED_SUPPORTS_SHA -DXED_SUPPORTS_WBNOINVD -DXED_DECODER -DXED_ENCODER -DXED_SUPPORTS_LZCNT_TZCNT -DXED_BUILD -c -o obj/xed-flags-complex.o /home/massimo/sources/xed/obj/xed-flags-complex.c
p1386
g3
(g4
g5
NtRp1387
(dp1388
g8
S'7c7635046e69da2a45c7e8af0c06463987a041d3'
p1389
sbsS'/home/massimo/sources/xed/src/encdec/xed-enc-dec.c'
p1390
g3
(g4
g5
NtRp1391
(dp1392
g8
S'd4d2be9ed940c0bdbbbcca667efb7905e29566f5'
p1393
sbsVMBUILD_COMMAND_KEY gcc -I./include/private -I./include/public -I./include/public/xed -Iobj -Iobj/include-private        -m64  -std=c99  -pedantic  -Wall -Werror -Wno-long-long -Wno-unknown-pragmas -fmessage-length=0 -pipe -fomit-frame-pointer -fno-exceptions -Wstrict-prototypes -Wwrite-strings -Wredundant-decls -DXED_GIT_VERSION="v10.0-298-g2be2d28" -DXED_AMD_ENABLED -DXED_AVX -DXED_SUPPORTS_AVX512 -DXED_MPX -DXED_CET -DXED_SUPPORTS_SHA -DXED_SUPPORTS_WBNOINVD -DXED_DECODER -DXED_ENCODER -DXED_SUPPORTS_LZCNT_TZCNT -DXED_BUILD -c -o obj/xed-chip-modes.o /home/massimo/sources/xed/src/common/xed-chip-modes.c
p1394
g3
(g4
g5
NtRp1395
(dp1396
g8
S'edf6ac9f553c839737000a64d563b7c42b5bd8b6'
p1397
sbsS'/home/massimo/sources/xed/obj/include-private/xed3-phash-vv1.h'
p1398
g3
(g4
g5
NtRp1399
(dp1400
g8
S'59d9027964d838272a49bba09ad7089652de7129'
p1401
sbsVMBUILD_COMMAND_KEY gcc -I./include/private -I./include/public -I./include/public/xed -Iobj -Iobj/include-private        -m64  -std=c99  -pedantic  -Wall -Werror -Wno-long-long -Wno-unknown-pragmas -fmessage-length=0 -pipe -fomit-frame-pointer -fno-exceptions -Wstrict-prototypes -Wwrite-strings -Wredundant-decls -DXED_GIT_VERSION="v10.0-298-g2be2d28" -DXED_AMD_ENABLED -DXED_AVX -DXED_SUPPORTS_AVX512 -DXED_MPX -DXED_CET -DXED_SUPPORTS_SHA -DXED_SUPPORTS_WBNOINVD -DXED_DECODER -DXED_ENCODER -DXED_SUPPORTS_LZCNT_TZCNT -DXED_BUILD -c -o obj/xed-enc-groups.o /home/massimo/sources/xed/obj/xed-enc-groups.c
p1402
g3
(g4
g5
NtRp1403
(dp1404
g8
S'3e27afc6ef1fbb8c6cac0f03307a4787d3c0dec0'
p1405
sbsS'/home/massimo/sources/xed/include/private/xed-chip-modes-override.h'
p1406
g3
(g4
g5
NtRp1407
(dp1408
g8
S'26431d20fc6b43c6a1ceeee9fe30482c874b7ad0'
p1409
sbsS'/home/massimo/sources/xed/include/private/xed-portability-private.h'
p1410
g3
(g4
g5
NtRp1411
(dp1412
g8
S'e1b36fa8fad199b1a5db100132ede3f8e4b926f2'
p1413
sbsVMBUILD_COMMAND_KEY gcc -I./include/private -I./include/public -I./include/public/xed -Iobj -Iobj/include-private        -m64  -std=c99  -pedantic  -Wall -Werror -Wno-long-long -Wno-unknown-pragmas -fmessage-length=0 -pipe -fomit-frame-pointer -fno-exceptions -Wstrict-prototypes -Wwrite-strings -Wredundant-decls -DXED_GIT_VERSION="v10.0-298-g2be2d28" -DXED_AMD_ENABLED -DXED_AVX -DXED_SUPPORTS_AVX512 -DXED_MPX -DXED_CET -DXED_SUPPORTS_SHA -DXED_SUPPORTS_WBNOINVD -DXED_DECODER -DXED_ENCODER -DXED_SUPPORTS_LZCNT_TZCNT -DXED_BUILD -c -o obj/xed3-operand-lu.o /home/massimo/sources/xed/obj/xed3-operand-lu.c
p1414
g3
(g4
g5
NtRp1415
(dp1416
g8
S'eb5c1bde5fc2a29e7cfa170e76b7c45a8078f7bc'
p1417
sbsS'/home/massimo/sources/xed/include/public/xed/xed-interface.h'
p1418
g3
(g4
g5
NtRp1419
(dp1420
g8
S'a8a88902cc22a279b9335564d93bf487cac51300'
p1421
sbsS'/home/massimo/sources/xed/obj/xed-init-pointer-names.c'
p1422
g3
(g4
g5
NtRp1423
(dp1424
g8
S'328767991ed505618ad3fa44e23ca1cfdca30b98'
p1425
sbsS'/home/massimo/sources/xed/obj/include-private/xed3-chain-capture.h'
p1426
g3
(g4
g5
NtRp1427
(dp1428
g8
S'8e061a778966e2e23bd4dcbdac16362de7dfe59f'
p1429
sbsVMBUILD_COMMAND_KEY gcc -I./include/private -I./include/public -I./include/public/xed -Iobj -Iobj/include-private        -m64  -std=c99  -pedantic  -Wall -Werror -Wno-long-long -Wno-unknown-pragmas -fmessage-length=0 -pipe -fomit-frame-pointer -fno-exceptions -Wstrict-prototypes -Wwrite-strings -Wredundant-decls -DXED_GIT_VERSION="v10.0-298-g2be2d28" -DXED_AMD_ENABLED -DXED_AVX -DXED_SUPPORTS_AVX512 -DXED_MPX -DXED_CET -DXED_SUPPORTS_SHA -DXED_SUPPORTS_WBNOINVD -DXED_DECODER -DXED_ENCODER -DXED_SUPPORTS_LZCNT_TZCNT -DXED_BUILD -c -o obj/xed-encoder-3.o /home/massimo/sources/xed/obj/xed-encoder-3.c
p1430
g3
(g4
g5
NtRp1431
(dp1432
g8
S'466724cc53b37c8a40cf8bd5dfa6efc5778584c5'
p1433
sbsS'/home/massimo/sources/xed/obj/xed-chip-features.o'
p1434
g3
(g4
g5
NtRp1435
(dp1436
g8
S'38737163d2d24ede5ab8565690321962fa8caea4'
p1437
sbsVMBUILD_COMMAND_KEY gcc -I./include/private -I./include/public -I./include/public/xed -Iobj -Iobj/include-private        -m64  -std=c99  -pedantic  -Wall -Werror -Wno-long-long -Wno-unknown-pragmas -fmessage-length=0 -pipe -fomit-frame-pointer -fno-exceptions -Wstrict-prototypes -Wwrite-strings -Wredundant-decls -DXED_GIT_VERSION="v10.0-298-g2be2d28" -DXED_AMD_ENABLED -DXED_AVX -DXED_SUPPORTS_AVX512 -DXED_MPX -DXED_CET -DXED_SUPPORTS_SHA -DXED_SUPPORTS_WBNOINVD -DXED_DECODER -DXED_ENCODER -DXED_SUPPORTS_LZCNT_TZCNT -DXED_BUILD -c -o obj/xed-chip-features.o /home/massimo/sources/xed/src/dec/xed-chip-features.c
p1438
g3
(g4
g5
NtRp1439
(dp1440
g8
S'1b78a26f5a3deda048469be84e33a60d9b1d85be'
p1441
sbsVMBUILD_COMMAND_KEY gcc -I./include/private -I./include/public -I./include/public/xed -Iobj -Iobj/include-private        -m64  -std=c99  -pedantic  -Wall -Werror -Wno-long-long -Wno-unknown-pragmas -fmessage-length=0 -pipe -fomit-frame-pointer -fno-exceptions -Wstrict-prototypes -Wwrite-strings -Wredundant-decls -DXED_GIT_VERSION="v10.0-298-g2be2d28" -DXED_AMD_ENABLED -DXED_AVX -DXED_SUPPORTS_AVX512 -DXED_MPX -DXED_CET -DXED_SUPPORTS_SHA -DXED_SUPPORTS_WBNOINVD -DXED_DECODER -DXED_ENCODER -DXED_SUPPORTS_LZCNT_TZCNT -DXED_BUILD -c -o obj/xed-operand-visibility-enum.o /home/massimo/sources/xed/obj/xed-operand-visibility-enum.c
p1442
g3
(g4
g5
NtRp1443
(dp1444
g8
S'9777c8712115a33dce66639e0a5b9bafdc7e19fd'
p1445
sbsS'/home/massimo/sources/xed/src/common/xed-immed.c'
p1446
g3
(g4
g5
NtRp1447
(dp1448
g8
S'4c95ddfd5bdc4ffb638fb8e6c8bfd78721d32ed0'
p1449
sbsS'/home/massimo/sources/xed/obj/xed-init-ild.o'
p1450
g3
(g4
g5
NtRp1451
(dp1452
g8
S'0eee07514deeabedf7e2aead6f88d9f22d90f1e4'
p1453
sbsS'/home/massimo/sources/xed/obj/include-private/xed3-phash-vv3.h'
p1454
g3
(g4
g5
NtRp1455
(dp1456
g8
S'c31753ef4d8ae81b969ac4df20c11c12ebd1b73b'
p1457
sbsS'/home/massimo/sources/xed/obj/xed-init-pointer-names.h'
p1458
g3
(g4
g5
NtRp1459
(dp1460
g8
S'e26ddaa2cd3e8c302f76f2cd07321e26f4ea8624'
p1461
sbsS'/home/massimo/sources/xed/src/ild/xed-init-ild.c'
p1462
g3
(g4
g5
NtRp1463
(dp1464
g8
S'03bf0efdc83cce010d5dbe9a547b771d999c752d'
p1465
sbsS'/home/massimo/sources/xed/obj/xed-encode-isa-functions.o'
p1466
g3
(g4
g5
NtRp1467
(dp1468
g8
S'b0ec97f704f78d05e504547a2cae18d0a06700cd'
p1469
sbsS'/home/massimo/sources/xed/obj/include-private/xed-encoder.h'
p1470
g3
(g4
g5
NtRp1471
(dp1472
g8
S'eda3b10e0d09a1925610f114a232a77c92af82d3'
p1473
sbsS'/home/massimo/sources/xed/obj/include-private/xed-chip-features-table.h'
p1474
g3
(g4
g5
NtRp1475
(dp1476
g8
S'32db278a89d1d66e369b178b25efabeb5926154e'
p1477
sbsS'/home/massimo/sources/xed/obj/xed-iclass-enum.o'
p1478
g3
(g4
g5
NtRp1479
(dp1480
g8
S'd15ff7f2cf75e88bf6bb63c97ec1b10e498acfef'
p1481
sbsVMBUILD_COMMAND_KEY gcc -I./include/private -I./include/public -I./include/public/xed -Iobj -Iobj/include-private        -m64  -std=c99  -pedantic  -Wall -Werror -Wno-long-long -Wno-unknown-pragmas -fmessage-length=0 -pipe -fomit-frame-pointer -fno-exceptions -Wstrict-prototypes -Wwrite-strings -Wredundant-decls -DXED_GIT_VERSION="v10.0-298-g2be2d28" -DXED_AMD_ENABLED -DXED_AVX -DXED_SUPPORTS_AVX512 -DXED_MPX -DXED_CET -DXED_SUPPORTS_SHA -DXED_SUPPORTS_WBNOINVD -DXED_DECODER -DXED_ENCODER -DXED_SUPPORTS_LZCNT_TZCNT -DXED_BUILD -c -o obj/xed-iclass-string.o /home/massimo/sources/xed/obj/xed-iclass-string.c
p1482
g3
(g4
g5
NtRp1483
(dp1484
g8
S'b35c3b3a7ebd47c0ec76f97fa5018c0f8e33642c'
p1485
sbsVMBUILD_COMMAND_KEY gcc -I./include/private -I./include/public -I./include/public/xed -Iobj -Iobj/include-private        -m64  -std=c99  -pedantic  -Wall -Werror -Wno-long-long -Wno-unknown-pragmas -fmessage-length=0 -pipe -fomit-frame-pointer -fno-exceptions -Wstrict-prototypes -Wwrite-strings -Wredundant-decls -DXED_GIT_VERSION="v10.0-298-g2be2d28" -DXED_AMD_ENABLED -DXED_AVX -DXED_SUPPORTS_AVX512 -DXED_MPX -DXED_CET -DXED_SUPPORTS_SHA -DXED_SUPPORTS_WBNOINVD -DXED_DECODER -DXED_ENCODER -DXED_SUPPORTS_LZCNT_TZCNT -DXED_BUILD -c -o obj/xed-syntax-enum.o /home/massimo/sources/xed/obj/xed-syntax-enum.c
p1486
g3
(g4
g5
NtRp1487
(dp1488
g8
S'6caf5209d7c3989f9843a374e80a50b6b9c209fc'
p1489
sbsS'/home/massimo/sources/xed/include/private/xed-flags-private.h'
p1490
g3
(g4
g5
NtRp1491
(dp1492
g8
S'4ab45545b53d064eae2e729bf54e5e0a72e3916e'
p1493
sbsVMBUILD_COMMAND_KEY gcc -I./include/private -I./include/public -I./include/public/xed -Iobj -Iobj/include-private        -m64  -std=c99  -pedantic  -Wall -Werror -Wno-long-long -Wno-unknown-pragmas -fmessage-length=0 -pipe -fomit-frame-pointer -fno-exceptions -Wstrict-prototypes -Wwrite-strings -Wredundant-decls -DXED_GIT_VERSION="v10.0-298-g2be2d28" -DXED_AMD_ENABLED -DXED_AVX -DXED_SUPPORTS_AVX512 -DXED_MPX -DXED_CET -DXED_SUPPORTS_SHA -DXED_SUPPORTS_WBNOINVD -DXED_DECODER -DXED_ENCODER -DXED_SUPPORTS_LZCNT_TZCNT -DXED_BUILD -c -o obj/xed-encoder-2.o /home/massimo/sources/xed/obj/xed-encoder-2.c
p1494
g3
(g4
g5
NtRp1495
(dp1496
g8
S'243d4b58c2158a60044f26ef840adabc74ea292a'
p1497
sbsS'/home/massimo/sources/xed/obj/xed-attributes-list.c'
p1498
g3
(g4
g5
NtRp1499
(dp1500
g8
S'4e41a4a3e9cac91f30b8e3315e1738fb726d5cdb'
p1501
sbsS'/home/massimo/sources/xed/obj/xed-ild-eosz.o'
p1502
g3
(g4
g5
NtRp1503
(dp1504
g8
S'286ad4ed45afa6c6ffd31190db66a44c07d3b255'
p1505
sbsS'/home/massimo/sources/xed/src/encdec/xed-patch.c'
p1506
g3
(g4
g5
NtRp1507
(dp1508
g8
S'01552a45b1ac488fa7f8186ec89dcc072f5d26ea'
p1509
sbsS'/home/massimo/sources/xed/obj/xed-ild-eosz.c'
p1510
g3
(g4
g5
NtRp1511
(dp1512
g8
S'db80fc4b786358052f8da570e109d4b4e9599b65'
p1513
sbsS'/home/massimo/sources/xed/src/common/xed-chip-modes-override.c'
p1514
g3
(g4
g5
NtRp1515
(dp1516
g8
S'5d067333be4241c66402a90ed2dc72285647d187'
p1517
sbsS'/home/massimo/sources/xed/obj/xed-patch.o'
p1518
g3
(g4
g5
NtRp1519
(dp1520
g8
S'99617fca007922f0b9a289339f8fae31ffc6acfc'
p1521
sbsS'/home/massimo/sources/xed/obj/xed-attributes-list.o'
p1522
g3
(g4
g5
NtRp1523
(dp1524
g8
S'1cbd32bdc031bd2da78cc73395a9b0e1deffb1a9'
p1525
sbsVMBUILD_COMMAND_KEY gcc -I./include/private -I./include/public -I./include/public/xed -Iobj -Iobj/include-private        -m64  -std=c99  -pedantic  -Wall -Werror -Wno-long-long -Wno-unknown-pragmas -fmessage-length=0 -pipe -fomit-frame-pointer -fno-exceptions -Wstrict-prototypes -Wwrite-strings -Wredundant-decls -DXED_GIT_VERSION="v10.0-298-g2be2d28" -DXED_AMD_ENABLED -DXED_AVX -DXED_SUPPORTS_AVX512 -DXED_MPX -DXED_CET -DXED_SUPPORTS_SHA -DXED_SUPPORTS_WBNOINVD -DXED_DECODER -DXED_ENCODER -DXED_SUPPORTS_LZCNT_TZCNT -DXED_BUILD -c -o obj/xed-patch.o /home/massimo/sources/xed/src/encdec/xed-patch.c
p1526
g3
(g4
g5
NtRp1527
(dp1528
g8
S'78322e8dd0b2ec6007758ccd8478d195e2b22ee8'
p1529
sbsS'/home/massimo/sources/xed/include/public/xed/xed-util.h'
p1530
g3
(g4
g5
NtRp1531
(dp1532
g8
S'44dc44d5d2eff7bec0a3f94cff0282fce37d56e0'
p1533
sbsS'/home/massimo/sources/xed/obj/xed-reg-role-enum.c'
p1534
g3
(g4
g5
NtRp1535
(dp1536
g8
S'1f672ff196f9eb43c33fbe34032274ad4c0d600f'
p1537
sbsVMBUILD_COMMAND_KEY gcc -I./include/private -I./include/public -I./include/public/xed -Iobj -Iobj/include-private        -m64  -std=c99  -pedantic  -Wall -Werror -Wno-long-long -Wno-unknown-pragmas -fmessage-length=0 -pipe -fomit-frame-pointer -fno-exceptions -Wstrict-prototypes -Wwrite-strings -Wredundant-decls -DXED_GIT_VERSION="v10.0-298-g2be2d28" -DXED_AMD_ENABLED -DXED_AVX -DXED_SUPPORTS_AVX512 -DXED_MPX -DXED_CET -DXED_SUPPORTS_SHA -DXED_SUPPORTS_WBNOINVD -DXED_DECODER -DXED_ENCODER -DXED_SUPPORTS_LZCNT_TZCNT -DXED_BUILD -c -o obj/xed3-phash-lu-vv2.o /home/massimo/sources/xed/obj/xed3-phash-lu-vv2.c
p1538
g3
(g4
g5
NtRp1539
(dp1540
g8
S'e28b4fe828b415b7bb005f95020939e2d5349a3b'
p1541
sbsS'/home/massimo/sources/xed/obj/xed-reg-role-enum.h'
p1542
g3
(g4
g5
NtRp1543
(dp1544
g8
S'c7fa06fafb254bc2224d6c9f03c8828b3c7e3cd8'
p1545
sbsVMBUILD_COMMAND_KEY gcc -I./include/private -I./include/public -I./include/public/xed -Iobj -Iobj/include-private        -m64  -std=c99  -pedantic  -Wall -Werror -Wno-long-long -Wno-unknown-pragmas -fmessage-length=0 -pipe -fomit-frame-pointer -fno-exceptions -Wstrict-prototypes -Wwrite-strings -Wredundant-decls -DXED_GIT_VERSION="v10.0-298-g2be2d28" -DXED_AMD_ENABLED -DXED_AVX -DXED_SUPPORTS_AVX512 -DXED_MPX -DXED_CET -DXED_SUPPORTS_SHA -DXED_SUPPORTS_WBNOINVD -DXED_DECODER -DXED_ENCODER -DXED_SUPPORTS_LZCNT_TZCNT -DXED_BUILD -c -o obj/xed-init-reg-class.o /home/massimo/sources/xed/obj/xed-init-reg-class.c
p1546
g3
(g4
g5
NtRp1547
(dp1548
g8
S'b2a729fa4fb78fdcf1e25c5d36a64e4a19f32cf8'
p1549
sbsS'/home/massimo/sources/xed/obj/xed-reg-role-enum.o'
p1550
g3
(g4
g5
NtRp1551
(dp1552
g8
S'1053d9f02137efebd0faf1717ba16b4683ec20d5'
p1553
sbsVMBUILD_COMMAND_KEY gcc -I./include/private -I./include/public -I./include/public/xed -Iobj -Iobj/include-private        -m64  -std=c99  -pedantic  -Wall -Werror -Wno-long-long -Wno-unknown-pragmas -fmessage-length=0 -pipe -fomit-frame-pointer -fno-exceptions -Wstrict-prototypes -Wwrite-strings -Wredundant-decls -DXED_GIT_VERSION="v10.0-298-g2be2d28" -DXED_AMD_ENABLED -DXED_AVX -DXED_SUPPORTS_AVX512 -DXED_MPX -DXED_CET -DXED_SUPPORTS_SHA -DXED_SUPPORTS_WBNOINVD -DXED_DECODER -DXED_ENCODER -DXED_SUPPORTS_LZCNT_TZCNT -DXED_BUILD -c -o obj/xed-encode-isa-functions.o /home/massimo/sources/xed/src/enc/xed-encode-isa-functions.c
p1554
g3
(g4
g5
NtRp1555
(dp1556
g8
S'0410a376f3b6fe0a90927fc8d45c2dcb87036738'
p1557
sbsS'/home/massimo/sources/xed/include/public/xed/xed-types.h'
p1558
g3
(g4
g5
NtRp1559
(dp1560
g8
S'd7d4e905d2ab6bf9d0544ef928f8786c0ee5cd9e'
p1561
sbsVMBUILD_COMMAND_KEY gcc -I./include/private -I./include/public -I./include/public/xed -Iobj -Iobj/include-private        -m64  -std=c99  -pedantic  -Wall -Werror -Wno-long-long -Wno-unknown-pragmas -fmessage-length=0 -pipe -fomit-frame-pointer -fno-exceptions -Wstrict-prototypes -Wwrite-strings -Wredundant-decls -DXED_GIT_VERSION="v10.0-298-g2be2d28" -DXED_AMD_ENABLED -DXED_AVX -DXED_SUPPORTS_AVX512 -DXED_MPX -DXED_CET -DXED_SUPPORTS_SHA -DXED_SUPPORTS_WBNOINVD -DXED_DECODER -DXED_ENCODER -DXED_SUPPORTS_LZCNT_TZCNT -DXED_BUILD -c -o obj/xed-rep-map.o /home/massimo/sources/xed/obj/xed-rep-map.c
p1562
g3
(g4
g5
NtRp1563
(dp1564
g8
S'fac379a3d00ceb4c81092c9f1d0ed2840bebeb90'
p1565
sbsVMBUILD_COMMAND_KEY gcc -I./include/private -I./include/public -I./include/public/xed -Iobj -Iobj/include-private        -m64  -std=c99  -pedantic  -Wall -Werror -Wno-long-long -Wno-unknown-pragmas -fmessage-length=0 -pipe -fomit-frame-pointer -fno-exceptions -Wstrict-prototypes -Wwrite-strings -Wredundant-decls -DXED_GIT_VERSION="v10.0-298-g2be2d28" -DXED_AMD_ENABLED -DXED_AVX -DXED_SUPPORTS_AVX512 -DXED_MPX -DXED_CET -DXED_SUPPORTS_SHA -DXED_SUPPORTS_WBNOINVD -DXED_DECODER -DXED_ENCODER -DXED_SUPPORTS_LZCNT_TZCNT -DXED_BUILD -c -o obj/xed-attribute-enum.o /home/massimo/sources/xed/obj/xed-attribute-enum.c
p1566
g3
(g4
g5
NtRp1567
(dp1568
g8
S'c1973eb03ca04d5a3496ca831a131f95c2889dbd'
p1569
sbsS'/home/massimo/sources/xed/obj/xed-ild-imm-l3.c'
p1570
g3
(g4
g5
NtRp1571
(dp1572
g8
S'019b929abb587672d41aa6118351e0e0a3c22d63'
p1573
sbsVMBUILD_COMMAND_KEY gcc -I./include/private -I./include/public -I./include/public/xed -Iobj -Iobj/include-private        -m64  -std=c99  -pedantic  -Wall -Werror -Wno-long-long -Wno-unknown-pragmas -fmessage-length=0 -pipe -fomit-frame-pointer -fno-exceptions -Wstrict-prototypes -Wwrite-strings -Wredundant-decls -DXED_GIT_VERSION="v10.0-298-g2be2d28" -DXED_AMD_ENABLED -DXED_AVX -DXED_SUPPORTS_AVX512 -DXED_MPX -DXED_CET -DXED_SUPPORTS_SHA -DXED_SUPPORTS_WBNOINVD -DXED_DECODER -DXED_ENCODER -DXED_SUPPORTS_LZCNT_TZCNT -DXED_BUILD -c -o obj/xed-extension-enum.o /home/massimo/sources/xed/obj/xed-extension-enum.c
p1574
g3
(g4
g5
NtRp1575
(dp1576
g8
S'900323ec0f6c844c07ccdf45d6840a2db29109db'
p1577
sbsS'/home/massimo/sources/xed/obj/include-private/xed-ild-imm-l2.h'
p1578
g3
(g4
g5
NtRp1579
(dp1580
g8
S'78b8913b7b52e666ebbe5cdfc605d24432afdfba'
p1581
sbsS'/home/massimo/sources/xed/obj/xed-ild-imm-l3.o'
p1582
g3
(g4
g5
NtRp1583
(dp1584
g8
S'211fcbe6fec2826651ea29bdc0db06beb5d857a2'
p1585
sbsVMBUILD_COMMAND_KEY gcc -I./include/private -I./include/public -I./include/public/xed -Iobj -Iobj/include-private        -m64  -std=c99  -pedantic  -Wall -Werror -Wno-long-long -Wno-unknown-pragmas -fmessage-length=0 -pipe -fomit-frame-pointer -fno-exceptions -Wstrict-prototypes -Wwrite-strings -Wredundant-decls -DXED_GIT_VERSION="v10.0-298-g2be2d28" -DXED_AMD_ENABLED -DXED_AVX -DXED_SUPPORTS_AVX512 -DXED_MPX -DXED_CET -DXED_SUPPORTS_SHA -DXED_SUPPORTS_WBNOINVD -DXED_DECODER -DXED_ENCODER -DXED_SUPPORTS_LZCNT_TZCNT -DXED_BUILD -c -o obj/xed-decoded-inst.o /home/massimo/sources/xed/src/dec/xed-decoded-inst.c
p1586
g3
(g4
g5
NtRp1587
(dp1588
g8
S'b2d2b24398e843f2ad30be24587ef1766b50d249'
p1589
sbsS'/home/massimo/sources/xed/src/common/xed-rep-prefix.c'
p1590
g3
(g4
g5
NtRp1591
(dp1592
g8
S'a5a7860ab853b926915db9819fc501fc6e5b28e4'
p1593
sbsS'/home/massimo/sources/xed/include/private/xed-disas-private.h'
p1594
g3
(g4
g5
NtRp1595
(dp1596
g8
S'f7bafa8e9823c63c2a1831d3febd687213f29814'
p1597
sbsS'/home/massimo/sources/xed/include/private/xed-encode-isa-functions.h'
p1598
g3
(g4
g5
NtRp1599
(dp1600
g8
S'6eee71f83ba2a400ff07cedf81bca547aac72cc9'
p1601
sbsVMBUILD_COMMAND_KEY gcc -I./include/private -I./include/public -I./include/public/xed -Iobj -Iobj/include-private        -m64  -std=c99  -pedantic  -Wall -Werror -Wno-long-long -Wno-unknown-pragmas -fmessage-length=0 -pipe -fomit-frame-pointer -fno-exceptions -Wstrict-prototypes -Wwrite-strings -Wredundant-decls -DXED_GIT_VERSION="v10.0-298-g2be2d28" -DXED_AMD_ENABLED -DXED_AVX -DXED_SUPPORTS_AVX512 -DXED_MPX -DXED_CET -DXED_SUPPORTS_SHA -DXED_SUPPORTS_WBNOINVD -DXED_DECODER -DXED_ENCODER -DXED_SUPPORTS_LZCNT_TZCNT -DXED_BUILD -c -o obj/xed-encoder-order-init.o /home/massimo/sources/xed/obj/xed-encoder-order-init.c
p1602
g3
(g4
g5
NtRp1603
(dp1604
g8
S'ad01f4fd424780e3429f64a34883c6e230cb949f'
p1605
sbsS'/home/massimo/sources/xed/obj/xed-decoded-init.o'
p1606
g3
(g4
g5
NtRp1607
(dp1608
g8
S'76bca82fcfd5cd5735bac5c32c4aad3761329fb6'
p1609
sbsVMBUILD_COMMAND_KEY gcc -I./include/private -I./include/public -I./include/public/xed -Iobj -Iobj/include-private        -m64  -std=c99  -pedantic  -Wall -Werror -Wno-long-long -Wno-unknown-pragmas -fmessage-length=0 -pipe -fomit-frame-pointer -fno-exceptions -Wstrict-prototypes -Wwrite-strings -Wredundant-decls -DXED_GIT_VERSION="v10.0-298-g2be2d28" -DXED_AMD_ENABLED -DXED_AVX -DXED_SUPPORTS_AVX512 -DXED_MPX -DXED_CET -DXED_SUPPORTS_SHA -DXED_SUPPORTS_WBNOINVD -DXED_DECODER -DXED_ENCODER -DXED_SUPPORTS_LZCNT_TZCNT -DXED_BUILD -c -o obj/xed-decoded-init.o /home/massimo/sources/xed/src/dec/xed-decoded-init.c
p1610
g3
(g4
g5
NtRp1611
(dp1612
g8
S'b7fea08d3054d4ab37802ba18b24cc52b9269e65'
p1613
sbsS'/home/massimo/sources/xed/include/private/xed-chip-features-private.h'
p1614
g3
(g4
g5
NtRp1615
(dp1616
g8
S'e741d223a463caf9bc273509a443962ab6f66dd5'
p1617
sbsS'/home/massimo/sources/xed/obj/include-private/xed3-phash.h'
p1618
g3
(g4
g5
NtRp1619
(dp1620
g8
S'db0ff93b3fac64e06a1a220e5c4393f0e2aedc1e'
p1621
sbsS'/home/massimo/sources/xed/src/enc/xed-encode-isa-functions.c'
p1622
g3
(g4
g5
NtRp1623
(dp1624
g8
S'f41bfe4866eb2b88fdd2b0568a40437cf75846fd'
p1625
sbsVMBUILD_COMMAND_KEY gcc -I./include/private -I./include/public -I./include/public/xed -Iobj -Iobj/include-private        -m64  -std=c99  -pedantic  -Wall -Werror -Wno-long-long -Wno-unknown-pragmas -fmessage-length=0 -pipe -fomit-frame-pointer -fno-exceptions -Wstrict-prototypes -Wwrite-strings -Wredundant-decls -DXED_GIT_VERSION="v10.0-298-g2be2d28" -DXED_AMD_ENABLED -DXED_AVX -DXED_SUPPORTS_AVX512 -DXED_MPX -DXED_CET -DXED_SUPPORTS_SHA -DXED_SUPPORTS_WBNOINVD -DXED_DECODER -DXED_ENCODER -DXED_SUPPORTS_LZCNT_TZCNT -DXED_BUILD -c -o obj/xed-ild-easz.o /home/massimo/sources/xed/obj/xed-ild-easz.c
p1626
g3
(g4
g5
NtRp1627
(dp1628
g8
S'e1ff1b2feac44cb95c6afa7e9c6e461084af4f91'
p1629
sbsS'/home/massimo/sources/xed/obj/xed-attribute-enum.o'
p1630
g3
(g4
g5
NtRp1631
(dp1632
g8
S'6c8bf813acf4bed4aec5444207b15ab6ccb0e7ff'
p1633
sbsS'/home/massimo/sources/xed/obj/xed-attribute-enum.h'
p1634
g3
(g4
g5
NtRp1635
(dp1636
g8
S'532742417ffa5b0e464f4aca50c26deeba101017'
p1637
sbsS'/home/massimo/sources/xed/obj/xed-attribute-enum.c'
p1638
g3
(g4
g5
NtRp1639
(dp1640
g8
S'948884013f6d11fe6b362b463b13a4f0cf378c1b'
p1641
sbsVMBUILD_COMMAND_KEY gcc -I./include/private -I./include/public -I./include/public/xed -Iobj -Iobj/include-private        -m64  -std=c99  -pedantic  -Wall -Werror -Wno-long-long -Wno-unknown-pragmas -fmessage-length=0 -pipe -fomit-frame-pointer -fno-exceptions -Wstrict-prototypes -Wwrite-strings -Wredundant-decls -DXED_GIT_VERSION="v10.0-298-g2be2d28" -DXED_AMD_ENABLED -DXED_AVX -DXED_SUPPORTS_AVX512 -DXED_MPX -DXED_CET -DXED_SUPPORTS_SHA -DXED_SUPPORTS_WBNOINVD -DXED_DECODER -DXED_ENCODER -DXED_SUPPORTS_LZCNT_TZCNT -DXED_BUILD -c -o obj/xed-immed.o /home/massimo/sources/xed/src/common/xed-immed.c
p1642
g3
(g4
g5
NtRp1643
(dp1644
g8
S'1ae616230f91b82f18a3c06a71b2350ace1d434b'
p1645
sbsS'/home/massimo/sources/xed/obj/xed-encoder-iforms-init.c'
p1646
g3
(g4
g5
NtRp1647
(dp1648
g8
S'd97d4c61157bdae32906d40fb9254b88ac3b499d'
p1649
sbsVMBUILD_COMMAND_KEY gcc -I./include/private -I./include/public -I./include/public/xed -Iobj -Iobj/include-private        -m64  -std=c99  -pedantic  -Wall -Werror -Wno-long-long -Wno-unknown-pragmas -fmessage-length=0 -pipe -fomit-frame-pointer -fno-exceptions -Wstrict-prototypes -Wwrite-strings -Wredundant-decls -DXED_GIT_VERSION="v10.0-298-g2be2d28" -DXED_AMD_ENABLED -DXED_AVX -DXED_SUPPORTS_AVX512 -DXED_MPX -DXED_CET -DXED_SUPPORTS_SHA -DXED_SUPPORTS_WBNOINVD -DXED_DECODER -DXED_ENCODER -DXED_SUPPORTS_LZCNT_TZCNT -DXED_BUILD -c -o obj/xed-flag-action-enum.o /home/massimo/sources/xed/obj/xed-flag-action-enum.c
p1650
g3
(g4
g5
NtRp1651
(dp1652
g8
S'1855dd03debfbfcd2e2dbf304e5dc548b8327e83'
p1653
sbsS'/home/massimo/sources/xed/obj/xed-encoder-iforms-init.o'
p1654
g3
(g4
g5
NtRp1655
(dp1656
g8
S'145078fefa77787ea12928b06a46ee478667c5d6'
p1657
sbsVMBUILD_COMMAND_KEY gcc -I./include/private -I./include/public -I./include/public/xed -Iobj -Iobj/include-private        -m64  -std=c99  -pedantic  -Wall -Werror -Wno-long-long -Wno-unknown-pragmas -fmessage-length=0 -pipe -fomit-frame-pointer -fno-exceptions -Wstrict-prototypes -Wwrite-strings -Wredundant-decls -DXED_GIT_VERSION="v10.0-298-g2be2d28" -DXED_AMD_ENABLED -DXED_AVX -DXED_SUPPORTS_AVX512 -DXED_MPX -DXED_CET -DXED_SUPPORTS_SHA -DXED_SUPPORTS_WBNOINVD -DXED_DECODER -DXED_ENCODER -DXED_SUPPORTS_LZCNT_TZCNT -DXED_BUILD -c -o obj/xed-init-operand-data.o /home/massimo/sources/xed/obj/xed-init-operand-data.c
p1658
g3
(g4
g5
NtRp1659
(dp1660
g8
S'7c159e93fb5190288d69951b87acdc357ba1412b'
p1661
sbsS'/home/massimo/sources/xed/obj/xed-operand-action-enum.c'
p1662
g3
(g4
g5
NtRp1663
(dp1664
g8
S'c3d7f75cae7eea8af72d1369cc720f83e252730a'
p1665
sbsS'/home/massimo/sources/xed/obj/xed-operand-action-enum.h'
p1666
g3
(g4
g5
NtRp1667
(dp1668
g8
S'1391b7ac83954d7f2f9a29dd3183f3a76a721b05'
p1669
sbsVMBUILD_COMMAND_KEY gcc -I./include/private -I./include/public -I./include/public/xed -Iobj -Iobj/include-private        -m64  -std=c99  -pedantic  -Wall -Werror -Wno-long-long -Wno-unknown-pragmas -fmessage-length=0 -pipe -fomit-frame-pointer -fno-exceptions -Wstrict-prototypes -Wwrite-strings -Wredundant-decls -DXED_GIT_VERSION="v10.0-298-g2be2d28" -DXED_AMD_ENABLED -DXED_AVX -DXED_SUPPORTS_AVX512 -DXED_MPX -DXED_CET -DXED_SUPPORTS_SHA -DXED_SUPPORTS_WBNOINVD -DXED_DECODER -DXED_ENCODER -DXED_SUPPORTS_LZCNT_TZCNT -DXED_BUILD -c -o obj/xed-operand-element-xtype-enum.o /home/massimo/sources/xed/obj/xed-operand-element-xtype-enum.c
p1670
g3
(g4
g5
NtRp1671
(dp1672
g8
S'77a1528ec153ead8441f27ff14693f4bec4a85ba'
p1673
sbsS'/home/massimo/sources/xed/obj/xed-operand-action-enum.o'
p1674
g3
(g4
g5
NtRp1675
(dp1676
g8
S'4b692ffb1ffdd07b1a7b60b6c6a18d66ea23e4e1'
p1677
sbsS'/home/massimo/sources/xed/obj/xed-convert-table-init.c'
p1678
g3
(g4
g5
NtRp1679
(dp1680
g8
S'f180e1351e21a66e81440c9b76db6957fbf7d2a6'
p1681
sbsS'/home/massimo/sources/xed/obj/xed-convert-table-init.o'
p1682
g3
(g4
g5
NtRp1683
(dp1684
g8
S'7a591e4f975ff82912ee1386b7b94a0413b376bd'
p1685
sbsS'/home/massimo/sources/xed/obj/xed-convert-table-init.h'
p1686
g3
(g4
g5
NtRp1687
(dp1688
g8
S'1fa6e517d2c62948d93ae8bd249b52d8ae73be63'
p1689
sbsS'/home/massimo/sources/xed/obj/xed-isa-set-enum.o'
p1690
g3
(g4
g5
NtRp1691
(dp1692
g8
S'998c3e3265d3d3e796acecedf2c998e3b498b24f'
p1693
sbsS'/home/massimo/sources/xed/src/dec/xed-inst.c'
p1694
g3
(g4
g5
NtRp1695
(dp1696
g8
S'28f9af22807111703b45b59fafcfa9c2a941681d'
p1697
sbsS'/home/massimo/sources/xed/obj/xed-isa-set-enum.h'
p1698
g3
(g4
g5
NtRp1699
(dp1700
g8
S'7ba184c28389c15fd3b466f5bdf5babfe7f751a5'
p1701
sbsS'/home/massimo/sources/xed/obj/xed-isa-set-enum.c'
p1702
g3
(g4
g5
NtRp1703
(dp1704
g8
S'3a7cc3ed9427c78933d749345a838b85664d2727'
p1705
sbsS'/home/massimo/sources/xed/include/private/xed-chip-modes.h'
p1706
g3
(g4
g5
NtRp1707
(dp1708
g8
S'37e2babd4141e154a68e32e636fcf9021722d240'
p1709
sbsS'/home/massimo/sources/xed/src/dec/xed-decode.c'
p1710
g3
(g4
g5
NtRp1711
(dp1712
g8
S'883f5643138ad9fcac8032cb7aafa677583e2448'
p1713
sbsS'/home/massimo/sources/xed/obj/xed-chip-features-table.c'
p1714
g3
(g4
g5
NtRp1715
(dp1716
g8
S'4d3d20a2e7b6afea4ab7505f004fcdab50c19ed2'
p1717
sbsS'/home/massimo/sources/xed/obj/include-private/xed3-op-chain-capture.h'
p1718
g3
(g4
g5
NtRp1719
(dp1720
g8
S'b4151bb654e93217b13638c9fa9b0ff5d03920b7'
p1721
sbsS'/home/massimo/sources/xed/obj/xed-operand-enum.c'
p1722
g3
(g4
g5
NtRp1723
(dp1724
g8
S'5d87771086008a45bdf8aaabc0e2e46b6c955afc'
p1725
sbsS'/home/massimo/sources/xed/obj/xed-cpuid-tables.c'
p1726
g3
(g4
g5
NtRp1727
(dp1728
g8
S'67eb5395cb1c68ffd05480fd9577c683532ac95b'
p1729
sbsS'/home/massimo/sources/xed/include/public/xed/xed-decode.h'
p1730
g3
(g4
g5
NtRp1731
(dp1732
g8
S'5f34d36ae747485d13e597f98cb7249d2fd1b86e'
p1733
sbsS'/home/massimo/sources/xed/obj/xed-operand-element-xtype-enum.h'
p1734
g3
(g4
g5
NtRp1735
(dp1736
g8
S'3b003047ab3b19bf3bb6bc146fc112ab4861dc75'
p1737
sbsS'/home/massimo/sources/xed/obj/xed-operand-element-xtype-enum.o'
p1738
g3
(g4
g5
NtRp1739
(dp1740
g8
S'743bc4a5a282b5af5d2695c7672b60a84b306bf8'
p1741
sbsS'/home/massimo/sources/xed/obj/xed-operand-element-xtype-enum.c'
p1742
g3
(g4
g5
NtRp1743
(dp1744
g8
S'b1875e6a3d99210d5e429dbe3e6a6333cbaa0eb2'
p1745
sbsS'/home/massimo/sources/xed/src/enc/xed-encoder-hl.c'
p1746
g3
(g4
g5
NtRp1747
(dp1748
g8
S'70b75be776bbaeff537467166119b1bbe6d2bdf2'
p1749
sbsVMBUILD_COMMAND_KEY gcc -I./include/private -I./include/public -I./include/public/xed -Iobj -Iobj/include-private        -m64  -std=c99  -pedantic  -Wall -Werror -Wno-long-long -Wno-unknown-pragmas -fmessage-length=0 -pipe -fomit-frame-pointer -fno-exceptions -Wstrict-prototypes -Wwrite-strings -Wredundant-decls -DXED_GIT_VERSION="v10.0-298-g2be2d28" -DXED_AMD_ENABLED -DXED_AVX -DXED_SUPPORTS_AVX512 -DXED_MPX -DXED_CET -DXED_SUPPORTS_SHA -DXED_SUPPORTS_WBNOINVD -DXED_DECODER -DXED_ENCODER -DXED_SUPPORTS_LZCNT_TZCNT -DXED_BUILD -c -o obj/xed-reg-class.o /home/massimo/sources/xed/src/common/xed-reg-class.c
p1750
g3
(g4
g5
NtRp1751
(dp1752
g8
S'302214a7b3e418038429498d80f6af7c0fa4530d'
p1753
sbsS'/home/massimo/sources/xed/obj/xed-chip-modes.o'
p1754
g3
(g4
g5
NtRp1755
(dp1756
g8
S'e17e7dfb6fb0c8aa2b9bc4c9b477ba37563c0aa8'
p1757
sbsS'/home/massimo/sources/xed/obj/include-private/xed3-phash-lu-vv1.h'
p1758
g3
(g4
g5
NtRp1759
(dp1760
g8
S'59a32dcfac2815c4a69fbed1dc9941a32e66a919'
p1761
sbsVMBUILD_COMMAND_KEY gcc -I./include/private -I./include/public -I./include/public/xed -Iobj -Iobj/include-private        -m64  -std=c99  -pedantic  -Wall -Werror -Wno-long-long -Wno-unknown-pragmas -fmessage-length=0 -pipe -fomit-frame-pointer -fno-exceptions -Wstrict-prototypes -Wwrite-strings -Wredundant-decls -DXED_GIT_VERSION="v10.0-298-g2be2d28" -DXED_AMD_ENABLED -DXED_AVX -DXED_SUPPORTS_AVX512 -DXED_MPX -DXED_CET -DXED_SUPPORTS_SHA -DXED_SUPPORTS_WBNOINVD -DXED_DECODER -DXED_ENCODER -DXED_SUPPORTS_LZCNT_TZCNT -DXED_BUILD -c -o obj/xed-operand-values-interface-uisa.o /home/massimo/sources/xed/datafiles/knc/xed-operand-values-interface-uisa.c
p1762
g3
(g4
g5
NtRp1763
(dp1764
g8
S'923eb736713b812d51cebaefdf9fd4ca163822d1'
p1765
sbsVMBUILD_COMMAND_KEY gcc -I./include/private -I./include/public -I./include/public/xed -Iobj -Iobj/include-private        -m64  -std=c99  -pedantic  -Wall -Werror -Wno-long-long -Wno-unknown-pragmas -fmessage-length=0 -pipe -fomit-frame-pointer -fno-exceptions -Wstrict-prototypes -Wwrite-strings -Wredundant-decls -DXED_GIT_VERSION="v10.0-298-g2be2d28" -DXED_AMD_ENABLED -DXED_AVX -DXED_SUPPORTS_AVX512 -DXED_MPX -DXED_CET -DXED_SUPPORTS_SHA -DXED_SUPPORTS_WBNOINVD -DXED_DECODER -DXED_ENCODER -DXED_SUPPORTS_LZCNT_TZCNT -DXED_BUILD -c -o obj/xed-inst.o /home/massimo/sources/xed/src/dec/xed-inst.c
p1766
g3
(g4
g5
NtRp1767
(dp1768
g8
S'c47184ca5b98df32d3f657b7dbf567af5b97bc30'
p1769
sbsS'/home/massimo/sources/xed/obj/xed-decoded-inst.o'
p1770
g3
(g4
g5
NtRp1771
(dp1772
g8
S'325394c4b1bb8b78ad0bb25faf6d16ae8e23375d'
p1773
sbsS'/home/massimo/sources/xed/obj/include-private/xed3-phash-lu-vv3.h'
p1774
g3
(g4
g5
NtRp1775
(dp1776
g8
S'e1a2c11025f09ce94305c5405116e8c05fae04da'
p1777
sbsS'/home/massimo/sources/xed/obj/xed-state.o'
p1778
g3
(g4
g5
NtRp1779
(dp1780
g8
S'f3f7f1c3d9b8db807c7a33f0016d148fe4681388'
p1781
sbsVMBUILD_COMMAND_KEY gcc -I./include/private -I./include/public -I./include/public/xed -Iobj -Iobj/include-private        -m64  -std=c99  -pedantic  -Wall -Werror -Wno-long-long -Wno-unknown-pragmas -fmessage-length=0 -pipe -fomit-frame-pointer -fno-exceptions -Wstrict-prototypes -Wwrite-strings -Wredundant-decls -DXED_GIT_VERSION="v10.0-298-g2be2d28" -DXED_AMD_ENABLED -DXED_AVX -DXED_SUPPORTS_AVX512 -DXED_MPX -DXED_CET -DXED_SUPPORTS_SHA -DXED_SUPPORTS_WBNOINVD -DXED_DECODER -DXED_ENCODER -DXED_SUPPORTS_LZCNT_TZCNT -DXED_BUILD -c -o obj/xed-immdis.o /home/massimo/sources/xed/src/common/xed-immdis.c
p1782
g3
(g4
g5
NtRp1783
(dp1784
g8
S'fe77eefc13c323e7c246f62bef9e1479bfe344ae'
p1785
sbsS'/home/massimo/sources/xed/obj/xed-disas.o'
p1786
g3
(g4
g5
NtRp1787
(dp1788
g8
S'9b55ae9fb9b6ad489f2adb41032960983d0d81b9'
p1789
sbsS'/home/massimo/sources/xed/obj/xed-encoder-init.o'
p1790
g3
(g4
g5
NtRp1791
(dp1792
g8
S'323b67be9e8cef724717c5c296709d97ad45cc6f'
p1793
sbsS'/home/massimo/sources/xed/obj/xed-exception-enum.h'
p1794
g3
(g4
g5
NtRp1795
(dp1796
g8
S'5aae2af2011589350425ed2d87bd03c432334e9f'
p1797
sbsS'/home/massimo/sources/xed/include/public/xed/xed-common-hdrs.h'
p1798
g3
(g4
g5
NtRp1799
(dp1800
g8
S'f506a49141ccd58136d7530f77b711286b2c76e8'
p1801
sbsS'/home/massimo/sources/xed/obj/xed-exception-enum.o'
p1802
g3
(g4
g5
NtRp1803
(dp1804
g8
S'f7a55bd720af161f64294188e2b54cec1115299d'
p1805
sbsS'/home/massimo/sources/xed/obj/include-private/xed-ild-easz-getters.h'
p1806
g3
(g4
g5
NtRp1807
(dp1808
g8
S'0c3dede3de2030fff65821c1e9ce9f0874b96c8d'
p1809
sbsS'/home/massimo/sources/xed/obj/xed-operand-ctype-map.o'
p1810
g3
(g4
g5
NtRp1811
(dp1812
g8
S'25fb00d49750925fa539517a63e18a5201f898ca'
p1813
sbsS'/home/massimo/sources/xed/obj/xed-operand-ctype-map.h'
p1814
g3
(g4
g5
NtRp1815
(dp1816
g8
S'8c33b9964a008e941da5325156c2c78aeda47197'
p1817
sbsVMBUILD_COMMAND_KEY gcc -I./include/private -I./include/public -I./include/public/xed -Iobj -Iobj/include-private        -m64  -std=c99  -pedantic  -Wall -Werror -Wno-long-long -Wno-unknown-pragmas -fmessage-length=0 -pipe -fomit-frame-pointer -fno-exceptions -Wstrict-prototypes -Wwrite-strings -Wredundant-decls -DXED_GIT_VERSION="v10.0-298-g2be2d28" -DXED_AMD_ENABLED -DXED_AVX -DXED_SUPPORTS_AVX512 -DXED_MPX -DXED_CET -DXED_SUPPORTS_SHA -DXED_SUPPORTS_WBNOINVD -DXED_DECODER -DXED_ENCODER -DXED_SUPPORTS_LZCNT_TZCNT -DXED_BUILD -c -o obj/xed-operand-accessors.o /home/massimo/sources/xed/obj/xed-operand-accessors.c
p1818
g3
(g4
g5
NtRp1819
(dp1820
g8
S'b18b2d43b71de3cbb080dc4d670f7c380207a57f'
p1821
sbsS'/home/massimo/sources/xed/include/public/xed/xed-inst.h'
p1822
g3
(g4
g5
NtRp1823
(dp1824
g8
S'377120e0f0abcb5a11af156ce3604ae704ad58fc'
p1825
sbsS'/home/massimo/sources/xed/obj/xed-table-sizes.o'
p1826
g3
(g4
g5
NtRp1827
(dp1828
g8
S'71b2aeabd03f554b56fa26dc435812a25950af48'
p1829
sbsS'/home/massimo/sources/xed/obj/xed-operand-ctype-map.c'
p1830
g3
(g4
g5
NtRp1831
(dp1832
g8
S'03f1a10e2f8d28254214679a4a177effcf09e626'
p1833
sbsS'/home/massimo/sources/xed/obj/xed-cpuid-bit-enum.c'
p1834
g3
(g4
g5
NtRp1835
(dp1836
g8
S'a6ca47a1a462522b09f204a496229e29f6ffadac'
p1837
sbsS'/home/massimo/sources/xed/src/common/xed-chip-modes.c'
p1838
g3
(g4
g5
NtRp1839
(dp1840
g8
S'e56ffd451e8f42cba354045112ef385f8c071912'
p1841
sbsS'/home/massimo/sources/xed/obj/xed-syntax-enum.o'
p1842
g3
(g4
g5
NtRp1843
(dp1844
g8
S'b6e5bcf2ee4b632c581db7e46d6a18a72f99f7e9'
p1845
sbsS'/home/massimo/sources/xed/obj/xed-syntax-enum.h'
p1846
g3
(g4
g5
NtRp1847
(dp1848
g8
S'0e9e5ad65002287dddce7b827acea3c5e3f8a424'
p1849
sbsS'/home/massimo/sources/xed/obj/xed-syntax-enum.c'
p1850
g3
(g4
g5
NtRp1851
(dp1852
g8
S'2128545e93964d51305b7e9bfdcb2e61d4dadb25'
p1853
sbsVMBUILD_COMMAND_KEY gcc -I./include/private -I./include/public -I./include/public/xed -Iobj -Iobj/include-private        -m64  -std=c99  -pedantic  -Wall -Werror -Wno-long-long -Wno-unknown-pragmas -fmessage-length=0 -pipe -fomit-frame-pointer -fno-exceptions -Wstrict-prototypes -Wwrite-strings -Wredundant-decls -DXED_GIT_VERSION="v10.0-298-g2be2d28" -DXED_AMD_ENABLED -DXED_AVX -DXED_SUPPORTS_AVX512 -DXED_MPX -DXED_CET -DXED_SUPPORTS_SHA -DXED_SUPPORTS_WBNOINVD -DXED_DECODER -DXED_ENCODER -DXED_SUPPORTS_LZCNT_TZCNT -DXED_BUILD -c -o obj/xed-rep-prefix.o /home/massimo/sources/xed/src/common/xed-rep-prefix.c
p1854
g3
(g4
g5
NtRp1855
(dp1856
g8
S'8b26132dfb77be8648dde5d284ee6e55f5471052'
p1857
sbsS'/home/massimo/sources/xed/src/common/xed-init.c'
p1858
g3
(g4
g5
NtRp1859
(dp1860
g8
S'62e33fe673af4fcead25b3391e2b5f731f16d721'
p1861
sbsS'/home/massimo/sources/xed/obj/xed-reg-class.o'
p1862
g3
(g4
g5
NtRp1863
(dp1864
g8
S'86eb28f8871f32e679fb4db4c7493cbb6413b392'
p1865
sbs.